ARM GAS  C:\Users\Clayton\AppData\Local\Temp\ccmfCvn2.s 			page 1


   1              		.cpu cortex-m0
   2              		.fpu softvfp
   3              		.eabi_attribute 20, 1
   4              		.eabi_attribute 21, 1
   5              		.eabi_attribute 23, 3
   6              		.eabi_attribute 24, 1
   7              		.eabi_attribute 25, 1
   8              		.eabi_attribute 26, 1
   9              		.eabi_attribute 30, 6
  10              		.eabi_attribute 34, 0
  11              		.eabi_attribute 18, 4
  12              		.code	16
  13              		.file	"Scheduler.c"
  14              		.text
  15              	.Ltext0:
  16              		.cfi_sections	.debug_frame
  17              		.comm	gpsIncoming,80,4
  18              		.section	.text.initTodoList,"ax",%progbits
  19              		.align	2
  20              		.global	initTodoList
  21              		.code	16
  22              		.thumb_func
  23              		.type	initTodoList, %function
  24              	initTodoList:
  25              	.LFB33:
  26              		.file 1 ".\\Scheduler.c"
   1:.\Scheduler.c **** /* ========================================
   2:.\Scheduler.c ****  *
   3:.\Scheduler.c ****  * Copyright YOUR COMPANY, THE YEAR
   4:.\Scheduler.c ****  * All Rights Reserved
   5:.\Scheduler.c ****  * UNPUBLISHED, LICENSED SOFTWARE.
   6:.\Scheduler.c ****  *
   7:.\Scheduler.c ****  * CONFIDENTIAL AND PROPRIETARY INFORMATION
   8:.\Scheduler.c ****  * WHICH IS THE PROPERTY OF your company.
   9:.\Scheduler.c ****  *
  10:.\Scheduler.c ****  * ========================================
  11:.\Scheduler.c **** */
  12:.\Scheduler.c **** #include "Scheduler.h"
  13:.\Scheduler.c **** 
  14:.\Scheduler.c **** void initTodoList(ToDoList* todo)
  15:.\Scheduler.c **** {
  27              		.loc 1 15 0
  28              		.cfi_startproc
  29 0000 80B5     		push	{r7, lr}
  30              		.cfi_def_cfa_offset 8
  31              		.cfi_offset 7, -8
  32              		.cfi_offset 14, -4
  33 0002 82B0     		sub	sp, sp, #8
  34              		.cfi_def_cfa_offset 16
  35 0004 00AF     		add	r7, sp, #0
  36              		.cfi_def_cfa_register 7
  37 0006 7860     		str	r0, [r7, #4]
  16:.\Scheduler.c ****     todo->gimbalPan = 0;
  38              		.loc 1 16 0
  39 0008 7B68     		ldr	r3, [r7, #4]
  40 000a 0022     		mov	r2, #0
  41 000c 9A80     		strh	r2, [r3, #4]
ARM GAS  C:\Users\Clayton\AppData\Local\Temp\ccmfCvn2.s 			page 2


  17:.\Scheduler.c ****     todo->gimbalTilt = 0;
  42              		.loc 1 17 0
  43 000e 7B68     		ldr	r3, [r7, #4]
  44 0010 0022     		mov	r2, #0
  45 0012 DA80     		strh	r2, [r3, #6]
  18:.\Scheduler.c ****     todo->leftWheels = 0;
  46              		.loc 1 18 0
  47 0014 7B68     		ldr	r3, [r7, #4]
  48 0016 0022     		mov	r2, #0
  49 0018 1A80     		strh	r2, [r3]
  19:.\Scheduler.c ****     todo->rightWheels = 0;
  50              		.loc 1 19 0
  51 001a 7B68     		ldr	r3, [r7, #4]
  52 001c 0022     		mov	r2, #0
  53 001e 5A80     		strh	r2, [r3, #2]
  20:.\Scheduler.c **** }
  54              		.loc 1 20 0
  55 0020 BD46     		mov	sp, r7
  56 0022 02B0     		add	sp, sp, #8
  57              		@ sp needed
  58 0024 80BD     		pop	{r7, pc}
  59              		.cfi_endproc
  60              	.LFE33:
  61              		.size	initTodoList, .-initTodoList
  62 0026 C046     		.section	.text.initReport,"ax",%progbits
  63              		.align	2
  64              		.global	initReport
  65              		.code	16
  66              		.thumb_func
  67              		.type	initReport, %function
  68              	initReport:
  69              	.LFB34:
  21:.\Scheduler.c **** 
  22:.\Scheduler.c **** void initReport(Report* report)
  23:.\Scheduler.c **** {
  70              		.loc 1 23 0
  71              		.cfi_startproc
  72 0000 80B5     		push	{r7, lr}
  73              		.cfi_def_cfa_offset 8
  74              		.cfi_offset 7, -8
  75              		.cfi_offset 14, -4
  76 0002 82B0     		sub	sp, sp, #8
  77              		.cfi_def_cfa_offset 16
  78 0004 00AF     		add	r7, sp, #0
  79              		.cfi_def_cfa_register 7
  80 0006 7860     		str	r0, [r7, #4]
  24:.\Scheduler.c ****     report->gimbalPan = 0;
  81              		.loc 1 24 0
  82 0008 7B68     		ldr	r3, [r7, #4]
  83 000a 0022     		mov	r2, #0
  84 000c 9A80     		strh	r2, [r3, #4]
  25:.\Scheduler.c ****     report->gimbalTilt = 0;
  85              		.loc 1 25 0
  86 000e 7B68     		ldr	r3, [r7, #4]
  87 0010 0022     		mov	r2, #0
  88 0012 DA80     		strh	r2, [r3, #6]
  26:.\Scheduler.c ****     memset(report->gpsData, 0, CHAR_ARRAY_MAX_SIZE);
ARM GAS  C:\Users\Clayton\AppData\Local\Temp\ccmfCvn2.s 			page 3


  89              		.loc 1 26 0
  90 0014 7B68     		ldr	r3, [r7, #4]
  91 0016 0833     		add	r3, r3, #8
  92 0018 181C     		mov	r0, r3
  93 001a 0021     		mov	r1, #0
  94 001c 5022     		mov	r2, #80
  95 001e FFF7FEFF 		bl	memset
  27:.\Scheduler.c ****     report->leftWheels = 0;
  96              		.loc 1 27 0
  97 0022 7B68     		ldr	r3, [r7, #4]
  98 0024 0022     		mov	r2, #0
  99 0026 1A80     		strh	r2, [r3]
  28:.\Scheduler.c ****     report->rightWheels = 0;
 100              		.loc 1 28 0
 101 0028 7B68     		ldr	r3, [r7, #4]
 102 002a 0022     		mov	r2, #0
 103 002c 5A80     		strh	r2, [r3, #2]
  29:.\Scheduler.c **** }
 104              		.loc 1 29 0
 105 002e BD46     		mov	sp, r7
 106 0030 02B0     		add	sp, sp, #8
 107              		@ sp needed
 108 0032 80BD     		pop	{r7, pc}
 109              		.cfi_endproc
 110              	.LFE34:
 111              		.size	initReport, .-initReport
 112              		.comm	taskSchedulerState,1,1
 113              		.section	.text.taskScheduler,"ax",%progbits
 114              		.align	2
 115              		.global	taskScheduler
 116              		.code	16
 117              		.thumb_func
 118              		.type	taskScheduler, %function
 119              	taskScheduler:
 120              	.LFB35:
  30:.\Scheduler.c **** 
  31:.\Scheduler.c **** enum taskSchedulerStates {init_taskScheduler, read, update, report, wait} taskSchedulerState;
  32:.\Scheduler.c **** 
  33:.\Scheduler.c **** void taskScheduler()
  34:.\Scheduler.c **** {
 121              		.loc 1 34 0
 122              		.cfi_startproc
 123 0000 80B5     		push	{r7, lr}
 124              		.cfi_def_cfa_offset 8
 125              		.cfi_offset 7, -8
 126              		.cfi_offset 14, -4
 127 0002 00AF     		add	r7, sp, #0
 128              		.cfi_def_cfa_register 7
  35:.\Scheduler.c ****     //State Actions
  36:.\Scheduler.c ****     switch (taskSchedulerState) 
 129              		.loc 1 36 0
 130 0004 0C4B     		ldr	r3, .L20
 131 0006 1B78     		ldrb	r3, [r3]
 132 0008 042B     		cmp	r3, #4
 133 000a 05D8     		bhi	.L4
 134 000c 9A00     		lsl	r2, r3, #2
 135 000e 0B4B     		ldr	r3, .L20+4
ARM GAS  C:\Users\Clayton\AppData\Local\Temp\ccmfCvn2.s 			page 4


 136 0010 D318     		add	r3, r2, r3
 137 0012 1B68     		ldr	r3, [r3]
 138 0014 9F46     		mov	pc, r3
 139              		.section	.rodata
 140              		.align	2
 141              	.L6:
 142 0000 16000000 		.word	.L18
 143 0004 16000000 		.word	.L18
 144 0008 16000000 		.word	.L18
 145 000c 16000000 		.word	.L18
 146 0010 16000000 		.word	.L18
 147              		.section	.text.taskScheduler
 148              	.L18:
  37:.\Scheduler.c ****     {
  38:.\Scheduler.c ****         case init_taskScheduler:
  39:.\Scheduler.c ****             
  40:.\Scheduler.c ****         break;
  41:.\Scheduler.c ****         case read:
  42:.\Scheduler.c ****         //Take top Package off of Wiznet Buffer
  43:.\Scheduler.c ****         //Open it up
  44:.\Scheduler.c ****         //Parse and save all pieces of data into ToDo list struct
  45:.\Scheduler.c ****         break;
  46:.\Scheduler.c ****         case update:
  47:.\Scheduler.c ****         //Write var to pwm components
  48:.\Scheduler.c ****         //Switch camera
  49:.\Scheduler.c ****         break;
  50:.\Scheduler.c ****         case report:
  51:.\Scheduler.c ****         
  52:.\Scheduler.c ****         break;
  53:.\Scheduler.c ****         case wait:
  54:.\Scheduler.c ****         
  55:.\Scheduler.c ****         break;
 149              		.loc 1 55 0
 150 0016 C046     		mov	r8, r8
 151              	.L4:
  56:.\Scheduler.c ****     }    
  57:.\Scheduler.c ****        
  58:.\Scheduler.c ****     //Transitions
  59:.\Scheduler.c ****     switch(taskSchedulerState)
 152              		.loc 1 59 0
 153 0018 074B     		ldr	r3, .L20
 154 001a 1B78     		ldrb	r3, [r3]
 155 001c 042B     		cmp	r3, #4
 156 001e 09D8     		bhi	.L3
 157 0020 9A00     		lsl	r2, r3, #2
 158 0022 074B     		ldr	r3, .L20+8
 159 0024 D318     		add	r3, r2, r3
 160 0026 1B68     		ldr	r3, [r3]
 161 0028 9F46     		mov	pc, r3
 162              		.section	.rodata
 163              		.align	2
 164              	.L13:
 165 0014 2A000000 		.word	.L12
 166 0018 32000000 		.word	.L19
 167 001c 32000000 		.word	.L19
 168 0020 32000000 		.word	.L19
 169 0024 32000000 		.word	.L19
ARM GAS  C:\Users\Clayton\AppData\Local\Temp\ccmfCvn2.s 			page 5


 170              		.section	.text.taskScheduler
 171              	.L12:
  60:.\Scheduler.c ****     {
  61:.\Scheduler.c ****         case init_taskScheduler:
  62:.\Scheduler.c ****             taskSchedulerState = wait;
 172              		.loc 1 62 0
 173 002a 034B     		ldr	r3, .L20
 174 002c 0422     		mov	r2, #4
 175 002e 1A70     		strb	r2, [r3]
  63:.\Scheduler.c ****         break;
 176              		.loc 1 63 0
 177 0030 00E0     		b	.L3
 178              	.L19:
  64:.\Scheduler.c ****         case read:
  65:.\Scheduler.c ****         
  66:.\Scheduler.c ****         break;
  67:.\Scheduler.c ****         case update:
  68:.\Scheduler.c ****         
  69:.\Scheduler.c ****         break;
  70:.\Scheduler.c ****         case report:
  71:.\Scheduler.c ****         
  72:.\Scheduler.c ****         break;
  73:.\Scheduler.c ****         case wait:
  74:.\Scheduler.c ****             
  75:.\Scheduler.c ****         break;
 179              		.loc 1 75 0
 180 0032 C046     		mov	r8, r8
 181              	.L3:
  76:.\Scheduler.c ****         
  77:.\Scheduler.c ****     }
  78:.\Scheduler.c ****     
  79:.\Scheduler.c **** }
 182              		.loc 1 79 0
 183 0034 BD46     		mov	sp, r7
 184              		@ sp needed
 185 0036 80BD     		pop	{r7, pc}
 186              	.L21:
 187              		.align	2
 188              	.L20:
 189 0038 00000000 		.word	taskSchedulerState
 190 003c 00000000 		.word	.L6
 191 0040 14000000 		.word	.L13
 192              		.cfi_endproc
 193              	.LFE35:
 194              		.size	taskScheduler, .-taskScheduler
 195              		.text
 196              	.Letext0:
 197              		.file 2 ".\\Scheduler.h"
 198              		.file 3 ".\\Generated_Source\\PSoC4/cytypes.h"