ARM GAS  C:\Users\Clayton\AppData\Local\Temp\ccRYgx9V.s 			page 1


   1              		.cpu cortex-m0
   2              		.fpu softvfp
   3              		.eabi_attribute 20, 1
   4              		.eabi_attribute 21, 1
   5              		.eabi_attribute 23, 3
   6              		.eabi_attribute 24, 1
   7              		.eabi_attribute 25, 1
   8              		.eabi_attribute 26, 1
   9              		.eabi_attribute 30, 6
  10              		.eabi_attribute 34, 0
  11              		.eabi_attribute 18, 4
  12              		.code	16
  13              		.file	"Servo_isr.c"
  14              		.text
  15              	.Ltext0:
  16              		.cfi_sections	.debug_frame
  17              		.section	.text.Servo_isr_Start,"ax",%progbits
  18              		.align	2
  19              		.global	Servo_isr_Start
  20              		.code	16
  21              		.thumb_func
  22              		.type	Servo_isr_Start, %function
  23              	Servo_isr_Start:
  24              	.LFB0:
  25              		.file 1 ".\\Generated_Source\\PSoC4\\Servo_isr.c"
   1:.\Generated_Source\PSoC4/Servo_isr.c **** /*******************************************************************************
   2:.\Generated_Source\PSoC4/Servo_isr.c **** * File Name: Servo_isr.c  
   3:.\Generated_Source\PSoC4/Servo_isr.c **** * Version 1.70
   4:.\Generated_Source\PSoC4/Servo_isr.c **** *
   5:.\Generated_Source\PSoC4/Servo_isr.c **** *  Description:
   6:.\Generated_Source\PSoC4/Servo_isr.c **** *   API for controlling the state of an interrupt.
   7:.\Generated_Source\PSoC4/Servo_isr.c **** *
   8:.\Generated_Source\PSoC4/Servo_isr.c **** *
   9:.\Generated_Source\PSoC4/Servo_isr.c **** *  Note:
  10:.\Generated_Source\PSoC4/Servo_isr.c **** *
  11:.\Generated_Source\PSoC4/Servo_isr.c **** ********************************************************************************
  12:.\Generated_Source\PSoC4/Servo_isr.c **** * Copyright 2008-2012, Cypress Semiconductor Corporation.  All rights reserved.
  13:.\Generated_Source\PSoC4/Servo_isr.c **** * You may use this file only in accordance with the license, terms, conditions, 
  14:.\Generated_Source\PSoC4/Servo_isr.c **** * disclaimers, and limitations in the end user license agreement accompanying 
  15:.\Generated_Source\PSoC4/Servo_isr.c **** * the software package with which this file was provided.
  16:.\Generated_Source\PSoC4/Servo_isr.c **** *******************************************************************************/
  17:.\Generated_Source\PSoC4/Servo_isr.c **** 
  18:.\Generated_Source\PSoC4/Servo_isr.c **** 
  19:.\Generated_Source\PSoC4/Servo_isr.c **** #include <cydevice_trm.h>
  20:.\Generated_Source\PSoC4/Servo_isr.c **** #include <CyLib.h>
  21:.\Generated_Source\PSoC4/Servo_isr.c **** #include <Servo_isr.h>
  22:.\Generated_Source\PSoC4/Servo_isr.c **** 
  23:.\Generated_Source\PSoC4/Servo_isr.c **** #if !defined(Servo_isr__REMOVED) /* Check for removal by optimization */
  24:.\Generated_Source\PSoC4/Servo_isr.c **** 
  25:.\Generated_Source\PSoC4/Servo_isr.c **** /*******************************************************************************
  26:.\Generated_Source\PSoC4/Servo_isr.c **** *  Place your includes, defines and code here 
  27:.\Generated_Source\PSoC4/Servo_isr.c **** ********************************************************************************/
  28:.\Generated_Source\PSoC4/Servo_isr.c **** /* `#START Servo_isr_intc` */
  29:.\Generated_Source\PSoC4/Servo_isr.c **** 
  30:.\Generated_Source\PSoC4/Servo_isr.c **** /* `#END` */
  31:.\Generated_Source\PSoC4/Servo_isr.c **** 
  32:.\Generated_Source\PSoC4/Servo_isr.c **** extern cyisraddress CyRamVectors[CYINT_IRQ_BASE + CY_NUM_INTERRUPTS];
ARM GAS  C:\Users\Clayton\AppData\Local\Temp\ccRYgx9V.s 			page 2


  33:.\Generated_Source\PSoC4/Servo_isr.c **** 
  34:.\Generated_Source\PSoC4/Servo_isr.c **** /* Declared in startup, used to set unused interrupts to. */
  35:.\Generated_Source\PSoC4/Servo_isr.c **** CY_ISR_PROTO(IntDefaultHandler);
  36:.\Generated_Source\PSoC4/Servo_isr.c **** 
  37:.\Generated_Source\PSoC4/Servo_isr.c **** 
  38:.\Generated_Source\PSoC4/Servo_isr.c **** /*******************************************************************************
  39:.\Generated_Source\PSoC4/Servo_isr.c **** * Function Name: Servo_isr_Start
  40:.\Generated_Source\PSoC4/Servo_isr.c **** ********************************************************************************
  41:.\Generated_Source\PSoC4/Servo_isr.c **** *
  42:.\Generated_Source\PSoC4/Servo_isr.c **** * Summary:
  43:.\Generated_Source\PSoC4/Servo_isr.c **** *  Set up the interrupt and enable it.
  44:.\Generated_Source\PSoC4/Servo_isr.c **** *
  45:.\Generated_Source\PSoC4/Servo_isr.c **** * Parameters:  
  46:.\Generated_Source\PSoC4/Servo_isr.c **** *   None
  47:.\Generated_Source\PSoC4/Servo_isr.c **** *
  48:.\Generated_Source\PSoC4/Servo_isr.c **** * Return:
  49:.\Generated_Source\PSoC4/Servo_isr.c **** *   None
  50:.\Generated_Source\PSoC4/Servo_isr.c **** *
  51:.\Generated_Source\PSoC4/Servo_isr.c **** *******************************************************************************/
  52:.\Generated_Source\PSoC4/Servo_isr.c **** void Servo_isr_Start(void)
  53:.\Generated_Source\PSoC4/Servo_isr.c **** {
  26              		.loc 1 53 0
  27              		.cfi_startproc
  28 0000 80B5     		push	{r7, lr}
  29              		.cfi_def_cfa_offset 8
  30              		.cfi_offset 7, -8
  31              		.cfi_offset 14, -4
  32 0002 00AF     		add	r7, sp, #0
  33              		.cfi_def_cfa_register 7
  54:.\Generated_Source\PSoC4/Servo_isr.c ****     /* For all we know the interrupt is active. */
  55:.\Generated_Source\PSoC4/Servo_isr.c ****     Servo_isr_Disable();
  34              		.loc 1 55 0
  35 0004 FFF7FEFF 		bl	Servo_isr_Disable
  56:.\Generated_Source\PSoC4/Servo_isr.c **** 
  57:.\Generated_Source\PSoC4/Servo_isr.c ****     /* Set the ISR to point to the Servo_isr Interrupt. */
  58:.\Generated_Source\PSoC4/Servo_isr.c ****     Servo_isr_SetVector(&Servo_isr_Interrupt);
  36              		.loc 1 58 0
  37 0008 054B     		ldr	r3, .L2
  38 000a 181C     		mov	r0, r3
  39 000c FFF7FEFF 		bl	Servo_isr_SetVector
  59:.\Generated_Source\PSoC4/Servo_isr.c **** 
  60:.\Generated_Source\PSoC4/Servo_isr.c ****     /* Set the priority. */
  61:.\Generated_Source\PSoC4/Servo_isr.c ****     Servo_isr_SetPriority((uint8)Servo_isr_INTC_PRIOR_NUMBER);
  40              		.loc 1 61 0
  41 0010 0320     		mov	r0, #3
  42 0012 FFF7FEFF 		bl	Servo_isr_SetPriority
  62:.\Generated_Source\PSoC4/Servo_isr.c **** 
  63:.\Generated_Source\PSoC4/Servo_isr.c ****     /* Enable it. */
  64:.\Generated_Source\PSoC4/Servo_isr.c ****     Servo_isr_Enable();
  43              		.loc 1 64 0
  44 0016 FFF7FEFF 		bl	Servo_isr_Enable
  65:.\Generated_Source\PSoC4/Servo_isr.c **** }
  45              		.loc 1 65 0
  46 001a BD46     		mov	sp, r7
  47              		@ sp needed
  48 001c 80BD     		pop	{r7, pc}
  49              	.L3:
ARM GAS  C:\Users\Clayton\AppData\Local\Temp\ccRYgx9V.s 			page 3


  50 001e C046     		.align	2
  51              	.L2:
  52 0020 00000000 		.word	Servo_isr_Interrupt
  53              		.cfi_endproc
  54              	.LFE0:
  55              		.size	Servo_isr_Start, .-Servo_isr_Start
  56              		.section	.text.Servo_isr_StartEx,"ax",%progbits
  57              		.align	2
  58              		.global	Servo_isr_StartEx
  59              		.code	16
  60              		.thumb_func
  61              		.type	Servo_isr_StartEx, %function
  62              	Servo_isr_StartEx:
  63              	.LFB1:
  66:.\Generated_Source\PSoC4/Servo_isr.c **** 
  67:.\Generated_Source\PSoC4/Servo_isr.c **** 
  68:.\Generated_Source\PSoC4/Servo_isr.c **** /*******************************************************************************
  69:.\Generated_Source\PSoC4/Servo_isr.c **** * Function Name: Servo_isr_StartEx
  70:.\Generated_Source\PSoC4/Servo_isr.c **** ********************************************************************************
  71:.\Generated_Source\PSoC4/Servo_isr.c **** *
  72:.\Generated_Source\PSoC4/Servo_isr.c **** * Summary:
  73:.\Generated_Source\PSoC4/Servo_isr.c **** *  Set up the interrupt and enable it.
  74:.\Generated_Source\PSoC4/Servo_isr.c **** *
  75:.\Generated_Source\PSoC4/Servo_isr.c **** * Parameters:  
  76:.\Generated_Source\PSoC4/Servo_isr.c **** *   address: Address of the ISR to set in the interrupt vector table.
  77:.\Generated_Source\PSoC4/Servo_isr.c **** *
  78:.\Generated_Source\PSoC4/Servo_isr.c **** * Return:
  79:.\Generated_Source\PSoC4/Servo_isr.c **** *   None
  80:.\Generated_Source\PSoC4/Servo_isr.c **** *
  81:.\Generated_Source\PSoC4/Servo_isr.c **** *******************************************************************************/
  82:.\Generated_Source\PSoC4/Servo_isr.c **** void Servo_isr_StartEx(cyisraddress address)
  83:.\Generated_Source\PSoC4/Servo_isr.c **** {
  64              		.loc 1 83 0
  65              		.cfi_startproc
  66 0000 80B5     		push	{r7, lr}
  67              		.cfi_def_cfa_offset 8
  68              		.cfi_offset 7, -8
  69              		.cfi_offset 14, -4
  70 0002 82B0     		sub	sp, sp, #8
  71              		.cfi_def_cfa_offset 16
  72 0004 00AF     		add	r7, sp, #0
  73              		.cfi_def_cfa_register 7
  74 0006 7860     		str	r0, [r7, #4]
  84:.\Generated_Source\PSoC4/Servo_isr.c ****     /* For all we know the interrupt is active. */
  85:.\Generated_Source\PSoC4/Servo_isr.c ****     Servo_isr_Disable();
  75              		.loc 1 85 0
  76 0008 FFF7FEFF 		bl	Servo_isr_Disable
  86:.\Generated_Source\PSoC4/Servo_isr.c **** 
  87:.\Generated_Source\PSoC4/Servo_isr.c ****     /* Set the ISR to point to the Servo_isr Interrupt. */
  88:.\Generated_Source\PSoC4/Servo_isr.c ****     Servo_isr_SetVector(address);
  77              		.loc 1 88 0
  78 000c 7B68     		ldr	r3, [r7, #4]
  79 000e 181C     		mov	r0, r3
  80 0010 FFF7FEFF 		bl	Servo_isr_SetVector
  89:.\Generated_Source\PSoC4/Servo_isr.c **** 
  90:.\Generated_Source\PSoC4/Servo_isr.c ****     /* Set the priority. */
  91:.\Generated_Source\PSoC4/Servo_isr.c ****     Servo_isr_SetPriority((uint8)Servo_isr_INTC_PRIOR_NUMBER);
ARM GAS  C:\Users\Clayton\AppData\Local\Temp\ccRYgx9V.s 			page 4


  81              		.loc 1 91 0
  82 0014 0320     		mov	r0, #3
  83 0016 FFF7FEFF 		bl	Servo_isr_SetPriority
  92:.\Generated_Source\PSoC4/Servo_isr.c **** 
  93:.\Generated_Source\PSoC4/Servo_isr.c ****     /* Enable it. */
  94:.\Generated_Source\PSoC4/Servo_isr.c ****     Servo_isr_Enable();
  84              		.loc 1 94 0
  85 001a FFF7FEFF 		bl	Servo_isr_Enable
  95:.\Generated_Source\PSoC4/Servo_isr.c **** }
  86              		.loc 1 95 0
  87 001e BD46     		mov	sp, r7
  88 0020 02B0     		add	sp, sp, #8
  89              		@ sp needed
  90 0022 80BD     		pop	{r7, pc}
  91              		.cfi_endproc
  92              	.LFE1:
  93              		.size	Servo_isr_StartEx, .-Servo_isr_StartEx
  94              		.section	.text.Servo_isr_Stop,"ax",%progbits
  95              		.align	2
  96              		.global	Servo_isr_Stop
  97              		.code	16
  98              		.thumb_func
  99              		.type	Servo_isr_Stop, %function
 100              	Servo_isr_Stop:
 101              	.LFB2:
  96:.\Generated_Source\PSoC4/Servo_isr.c **** 
  97:.\Generated_Source\PSoC4/Servo_isr.c **** 
  98:.\Generated_Source\PSoC4/Servo_isr.c **** /*******************************************************************************
  99:.\Generated_Source\PSoC4/Servo_isr.c **** * Function Name: Servo_isr_Stop
 100:.\Generated_Source\PSoC4/Servo_isr.c **** ********************************************************************************
 101:.\Generated_Source\PSoC4/Servo_isr.c **** *
 102:.\Generated_Source\PSoC4/Servo_isr.c **** * Summary:
 103:.\Generated_Source\PSoC4/Servo_isr.c **** *   Disables and removes the interrupt.
 104:.\Generated_Source\PSoC4/Servo_isr.c **** *
 105:.\Generated_Source\PSoC4/Servo_isr.c **** * Parameters:  
 106:.\Generated_Source\PSoC4/Servo_isr.c **** *
 107:.\Generated_Source\PSoC4/Servo_isr.c **** * Return:
 108:.\Generated_Source\PSoC4/Servo_isr.c **** *   None
 109:.\Generated_Source\PSoC4/Servo_isr.c **** *
 110:.\Generated_Source\PSoC4/Servo_isr.c **** *******************************************************************************/
 111:.\Generated_Source\PSoC4/Servo_isr.c **** void Servo_isr_Stop(void)
 112:.\Generated_Source\PSoC4/Servo_isr.c **** {
 102              		.loc 1 112 0
 103              		.cfi_startproc
 104 0000 80B5     		push	{r7, lr}
 105              		.cfi_def_cfa_offset 8
 106              		.cfi_offset 7, -8
 107              		.cfi_offset 14, -4
 108 0002 00AF     		add	r7, sp, #0
 109              		.cfi_def_cfa_register 7
 113:.\Generated_Source\PSoC4/Servo_isr.c ****     /* Disable this interrupt. */
 114:.\Generated_Source\PSoC4/Servo_isr.c ****     Servo_isr_Disable();
 110              		.loc 1 114 0
 111 0004 FFF7FEFF 		bl	Servo_isr_Disable
 115:.\Generated_Source\PSoC4/Servo_isr.c **** 
 116:.\Generated_Source\PSoC4/Servo_isr.c ****     /* Set the ISR to point to the passive one. */
 117:.\Generated_Source\PSoC4/Servo_isr.c ****     Servo_isr_SetVector(&IntDefaultHandler);
ARM GAS  C:\Users\Clayton\AppData\Local\Temp\ccRYgx9V.s 			page 5


 112              		.loc 1 117 0
 113 0008 024B     		ldr	r3, .L6
 114 000a 181C     		mov	r0, r3
 115 000c FFF7FEFF 		bl	Servo_isr_SetVector
 118:.\Generated_Source\PSoC4/Servo_isr.c **** }
 116              		.loc 1 118 0
 117 0010 BD46     		mov	sp, r7
 118              		@ sp needed
 119 0012 80BD     		pop	{r7, pc}
 120              	.L7:
 121              		.align	2
 122              	.L6:
 123 0014 00000000 		.word	IntDefaultHandler
 124              		.cfi_endproc
 125              	.LFE2:
 126              		.size	Servo_isr_Stop, .-Servo_isr_Stop
 127              		.section	.text.Servo_isr_Interrupt,"ax",%progbits
 128              		.align	2
 129              		.global	Servo_isr_Interrupt
 130              		.code	16
 131              		.thumb_func
 132              		.type	Servo_isr_Interrupt, %function
 133              	Servo_isr_Interrupt:
 134              	.LFB3:
 119:.\Generated_Source\PSoC4/Servo_isr.c **** 
 120:.\Generated_Source\PSoC4/Servo_isr.c **** 
 121:.\Generated_Source\PSoC4/Servo_isr.c **** /*******************************************************************************
 122:.\Generated_Source\PSoC4/Servo_isr.c **** * Function Name: Servo_isr_Interrupt
 123:.\Generated_Source\PSoC4/Servo_isr.c **** ********************************************************************************
 124:.\Generated_Source\PSoC4/Servo_isr.c **** *
 125:.\Generated_Source\PSoC4/Servo_isr.c **** * Summary:
 126:.\Generated_Source\PSoC4/Servo_isr.c **** *   The default Interrupt Service Routine for Servo_isr.
 127:.\Generated_Source\PSoC4/Servo_isr.c **** *
 128:.\Generated_Source\PSoC4/Servo_isr.c **** *   Add custom code between the coments to keep the next version of this file
 129:.\Generated_Source\PSoC4/Servo_isr.c **** *   from over writting your code.
 130:.\Generated_Source\PSoC4/Servo_isr.c **** *
 131:.\Generated_Source\PSoC4/Servo_isr.c **** * Parameters:  
 132:.\Generated_Source\PSoC4/Servo_isr.c **** *   None
 133:.\Generated_Source\PSoC4/Servo_isr.c **** *
 134:.\Generated_Source\PSoC4/Servo_isr.c **** * Return:
 135:.\Generated_Source\PSoC4/Servo_isr.c **** *   None
 136:.\Generated_Source\PSoC4/Servo_isr.c **** *
 137:.\Generated_Source\PSoC4/Servo_isr.c **** *******************************************************************************/
 138:.\Generated_Source\PSoC4/Servo_isr.c **** CY_ISR(Servo_isr_Interrupt)
 139:.\Generated_Source\PSoC4/Servo_isr.c **** {
 135              		.loc 1 139 0
 136              		.cfi_startproc
 137 0000 80B5     		push	{r7, lr}
 138              		.cfi_def_cfa_offset 8
 139              		.cfi_offset 7, -8
 140              		.cfi_offset 14, -4
 141 0002 00AF     		add	r7, sp, #0
 142              		.cfi_def_cfa_register 7
 140:.\Generated_Source\PSoC4/Servo_isr.c ****     /*  Place your Interrupt code here. */
 141:.\Generated_Source\PSoC4/Servo_isr.c ****     /* `#START Servo_isr_Interrupt` */
 142:.\Generated_Source\PSoC4/Servo_isr.c **** 
 143:.\Generated_Source\PSoC4/Servo_isr.c ****     /* `#END` */
ARM GAS  C:\Users\Clayton\AppData\Local\Temp\ccRYgx9V.s 			page 6


 144:.\Generated_Source\PSoC4/Servo_isr.c **** }
 143              		.loc 1 144 0
 144 0004 BD46     		mov	sp, r7
 145              		@ sp needed
 146 0006 80BD     		pop	{r7, pc}
 147              		.cfi_endproc
 148              	.LFE3:
 149              		.size	Servo_isr_Interrupt, .-Servo_isr_Interrupt
 150              		.section	.text.Servo_isr_SetVector,"ax",%progbits
 151              		.align	2
 152              		.global	Servo_isr_SetVector
 153              		.code	16
 154              		.thumb_func
 155              		.type	Servo_isr_SetVector, %function
 156              	Servo_isr_SetVector:
 157              	.LFB4:
 145:.\Generated_Source\PSoC4/Servo_isr.c **** 
 146:.\Generated_Source\PSoC4/Servo_isr.c **** 
 147:.\Generated_Source\PSoC4/Servo_isr.c **** /*******************************************************************************
 148:.\Generated_Source\PSoC4/Servo_isr.c **** * Function Name: Servo_isr_SetVector
 149:.\Generated_Source\PSoC4/Servo_isr.c **** ********************************************************************************
 150:.\Generated_Source\PSoC4/Servo_isr.c **** *
 151:.\Generated_Source\PSoC4/Servo_isr.c **** * Summary:
 152:.\Generated_Source\PSoC4/Servo_isr.c **** *   Change the ISR vector for the Interrupt. Note calling Servo_isr_Start
 153:.\Generated_Source\PSoC4/Servo_isr.c **** *   will override any effect this method would have had. To set the vector 
 154:.\Generated_Source\PSoC4/Servo_isr.c **** *   before the component has been started use Servo_isr_StartEx instead.
 155:.\Generated_Source\PSoC4/Servo_isr.c **** *
 156:.\Generated_Source\PSoC4/Servo_isr.c **** * Parameters:
 157:.\Generated_Source\PSoC4/Servo_isr.c **** *   address: Address of the ISR to set in the interrupt vector table.
 158:.\Generated_Source\PSoC4/Servo_isr.c **** *
 159:.\Generated_Source\PSoC4/Servo_isr.c **** * Return:
 160:.\Generated_Source\PSoC4/Servo_isr.c **** *   None
 161:.\Generated_Source\PSoC4/Servo_isr.c **** *
 162:.\Generated_Source\PSoC4/Servo_isr.c **** *******************************************************************************/
 163:.\Generated_Source\PSoC4/Servo_isr.c **** void Servo_isr_SetVector(cyisraddress address)
 164:.\Generated_Source\PSoC4/Servo_isr.c **** {
 158              		.loc 1 164 0
 159              		.cfi_startproc
 160 0000 80B5     		push	{r7, lr}
 161              		.cfi_def_cfa_offset 8
 162              		.cfi_offset 7, -8
 163              		.cfi_offset 14, -4
 164 0002 82B0     		sub	sp, sp, #8
 165              		.cfi_def_cfa_offset 16
 166 0004 00AF     		add	r7, sp, #0
 167              		.cfi_def_cfa_register 7
 168 0006 7860     		str	r0, [r7, #4]
 165:.\Generated_Source\PSoC4/Servo_isr.c ****     CyRamVectors[CYINT_IRQ_BASE + Servo_isr__INTC_NUMBER] = address;
 169              		.loc 1 165 0
 170 0008 034A     		ldr	r2, .L10
 171 000a 8423     		mov	r3, #132
 172 000c 7968     		ldr	r1, [r7, #4]
 173 000e D150     		str	r1, [r2, r3]
 166:.\Generated_Source\PSoC4/Servo_isr.c **** }
 174              		.loc 1 166 0
 175 0010 BD46     		mov	sp, r7
 176 0012 02B0     		add	sp, sp, #8
ARM GAS  C:\Users\Clayton\AppData\Local\Temp\ccRYgx9V.s 			page 7


 177              		@ sp needed
 178 0014 80BD     		pop	{r7, pc}
 179              	.L11:
 180 0016 C046     		.align	2
 181              	.L10:
 182 0018 00000000 		.word	CyRamVectors
 183              		.cfi_endproc
 184              	.LFE4:
 185              		.size	Servo_isr_SetVector, .-Servo_isr_SetVector
 186              		.section	.text.Servo_isr_GetVector,"ax",%progbits
 187              		.align	2
 188              		.global	Servo_isr_GetVector
 189              		.code	16
 190              		.thumb_func
 191              		.type	Servo_isr_GetVector, %function
 192              	Servo_isr_GetVector:
 193              	.LFB5:
 167:.\Generated_Source\PSoC4/Servo_isr.c **** 
 168:.\Generated_Source\PSoC4/Servo_isr.c **** 
 169:.\Generated_Source\PSoC4/Servo_isr.c **** /*******************************************************************************
 170:.\Generated_Source\PSoC4/Servo_isr.c **** * Function Name: Servo_isr_GetVector
 171:.\Generated_Source\PSoC4/Servo_isr.c **** ********************************************************************************
 172:.\Generated_Source\PSoC4/Servo_isr.c **** *
 173:.\Generated_Source\PSoC4/Servo_isr.c **** * Summary:
 174:.\Generated_Source\PSoC4/Servo_isr.c **** *   Gets the "address" of the current ISR vector for the Interrupt.
 175:.\Generated_Source\PSoC4/Servo_isr.c **** *
 176:.\Generated_Source\PSoC4/Servo_isr.c **** * Parameters:
 177:.\Generated_Source\PSoC4/Servo_isr.c **** *   None
 178:.\Generated_Source\PSoC4/Servo_isr.c **** *
 179:.\Generated_Source\PSoC4/Servo_isr.c **** * Return:
 180:.\Generated_Source\PSoC4/Servo_isr.c **** *   Address of the ISR in the interrupt vector table.
 181:.\Generated_Source\PSoC4/Servo_isr.c **** *
 182:.\Generated_Source\PSoC4/Servo_isr.c **** *******************************************************************************/
 183:.\Generated_Source\PSoC4/Servo_isr.c **** cyisraddress Servo_isr_GetVector(void)
 184:.\Generated_Source\PSoC4/Servo_isr.c **** {
 194              		.loc 1 184 0
 195              		.cfi_startproc
 196 0000 80B5     		push	{r7, lr}
 197              		.cfi_def_cfa_offset 8
 198              		.cfi_offset 7, -8
 199              		.cfi_offset 14, -4
 200 0002 00AF     		add	r7, sp, #0
 201              		.cfi_def_cfa_register 7
 185:.\Generated_Source\PSoC4/Servo_isr.c ****     return CyRamVectors[CYINT_IRQ_BASE + Servo_isr__INTC_NUMBER];
 202              		.loc 1 185 0
 203 0004 024A     		ldr	r2, .L14
 204 0006 8423     		mov	r3, #132
 205 0008 D358     		ldr	r3, [r2, r3]
 186:.\Generated_Source\PSoC4/Servo_isr.c **** }
 206              		.loc 1 186 0
 207 000a 181C     		mov	r0, r3
 208 000c BD46     		mov	sp, r7
 209              		@ sp needed
 210 000e 80BD     		pop	{r7, pc}
 211              	.L15:
 212              		.align	2
 213              	.L14:
ARM GAS  C:\Users\Clayton\AppData\Local\Temp\ccRYgx9V.s 			page 8


 214 0010 00000000 		.word	CyRamVectors
 215              		.cfi_endproc
 216              	.LFE5:
 217              		.size	Servo_isr_GetVector, .-Servo_isr_GetVector
 218              		.section	.text.Servo_isr_SetPriority,"ax",%progbits
 219              		.align	2
 220              		.global	Servo_isr_SetPriority
 221              		.code	16
 222              		.thumb_func
 223              		.type	Servo_isr_SetPriority, %function
 224              	Servo_isr_SetPriority:
 225              	.LFB6:
 187:.\Generated_Source\PSoC4/Servo_isr.c **** 
 188:.\Generated_Source\PSoC4/Servo_isr.c **** 
 189:.\Generated_Source\PSoC4/Servo_isr.c **** /*******************************************************************************
 190:.\Generated_Source\PSoC4/Servo_isr.c **** * Function Name: Servo_isr_SetPriority
 191:.\Generated_Source\PSoC4/Servo_isr.c **** ********************************************************************************
 192:.\Generated_Source\PSoC4/Servo_isr.c **** *
 193:.\Generated_Source\PSoC4/Servo_isr.c **** * Summary:
 194:.\Generated_Source\PSoC4/Servo_isr.c **** *   Sets the Priority of the Interrupt. Note calling Servo_isr_Start
 195:.\Generated_Source\PSoC4/Servo_isr.c **** *   or Servo_isr_StartEx will override any effect this method would 
 196:.\Generated_Source\PSoC4/Servo_isr.c **** *   have had. This method should only be called after Servo_isr_Start or 
 197:.\Generated_Source\PSoC4/Servo_isr.c **** *   Servo_isr_StartEx has been called. To set the initial
 198:.\Generated_Source\PSoC4/Servo_isr.c **** *   priority for the component use the cydwr file in the tool.
 199:.\Generated_Source\PSoC4/Servo_isr.c **** *
 200:.\Generated_Source\PSoC4/Servo_isr.c **** * Parameters:
 201:.\Generated_Source\PSoC4/Servo_isr.c **** *   priority: Priority of the interrupt. 0 - 3, 0 being the highest.
 202:.\Generated_Source\PSoC4/Servo_isr.c **** *
 203:.\Generated_Source\PSoC4/Servo_isr.c **** * Return:
 204:.\Generated_Source\PSoC4/Servo_isr.c **** *   None
 205:.\Generated_Source\PSoC4/Servo_isr.c **** *
 206:.\Generated_Source\PSoC4/Servo_isr.c **** *******************************************************************************/
 207:.\Generated_Source\PSoC4/Servo_isr.c **** void Servo_isr_SetPriority(uint8 priority)
 208:.\Generated_Source\PSoC4/Servo_isr.c **** {
 226              		.loc 1 208 0
 227              		.cfi_startproc
 228 0000 90B5     		push	{r4, r7, lr}
 229              		.cfi_def_cfa_offset 12
 230              		.cfi_offset 4, -12
 231              		.cfi_offset 7, -8
 232              		.cfi_offset 14, -4
 233 0002 85B0     		sub	sp, sp, #20
 234              		.cfi_def_cfa_offset 32
 235 0004 00AF     		add	r7, sp, #0
 236              		.cfi_def_cfa_register 7
 237 0006 021C     		mov	r2, r0
 238 0008 FB1D     		add	r3, r7, #7
 239 000a 1A70     		strb	r2, [r3]
 209:.\Generated_Source\PSoC4/Servo_isr.c **** 	uint8 interruptState;
 210:.\Generated_Source\PSoC4/Servo_isr.c ****     uint32 priorityOffset = ((Servo_isr__INTC_NUMBER % 4u) * 8u) + 6u;
 240              		.loc 1 210 0
 241 000c 0E23     		mov	r3, #14
 242 000e FB60     		str	r3, [r7, #12]
 211:.\Generated_Source\PSoC4/Servo_isr.c ****     
 212:.\Generated_Source\PSoC4/Servo_isr.c **** 	interruptState = CyEnterCriticalSection();
 243              		.loc 1 212 0
 244 0010 3C1C     		mov	r4, r7
ARM GAS  C:\Users\Clayton\AppData\Local\Temp\ccRYgx9V.s 			page 9


 245 0012 0B34     		add	r4, r4, #11
 246 0014 FFF7FEFF 		bl	CyEnterCriticalSection
 247 0018 031C     		mov	r3, r0
 248 001a 2370     		strb	r3, [r4]
 213:.\Generated_Source\PSoC4/Servo_isr.c ****     *Servo_isr_INTC_PRIOR = (*Servo_isr_INTC_PRIOR & (uint32)(~Servo_isr__INTC_PRIOR_MASK)) |
 249              		.loc 1 213 0
 250 001c 0A4B     		ldr	r3, .L17
 251 001e 0A4A     		ldr	r2, .L17
 252 0020 1168     		ldr	r1, [r2]
 253 0022 0A4A     		ldr	r2, .L17+4
 254 0024 1140     		and	r1, r2
 214:.\Generated_Source\PSoC4/Servo_isr.c ****                                     ((uint32)priority << priorityOffset);
 255              		.loc 1 214 0
 256 0026 FA1D     		add	r2, r7, #7
 257 0028 1078     		ldrb	r0, [r2]
 258 002a FA68     		ldr	r2, [r7, #12]
 259 002c 041C     		mov	r4, r0
 260 002e 9440     		lsl	r4, r4, r2
 261 0030 221C     		mov	r2, r4
 213:.\Generated_Source\PSoC4/Servo_isr.c ****     *Servo_isr_INTC_PRIOR = (*Servo_isr_INTC_PRIOR & (uint32)(~Servo_isr__INTC_PRIOR_MASK)) |
 262              		.loc 1 213 0
 263 0032 0A43     		orr	r2, r1
 264 0034 1A60     		str	r2, [r3]
 215:.\Generated_Source\PSoC4/Servo_isr.c **** 	CyExitCriticalSection(interruptState);
 265              		.loc 1 215 0
 266 0036 3B1C     		mov	r3, r7
 267 0038 0B33     		add	r3, r3, #11
 268 003a 1B78     		ldrb	r3, [r3]
 269 003c 181C     		mov	r0, r3
 270 003e FFF7FEFF 		bl	CyExitCriticalSection
 216:.\Generated_Source\PSoC4/Servo_isr.c **** }
 271              		.loc 1 216 0
 272 0042 BD46     		mov	sp, r7
 273 0044 05B0     		add	sp, sp, #20
 274              		@ sp needed
 275 0046 90BD     		pop	{r4, r7, pc}
 276              	.L18:
 277              		.align	2
 278              	.L17:
 279 0048 10E400E0 		.word	-536812528
 280 004c FF3FFFFF 		.word	-49153
 281              		.cfi_endproc
 282              	.LFE6:
 283              		.size	Servo_isr_SetPriority, .-Servo_isr_SetPriority
 284              		.section	.text.Servo_isr_GetPriority,"ax",%progbits
 285              		.align	2
 286              		.global	Servo_isr_GetPriority
 287              		.code	16
 288              		.thumb_func
 289              		.type	Servo_isr_GetPriority, %function
 290              	Servo_isr_GetPriority:
 291              	.LFB7:
 217:.\Generated_Source\PSoC4/Servo_isr.c **** 
 218:.\Generated_Source\PSoC4/Servo_isr.c **** 
 219:.\Generated_Source\PSoC4/Servo_isr.c **** /*******************************************************************************
 220:.\Generated_Source\PSoC4/Servo_isr.c **** * Function Name: Servo_isr_GetPriority
 221:.\Generated_Source\PSoC4/Servo_isr.c **** ********************************************************************************
ARM GAS  C:\Users\Clayton\AppData\Local\Temp\ccRYgx9V.s 			page 10


 222:.\Generated_Source\PSoC4/Servo_isr.c **** *
 223:.\Generated_Source\PSoC4/Servo_isr.c **** * Summary:
 224:.\Generated_Source\PSoC4/Servo_isr.c **** *   Gets the Priority of the Interrupt.
 225:.\Generated_Source\PSoC4/Servo_isr.c **** *
 226:.\Generated_Source\PSoC4/Servo_isr.c **** * Parameters:
 227:.\Generated_Source\PSoC4/Servo_isr.c **** *   None
 228:.\Generated_Source\PSoC4/Servo_isr.c **** *
 229:.\Generated_Source\PSoC4/Servo_isr.c **** * Return:
 230:.\Generated_Source\PSoC4/Servo_isr.c **** *   Priority of the interrupt. 0 - 3, 0 being the highest.
 231:.\Generated_Source\PSoC4/Servo_isr.c **** *
 232:.\Generated_Source\PSoC4/Servo_isr.c **** *******************************************************************************/
 233:.\Generated_Source\PSoC4/Servo_isr.c **** uint8 Servo_isr_GetPriority(void)
 234:.\Generated_Source\PSoC4/Servo_isr.c **** {
 292              		.loc 1 234 0
 293              		.cfi_startproc
 294 0000 80B5     		push	{r7, lr}
 295              		.cfi_def_cfa_offset 8
 296              		.cfi_offset 7, -8
 297              		.cfi_offset 14, -4
 298 0002 82B0     		sub	sp, sp, #8
 299              		.cfi_def_cfa_offset 16
 300 0004 00AF     		add	r7, sp, #0
 301              		.cfi_def_cfa_register 7
 235:.\Generated_Source\PSoC4/Servo_isr.c ****     uint32 priority;
 236:.\Generated_Source\PSoC4/Servo_isr.c **** 	uint32 priorityOffset = ((Servo_isr__INTC_NUMBER % 4u) * 8u) + 6u;
 302              		.loc 1 236 0
 303 0006 0E23     		mov	r3, #14
 304 0008 7B60     		str	r3, [r7, #4]
 237:.\Generated_Source\PSoC4/Servo_isr.c **** 
 238:.\Generated_Source\PSoC4/Servo_isr.c ****     priority = (*Servo_isr_INTC_PRIOR & Servo_isr__INTC_PRIOR_MASK) >> priorityOffset;
 305              		.loc 1 238 0
 306 000a 084B     		ldr	r3, .L21
 307 000c 1A68     		ldr	r2, [r3]
 308 000e C023     		mov	r3, #192
 309 0010 1B02     		lsl	r3, r3, #8
 310 0012 1A40     		and	r2, r3
 311 0014 7B68     		ldr	r3, [r7, #4]
 312 0016 111C     		mov	r1, r2
 313 0018 D940     		lsr	r1, r1, r3
 314 001a 0B1C     		mov	r3, r1
 315 001c 3B60     		str	r3, [r7]
 239:.\Generated_Source\PSoC4/Servo_isr.c **** 
 240:.\Generated_Source\PSoC4/Servo_isr.c ****     return (uint8)priority;
 316              		.loc 1 240 0
 317 001e 3B68     		ldr	r3, [r7]
 318 0020 DBB2     		uxtb	r3, r3
 241:.\Generated_Source\PSoC4/Servo_isr.c **** }
 319              		.loc 1 241 0
 320 0022 181C     		mov	r0, r3
 321 0024 BD46     		mov	sp, r7
 322 0026 02B0     		add	sp, sp, #8
 323              		@ sp needed
 324 0028 80BD     		pop	{r7, pc}
 325              	.L22:
 326 002a C046     		.align	2
 327              	.L21:
 328 002c 10E400E0 		.word	-536812528
ARM GAS  C:\Users\Clayton\AppData\Local\Temp\ccRYgx9V.s 			page 11


 329              		.cfi_endproc
 330              	.LFE7:
 331              		.size	Servo_isr_GetPriority, .-Servo_isr_GetPriority
 332              		.section	.text.Servo_isr_Enable,"ax",%progbits
 333              		.align	2
 334              		.global	Servo_isr_Enable
 335              		.code	16
 336              		.thumb_func
 337              		.type	Servo_isr_Enable, %function
 338              	Servo_isr_Enable:
 339              	.LFB8:
 242:.\Generated_Source\PSoC4/Servo_isr.c **** 
 243:.\Generated_Source\PSoC4/Servo_isr.c **** 
 244:.\Generated_Source\PSoC4/Servo_isr.c **** /*******************************************************************************
 245:.\Generated_Source\PSoC4/Servo_isr.c **** * Function Name: Servo_isr_Enable
 246:.\Generated_Source\PSoC4/Servo_isr.c **** ********************************************************************************
 247:.\Generated_Source\PSoC4/Servo_isr.c **** *
 248:.\Generated_Source\PSoC4/Servo_isr.c **** * Summary:
 249:.\Generated_Source\PSoC4/Servo_isr.c **** *   Enables the interrupt.
 250:.\Generated_Source\PSoC4/Servo_isr.c **** *
 251:.\Generated_Source\PSoC4/Servo_isr.c **** * Parameters:
 252:.\Generated_Source\PSoC4/Servo_isr.c **** *   None
 253:.\Generated_Source\PSoC4/Servo_isr.c **** *
 254:.\Generated_Source\PSoC4/Servo_isr.c **** * Return:
 255:.\Generated_Source\PSoC4/Servo_isr.c **** *   None
 256:.\Generated_Source\PSoC4/Servo_isr.c **** *
 257:.\Generated_Source\PSoC4/Servo_isr.c **** *******************************************************************************/
 258:.\Generated_Source\PSoC4/Servo_isr.c **** void Servo_isr_Enable(void)
 259:.\Generated_Source\PSoC4/Servo_isr.c **** {
 340              		.loc 1 259 0
 341              		.cfi_startproc
 342 0000 80B5     		push	{r7, lr}
 343              		.cfi_def_cfa_offset 8
 344              		.cfi_offset 7, -8
 345              		.cfi_offset 14, -4
 346 0002 00AF     		add	r7, sp, #0
 347              		.cfi_def_cfa_register 7
 260:.\Generated_Source\PSoC4/Servo_isr.c ****     /* Enable the general interrupt. */
 261:.\Generated_Source\PSoC4/Servo_isr.c ****     *Servo_isr_INTC_SET_EN = Servo_isr__INTC_MASK;
 348              		.loc 1 261 0
 349 0004 024B     		ldr	r3, .L24
 350 0006 8022     		mov	r2, #128
 351 0008 9202     		lsl	r2, r2, #10
 352 000a 1A60     		str	r2, [r3]
 262:.\Generated_Source\PSoC4/Servo_isr.c **** }
 353              		.loc 1 262 0
 354 000c BD46     		mov	sp, r7
 355              		@ sp needed
 356 000e 80BD     		pop	{r7, pc}
 357              	.L25:
 358              		.align	2
 359              	.L24:
 360 0010 00E100E0 		.word	-536813312
 361              		.cfi_endproc
 362              	.LFE8:
 363              		.size	Servo_isr_Enable, .-Servo_isr_Enable
 364              		.section	.text.Servo_isr_GetState,"ax",%progbits
ARM GAS  C:\Users\Clayton\AppData\Local\Temp\ccRYgx9V.s 			page 12


 365              		.align	2
 366              		.global	Servo_isr_GetState
 367              		.code	16
 368              		.thumb_func
 369              		.type	Servo_isr_GetState, %function
 370              	Servo_isr_GetState:
 371              	.LFB9:
 263:.\Generated_Source\PSoC4/Servo_isr.c **** 
 264:.\Generated_Source\PSoC4/Servo_isr.c **** 
 265:.\Generated_Source\PSoC4/Servo_isr.c **** /*******************************************************************************
 266:.\Generated_Source\PSoC4/Servo_isr.c **** * Function Name: Servo_isr_GetState
 267:.\Generated_Source\PSoC4/Servo_isr.c **** ********************************************************************************
 268:.\Generated_Source\PSoC4/Servo_isr.c **** *
 269:.\Generated_Source\PSoC4/Servo_isr.c **** * Summary:
 270:.\Generated_Source\PSoC4/Servo_isr.c **** *   Gets the state (enabled, disabled) of the Interrupt.
 271:.\Generated_Source\PSoC4/Servo_isr.c **** *
 272:.\Generated_Source\PSoC4/Servo_isr.c **** * Parameters:
 273:.\Generated_Source\PSoC4/Servo_isr.c **** *   None
 274:.\Generated_Source\PSoC4/Servo_isr.c **** *
 275:.\Generated_Source\PSoC4/Servo_isr.c **** * Return:
 276:.\Generated_Source\PSoC4/Servo_isr.c **** *   1 if enabled, 0 if disabled.
 277:.\Generated_Source\PSoC4/Servo_isr.c **** *
 278:.\Generated_Source\PSoC4/Servo_isr.c **** *******************************************************************************/
 279:.\Generated_Source\PSoC4/Servo_isr.c **** uint8 Servo_isr_GetState(void)
 280:.\Generated_Source\PSoC4/Servo_isr.c **** {
 372              		.loc 1 280 0
 373              		.cfi_startproc
 374 0000 80B5     		push	{r7, lr}
 375              		.cfi_def_cfa_offset 8
 376              		.cfi_offset 7, -8
 377              		.cfi_offset 14, -4
 378 0002 00AF     		add	r7, sp, #0
 379              		.cfi_def_cfa_register 7
 281:.\Generated_Source\PSoC4/Servo_isr.c ****     /* Get the state of the general interrupt. */
 282:.\Generated_Source\PSoC4/Servo_isr.c ****     return ((*Servo_isr_INTC_SET_EN & (uint32)Servo_isr__INTC_MASK) != 0u) ? 1u:0u;
 380              		.loc 1 282 0
 381 0004 054B     		ldr	r3, .L30
 382 0006 1A68     		ldr	r2, [r3]
 383 0008 8023     		mov	r3, #128
 384 000a 9B02     		lsl	r3, r3, #10
 385 000c 1340     		and	r3, r2
 386 000e 01D0     		beq	.L27
 387              		.loc 1 282 0 is_stmt 0 discriminator 1
 388 0010 0123     		mov	r3, #1
 389 0012 00E0     		b	.L28
 390              	.L27:
 391              		.loc 1 282 0 discriminator 2
 392 0014 0023     		mov	r3, #0
 393              	.L28:
 283:.\Generated_Source\PSoC4/Servo_isr.c **** }
 394              		.loc 1 283 0 is_stmt 1 discriminator 3
 395 0016 181C     		mov	r0, r3
 396 0018 BD46     		mov	sp, r7
 397              		@ sp needed
 398 001a 80BD     		pop	{r7, pc}
 399              	.L31:
 400              		.align	2
ARM GAS  C:\Users\Clayton\AppData\Local\Temp\ccRYgx9V.s 			page 13


 401              	.L30:
 402 001c 00E100E0 		.word	-536813312
 403              		.cfi_endproc
 404              	.LFE9:
 405              		.size	Servo_isr_GetState, .-Servo_isr_GetState
 406              		.section	.text.Servo_isr_Disable,"ax",%progbits
 407              		.align	2
 408              		.global	Servo_isr_Disable
 409              		.code	16
 410              		.thumb_func
 411              		.type	Servo_isr_Disable, %function
 412              	Servo_isr_Disable:
 413              	.LFB10:
 284:.\Generated_Source\PSoC4/Servo_isr.c **** 
 285:.\Generated_Source\PSoC4/Servo_isr.c **** 
 286:.\Generated_Source\PSoC4/Servo_isr.c **** /*******************************************************************************
 287:.\Generated_Source\PSoC4/Servo_isr.c **** * Function Name: Servo_isr_Disable
 288:.\Generated_Source\PSoC4/Servo_isr.c **** ********************************************************************************
 289:.\Generated_Source\PSoC4/Servo_isr.c **** *
 290:.\Generated_Source\PSoC4/Servo_isr.c **** * Summary:
 291:.\Generated_Source\PSoC4/Servo_isr.c **** *   Disables the Interrupt.
 292:.\Generated_Source\PSoC4/Servo_isr.c **** *
 293:.\Generated_Source\PSoC4/Servo_isr.c **** * Parameters:
 294:.\Generated_Source\PSoC4/Servo_isr.c **** *   None
 295:.\Generated_Source\PSoC4/Servo_isr.c **** *
 296:.\Generated_Source\PSoC4/Servo_isr.c **** * Return:
 297:.\Generated_Source\PSoC4/Servo_isr.c **** *   None
 298:.\Generated_Source\PSoC4/Servo_isr.c **** *
 299:.\Generated_Source\PSoC4/Servo_isr.c **** *******************************************************************************/
 300:.\Generated_Source\PSoC4/Servo_isr.c **** void Servo_isr_Disable(void)
 301:.\Generated_Source\PSoC4/Servo_isr.c **** {
 414              		.loc 1 301 0
 415              		.cfi_startproc
 416 0000 80B5     		push	{r7, lr}
 417              		.cfi_def_cfa_offset 8
 418              		.cfi_offset 7, -8
 419              		.cfi_offset 14, -4
 420 0002 00AF     		add	r7, sp, #0
 421              		.cfi_def_cfa_register 7
 302:.\Generated_Source\PSoC4/Servo_isr.c ****     /* Disable the general interrupt. */
 303:.\Generated_Source\PSoC4/Servo_isr.c ****     *Servo_isr_INTC_CLR_EN = Servo_isr__INTC_MASK;
 422              		.loc 1 303 0
 423 0004 024B     		ldr	r3, .L33
 424 0006 8022     		mov	r2, #128
 425 0008 9202     		lsl	r2, r2, #10
 426 000a 1A60     		str	r2, [r3]
 304:.\Generated_Source\PSoC4/Servo_isr.c **** }
 427              		.loc 1 304 0
 428 000c BD46     		mov	sp, r7
 429              		@ sp needed
 430 000e 80BD     		pop	{r7, pc}
 431              	.L34:
 432              		.align	2
 433              	.L33:
 434 0010 80E100E0 		.word	-536813184
 435              		.cfi_endproc
 436              	.LFE10:
ARM GAS  C:\Users\Clayton\AppData\Local\Temp\ccRYgx9V.s 			page 14


 437              		.size	Servo_isr_Disable, .-Servo_isr_Disable
 438              		.section	.text.Servo_isr_SetPending,"ax",%progbits
 439              		.align	2
 440              		.global	Servo_isr_SetPending
 441              		.code	16
 442              		.thumb_func
 443              		.type	Servo_isr_SetPending, %function
 444              	Servo_isr_SetPending:
 445              	.LFB11:
 305:.\Generated_Source\PSoC4/Servo_isr.c **** 
 306:.\Generated_Source\PSoC4/Servo_isr.c **** 
 307:.\Generated_Source\PSoC4/Servo_isr.c **** /*******************************************************************************
 308:.\Generated_Source\PSoC4/Servo_isr.c **** * Function Name: Servo_isr_SetPending
 309:.\Generated_Source\PSoC4/Servo_isr.c **** ********************************************************************************
 310:.\Generated_Source\PSoC4/Servo_isr.c **** *
 311:.\Generated_Source\PSoC4/Servo_isr.c **** * Summary:
 312:.\Generated_Source\PSoC4/Servo_isr.c **** *   Causes the Interrupt to enter the pending state, a software method of
 313:.\Generated_Source\PSoC4/Servo_isr.c **** *   generating the interrupt.
 314:.\Generated_Source\PSoC4/Servo_isr.c **** *
 315:.\Generated_Source\PSoC4/Servo_isr.c **** * Parameters:
 316:.\Generated_Source\PSoC4/Servo_isr.c **** *   None
 317:.\Generated_Source\PSoC4/Servo_isr.c **** *
 318:.\Generated_Source\PSoC4/Servo_isr.c **** * Return:
 319:.\Generated_Source\PSoC4/Servo_isr.c **** *   None
 320:.\Generated_Source\PSoC4/Servo_isr.c **** *
 321:.\Generated_Source\PSoC4/Servo_isr.c **** *******************************************************************************/
 322:.\Generated_Source\PSoC4/Servo_isr.c **** void Servo_isr_SetPending(void)
 323:.\Generated_Source\PSoC4/Servo_isr.c **** {
 446              		.loc 1 323 0
 447              		.cfi_startproc
 448 0000 80B5     		push	{r7, lr}
 449              		.cfi_def_cfa_offset 8
 450              		.cfi_offset 7, -8
 451              		.cfi_offset 14, -4
 452 0002 00AF     		add	r7, sp, #0
 453              		.cfi_def_cfa_register 7
 324:.\Generated_Source\PSoC4/Servo_isr.c ****     *Servo_isr_INTC_SET_PD = Servo_isr__INTC_MASK;
 454              		.loc 1 324 0
 455 0004 024B     		ldr	r3, .L36
 456 0006 8022     		mov	r2, #128
 457 0008 9202     		lsl	r2, r2, #10
 458 000a 1A60     		str	r2, [r3]
 325:.\Generated_Source\PSoC4/Servo_isr.c **** }
 459              		.loc 1 325 0
 460 000c BD46     		mov	sp, r7
 461              		@ sp needed
 462 000e 80BD     		pop	{r7, pc}
 463              	.L37:
 464              		.align	2
 465              	.L36:
 466 0010 00E200E0 		.word	-536813056
 467              		.cfi_endproc
 468              	.LFE11:
 469              		.size	Servo_isr_SetPending, .-Servo_isr_SetPending
 470              		.section	.text.Servo_isr_ClearPending,"ax",%progbits
 471              		.align	2
 472              		.global	Servo_isr_ClearPending
ARM GAS  C:\Users\Clayton\AppData\Local\Temp\ccRYgx9V.s 			page 15


 473              		.code	16
 474              		.thumb_func
 475              		.type	Servo_isr_ClearPending, %function
 476              	Servo_isr_ClearPending:
 477              	.LFB12:
 326:.\Generated_Source\PSoC4/Servo_isr.c **** 
 327:.\Generated_Source\PSoC4/Servo_isr.c **** 
 328:.\Generated_Source\PSoC4/Servo_isr.c **** /*******************************************************************************
 329:.\Generated_Source\PSoC4/Servo_isr.c **** * Function Name: Servo_isr_ClearPending
 330:.\Generated_Source\PSoC4/Servo_isr.c **** ********************************************************************************
 331:.\Generated_Source\PSoC4/Servo_isr.c **** *
 332:.\Generated_Source\PSoC4/Servo_isr.c **** * Summary:
 333:.\Generated_Source\PSoC4/Servo_isr.c **** *   Clears a pending interrupt.
 334:.\Generated_Source\PSoC4/Servo_isr.c **** *
 335:.\Generated_Source\PSoC4/Servo_isr.c **** * Parameters:
 336:.\Generated_Source\PSoC4/Servo_isr.c **** *   None
 337:.\Generated_Source\PSoC4/Servo_isr.c **** *
 338:.\Generated_Source\PSoC4/Servo_isr.c **** * Return:
 339:.\Generated_Source\PSoC4/Servo_isr.c **** *   None
 340:.\Generated_Source\PSoC4/Servo_isr.c **** *
 341:.\Generated_Source\PSoC4/Servo_isr.c **** *******************************************************************************/
 342:.\Generated_Source\PSoC4/Servo_isr.c **** void Servo_isr_ClearPending(void)
 343:.\Generated_Source\PSoC4/Servo_isr.c **** {
 478              		.loc 1 343 0
 479              		.cfi_startproc
 480 0000 80B5     		push	{r7, lr}
 481              		.cfi_def_cfa_offset 8
 482              		.cfi_offset 7, -8
 483              		.cfi_offset 14, -4
 484 0002 00AF     		add	r7, sp, #0
 485              		.cfi_def_cfa_register 7
 344:.\Generated_Source\PSoC4/Servo_isr.c ****     *Servo_isr_INTC_CLR_PD = Servo_isr__INTC_MASK;
 486              		.loc 1 344 0
 487 0004 024B     		ldr	r3, .L39
 488 0006 8022     		mov	r2, #128
 489 0008 9202     		lsl	r2, r2, #10
 490 000a 1A60     		str	r2, [r3]
 345:.\Generated_Source\PSoC4/Servo_isr.c **** }
 491              		.loc 1 345 0
 492 000c BD46     		mov	sp, r7
 493              		@ sp needed
 494 000e 80BD     		pop	{r7, pc}
 495              	.L40:
 496              		.align	2
 497              	.L39:
 498 0010 80E200E0 		.word	-536812928
 499              		.cfi_endproc
 500              	.LFE12:
 501              		.size	Servo_isr_ClearPending, .-Servo_isr_ClearPending
 502              		.text
 503              	.Letext0:
 504              		.file 2 ".\\Generated_Source\\PSoC4/cytypes.h"