ARM GAS  C:\Users\Clayton\AppData\Local\Temp\ccxaoGNk.s 			page 1


   1              		.cpu cortex-m0
   2              		.fpu softvfp
   3              		.eabi_attribute 20, 1
   4              		.eabi_attribute 21, 1
   5              		.eabi_attribute 23, 3
   6              		.eabi_attribute 24, 1
   7              		.eabi_attribute 25, 1
   8              		.eabi_attribute 26, 1
   9              		.eabi_attribute 30, 6
  10              		.eabi_attribute 34, 0
  11              		.eabi_attribute 18, 4
  12              		.code	16
  13              		.file	"SignalGenerator.c"
  14              		.text
  15              	.Ltext0:
  16              		.cfi_sections	.debug_frame
  17              		.global	SignalGenerator_initVar
  18              		.bss
  19              		.type	SignalGenerator_initVar, %object
  20              		.size	SignalGenerator_initVar, 1
  21              	SignalGenerator_initVar:
  22 0000 00       		.space	1
  23              		.section	.text.SignalGenerator_Init,"ax",%progbits
  24              		.align	2
  25              		.global	SignalGenerator_Init
  26              		.code	16
  27              		.thumb_func
  28              		.type	SignalGenerator_Init, %function
  29              	SignalGenerator_Init:
  30              	.LFB0:
  31              		.file 1 ".\\Generated_Source\\PSoC4\\SignalGenerator.c"
   1:.\Generated_Source\PSoC4/SignalGenerator.c **** /*******************************************************************************
   2:.\Generated_Source\PSoC4/SignalGenerator.c **** * File Name: SignalGenerator.c
   3:.\Generated_Source\PSoC4/SignalGenerator.c **** * Version 2.0
   4:.\Generated_Source\PSoC4/SignalGenerator.c **** *
   5:.\Generated_Source\PSoC4/SignalGenerator.c **** * Description:
   6:.\Generated_Source\PSoC4/SignalGenerator.c **** *  This file provides the source code to the API for the SignalGenerator
   7:.\Generated_Source\PSoC4/SignalGenerator.c **** *  component
   8:.\Generated_Source\PSoC4/SignalGenerator.c **** *
   9:.\Generated_Source\PSoC4/SignalGenerator.c **** * Note:
  10:.\Generated_Source\PSoC4/SignalGenerator.c **** *  None
  11:.\Generated_Source\PSoC4/SignalGenerator.c **** *
  12:.\Generated_Source\PSoC4/SignalGenerator.c **** ********************************************************************************
  13:.\Generated_Source\PSoC4/SignalGenerator.c **** * Copyright 2013-2014, Cypress Semiconductor Corporation.  All rights reserved.
  14:.\Generated_Source\PSoC4/SignalGenerator.c **** * You may use this file only in accordance with the license, terms, conditions,
  15:.\Generated_Source\PSoC4/SignalGenerator.c **** * disclaimers, and limitations in the end user license agreement accompanying
  16:.\Generated_Source\PSoC4/SignalGenerator.c **** * the software package with which this file was provided.
  17:.\Generated_Source\PSoC4/SignalGenerator.c **** *******************************************************************************/
  18:.\Generated_Source\PSoC4/SignalGenerator.c **** 
  19:.\Generated_Source\PSoC4/SignalGenerator.c **** #include "SignalGenerator.h"
  20:.\Generated_Source\PSoC4/SignalGenerator.c **** 
  21:.\Generated_Source\PSoC4/SignalGenerator.c **** uint8 SignalGenerator_initVar = 0u;
  22:.\Generated_Source\PSoC4/SignalGenerator.c **** 
  23:.\Generated_Source\PSoC4/SignalGenerator.c **** 
  24:.\Generated_Source\PSoC4/SignalGenerator.c **** /*******************************************************************************
  25:.\Generated_Source\PSoC4/SignalGenerator.c **** * Function Name: SignalGenerator_Init
  26:.\Generated_Source\PSoC4/SignalGenerator.c **** ********************************************************************************
ARM GAS  C:\Users\Clayton\AppData\Local\Temp\ccxaoGNk.s 			page 2


  27:.\Generated_Source\PSoC4/SignalGenerator.c **** *
  28:.\Generated_Source\PSoC4/SignalGenerator.c **** * Summary:
  29:.\Generated_Source\PSoC4/SignalGenerator.c **** *  Initialize/Restore default SignalGenerator configuration.
  30:.\Generated_Source\PSoC4/SignalGenerator.c **** *
  31:.\Generated_Source\PSoC4/SignalGenerator.c **** * Parameters:
  32:.\Generated_Source\PSoC4/SignalGenerator.c **** *  None
  33:.\Generated_Source\PSoC4/SignalGenerator.c **** *
  34:.\Generated_Source\PSoC4/SignalGenerator.c **** * Return:
  35:.\Generated_Source\PSoC4/SignalGenerator.c **** *  None
  36:.\Generated_Source\PSoC4/SignalGenerator.c **** *
  37:.\Generated_Source\PSoC4/SignalGenerator.c **** *******************************************************************************/
  38:.\Generated_Source\PSoC4/SignalGenerator.c **** void SignalGenerator_Init(void)
  39:.\Generated_Source\PSoC4/SignalGenerator.c **** {
  32              		.loc 1 39 0
  33              		.cfi_startproc
  34 0000 80B5     		push	{r7, lr}
  35              		.cfi_def_cfa_offset 8
  36              		.cfi_offset 7, -8
  37              		.cfi_offset 14, -4
  38 0002 00AF     		add	r7, sp, #0
  39              		.cfi_def_cfa_register 7
  40:.\Generated_Source\PSoC4/SignalGenerator.c **** 
  41:.\Generated_Source\PSoC4/SignalGenerator.c ****     /* Set values from customizer to CTRL */
  42:.\Generated_Source\PSoC4/SignalGenerator.c ****     #if (SignalGenerator__QUAD == SignalGenerator_CONFIG)
  43:.\Generated_Source\PSoC4/SignalGenerator.c ****         SignalGenerator_CONTROL_REG = SignalGenerator_CTRL_QUAD_BASE_CONFIG;
  44:.\Generated_Source\PSoC4/SignalGenerator.c ****         
  45:.\Generated_Source\PSoC4/SignalGenerator.c ****         /* Set values from customizer to CTRL1 */
  46:.\Generated_Source\PSoC4/SignalGenerator.c ****         SignalGenerator_TRIG_CONTROL1_REG  = SignalGenerator_QUAD_SIGNALS_MODES;
  47:.\Generated_Source\PSoC4/SignalGenerator.c **** 
  48:.\Generated_Source\PSoC4/SignalGenerator.c ****         /* Set values from customizer to INTR */
  49:.\Generated_Source\PSoC4/SignalGenerator.c ****         SignalGenerator_SetInterruptMode(SignalGenerator_QUAD_INTERRUPT_MASK);
  50:.\Generated_Source\PSoC4/SignalGenerator.c ****         
  51:.\Generated_Source\PSoC4/SignalGenerator.c ****          /* Set other values */
  52:.\Generated_Source\PSoC4/SignalGenerator.c ****         SignalGenerator_SetCounterMode(SignalGenerator_COUNT_DOWN);
  53:.\Generated_Source\PSoC4/SignalGenerator.c ****         SignalGenerator_WritePeriod(SignalGenerator_QUAD_PERIOD_INIT_VALUE);
  54:.\Generated_Source\PSoC4/SignalGenerator.c ****         SignalGenerator_WriteCounter(SignalGenerator_QUAD_PERIOD_INIT_VALUE);
  55:.\Generated_Source\PSoC4/SignalGenerator.c ****     #endif  /* (SignalGenerator__QUAD == SignalGenerator_CONFIG) */
  56:.\Generated_Source\PSoC4/SignalGenerator.c **** 
  57:.\Generated_Source\PSoC4/SignalGenerator.c ****     #if (SignalGenerator__TIMER == SignalGenerator_CONFIG)
  58:.\Generated_Source\PSoC4/SignalGenerator.c ****         SignalGenerator_CONTROL_REG = SignalGenerator_CTRL_TIMER_BASE_CONFIG;
  40              		.loc 1 58 0
  41 0004 0A4B     		ldr	r3, .L2
  42 0006 0022     		mov	r2, #0
  43 0008 1A60     		str	r2, [r3]
  59:.\Generated_Source\PSoC4/SignalGenerator.c ****         
  60:.\Generated_Source\PSoC4/SignalGenerator.c ****         /* Set values from customizer to CTRL1 */
  61:.\Generated_Source\PSoC4/SignalGenerator.c ****         SignalGenerator_TRIG_CONTROL1_REG  = SignalGenerator_TIMER_SIGNALS_MODES;
  44              		.loc 1 61 0
  45 000a 0A4B     		ldr	r3, .L2+4
  46 000c 0C22     		mov	r2, #12
  47 000e 1A60     		str	r2, [r3]
  62:.\Generated_Source\PSoC4/SignalGenerator.c ****     
  63:.\Generated_Source\PSoC4/SignalGenerator.c ****         /* Set values from customizer to INTR */
  64:.\Generated_Source\PSoC4/SignalGenerator.c ****         SignalGenerator_SetInterruptMode(SignalGenerator_TC_INTERRUPT_MASK);
  48              		.loc 1 64 0
  49 0010 0220     		mov	r0, #2
  50 0012 FFF7FEFF 		bl	SignalGenerator_SetInterruptMode
ARM GAS  C:\Users\Clayton\AppData\Local\Temp\ccxaoGNk.s 			page 3


  65:.\Generated_Source\PSoC4/SignalGenerator.c ****         
  66:.\Generated_Source\PSoC4/SignalGenerator.c ****         /* Set other values from customizer */
  67:.\Generated_Source\PSoC4/SignalGenerator.c ****         SignalGenerator_WritePeriod(SignalGenerator_TC_PERIOD_VALUE );
  51              		.loc 1 67 0
  52 0016 084B     		ldr	r3, .L2+8
  53 0018 181C     		mov	r0, r3
  54 001a FFF7FEFF 		bl	SignalGenerator_WritePeriod
  68:.\Generated_Source\PSoC4/SignalGenerator.c **** 
  69:.\Generated_Source\PSoC4/SignalGenerator.c ****         #if (SignalGenerator__COMPARE == SignalGenerator_TC_COMP_CAP_MODE)
  70:.\Generated_Source\PSoC4/SignalGenerator.c ****             SignalGenerator_WriteCompare(SignalGenerator_TC_COMPARE_VALUE);
  55              		.loc 1 70 0
  56 001e 074B     		ldr	r3, .L2+12
  57 0020 181C     		mov	r0, r3
  58 0022 FFF7FEFF 		bl	SignalGenerator_WriteCompare
  71:.\Generated_Source\PSoC4/SignalGenerator.c **** 
  72:.\Generated_Source\PSoC4/SignalGenerator.c ****             #if (1u == SignalGenerator_TC_COMPARE_SWAP)
  73:.\Generated_Source\PSoC4/SignalGenerator.c ****                 SignalGenerator_SetCompareSwap(1u);
  74:.\Generated_Source\PSoC4/SignalGenerator.c ****                 SignalGenerator_WriteCompareBuf(SignalGenerator_TC_COMPARE_BUF_VALUE);
  75:.\Generated_Source\PSoC4/SignalGenerator.c ****             #endif  /* (1u == SignalGenerator_TC_COMPARE_SWAP) */
  76:.\Generated_Source\PSoC4/SignalGenerator.c ****         #endif  /* (SignalGenerator__COMPARE == SignalGenerator_TC_COMP_CAP_MODE) */
  77:.\Generated_Source\PSoC4/SignalGenerator.c **** 
  78:.\Generated_Source\PSoC4/SignalGenerator.c ****         /* Initialize counter value */
  79:.\Generated_Source\PSoC4/SignalGenerator.c ****         #if (SignalGenerator_CY_TCPWM_V2 && SignalGenerator_TIMER_UPDOWN_CNT_USED && !SignalGenerat
  80:.\Generated_Source\PSoC4/SignalGenerator.c ****             SignalGenerator_WriteCounter(1u);
  81:.\Generated_Source\PSoC4/SignalGenerator.c ****         #elif(SignalGenerator__COUNT_DOWN == SignalGenerator_TC_COUNTER_MODE)
  82:.\Generated_Source\PSoC4/SignalGenerator.c ****             SignalGenerator_WriteCounter(SignalGenerator_TC_PERIOD_VALUE);
  83:.\Generated_Source\PSoC4/SignalGenerator.c ****         #else
  84:.\Generated_Source\PSoC4/SignalGenerator.c ****             SignalGenerator_WriteCounter(0u);
  59              		.loc 1 84 0
  60 0026 0020     		mov	r0, #0
  61 0028 FFF7FEFF 		bl	SignalGenerator_WriteCounter
  85:.\Generated_Source\PSoC4/SignalGenerator.c ****         #endif /* (SignalGenerator_CY_TCPWM_V2 && SignalGenerator_TIMER_UPDOWN_CNT_USED && !SignalG
  86:.\Generated_Source\PSoC4/SignalGenerator.c ****     #endif  /* (SignalGenerator__TIMER == SignalGenerator_CONFIG) */
  87:.\Generated_Source\PSoC4/SignalGenerator.c **** 
  88:.\Generated_Source\PSoC4/SignalGenerator.c ****     #if (SignalGenerator__PWM_SEL == SignalGenerator_CONFIG)
  89:.\Generated_Source\PSoC4/SignalGenerator.c ****         SignalGenerator_CONTROL_REG = SignalGenerator_CTRL_PWM_BASE_CONFIG;
  90:.\Generated_Source\PSoC4/SignalGenerator.c **** 
  91:.\Generated_Source\PSoC4/SignalGenerator.c ****         #if (SignalGenerator__PWM_PR == SignalGenerator_PWM_MODE)
  92:.\Generated_Source\PSoC4/SignalGenerator.c ****             SignalGenerator_CONTROL_REG |= SignalGenerator_CTRL_PWM_RUN_MODE;
  93:.\Generated_Source\PSoC4/SignalGenerator.c ****             SignalGenerator_WriteCounter(SignalGenerator_PWM_PR_INIT_VALUE);
  94:.\Generated_Source\PSoC4/SignalGenerator.c ****         #else
  95:.\Generated_Source\PSoC4/SignalGenerator.c ****             SignalGenerator_CONTROL_REG |= SignalGenerator_CTRL_PWM_ALIGN | SignalGenerator_CTRL_PW
  96:.\Generated_Source\PSoC4/SignalGenerator.c ****             
  97:.\Generated_Source\PSoC4/SignalGenerator.c ****             /* Initialize counter value */
  98:.\Generated_Source\PSoC4/SignalGenerator.c ****             #if (SignalGenerator_CY_TCPWM_V2 && SignalGenerator_PWM_UPDOWN_CNT_USED && !SignalGener
  99:.\Generated_Source\PSoC4/SignalGenerator.c ****                 SignalGenerator_WriteCounter(1u);
 100:.\Generated_Source\PSoC4/SignalGenerator.c ****             #elif (SignalGenerator__RIGHT == SignalGenerator_PWM_ALIGN)
 101:.\Generated_Source\PSoC4/SignalGenerator.c ****                 SignalGenerator_WriteCounter(SignalGenerator_PWM_PERIOD_VALUE);
 102:.\Generated_Source\PSoC4/SignalGenerator.c ****             #else 
 103:.\Generated_Source\PSoC4/SignalGenerator.c ****                 SignalGenerator_WriteCounter(0u);
 104:.\Generated_Source\PSoC4/SignalGenerator.c ****             #endif  /* (SignalGenerator_CY_TCPWM_V2 && SignalGenerator_PWM_UPDOWN_CNT_USED && !Sign
 105:.\Generated_Source\PSoC4/SignalGenerator.c ****         #endif  /* (SignalGenerator__PWM_PR == SignalGenerator_PWM_MODE) */
 106:.\Generated_Source\PSoC4/SignalGenerator.c **** 
 107:.\Generated_Source\PSoC4/SignalGenerator.c ****         #if (SignalGenerator__PWM_DT == SignalGenerator_PWM_MODE)
 108:.\Generated_Source\PSoC4/SignalGenerator.c ****             SignalGenerator_CONTROL_REG |= SignalGenerator_CTRL_PWM_DEAD_TIME_CYCLE;
 109:.\Generated_Source\PSoC4/SignalGenerator.c ****         #endif  /* (SignalGenerator__PWM_DT == SignalGenerator_PWM_MODE) */
 110:.\Generated_Source\PSoC4/SignalGenerator.c **** 
ARM GAS  C:\Users\Clayton\AppData\Local\Temp\ccxaoGNk.s 			page 4


 111:.\Generated_Source\PSoC4/SignalGenerator.c ****         #if (SignalGenerator__PWM == SignalGenerator_PWM_MODE)
 112:.\Generated_Source\PSoC4/SignalGenerator.c ****             SignalGenerator_CONTROL_REG |= SignalGenerator_CTRL_PWM_PRESCALER;
 113:.\Generated_Source\PSoC4/SignalGenerator.c ****         #endif  /* (SignalGenerator__PWM == SignalGenerator_PWM_MODE) */
 114:.\Generated_Source\PSoC4/SignalGenerator.c **** 
 115:.\Generated_Source\PSoC4/SignalGenerator.c ****         /* Set values from customizer to CTRL1 */
 116:.\Generated_Source\PSoC4/SignalGenerator.c ****         SignalGenerator_TRIG_CONTROL1_REG  = SignalGenerator_PWM_SIGNALS_MODES;
 117:.\Generated_Source\PSoC4/SignalGenerator.c ****     
 118:.\Generated_Source\PSoC4/SignalGenerator.c ****         /* Set values from customizer to INTR */
 119:.\Generated_Source\PSoC4/SignalGenerator.c ****         SignalGenerator_SetInterruptMode(SignalGenerator_PWM_INTERRUPT_MASK);
 120:.\Generated_Source\PSoC4/SignalGenerator.c **** 
 121:.\Generated_Source\PSoC4/SignalGenerator.c ****         /* Set values from customizer to CTRL2 */
 122:.\Generated_Source\PSoC4/SignalGenerator.c ****         #if (SignalGenerator__PWM_PR == SignalGenerator_PWM_MODE)
 123:.\Generated_Source\PSoC4/SignalGenerator.c ****             SignalGenerator_TRIG_CONTROL2_REG =
 124:.\Generated_Source\PSoC4/SignalGenerator.c ****                     (SignalGenerator_CC_MATCH_NO_CHANGE    |
 125:.\Generated_Source\PSoC4/SignalGenerator.c ****                     SignalGenerator_OVERLOW_NO_CHANGE      |
 126:.\Generated_Source\PSoC4/SignalGenerator.c ****                     SignalGenerator_UNDERFLOW_NO_CHANGE);
 127:.\Generated_Source\PSoC4/SignalGenerator.c ****         #else
 128:.\Generated_Source\PSoC4/SignalGenerator.c ****             #if (SignalGenerator__LEFT == SignalGenerator_PWM_ALIGN)
 129:.\Generated_Source\PSoC4/SignalGenerator.c ****                 SignalGenerator_TRIG_CONTROL2_REG = SignalGenerator_PWM_MODE_LEFT;
 130:.\Generated_Source\PSoC4/SignalGenerator.c ****             #endif  /* ( SignalGenerator_PWM_LEFT == SignalGenerator_PWM_ALIGN) */
 131:.\Generated_Source\PSoC4/SignalGenerator.c **** 
 132:.\Generated_Source\PSoC4/SignalGenerator.c ****             #if (SignalGenerator__RIGHT == SignalGenerator_PWM_ALIGN)
 133:.\Generated_Source\PSoC4/SignalGenerator.c ****                 SignalGenerator_TRIG_CONTROL2_REG = SignalGenerator_PWM_MODE_RIGHT;
 134:.\Generated_Source\PSoC4/SignalGenerator.c ****             #endif  /* ( SignalGenerator_PWM_RIGHT == SignalGenerator_PWM_ALIGN) */
 135:.\Generated_Source\PSoC4/SignalGenerator.c **** 
 136:.\Generated_Source\PSoC4/SignalGenerator.c ****             #if (SignalGenerator__CENTER == SignalGenerator_PWM_ALIGN)
 137:.\Generated_Source\PSoC4/SignalGenerator.c ****                 SignalGenerator_TRIG_CONTROL2_REG = SignalGenerator_PWM_MODE_CENTER;
 138:.\Generated_Source\PSoC4/SignalGenerator.c ****             #endif  /* ( SignalGenerator_PWM_CENTER == SignalGenerator_PWM_ALIGN) */
 139:.\Generated_Source\PSoC4/SignalGenerator.c **** 
 140:.\Generated_Source\PSoC4/SignalGenerator.c ****             #if (SignalGenerator__ASYMMETRIC == SignalGenerator_PWM_ALIGN)
 141:.\Generated_Source\PSoC4/SignalGenerator.c ****                 SignalGenerator_TRIG_CONTROL2_REG = SignalGenerator_PWM_MODE_ASYM;
 142:.\Generated_Source\PSoC4/SignalGenerator.c ****             #endif  /* (SignalGenerator__ASYMMETRIC == SignalGenerator_PWM_ALIGN) */
 143:.\Generated_Source\PSoC4/SignalGenerator.c ****         #endif  /* (SignalGenerator__PWM_PR == SignalGenerator_PWM_MODE) */
 144:.\Generated_Source\PSoC4/SignalGenerator.c **** 
 145:.\Generated_Source\PSoC4/SignalGenerator.c ****         /* Set other values from customizer */
 146:.\Generated_Source\PSoC4/SignalGenerator.c ****         SignalGenerator_WritePeriod(SignalGenerator_PWM_PERIOD_VALUE );
 147:.\Generated_Source\PSoC4/SignalGenerator.c ****         SignalGenerator_WriteCompare(SignalGenerator_PWM_COMPARE_VALUE);
 148:.\Generated_Source\PSoC4/SignalGenerator.c **** 
 149:.\Generated_Source\PSoC4/SignalGenerator.c ****         #if (1u == SignalGenerator_PWM_COMPARE_SWAP)
 150:.\Generated_Source\PSoC4/SignalGenerator.c ****             SignalGenerator_SetCompareSwap(1u);
 151:.\Generated_Source\PSoC4/SignalGenerator.c ****             SignalGenerator_WriteCompareBuf(SignalGenerator_PWM_COMPARE_BUF_VALUE);
 152:.\Generated_Source\PSoC4/SignalGenerator.c ****         #endif  /* (1u == SignalGenerator_PWM_COMPARE_SWAP) */
 153:.\Generated_Source\PSoC4/SignalGenerator.c **** 
 154:.\Generated_Source\PSoC4/SignalGenerator.c ****         #if (1u == SignalGenerator_PWM_PERIOD_SWAP)
 155:.\Generated_Source\PSoC4/SignalGenerator.c ****             SignalGenerator_SetPeriodSwap(1u);
 156:.\Generated_Source\PSoC4/SignalGenerator.c ****             SignalGenerator_WritePeriodBuf(SignalGenerator_PWM_PERIOD_BUF_VALUE);
 157:.\Generated_Source\PSoC4/SignalGenerator.c ****         #endif  /* (1u == SignalGenerator_PWM_PERIOD_SWAP) */
 158:.\Generated_Source\PSoC4/SignalGenerator.c ****     #endif  /* (SignalGenerator__PWM_SEL == SignalGenerator_CONFIG) */
 159:.\Generated_Source\PSoC4/SignalGenerator.c ****     
 160:.\Generated_Source\PSoC4/SignalGenerator.c **** }
  62              		.loc 1 160 0
  63 002c BD46     		mov	sp, r7
  64              		@ sp needed
  65 002e 80BD     		pop	{r7, pc}
  66              	.L3:
  67              		.align	2
  68              	.L2:
ARM GAS  C:\Users\Clayton\AppData\Local\Temp\ccxaoGNk.s 			page 5


  69 0030 40010540 		.word	1074069824
  70 0034 64010540 		.word	1074069860
  71 0038 204E0000 		.word	20000
  72 003c DC050000 		.word	1500
  73              		.cfi_endproc
  74              	.LFE0:
  75              		.size	SignalGenerator_Init, .-SignalGenerator_Init
  76              		.section	.text.SignalGenerator_Enable,"ax",%progbits
  77              		.align	2
  78              		.global	SignalGenerator_Enable
  79              		.code	16
  80              		.thumb_func
  81              		.type	SignalGenerator_Enable, %function
  82              	SignalGenerator_Enable:
  83              	.LFB1:
 161:.\Generated_Source\PSoC4/SignalGenerator.c **** 
 162:.\Generated_Source\PSoC4/SignalGenerator.c **** 
 163:.\Generated_Source\PSoC4/SignalGenerator.c **** /*******************************************************************************
 164:.\Generated_Source\PSoC4/SignalGenerator.c **** * Function Name: SignalGenerator_Enable
 165:.\Generated_Source\PSoC4/SignalGenerator.c **** ********************************************************************************
 166:.\Generated_Source\PSoC4/SignalGenerator.c **** *
 167:.\Generated_Source\PSoC4/SignalGenerator.c **** * Summary:
 168:.\Generated_Source\PSoC4/SignalGenerator.c **** *  Enables the SignalGenerator.
 169:.\Generated_Source\PSoC4/SignalGenerator.c **** *
 170:.\Generated_Source\PSoC4/SignalGenerator.c **** * Parameters:
 171:.\Generated_Source\PSoC4/SignalGenerator.c **** *  None
 172:.\Generated_Source\PSoC4/SignalGenerator.c **** *
 173:.\Generated_Source\PSoC4/SignalGenerator.c **** * Return:
 174:.\Generated_Source\PSoC4/SignalGenerator.c **** *  None
 175:.\Generated_Source\PSoC4/SignalGenerator.c **** *
 176:.\Generated_Source\PSoC4/SignalGenerator.c **** *******************************************************************************/
 177:.\Generated_Source\PSoC4/SignalGenerator.c **** void SignalGenerator_Enable(void)
 178:.\Generated_Source\PSoC4/SignalGenerator.c **** {
  84              		.loc 1 178 0
  85              		.cfi_startproc
  86 0000 90B5     		push	{r4, r7, lr}
  87              		.cfi_def_cfa_offset 12
  88              		.cfi_offset 4, -12
  89              		.cfi_offset 7, -8
  90              		.cfi_offset 14, -4
  91 0002 83B0     		sub	sp, sp, #12
  92              		.cfi_def_cfa_offset 24
  93 0004 00AF     		add	r7, sp, #0
  94              		.cfi_def_cfa_register 7
 179:.\Generated_Source\PSoC4/SignalGenerator.c ****     uint8 enableInterrupts;
 180:.\Generated_Source\PSoC4/SignalGenerator.c **** 
 181:.\Generated_Source\PSoC4/SignalGenerator.c ****     enableInterrupts = CyEnterCriticalSection();
  95              		.loc 1 181 0
  96 0006 FC1D     		add	r4, r7, #7
  97 0008 FFF7FEFF 		bl	CyEnterCriticalSection
  98 000c 031C     		mov	r3, r0
  99 000e 2370     		strb	r3, [r4]
 182:.\Generated_Source\PSoC4/SignalGenerator.c ****     SignalGenerator_BLOCK_CONTROL_REG |= SignalGenerator_MASK;
 100              		.loc 1 182 0
 101 0010 084B     		ldr	r3, .L5
 102 0012 084A     		ldr	r2, .L5
 103 0014 1268     		ldr	r2, [r2]
ARM GAS  C:\Users\Clayton\AppData\Local\Temp\ccxaoGNk.s 			page 6


 104 0016 0221     		mov	r1, #2
 105 0018 0A43     		orr	r2, r1
 106 001a 1A60     		str	r2, [r3]
 183:.\Generated_Source\PSoC4/SignalGenerator.c ****     CyExitCriticalSection(enableInterrupts);
 107              		.loc 1 183 0
 108 001c FB1D     		add	r3, r7, #7
 109 001e 1B78     		ldrb	r3, [r3]
 110 0020 181C     		mov	r0, r3
 111 0022 FFF7FEFF 		bl	CyExitCriticalSection
 184:.\Generated_Source\PSoC4/SignalGenerator.c **** 
 185:.\Generated_Source\PSoC4/SignalGenerator.c ****     /* Start Timer or PWM if start input is absent */
 186:.\Generated_Source\PSoC4/SignalGenerator.c ****     #if (SignalGenerator__PWM_SEL == SignalGenerator_CONFIG)
 187:.\Generated_Source\PSoC4/SignalGenerator.c ****         #if (0u == SignalGenerator_PWM_START_SIGNAL_PRESENT)
 188:.\Generated_Source\PSoC4/SignalGenerator.c ****             SignalGenerator_TriggerCommand(SignalGenerator_MASK, SignalGenerator_CMD_START);
 189:.\Generated_Source\PSoC4/SignalGenerator.c ****         #endif /* (0u == SignalGenerator_PWM_START_SIGNAL_PRESENT) */
 190:.\Generated_Source\PSoC4/SignalGenerator.c ****     #endif /* (SignalGenerator__PWM_SEL == SignalGenerator_CONFIG) */
 191:.\Generated_Source\PSoC4/SignalGenerator.c **** 
 192:.\Generated_Source\PSoC4/SignalGenerator.c ****     #if (SignalGenerator__TIMER == SignalGenerator_CONFIG)
 193:.\Generated_Source\PSoC4/SignalGenerator.c ****         #if (0u == SignalGenerator_TC_START_SIGNAL_PRESENT)
 194:.\Generated_Source\PSoC4/SignalGenerator.c ****             SignalGenerator_TriggerCommand(SignalGenerator_MASK, SignalGenerator_CMD_START);
 112              		.loc 1 194 0
 113 0026 0220     		mov	r0, #2
 114 0028 1821     		mov	r1, #24
 115 002a FFF7FEFF 		bl	SignalGenerator_TriggerCommand
 195:.\Generated_Source\PSoC4/SignalGenerator.c ****         #endif /* (0u == SignalGenerator_TC_START_SIGNAL_PRESENT) */
 196:.\Generated_Source\PSoC4/SignalGenerator.c ****     #endif /* (SignalGenerator__TIMER == SignalGenerator_CONFIG) */
 197:.\Generated_Source\PSoC4/SignalGenerator.c **** }
 116              		.loc 1 197 0
 117 002e BD46     		mov	sp, r7
 118 0030 03B0     		add	sp, sp, #12
 119              		@ sp needed
 120 0032 90BD     		pop	{r4, r7, pc}
 121              	.L6:
 122              		.align	2
 123              	.L5:
 124 0034 00000540 		.word	1074069504
 125              		.cfi_endproc
 126              	.LFE1:
 127              		.size	SignalGenerator_Enable, .-SignalGenerator_Enable
 128              		.section	.text.SignalGenerator_Start,"ax",%progbits
 129              		.align	2
 130              		.global	SignalGenerator_Start
 131              		.code	16
 132              		.thumb_func
 133              		.type	SignalGenerator_Start, %function
 134              	SignalGenerator_Start:
 135              	.LFB2:
 198:.\Generated_Source\PSoC4/SignalGenerator.c **** 
 199:.\Generated_Source\PSoC4/SignalGenerator.c **** 
 200:.\Generated_Source\PSoC4/SignalGenerator.c **** /*******************************************************************************
 201:.\Generated_Source\PSoC4/SignalGenerator.c **** * Function Name: SignalGenerator_Start
 202:.\Generated_Source\PSoC4/SignalGenerator.c **** ********************************************************************************
 203:.\Generated_Source\PSoC4/SignalGenerator.c **** *
 204:.\Generated_Source\PSoC4/SignalGenerator.c **** * Summary:
 205:.\Generated_Source\PSoC4/SignalGenerator.c **** *  Initializes the SignalGenerator with default customizer
 206:.\Generated_Source\PSoC4/SignalGenerator.c **** *  values when called the first time and enables the SignalGenerator.
 207:.\Generated_Source\PSoC4/SignalGenerator.c **** *  For subsequent calls the configuration is left unchanged and the component is
ARM GAS  C:\Users\Clayton\AppData\Local\Temp\ccxaoGNk.s 			page 7


 208:.\Generated_Source\PSoC4/SignalGenerator.c **** *  just enabled.
 209:.\Generated_Source\PSoC4/SignalGenerator.c **** *
 210:.\Generated_Source\PSoC4/SignalGenerator.c **** * Parameters:
 211:.\Generated_Source\PSoC4/SignalGenerator.c **** *  None
 212:.\Generated_Source\PSoC4/SignalGenerator.c **** *
 213:.\Generated_Source\PSoC4/SignalGenerator.c **** * Return:
 214:.\Generated_Source\PSoC4/SignalGenerator.c **** *  None
 215:.\Generated_Source\PSoC4/SignalGenerator.c **** *
 216:.\Generated_Source\PSoC4/SignalGenerator.c **** * Global variables:
 217:.\Generated_Source\PSoC4/SignalGenerator.c **** *  SignalGenerator_initVar: global variable is used to indicate initial
 218:.\Generated_Source\PSoC4/SignalGenerator.c **** *  configuration of this component.  The variable is initialized to zero and set
 219:.\Generated_Source\PSoC4/SignalGenerator.c **** *  to 1 the first time SignalGenerator_Start() is called. This allows
 220:.\Generated_Source\PSoC4/SignalGenerator.c **** *  enabling/disabling a component without re-initialization in all subsequent
 221:.\Generated_Source\PSoC4/SignalGenerator.c **** *  calls to the SignalGenerator_Start() routine.
 222:.\Generated_Source\PSoC4/SignalGenerator.c **** *
 223:.\Generated_Source\PSoC4/SignalGenerator.c **** *******************************************************************************/
 224:.\Generated_Source\PSoC4/SignalGenerator.c **** void SignalGenerator_Start(void)
 225:.\Generated_Source\PSoC4/SignalGenerator.c **** {
 136              		.loc 1 225 0
 137              		.cfi_startproc
 138 0000 80B5     		push	{r7, lr}
 139              		.cfi_def_cfa_offset 8
 140              		.cfi_offset 7, -8
 141              		.cfi_offset 14, -4
 142 0002 00AF     		add	r7, sp, #0
 143              		.cfi_def_cfa_register 7
 226:.\Generated_Source\PSoC4/SignalGenerator.c ****     if (0u == SignalGenerator_initVar)
 144              		.loc 1 226 0
 145 0004 064B     		ldr	r3, .L9
 146 0006 1B78     		ldrb	r3, [r3]
 147 0008 002B     		cmp	r3, #0
 148 000a 04D1     		bne	.L8
 227:.\Generated_Source\PSoC4/SignalGenerator.c ****     {
 228:.\Generated_Source\PSoC4/SignalGenerator.c ****         SignalGenerator_Init();
 149              		.loc 1 228 0
 150 000c FFF7FEFF 		bl	SignalGenerator_Init
 229:.\Generated_Source\PSoC4/SignalGenerator.c ****         SignalGenerator_initVar = 1u;
 151              		.loc 1 229 0
 152 0010 034B     		ldr	r3, .L9
 153 0012 0122     		mov	r2, #1
 154 0014 1A70     		strb	r2, [r3]
 155              	.L8:
 230:.\Generated_Source\PSoC4/SignalGenerator.c ****     }
 231:.\Generated_Source\PSoC4/SignalGenerator.c **** 
 232:.\Generated_Source\PSoC4/SignalGenerator.c ****     SignalGenerator_Enable();
 156              		.loc 1 232 0
 157 0016 FFF7FEFF 		bl	SignalGenerator_Enable
 233:.\Generated_Source\PSoC4/SignalGenerator.c **** }
 158              		.loc 1 233 0
 159 001a BD46     		mov	sp, r7
 160              		@ sp needed
 161 001c 80BD     		pop	{r7, pc}
 162              	.L10:
 163 001e C046     		.align	2
 164              	.L9:
 165 0020 00000000 		.word	SignalGenerator_initVar
 166              		.cfi_endproc
ARM GAS  C:\Users\Clayton\AppData\Local\Temp\ccxaoGNk.s 			page 8


 167              	.LFE2:
 168              		.size	SignalGenerator_Start, .-SignalGenerator_Start
 169              		.section	.text.SignalGenerator_Stop,"ax",%progbits
 170              		.align	2
 171              		.global	SignalGenerator_Stop
 172              		.code	16
 173              		.thumb_func
 174              		.type	SignalGenerator_Stop, %function
 175              	SignalGenerator_Stop:
 176              	.LFB3:
 234:.\Generated_Source\PSoC4/SignalGenerator.c **** 
 235:.\Generated_Source\PSoC4/SignalGenerator.c **** 
 236:.\Generated_Source\PSoC4/SignalGenerator.c **** /*******************************************************************************
 237:.\Generated_Source\PSoC4/SignalGenerator.c **** * Function Name: SignalGenerator_Stop
 238:.\Generated_Source\PSoC4/SignalGenerator.c **** ********************************************************************************
 239:.\Generated_Source\PSoC4/SignalGenerator.c **** *
 240:.\Generated_Source\PSoC4/SignalGenerator.c **** * Summary:
 241:.\Generated_Source\PSoC4/SignalGenerator.c **** *  Disables the SignalGenerator.
 242:.\Generated_Source\PSoC4/SignalGenerator.c **** *
 243:.\Generated_Source\PSoC4/SignalGenerator.c **** * Parameters:
 244:.\Generated_Source\PSoC4/SignalGenerator.c **** *  None
 245:.\Generated_Source\PSoC4/SignalGenerator.c **** *
 246:.\Generated_Source\PSoC4/SignalGenerator.c **** * Return:
 247:.\Generated_Source\PSoC4/SignalGenerator.c **** *  None
 248:.\Generated_Source\PSoC4/SignalGenerator.c **** *
 249:.\Generated_Source\PSoC4/SignalGenerator.c **** *******************************************************************************/
 250:.\Generated_Source\PSoC4/SignalGenerator.c **** void SignalGenerator_Stop(void)
 251:.\Generated_Source\PSoC4/SignalGenerator.c **** {
 177              		.loc 1 251 0
 178              		.cfi_startproc
 179 0000 90B5     		push	{r4, r7, lr}
 180              		.cfi_def_cfa_offset 12
 181              		.cfi_offset 4, -12
 182              		.cfi_offset 7, -8
 183              		.cfi_offset 14, -4
 184 0002 83B0     		sub	sp, sp, #12
 185              		.cfi_def_cfa_offset 24
 186 0004 00AF     		add	r7, sp, #0
 187              		.cfi_def_cfa_register 7
 252:.\Generated_Source\PSoC4/SignalGenerator.c ****     uint8 enableInterrupts;
 253:.\Generated_Source\PSoC4/SignalGenerator.c **** 
 254:.\Generated_Source\PSoC4/SignalGenerator.c ****     enableInterrupts = CyEnterCriticalSection();
 188              		.loc 1 254 0
 189 0006 FC1D     		add	r4, r7, #7
 190 0008 FFF7FEFF 		bl	CyEnterCriticalSection
 191 000c 031C     		mov	r3, r0
 192 000e 2370     		strb	r3, [r4]
 255:.\Generated_Source\PSoC4/SignalGenerator.c **** 
 256:.\Generated_Source\PSoC4/SignalGenerator.c ****     SignalGenerator_BLOCK_CONTROL_REG &= (uint32)~SignalGenerator_MASK;
 193              		.loc 1 256 0
 194 0010 064B     		ldr	r3, .L12
 195 0012 064A     		ldr	r2, .L12
 196 0014 1268     		ldr	r2, [r2]
 197 0016 0221     		mov	r1, #2
 198 0018 8A43     		bic	r2, r1
 199 001a 1A60     		str	r2, [r3]
 257:.\Generated_Source\PSoC4/SignalGenerator.c **** 
ARM GAS  C:\Users\Clayton\AppData\Local\Temp\ccxaoGNk.s 			page 9


 258:.\Generated_Source\PSoC4/SignalGenerator.c ****     CyExitCriticalSection(enableInterrupts);
 200              		.loc 1 258 0
 201 001c FB1D     		add	r3, r7, #7
 202 001e 1B78     		ldrb	r3, [r3]
 203 0020 181C     		mov	r0, r3
 204 0022 FFF7FEFF 		bl	CyExitCriticalSection
 259:.\Generated_Source\PSoC4/SignalGenerator.c **** }
 205              		.loc 1 259 0
 206 0026 BD46     		mov	sp, r7
 207 0028 03B0     		add	sp, sp, #12
 208              		@ sp needed
 209 002a 90BD     		pop	{r4, r7, pc}
 210              	.L13:
 211              		.align	2
 212              	.L12:
 213 002c 00000540 		.word	1074069504
 214              		.cfi_endproc
 215              	.LFE3:
 216              		.size	SignalGenerator_Stop, .-SignalGenerator_Stop
 217              		.section	.text.SignalGenerator_SetMode,"ax",%progbits
 218              		.align	2
 219              		.global	SignalGenerator_SetMode
 220              		.code	16
 221              		.thumb_func
 222              		.type	SignalGenerator_SetMode, %function
 223              	SignalGenerator_SetMode:
 224              	.LFB4:
 260:.\Generated_Source\PSoC4/SignalGenerator.c **** 
 261:.\Generated_Source\PSoC4/SignalGenerator.c **** 
 262:.\Generated_Source\PSoC4/SignalGenerator.c **** /*******************************************************************************
 263:.\Generated_Source\PSoC4/SignalGenerator.c **** * Function Name: SignalGenerator_SetMode
 264:.\Generated_Source\PSoC4/SignalGenerator.c **** ********************************************************************************
 265:.\Generated_Source\PSoC4/SignalGenerator.c **** *
 266:.\Generated_Source\PSoC4/SignalGenerator.c **** * Summary:
 267:.\Generated_Source\PSoC4/SignalGenerator.c **** *  Sets the operation mode of the SignalGenerator. This function is used when
 268:.\Generated_Source\PSoC4/SignalGenerator.c **** *  configured as a generic SignalGenerator and the actual mode of operation is
 269:.\Generated_Source\PSoC4/SignalGenerator.c **** *  set at runtime. The mode must be set while the component is disabled.
 270:.\Generated_Source\PSoC4/SignalGenerator.c **** *
 271:.\Generated_Source\PSoC4/SignalGenerator.c **** * Parameters:
 272:.\Generated_Source\PSoC4/SignalGenerator.c **** *  mode: Mode for the SignalGenerator to operate in
 273:.\Generated_Source\PSoC4/SignalGenerator.c **** *   Values:
 274:.\Generated_Source\PSoC4/SignalGenerator.c **** *   - SignalGenerator_MODE_TIMER_COMPARE - Timer / Counter with
 275:.\Generated_Source\PSoC4/SignalGenerator.c **** *                                                 compare capability
 276:.\Generated_Source\PSoC4/SignalGenerator.c **** *         - SignalGenerator_MODE_TIMER_CAPTURE - Timer / Counter with
 277:.\Generated_Source\PSoC4/SignalGenerator.c **** *                                                 capture capability
 278:.\Generated_Source\PSoC4/SignalGenerator.c **** *         - SignalGenerator_MODE_QUAD - Quadrature decoder
 279:.\Generated_Source\PSoC4/SignalGenerator.c **** *         - SignalGenerator_MODE_PWM - PWM
 280:.\Generated_Source\PSoC4/SignalGenerator.c **** *         - SignalGenerator_MODE_PWM_DT - PWM with dead time
 281:.\Generated_Source\PSoC4/SignalGenerator.c **** *         - SignalGenerator_MODE_PWM_PR - PWM with pseudo random capability
 282:.\Generated_Source\PSoC4/SignalGenerator.c **** *
 283:.\Generated_Source\PSoC4/SignalGenerator.c **** * Return:
 284:.\Generated_Source\PSoC4/SignalGenerator.c **** *  None
 285:.\Generated_Source\PSoC4/SignalGenerator.c **** *
 286:.\Generated_Source\PSoC4/SignalGenerator.c **** *******************************************************************************/
 287:.\Generated_Source\PSoC4/SignalGenerator.c **** void SignalGenerator_SetMode(uint32 mode)
 288:.\Generated_Source\PSoC4/SignalGenerator.c **** {
 225              		.loc 1 288 0
ARM GAS  C:\Users\Clayton\AppData\Local\Temp\ccxaoGNk.s 			page 10


 226              		.cfi_startproc
 227 0000 90B5     		push	{r4, r7, lr}
 228              		.cfi_def_cfa_offset 12
 229              		.cfi_offset 4, -12
 230              		.cfi_offset 7, -8
 231              		.cfi_offset 14, -4
 232 0002 85B0     		sub	sp, sp, #20
 233              		.cfi_def_cfa_offset 32
 234 0004 00AF     		add	r7, sp, #0
 235              		.cfi_def_cfa_register 7
 236 0006 7860     		str	r0, [r7, #4]
 289:.\Generated_Source\PSoC4/SignalGenerator.c ****     uint8 enableInterrupts;
 290:.\Generated_Source\PSoC4/SignalGenerator.c **** 
 291:.\Generated_Source\PSoC4/SignalGenerator.c ****     enableInterrupts = CyEnterCriticalSection();
 237              		.loc 1 291 0
 238 0008 3C1C     		mov	r4, r7
 239 000a 0F34     		add	r4, r4, #15
 240 000c FFF7FEFF 		bl	CyEnterCriticalSection
 241 0010 031C     		mov	r3, r0
 242 0012 2370     		strb	r3, [r4]
 292:.\Generated_Source\PSoC4/SignalGenerator.c **** 
 293:.\Generated_Source\PSoC4/SignalGenerator.c ****     SignalGenerator_CONTROL_REG &= (uint32)~SignalGenerator_MODE_MASK;
 243              		.loc 1 293 0
 244 0014 0A4B     		ldr	r3, .L15
 245 0016 0A4A     		ldr	r2, .L15
 246 0018 1168     		ldr	r1, [r2]
 247 001a 0A4A     		ldr	r2, .L15+4
 248 001c 0A40     		and	r2, r1
 249 001e 1A60     		str	r2, [r3]
 294:.\Generated_Source\PSoC4/SignalGenerator.c ****     SignalGenerator_CONTROL_REG |= mode;
 250              		.loc 1 294 0
 251 0020 074B     		ldr	r3, .L15
 252 0022 074A     		ldr	r2, .L15
 253 0024 1168     		ldr	r1, [r2]
 254 0026 7A68     		ldr	r2, [r7, #4]
 255 0028 0A43     		orr	r2, r1
 256 002a 1A60     		str	r2, [r3]
 295:.\Generated_Source\PSoC4/SignalGenerator.c **** 
 296:.\Generated_Source\PSoC4/SignalGenerator.c ****     CyExitCriticalSection(enableInterrupts);
 257              		.loc 1 296 0
 258 002c 3B1C     		mov	r3, r7
 259 002e 0F33     		add	r3, r3, #15
 260 0030 1B78     		ldrb	r3, [r3]
 261 0032 181C     		mov	r0, r3
 262 0034 FFF7FEFF 		bl	CyExitCriticalSection
 297:.\Generated_Source\PSoC4/SignalGenerator.c **** }
 263              		.loc 1 297 0
 264 0038 BD46     		mov	sp, r7
 265 003a 05B0     		add	sp, sp, #20
 266              		@ sp needed
 267 003c 90BD     		pop	{r4, r7, pc}
 268              	.L16:
 269 003e C046     		.align	2
 270              	.L15:
 271 0040 40010540 		.word	1074069824
 272 0044 FFFFFFF8 		.word	-117440513
 273              		.cfi_endproc
ARM GAS  C:\Users\Clayton\AppData\Local\Temp\ccxaoGNk.s 			page 11


 274              	.LFE4:
 275              		.size	SignalGenerator_SetMode, .-SignalGenerator_SetMode
 276              		.section	.text.SignalGenerator_SetQDMode,"ax",%progbits
 277              		.align	2
 278              		.global	SignalGenerator_SetQDMode
 279              		.code	16
 280              		.thumb_func
 281              		.type	SignalGenerator_SetQDMode, %function
 282              	SignalGenerator_SetQDMode:
 283              	.LFB5:
 298:.\Generated_Source\PSoC4/SignalGenerator.c **** 
 299:.\Generated_Source\PSoC4/SignalGenerator.c **** 
 300:.\Generated_Source\PSoC4/SignalGenerator.c **** /*******************************************************************************
 301:.\Generated_Source\PSoC4/SignalGenerator.c **** * Function Name: SignalGenerator_SetQDMode
 302:.\Generated_Source\PSoC4/SignalGenerator.c **** ********************************************************************************
 303:.\Generated_Source\PSoC4/SignalGenerator.c **** *
 304:.\Generated_Source\PSoC4/SignalGenerator.c **** * Summary:
 305:.\Generated_Source\PSoC4/SignalGenerator.c **** *  Sets the the Quadrature Decoder to one of the 3 supported modes.
 306:.\Generated_Source\PSoC4/SignalGenerator.c **** *  Its functionality is only applicable to Quadrature Decoder operation.
 307:.\Generated_Source\PSoC4/SignalGenerator.c **** *
 308:.\Generated_Source\PSoC4/SignalGenerator.c **** * Parameters:
 309:.\Generated_Source\PSoC4/SignalGenerator.c **** *  qdMode: Quadrature Decoder mode
 310:.\Generated_Source\PSoC4/SignalGenerator.c **** *   Values:
 311:.\Generated_Source\PSoC4/SignalGenerator.c **** *         - SignalGenerator_MODE_X1 - Counts on phi 1 rising
 312:.\Generated_Source\PSoC4/SignalGenerator.c **** *         - SignalGenerator_MODE_X2 - Counts on both edges of phi1 (2x faster)
 313:.\Generated_Source\PSoC4/SignalGenerator.c **** *         - SignalGenerator_MODE_X4 - Counts on both edges of phi1 and phi2
 314:.\Generated_Source\PSoC4/SignalGenerator.c **** *                                        (4x faster)
 315:.\Generated_Source\PSoC4/SignalGenerator.c **** *
 316:.\Generated_Source\PSoC4/SignalGenerator.c **** * Return:
 317:.\Generated_Source\PSoC4/SignalGenerator.c **** *  None
 318:.\Generated_Source\PSoC4/SignalGenerator.c **** *
 319:.\Generated_Source\PSoC4/SignalGenerator.c **** *******************************************************************************/
 320:.\Generated_Source\PSoC4/SignalGenerator.c **** void SignalGenerator_SetQDMode(uint32 qdMode)
 321:.\Generated_Source\PSoC4/SignalGenerator.c **** {
 284              		.loc 1 321 0
 285              		.cfi_startproc
 286 0000 90B5     		push	{r4, r7, lr}
 287              		.cfi_def_cfa_offset 12
 288              		.cfi_offset 4, -12
 289              		.cfi_offset 7, -8
 290              		.cfi_offset 14, -4
 291 0002 85B0     		sub	sp, sp, #20
 292              		.cfi_def_cfa_offset 32
 293 0004 00AF     		add	r7, sp, #0
 294              		.cfi_def_cfa_register 7
 295 0006 7860     		str	r0, [r7, #4]
 322:.\Generated_Source\PSoC4/SignalGenerator.c ****     uint8 enableInterrupts;
 323:.\Generated_Source\PSoC4/SignalGenerator.c **** 
 324:.\Generated_Source\PSoC4/SignalGenerator.c ****     enableInterrupts = CyEnterCriticalSection();
 296              		.loc 1 324 0
 297 0008 3C1C     		mov	r4, r7
 298 000a 0F34     		add	r4, r4, #15
 299 000c FFF7FEFF 		bl	CyEnterCriticalSection
 300 0010 031C     		mov	r3, r0
 301 0012 2370     		strb	r3, [r4]
 325:.\Generated_Source\PSoC4/SignalGenerator.c **** 
 326:.\Generated_Source\PSoC4/SignalGenerator.c ****     SignalGenerator_CONTROL_REG &= (uint32)~SignalGenerator_QUAD_MODE_MASK;
ARM GAS  C:\Users\Clayton\AppData\Local\Temp\ccxaoGNk.s 			page 12


 302              		.loc 1 326 0
 303 0014 0A4B     		ldr	r3, .L18
 304 0016 0A4A     		ldr	r2, .L18
 305 0018 1168     		ldr	r1, [r2]
 306 001a 0A4A     		ldr	r2, .L18+4
 307 001c 0A40     		and	r2, r1
 308 001e 1A60     		str	r2, [r3]
 327:.\Generated_Source\PSoC4/SignalGenerator.c ****     SignalGenerator_CONTROL_REG |= qdMode;
 309              		.loc 1 327 0
 310 0020 074B     		ldr	r3, .L18
 311 0022 074A     		ldr	r2, .L18
 312 0024 1168     		ldr	r1, [r2]
 313 0026 7A68     		ldr	r2, [r7, #4]
 314 0028 0A43     		orr	r2, r1
 315 002a 1A60     		str	r2, [r3]
 328:.\Generated_Source\PSoC4/SignalGenerator.c **** 
 329:.\Generated_Source\PSoC4/SignalGenerator.c ****     CyExitCriticalSection(enableInterrupts);
 316              		.loc 1 329 0
 317 002c 3B1C     		mov	r3, r7
 318 002e 0F33     		add	r3, r3, #15
 319 0030 1B78     		ldrb	r3, [r3]
 320 0032 181C     		mov	r0, r3
 321 0034 FFF7FEFF 		bl	CyExitCriticalSection
 330:.\Generated_Source\PSoC4/SignalGenerator.c **** }
 322              		.loc 1 330 0
 323 0038 BD46     		mov	sp, r7
 324 003a 05B0     		add	sp, sp, #20
 325              		@ sp needed
 326 003c 90BD     		pop	{r4, r7, pc}
 327              	.L19:
 328 003e C046     		.align	2
 329              	.L18:
 330 0040 40010540 		.word	1074069824
 331 0044 FFFF8FFF 		.word	-7340033
 332              		.cfi_endproc
 333              	.LFE5:
 334              		.size	SignalGenerator_SetQDMode, .-SignalGenerator_SetQDMode
 335              		.section	.text.SignalGenerator_SetPrescaler,"ax",%progbits
 336              		.align	2
 337              		.global	SignalGenerator_SetPrescaler
 338              		.code	16
 339              		.thumb_func
 340              		.type	SignalGenerator_SetPrescaler, %function
 341              	SignalGenerator_SetPrescaler:
 342              	.LFB6:
 331:.\Generated_Source\PSoC4/SignalGenerator.c **** 
 332:.\Generated_Source\PSoC4/SignalGenerator.c **** 
 333:.\Generated_Source\PSoC4/SignalGenerator.c **** /*******************************************************************************
 334:.\Generated_Source\PSoC4/SignalGenerator.c **** * Function Name: SignalGenerator_SetPrescaler
 335:.\Generated_Source\PSoC4/SignalGenerator.c **** ********************************************************************************
 336:.\Generated_Source\PSoC4/SignalGenerator.c **** *
 337:.\Generated_Source\PSoC4/SignalGenerator.c **** * Summary:
 338:.\Generated_Source\PSoC4/SignalGenerator.c **** *  Sets the prescaler value that is applied to the clock input.  Not applicable
 339:.\Generated_Source\PSoC4/SignalGenerator.c **** *  to a PWM with the dead time mode or Quadrature Decoder mode.
 340:.\Generated_Source\PSoC4/SignalGenerator.c **** *
 341:.\Generated_Source\PSoC4/SignalGenerator.c **** * Parameters:
 342:.\Generated_Source\PSoC4/SignalGenerator.c **** *  prescaler: Prescaler divider value
ARM GAS  C:\Users\Clayton\AppData\Local\Temp\ccxaoGNk.s 			page 13


 343:.\Generated_Source\PSoC4/SignalGenerator.c **** *   Values:
 344:.\Generated_Source\PSoC4/SignalGenerator.c **** *         - SignalGenerator_PRESCALE_DIVBY1    - Divide by 1 (no prescaling)
 345:.\Generated_Source\PSoC4/SignalGenerator.c **** *         - SignalGenerator_PRESCALE_DIVBY2    - Divide by 2
 346:.\Generated_Source\PSoC4/SignalGenerator.c **** *         - SignalGenerator_PRESCALE_DIVBY4    - Divide by 4
 347:.\Generated_Source\PSoC4/SignalGenerator.c **** *         - SignalGenerator_PRESCALE_DIVBY8    - Divide by 8
 348:.\Generated_Source\PSoC4/SignalGenerator.c **** *         - SignalGenerator_PRESCALE_DIVBY16   - Divide by 16
 349:.\Generated_Source\PSoC4/SignalGenerator.c **** *         - SignalGenerator_PRESCALE_DIVBY32   - Divide by 32
 350:.\Generated_Source\PSoC4/SignalGenerator.c **** *         - SignalGenerator_PRESCALE_DIVBY64   - Divide by 64
 351:.\Generated_Source\PSoC4/SignalGenerator.c **** *         - SignalGenerator_PRESCALE_DIVBY128  - Divide by 128
 352:.\Generated_Source\PSoC4/SignalGenerator.c **** *
 353:.\Generated_Source\PSoC4/SignalGenerator.c **** * Return:
 354:.\Generated_Source\PSoC4/SignalGenerator.c **** *  None
 355:.\Generated_Source\PSoC4/SignalGenerator.c **** *
 356:.\Generated_Source\PSoC4/SignalGenerator.c **** *******************************************************************************/
 357:.\Generated_Source\PSoC4/SignalGenerator.c **** void SignalGenerator_SetPrescaler(uint32 prescaler)
 358:.\Generated_Source\PSoC4/SignalGenerator.c **** {
 343              		.loc 1 358 0
 344              		.cfi_startproc
 345 0000 90B5     		push	{r4, r7, lr}
 346              		.cfi_def_cfa_offset 12
 347              		.cfi_offset 4, -12
 348              		.cfi_offset 7, -8
 349              		.cfi_offset 14, -4
 350 0002 85B0     		sub	sp, sp, #20
 351              		.cfi_def_cfa_offset 32
 352 0004 00AF     		add	r7, sp, #0
 353              		.cfi_def_cfa_register 7
 354 0006 7860     		str	r0, [r7, #4]
 359:.\Generated_Source\PSoC4/SignalGenerator.c ****     uint8 enableInterrupts;
 360:.\Generated_Source\PSoC4/SignalGenerator.c **** 
 361:.\Generated_Source\PSoC4/SignalGenerator.c ****     enableInterrupts = CyEnterCriticalSection();
 355              		.loc 1 361 0
 356 0008 3C1C     		mov	r4, r7
 357 000a 0F34     		add	r4, r4, #15
 358 000c FFF7FEFF 		bl	CyEnterCriticalSection
 359 0010 031C     		mov	r3, r0
 360 0012 2370     		strb	r3, [r4]
 362:.\Generated_Source\PSoC4/SignalGenerator.c **** 
 363:.\Generated_Source\PSoC4/SignalGenerator.c ****     SignalGenerator_CONTROL_REG &= (uint32)~SignalGenerator_PRESCALER_MASK;
 361              		.loc 1 363 0
 362 0014 0A4B     		ldr	r3, .L21
 363 0016 0A4A     		ldr	r2, .L21
 364 0018 1168     		ldr	r1, [r2]
 365 001a 0A4A     		ldr	r2, .L21+4
 366 001c 0A40     		and	r2, r1
 367 001e 1A60     		str	r2, [r3]
 364:.\Generated_Source\PSoC4/SignalGenerator.c ****     SignalGenerator_CONTROL_REG |= prescaler;
 368              		.loc 1 364 0
 369 0020 074B     		ldr	r3, .L21
 370 0022 074A     		ldr	r2, .L21
 371 0024 1168     		ldr	r1, [r2]
 372 0026 7A68     		ldr	r2, [r7, #4]
 373 0028 0A43     		orr	r2, r1
 374 002a 1A60     		str	r2, [r3]
 365:.\Generated_Source\PSoC4/SignalGenerator.c **** 
 366:.\Generated_Source\PSoC4/SignalGenerator.c ****     CyExitCriticalSection(enableInterrupts);
 375              		.loc 1 366 0
ARM GAS  C:\Users\Clayton\AppData\Local\Temp\ccxaoGNk.s 			page 14


 376 002c 3B1C     		mov	r3, r7
 377 002e 0F33     		add	r3, r3, #15
 378 0030 1B78     		ldrb	r3, [r3]
 379 0032 181C     		mov	r0, r3
 380 0034 FFF7FEFF 		bl	CyExitCriticalSection
 367:.\Generated_Source\PSoC4/SignalGenerator.c **** }
 381              		.loc 1 367 0
 382 0038 BD46     		mov	sp, r7
 383 003a 05B0     		add	sp, sp, #20
 384              		@ sp needed
 385 003c 90BD     		pop	{r4, r7, pc}
 386              	.L22:
 387 003e C046     		.align	2
 388              	.L21:
 389 0040 40010540 		.word	1074069824
 390 0044 FF00FFFF 		.word	-65281
 391              		.cfi_endproc
 392              	.LFE6:
 393              		.size	SignalGenerator_SetPrescaler, .-SignalGenerator_SetPrescaler
 394              		.section	.text.SignalGenerator_SetOneShot,"ax",%progbits
 395              		.align	2
 396              		.global	SignalGenerator_SetOneShot
 397              		.code	16
 398              		.thumb_func
 399              		.type	SignalGenerator_SetOneShot, %function
 400              	SignalGenerator_SetOneShot:
 401              	.LFB7:
 368:.\Generated_Source\PSoC4/SignalGenerator.c **** 
 369:.\Generated_Source\PSoC4/SignalGenerator.c **** 
 370:.\Generated_Source\PSoC4/SignalGenerator.c **** /*******************************************************************************
 371:.\Generated_Source\PSoC4/SignalGenerator.c **** * Function Name: SignalGenerator_SetOneShot
 372:.\Generated_Source\PSoC4/SignalGenerator.c **** ********************************************************************************
 373:.\Generated_Source\PSoC4/SignalGenerator.c **** *
 374:.\Generated_Source\PSoC4/SignalGenerator.c **** * Summary:
 375:.\Generated_Source\PSoC4/SignalGenerator.c **** *  Writes the register that controls whether the SignalGenerator runs
 376:.\Generated_Source\PSoC4/SignalGenerator.c **** *  continuously or stops when terminal count is reached.  By default the
 377:.\Generated_Source\PSoC4/SignalGenerator.c **** *  SignalGenerator operates in the continuous mode.
 378:.\Generated_Source\PSoC4/SignalGenerator.c **** *
 379:.\Generated_Source\PSoC4/SignalGenerator.c **** * Parameters:
 380:.\Generated_Source\PSoC4/SignalGenerator.c **** *  oneShotEnable
 381:.\Generated_Source\PSoC4/SignalGenerator.c **** *   Values:
 382:.\Generated_Source\PSoC4/SignalGenerator.c **** *     - 0 - Continuous
 383:.\Generated_Source\PSoC4/SignalGenerator.c **** *     - 1 - Enable One Shot
 384:.\Generated_Source\PSoC4/SignalGenerator.c **** *
 385:.\Generated_Source\PSoC4/SignalGenerator.c **** * Return:
 386:.\Generated_Source\PSoC4/SignalGenerator.c **** *  None
 387:.\Generated_Source\PSoC4/SignalGenerator.c **** *
 388:.\Generated_Source\PSoC4/SignalGenerator.c **** *******************************************************************************/
 389:.\Generated_Source\PSoC4/SignalGenerator.c **** void SignalGenerator_SetOneShot(uint32 oneShotEnable)
 390:.\Generated_Source\PSoC4/SignalGenerator.c **** {
 402              		.loc 1 390 0
 403              		.cfi_startproc
 404 0000 90B5     		push	{r4, r7, lr}
 405              		.cfi_def_cfa_offset 12
 406              		.cfi_offset 4, -12
 407              		.cfi_offset 7, -8
 408              		.cfi_offset 14, -4
ARM GAS  C:\Users\Clayton\AppData\Local\Temp\ccxaoGNk.s 			page 15


 409 0002 85B0     		sub	sp, sp, #20
 410              		.cfi_def_cfa_offset 32
 411 0004 00AF     		add	r7, sp, #0
 412              		.cfi_def_cfa_register 7
 413 0006 7860     		str	r0, [r7, #4]
 391:.\Generated_Source\PSoC4/SignalGenerator.c ****     uint8 enableInterrupts;
 392:.\Generated_Source\PSoC4/SignalGenerator.c **** 
 393:.\Generated_Source\PSoC4/SignalGenerator.c ****     enableInterrupts = CyEnterCriticalSection();
 414              		.loc 1 393 0
 415 0008 3C1C     		mov	r4, r7
 416 000a 0F34     		add	r4, r4, #15
 417 000c FFF7FEFF 		bl	CyEnterCriticalSection
 418 0010 031C     		mov	r3, r0
 419 0012 2370     		strb	r3, [r4]
 394:.\Generated_Source\PSoC4/SignalGenerator.c **** 
 395:.\Generated_Source\PSoC4/SignalGenerator.c ****     SignalGenerator_CONTROL_REG &= (uint32)~SignalGenerator_ONESHOT_MASK;
 420              		.loc 1 395 0
 421 0014 0B4B     		ldr	r3, .L24
 422 0016 0B4A     		ldr	r2, .L24
 423 0018 1168     		ldr	r1, [r2]
 424 001a 0B4A     		ldr	r2, .L24+4
 425 001c 0A40     		and	r2, r1
 426 001e 1A60     		str	r2, [r3]
 396:.\Generated_Source\PSoC4/SignalGenerator.c ****     SignalGenerator_CONTROL_REG |= ((uint32)((oneShotEnable & SignalGenerator_1BIT_MASK) <<
 427              		.loc 1 396 0
 428 0020 084B     		ldr	r3, .L24
 429 0022 084A     		ldr	r2, .L24
 430 0024 1168     		ldr	r1, [r2]
 431 0026 7868     		ldr	r0, [r7, #4]
 432 0028 0122     		mov	r2, #1
 433 002a 0240     		and	r2, r0
 434 002c 9204     		lsl	r2, r2, #18
 435 002e 0A43     		orr	r2, r1
 436 0030 1A60     		str	r2, [r3]
 397:.\Generated_Source\PSoC4/SignalGenerator.c ****                                                                SignalGenerator_ONESHOT_SHIFT));
 398:.\Generated_Source\PSoC4/SignalGenerator.c **** 
 399:.\Generated_Source\PSoC4/SignalGenerator.c ****     CyExitCriticalSection(enableInterrupts);
 437              		.loc 1 399 0
 438 0032 3B1C     		mov	r3, r7
 439 0034 0F33     		add	r3, r3, #15
 440 0036 1B78     		ldrb	r3, [r3]
 441 0038 181C     		mov	r0, r3
 442 003a FFF7FEFF 		bl	CyExitCriticalSection
 400:.\Generated_Source\PSoC4/SignalGenerator.c **** }
 443              		.loc 1 400 0
 444 003e BD46     		mov	sp, r7
 445 0040 05B0     		add	sp, sp, #20
 446              		@ sp needed
 447 0042 90BD     		pop	{r4, r7, pc}
 448              	.L25:
 449              		.align	2
 450              	.L24:
 451 0044 40010540 		.word	1074069824
 452 0048 FFFFFBFF 		.word	-262145
 453              		.cfi_endproc
 454              	.LFE7:
 455              		.size	SignalGenerator_SetOneShot, .-SignalGenerator_SetOneShot
ARM GAS  C:\Users\Clayton\AppData\Local\Temp\ccxaoGNk.s 			page 16


 456              		.section	.text.SignalGenerator_SetPWMMode,"ax",%progbits
 457              		.align	2
 458              		.global	SignalGenerator_SetPWMMode
 459              		.code	16
 460              		.thumb_func
 461              		.type	SignalGenerator_SetPWMMode, %function
 462              	SignalGenerator_SetPWMMode:
 463              	.LFB8:
 401:.\Generated_Source\PSoC4/SignalGenerator.c **** 
 402:.\Generated_Source\PSoC4/SignalGenerator.c **** 
 403:.\Generated_Source\PSoC4/SignalGenerator.c **** /*******************************************************************************
 404:.\Generated_Source\PSoC4/SignalGenerator.c **** * Function Name: SignalGenerator_SetPWMMode
 405:.\Generated_Source\PSoC4/SignalGenerator.c **** ********************************************************************************
 406:.\Generated_Source\PSoC4/SignalGenerator.c **** *
 407:.\Generated_Source\PSoC4/SignalGenerator.c **** * Summary:
 408:.\Generated_Source\PSoC4/SignalGenerator.c **** *  Writes the control register that determines what mode of operation the PWM
 409:.\Generated_Source\PSoC4/SignalGenerator.c **** *  output lines are driven in.  There is a setting for what to do on a
 410:.\Generated_Source\PSoC4/SignalGenerator.c **** *  comparison match (CC_MATCH), on an overflow (OVERFLOW) and on an underflow
 411:.\Generated_Source\PSoC4/SignalGenerator.c **** *  (UNDERFLOW).  The value for each of the three must be ORed together to form
 412:.\Generated_Source\PSoC4/SignalGenerator.c **** *  the mode.
 413:.\Generated_Source\PSoC4/SignalGenerator.c **** *
 414:.\Generated_Source\PSoC4/SignalGenerator.c **** * Parameters:
 415:.\Generated_Source\PSoC4/SignalGenerator.c **** *  modeMask: A combination of three mode settings.  Mask must include a value
 416:.\Generated_Source\PSoC4/SignalGenerator.c **** *  for each of the three or use one of the preconfigured PWM settings.
 417:.\Generated_Source\PSoC4/SignalGenerator.c **** *   Values:
 418:.\Generated_Source\PSoC4/SignalGenerator.c **** *     - CC_MATCH_SET        - Set on comparison match
 419:.\Generated_Source\PSoC4/SignalGenerator.c **** *     - CC_MATCH_CLEAR      - Clear on comparison match
 420:.\Generated_Source\PSoC4/SignalGenerator.c **** *     - CC_MATCH_INVERT     - Invert on comparison match
 421:.\Generated_Source\PSoC4/SignalGenerator.c **** *     - CC_MATCH_NO_CHANGE  - No change on comparison match
 422:.\Generated_Source\PSoC4/SignalGenerator.c **** *     - OVERLOW_SET         - Set on overflow
 423:.\Generated_Source\PSoC4/SignalGenerator.c **** *     - OVERLOW_CLEAR       - Clear on  overflow
 424:.\Generated_Source\PSoC4/SignalGenerator.c **** *     - OVERLOW_INVERT      - Invert on overflow
 425:.\Generated_Source\PSoC4/SignalGenerator.c **** *     - OVERLOW_NO_CHANGE   - No change on overflow
 426:.\Generated_Source\PSoC4/SignalGenerator.c **** *     - UNDERFLOW_SET       - Set on underflow
 427:.\Generated_Source\PSoC4/SignalGenerator.c **** *     - UNDERFLOW_CLEAR     - Clear on underflow
 428:.\Generated_Source\PSoC4/SignalGenerator.c **** *     - UNDERFLOW_INVERT    - Invert on underflow
 429:.\Generated_Source\PSoC4/SignalGenerator.c **** *     - UNDERFLOW_NO_CHANGE - No change on underflow
 430:.\Generated_Source\PSoC4/SignalGenerator.c **** *     - PWM_MODE_LEFT       - Setting for left aligned PWM.  Should be combined
 431:.\Generated_Source\PSoC4/SignalGenerator.c **** *                             with up counting mode
 432:.\Generated_Source\PSoC4/SignalGenerator.c **** *     - PWM_MODE_RIGHT      - Setting for right aligned PWM.  Should be combined
 433:.\Generated_Source\PSoC4/SignalGenerator.c **** *                             with down counting mode
 434:.\Generated_Source\PSoC4/SignalGenerator.c **** *     - PWM_MODE_CENTER     - Setting for center aligned PWM.  Should be
 435:.\Generated_Source\PSoC4/SignalGenerator.c **** *                             combined with up/down 0 mode
 436:.\Generated_Source\PSoC4/SignalGenerator.c **** *     - PWM_MODE_ASYM       - Setting for asymmetric PWM.  Should be combined
 437:.\Generated_Source\PSoC4/SignalGenerator.c **** *                             with up/down 1 mode
 438:.\Generated_Source\PSoC4/SignalGenerator.c **** *
 439:.\Generated_Source\PSoC4/SignalGenerator.c **** * Return:
 440:.\Generated_Source\PSoC4/SignalGenerator.c **** *  None
 441:.\Generated_Source\PSoC4/SignalGenerator.c **** *
 442:.\Generated_Source\PSoC4/SignalGenerator.c **** *******************************************************************************/
 443:.\Generated_Source\PSoC4/SignalGenerator.c **** void SignalGenerator_SetPWMMode(uint32 modeMask)
 444:.\Generated_Source\PSoC4/SignalGenerator.c **** {
 464              		.loc 1 444 0
 465              		.cfi_startproc
 466 0000 80B5     		push	{r7, lr}
 467              		.cfi_def_cfa_offset 8
 468              		.cfi_offset 7, -8
ARM GAS  C:\Users\Clayton\AppData\Local\Temp\ccxaoGNk.s 			page 17


 469              		.cfi_offset 14, -4
 470 0002 82B0     		sub	sp, sp, #8
 471              		.cfi_def_cfa_offset 16
 472 0004 00AF     		add	r7, sp, #0
 473              		.cfi_def_cfa_register 7
 474 0006 7860     		str	r0, [r7, #4]
 445:.\Generated_Source\PSoC4/SignalGenerator.c ****     SignalGenerator_TRIG_CONTROL2_REG = (modeMask & SignalGenerator_6BIT_MASK);
 475              		.loc 1 445 0
 476 0008 034B     		ldr	r3, .L27
 477 000a 7968     		ldr	r1, [r7, #4]
 478 000c 3F22     		mov	r2, #63
 479 000e 0A40     		and	r2, r1
 480 0010 1A60     		str	r2, [r3]
 446:.\Generated_Source\PSoC4/SignalGenerator.c **** }
 481              		.loc 1 446 0
 482 0012 BD46     		mov	sp, r7
 483 0014 02B0     		add	sp, sp, #8
 484              		@ sp needed
 485 0016 80BD     		pop	{r7, pc}
 486              	.L28:
 487              		.align	2
 488              	.L27:
 489 0018 68010540 		.word	1074069864
 490              		.cfi_endproc
 491              	.LFE8:
 492              		.size	SignalGenerator_SetPWMMode, .-SignalGenerator_SetPWMMode
 493              		.section	.text.SignalGenerator_SetPWMSyncKill,"ax",%progbits
 494              		.align	2
 495              		.global	SignalGenerator_SetPWMSyncKill
 496              		.code	16
 497              		.thumb_func
 498              		.type	SignalGenerator_SetPWMSyncKill, %function
 499              	SignalGenerator_SetPWMSyncKill:
 500              	.LFB9:
 447:.\Generated_Source\PSoC4/SignalGenerator.c **** 
 448:.\Generated_Source\PSoC4/SignalGenerator.c **** 
 449:.\Generated_Source\PSoC4/SignalGenerator.c **** 
 450:.\Generated_Source\PSoC4/SignalGenerator.c **** /*******************************************************************************
 451:.\Generated_Source\PSoC4/SignalGenerator.c **** * Function Name: SignalGenerator_SetPWMSyncKill
 452:.\Generated_Source\PSoC4/SignalGenerator.c **** ********************************************************************************
 453:.\Generated_Source\PSoC4/SignalGenerator.c **** *
 454:.\Generated_Source\PSoC4/SignalGenerator.c **** * Summary:
 455:.\Generated_Source\PSoC4/SignalGenerator.c **** *  Writes the register that controls whether the PWM kill signal (stop input)
 456:.\Generated_Source\PSoC4/SignalGenerator.c **** *  causes asynchronous or synchronous kill operation.  By default the kill
 457:.\Generated_Source\PSoC4/SignalGenerator.c **** *  operation is asynchronous.  This functionality is only applicable to the PWM
 458:.\Generated_Source\PSoC4/SignalGenerator.c **** *  and PWM with dead time modes.
 459:.\Generated_Source\PSoC4/SignalGenerator.c **** *
 460:.\Generated_Source\PSoC4/SignalGenerator.c **** *  For Synchronous mode the kill signal disables both the line and line_n
 461:.\Generated_Source\PSoC4/SignalGenerator.c **** *  signals until the next terminal count.
 462:.\Generated_Source\PSoC4/SignalGenerator.c **** *
 463:.\Generated_Source\PSoC4/SignalGenerator.c **** *  For Asynchronous mode the kill signal disables both the line and line_n
 464:.\Generated_Source\PSoC4/SignalGenerator.c **** *  signals when the kill signal is present.  This mode should only be used
 465:.\Generated_Source\PSoC4/SignalGenerator.c **** *  when the kill signal (stop input) is configured in the pass through mode
 466:.\Generated_Source\PSoC4/SignalGenerator.c **** *  (Level sensitive signal).
 467:.\Generated_Source\PSoC4/SignalGenerator.c **** 
 468:.\Generated_Source\PSoC4/SignalGenerator.c **** *
 469:.\Generated_Source\PSoC4/SignalGenerator.c **** * Parameters:
ARM GAS  C:\Users\Clayton\AppData\Local\Temp\ccxaoGNk.s 			page 18


 470:.\Generated_Source\PSoC4/SignalGenerator.c **** *  syncKillEnable
 471:.\Generated_Source\PSoC4/SignalGenerator.c **** *   Values:
 472:.\Generated_Source\PSoC4/SignalGenerator.c **** *     - 0 - Asynchronous
 473:.\Generated_Source\PSoC4/SignalGenerator.c **** *     - 1 - Synchronous
 474:.\Generated_Source\PSoC4/SignalGenerator.c **** *
 475:.\Generated_Source\PSoC4/SignalGenerator.c **** * Return:
 476:.\Generated_Source\PSoC4/SignalGenerator.c **** *  None
 477:.\Generated_Source\PSoC4/SignalGenerator.c **** *
 478:.\Generated_Source\PSoC4/SignalGenerator.c **** *******************************************************************************/
 479:.\Generated_Source\PSoC4/SignalGenerator.c **** void SignalGenerator_SetPWMSyncKill(uint32 syncKillEnable)
 480:.\Generated_Source\PSoC4/SignalGenerator.c **** {
 501              		.loc 1 480 0
 502              		.cfi_startproc
 503 0000 90B5     		push	{r4, r7, lr}
 504              		.cfi_def_cfa_offset 12
 505              		.cfi_offset 4, -12
 506              		.cfi_offset 7, -8
 507              		.cfi_offset 14, -4
 508 0002 85B0     		sub	sp, sp, #20
 509              		.cfi_def_cfa_offset 32
 510 0004 00AF     		add	r7, sp, #0
 511              		.cfi_def_cfa_register 7
 512 0006 7860     		str	r0, [r7, #4]
 481:.\Generated_Source\PSoC4/SignalGenerator.c ****     uint8 enableInterrupts;
 482:.\Generated_Source\PSoC4/SignalGenerator.c **** 
 483:.\Generated_Source\PSoC4/SignalGenerator.c ****     enableInterrupts = CyEnterCriticalSection();
 513              		.loc 1 483 0
 514 0008 3C1C     		mov	r4, r7
 515 000a 0F34     		add	r4, r4, #15
 516 000c FFF7FEFF 		bl	CyEnterCriticalSection
 517 0010 031C     		mov	r3, r0
 518 0012 2370     		strb	r3, [r4]
 484:.\Generated_Source\PSoC4/SignalGenerator.c **** 
 485:.\Generated_Source\PSoC4/SignalGenerator.c ****     SignalGenerator_CONTROL_REG &= (uint32)~SignalGenerator_PWM_SYNC_KILL_MASK;
 519              		.loc 1 485 0
 520 0014 0B4B     		ldr	r3, .L30
 521 0016 0B4A     		ldr	r2, .L30
 522 0018 1268     		ldr	r2, [r2]
 523 001a 0421     		mov	r1, #4
 524 001c 8A43     		bic	r2, r1
 525 001e 1A60     		str	r2, [r3]
 486:.\Generated_Source\PSoC4/SignalGenerator.c ****     SignalGenerator_CONTROL_REG |= ((uint32)((syncKillEnable & SignalGenerator_1BIT_MASK)  <<
 526              		.loc 1 486 0
 527 0020 084B     		ldr	r3, .L30
 528 0022 084A     		ldr	r2, .L30
 529 0024 1168     		ldr	r1, [r2]
 530 0026 7868     		ldr	r0, [r7, #4]
 531 0028 0122     		mov	r2, #1
 532 002a 0240     		and	r2, r0
 533 002c 9200     		lsl	r2, r2, #2
 534 002e 0A43     		orr	r2, r1
 535 0030 1A60     		str	r2, [r3]
 487:.\Generated_Source\PSoC4/SignalGenerator.c ****                                                SignalGenerator_PWM_SYNC_KILL_SHIFT));
 488:.\Generated_Source\PSoC4/SignalGenerator.c **** 
 489:.\Generated_Source\PSoC4/SignalGenerator.c ****     CyExitCriticalSection(enableInterrupts);
 536              		.loc 1 489 0
 537 0032 3B1C     		mov	r3, r7
ARM GAS  C:\Users\Clayton\AppData\Local\Temp\ccxaoGNk.s 			page 19


 538 0034 0F33     		add	r3, r3, #15
 539 0036 1B78     		ldrb	r3, [r3]
 540 0038 181C     		mov	r0, r3
 541 003a FFF7FEFF 		bl	CyExitCriticalSection
 490:.\Generated_Source\PSoC4/SignalGenerator.c **** }
 542              		.loc 1 490 0
 543 003e BD46     		mov	sp, r7
 544 0040 05B0     		add	sp, sp, #20
 545              		@ sp needed
 546 0042 90BD     		pop	{r4, r7, pc}
 547              	.L31:
 548              		.align	2
 549              	.L30:
 550 0044 40010540 		.word	1074069824
 551              		.cfi_endproc
 552              	.LFE9:
 553              		.size	SignalGenerator_SetPWMSyncKill, .-SignalGenerator_SetPWMSyncKill
 554              		.section	.text.SignalGenerator_SetPWMStopOnKill,"ax",%progbits
 555              		.align	2
 556              		.global	SignalGenerator_SetPWMStopOnKill
 557              		.code	16
 558              		.thumb_func
 559              		.type	SignalGenerator_SetPWMStopOnKill, %function
 560              	SignalGenerator_SetPWMStopOnKill:
 561              	.LFB10:
 491:.\Generated_Source\PSoC4/SignalGenerator.c **** 
 492:.\Generated_Source\PSoC4/SignalGenerator.c **** 
 493:.\Generated_Source\PSoC4/SignalGenerator.c **** /*******************************************************************************
 494:.\Generated_Source\PSoC4/SignalGenerator.c **** * Function Name: SignalGenerator_SetPWMStopOnKill
 495:.\Generated_Source\PSoC4/SignalGenerator.c **** ********************************************************************************
 496:.\Generated_Source\PSoC4/SignalGenerator.c **** *
 497:.\Generated_Source\PSoC4/SignalGenerator.c **** * Summary:
 498:.\Generated_Source\PSoC4/SignalGenerator.c **** *  Writes the register that controls whether the PWM kill signal (stop input)
 499:.\Generated_Source\PSoC4/SignalGenerator.c **** *  causes the PWM counter to stop.  By default the kill operation does not stop
 500:.\Generated_Source\PSoC4/SignalGenerator.c **** *  the counter.  This functionality is only applicable to the three PWM modes.
 501:.\Generated_Source\PSoC4/SignalGenerator.c **** *
 502:.\Generated_Source\PSoC4/SignalGenerator.c **** *
 503:.\Generated_Source\PSoC4/SignalGenerator.c **** * Parameters:
 504:.\Generated_Source\PSoC4/SignalGenerator.c **** *  stopOnKillEnable
 505:.\Generated_Source\PSoC4/SignalGenerator.c **** *   Values:
 506:.\Generated_Source\PSoC4/SignalGenerator.c **** *     - 0 - Don't stop
 507:.\Generated_Source\PSoC4/SignalGenerator.c **** *     - 1 - Stop
 508:.\Generated_Source\PSoC4/SignalGenerator.c **** *
 509:.\Generated_Source\PSoC4/SignalGenerator.c **** * Return:
 510:.\Generated_Source\PSoC4/SignalGenerator.c **** *  None
 511:.\Generated_Source\PSoC4/SignalGenerator.c **** *
 512:.\Generated_Source\PSoC4/SignalGenerator.c **** *******************************************************************************/
 513:.\Generated_Source\PSoC4/SignalGenerator.c **** void SignalGenerator_SetPWMStopOnKill(uint32 stopOnKillEnable)
 514:.\Generated_Source\PSoC4/SignalGenerator.c **** {
 562              		.loc 1 514 0
 563              		.cfi_startproc
 564 0000 90B5     		push	{r4, r7, lr}
 565              		.cfi_def_cfa_offset 12
 566              		.cfi_offset 4, -12
 567              		.cfi_offset 7, -8
 568              		.cfi_offset 14, -4
 569 0002 85B0     		sub	sp, sp, #20
ARM GAS  C:\Users\Clayton\AppData\Local\Temp\ccxaoGNk.s 			page 20


 570              		.cfi_def_cfa_offset 32
 571 0004 00AF     		add	r7, sp, #0
 572              		.cfi_def_cfa_register 7
 573 0006 7860     		str	r0, [r7, #4]
 515:.\Generated_Source\PSoC4/SignalGenerator.c ****     uint8 enableInterrupts;
 516:.\Generated_Source\PSoC4/SignalGenerator.c **** 
 517:.\Generated_Source\PSoC4/SignalGenerator.c ****     enableInterrupts = CyEnterCriticalSection();
 574              		.loc 1 517 0
 575 0008 3C1C     		mov	r4, r7
 576 000a 0F34     		add	r4, r4, #15
 577 000c FFF7FEFF 		bl	CyEnterCriticalSection
 578 0010 031C     		mov	r3, r0
 579 0012 2370     		strb	r3, [r4]
 518:.\Generated_Source\PSoC4/SignalGenerator.c **** 
 519:.\Generated_Source\PSoC4/SignalGenerator.c ****     SignalGenerator_CONTROL_REG &= (uint32)~SignalGenerator_PWM_STOP_KILL_MASK;
 580              		.loc 1 519 0
 581 0014 0B4B     		ldr	r3, .L33
 582 0016 0B4A     		ldr	r2, .L33
 583 0018 1268     		ldr	r2, [r2]
 584 001a 0821     		mov	r1, #8
 585 001c 8A43     		bic	r2, r1
 586 001e 1A60     		str	r2, [r3]
 520:.\Generated_Source\PSoC4/SignalGenerator.c ****     SignalGenerator_CONTROL_REG |= ((uint32)((stopOnKillEnable & SignalGenerator_1BIT_MASK)  <<
 587              		.loc 1 520 0
 588 0020 084B     		ldr	r3, .L33
 589 0022 084A     		ldr	r2, .L33
 590 0024 1168     		ldr	r1, [r2]
 591 0026 7868     		ldr	r0, [r7, #4]
 592 0028 0122     		mov	r2, #1
 593 002a 0240     		and	r2, r0
 594 002c D200     		lsl	r2, r2, #3
 595 002e 0A43     		orr	r2, r1
 596 0030 1A60     		str	r2, [r3]
 521:.\Generated_Source\PSoC4/SignalGenerator.c ****                                                          SignalGenerator_PWM_STOP_KILL_SHIFT));
 522:.\Generated_Source\PSoC4/SignalGenerator.c **** 
 523:.\Generated_Source\PSoC4/SignalGenerator.c ****     CyExitCriticalSection(enableInterrupts);
 597              		.loc 1 523 0
 598 0032 3B1C     		mov	r3, r7
 599 0034 0F33     		add	r3, r3, #15
 600 0036 1B78     		ldrb	r3, [r3]
 601 0038 181C     		mov	r0, r3
 602 003a FFF7FEFF 		bl	CyExitCriticalSection
 524:.\Generated_Source\PSoC4/SignalGenerator.c **** }
 603              		.loc 1 524 0
 604 003e BD46     		mov	sp, r7
 605 0040 05B0     		add	sp, sp, #20
 606              		@ sp needed
 607 0042 90BD     		pop	{r4, r7, pc}
 608              	.L34:
 609              		.align	2
 610              	.L33:
 611 0044 40010540 		.word	1074069824
 612              		.cfi_endproc
 613              	.LFE10:
 614              		.size	SignalGenerator_SetPWMStopOnKill, .-SignalGenerator_SetPWMStopOnKill
 615              		.section	.text.SignalGenerator_SetPWMDeadTime,"ax",%progbits
 616              		.align	2
ARM GAS  C:\Users\Clayton\AppData\Local\Temp\ccxaoGNk.s 			page 21


 617              		.global	SignalGenerator_SetPWMDeadTime
 618              		.code	16
 619              		.thumb_func
 620              		.type	SignalGenerator_SetPWMDeadTime, %function
 621              	SignalGenerator_SetPWMDeadTime:
 622              	.LFB11:
 525:.\Generated_Source\PSoC4/SignalGenerator.c **** 
 526:.\Generated_Source\PSoC4/SignalGenerator.c **** 
 527:.\Generated_Source\PSoC4/SignalGenerator.c **** /*******************************************************************************
 528:.\Generated_Source\PSoC4/SignalGenerator.c **** * Function Name: SignalGenerator_SetPWMDeadTime
 529:.\Generated_Source\PSoC4/SignalGenerator.c **** ********************************************************************************
 530:.\Generated_Source\PSoC4/SignalGenerator.c **** *
 531:.\Generated_Source\PSoC4/SignalGenerator.c **** * Summary:
 532:.\Generated_Source\PSoC4/SignalGenerator.c **** *  Writes the dead time control value.  This value delays the rising edge of
 533:.\Generated_Source\PSoC4/SignalGenerator.c **** *  both the line and line_n signals the designated number of cycles resulting
 534:.\Generated_Source\PSoC4/SignalGenerator.c **** *  in both signals being inactive for that many cycles.  This functionality is
 535:.\Generated_Source\PSoC4/SignalGenerator.c **** *  only applicable to the PWM in the dead time mode.
 536:.\Generated_Source\PSoC4/SignalGenerator.c **** 
 537:.\Generated_Source\PSoC4/SignalGenerator.c **** *
 538:.\Generated_Source\PSoC4/SignalGenerator.c **** * Parameters:
 539:.\Generated_Source\PSoC4/SignalGenerator.c **** *  Dead time to insert
 540:.\Generated_Source\PSoC4/SignalGenerator.c **** *   Values: 0 to 255
 541:.\Generated_Source\PSoC4/SignalGenerator.c **** *
 542:.\Generated_Source\PSoC4/SignalGenerator.c **** * Return:
 543:.\Generated_Source\PSoC4/SignalGenerator.c **** *  None
 544:.\Generated_Source\PSoC4/SignalGenerator.c **** *
 545:.\Generated_Source\PSoC4/SignalGenerator.c **** *******************************************************************************/
 546:.\Generated_Source\PSoC4/SignalGenerator.c **** void SignalGenerator_SetPWMDeadTime(uint32 deadTime)
 547:.\Generated_Source\PSoC4/SignalGenerator.c **** {
 623              		.loc 1 547 0
 624              		.cfi_startproc
 625 0000 90B5     		push	{r4, r7, lr}
 626              		.cfi_def_cfa_offset 12
 627              		.cfi_offset 4, -12
 628              		.cfi_offset 7, -8
 629              		.cfi_offset 14, -4
 630 0002 85B0     		sub	sp, sp, #20
 631              		.cfi_def_cfa_offset 32
 632 0004 00AF     		add	r7, sp, #0
 633              		.cfi_def_cfa_register 7
 634 0006 7860     		str	r0, [r7, #4]
 548:.\Generated_Source\PSoC4/SignalGenerator.c ****     uint8 enableInterrupts;
 549:.\Generated_Source\PSoC4/SignalGenerator.c **** 
 550:.\Generated_Source\PSoC4/SignalGenerator.c ****     enableInterrupts = CyEnterCriticalSection();
 635              		.loc 1 550 0
 636 0008 3C1C     		mov	r4, r7
 637 000a 0F34     		add	r4, r4, #15
 638 000c FFF7FEFF 		bl	CyEnterCriticalSection
 639 0010 031C     		mov	r3, r0
 640 0012 2370     		strb	r3, [r4]
 551:.\Generated_Source\PSoC4/SignalGenerator.c **** 
 552:.\Generated_Source\PSoC4/SignalGenerator.c ****     SignalGenerator_CONTROL_REG &= (uint32)~SignalGenerator_PRESCALER_MASK;
 641              		.loc 1 552 0
 642 0014 0B4B     		ldr	r3, .L36
 643 0016 0B4A     		ldr	r2, .L36
 644 0018 1168     		ldr	r1, [r2]
 645 001a 0B4A     		ldr	r2, .L36+4
ARM GAS  C:\Users\Clayton\AppData\Local\Temp\ccxaoGNk.s 			page 22


 646 001c 0A40     		and	r2, r1
 647 001e 1A60     		str	r2, [r3]
 553:.\Generated_Source\PSoC4/SignalGenerator.c ****     SignalGenerator_CONTROL_REG |= ((uint32)((deadTime & SignalGenerator_8BIT_MASK) <<
 648              		.loc 1 553 0
 649 0020 084B     		ldr	r3, .L36
 650 0022 084A     		ldr	r2, .L36
 651 0024 1168     		ldr	r1, [r2]
 652 0026 7A68     		ldr	r2, [r7, #4]
 653 0028 1202     		lsl	r2, r2, #8
 654 002a 1204     		lsl	r2, r2, #16
 655 002c 120C     		lsr	r2, r2, #16
 656 002e 0A43     		orr	r2, r1
 657 0030 1A60     		str	r2, [r3]
 554:.\Generated_Source\PSoC4/SignalGenerator.c ****                                                           SignalGenerator_PRESCALER_SHIFT));
 555:.\Generated_Source\PSoC4/SignalGenerator.c **** 
 556:.\Generated_Source\PSoC4/SignalGenerator.c ****     CyExitCriticalSection(enableInterrupts);
 658              		.loc 1 556 0
 659 0032 3B1C     		mov	r3, r7
 660 0034 0F33     		add	r3, r3, #15
 661 0036 1B78     		ldrb	r3, [r3]
 662 0038 181C     		mov	r0, r3
 663 003a FFF7FEFF 		bl	CyExitCriticalSection
 557:.\Generated_Source\PSoC4/SignalGenerator.c **** }
 664              		.loc 1 557 0
 665 003e BD46     		mov	sp, r7
 666 0040 05B0     		add	sp, sp, #20
 667              		@ sp needed
 668 0042 90BD     		pop	{r4, r7, pc}
 669              	.L37:
 670              		.align	2
 671              	.L36:
 672 0044 40010540 		.word	1074069824
 673 0048 FF00FFFF 		.word	-65281
 674              		.cfi_endproc
 675              	.LFE11:
 676              		.size	SignalGenerator_SetPWMDeadTime, .-SignalGenerator_SetPWMDeadTime
 677              		.section	.text.SignalGenerator_SetPWMInvert,"ax",%progbits
 678              		.align	2
 679              		.global	SignalGenerator_SetPWMInvert
 680              		.code	16
 681              		.thumb_func
 682              		.type	SignalGenerator_SetPWMInvert, %function
 683              	SignalGenerator_SetPWMInvert:
 684              	.LFB12:
 558:.\Generated_Source\PSoC4/SignalGenerator.c **** 
 559:.\Generated_Source\PSoC4/SignalGenerator.c **** 
 560:.\Generated_Source\PSoC4/SignalGenerator.c **** /*******************************************************************************
 561:.\Generated_Source\PSoC4/SignalGenerator.c **** * Function Name: SignalGenerator_SetPWMInvert
 562:.\Generated_Source\PSoC4/SignalGenerator.c **** ********************************************************************************
 563:.\Generated_Source\PSoC4/SignalGenerator.c **** *
 564:.\Generated_Source\PSoC4/SignalGenerator.c **** * Summary:
 565:.\Generated_Source\PSoC4/SignalGenerator.c **** *  Writes the bits that control whether the line and line_n outputs are
 566:.\Generated_Source\PSoC4/SignalGenerator.c **** *  inverted from their normal output values.  This functionality is only
 567:.\Generated_Source\PSoC4/SignalGenerator.c **** *  applicable to the three PWM modes.
 568:.\Generated_Source\PSoC4/SignalGenerator.c **** *
 569:.\Generated_Source\PSoC4/SignalGenerator.c **** * Parameters:
 570:.\Generated_Source\PSoC4/SignalGenerator.c **** *  mask: Mask of outputs to invert.
ARM GAS  C:\Users\Clayton\AppData\Local\Temp\ccxaoGNk.s 			page 23


 571:.\Generated_Source\PSoC4/SignalGenerator.c **** *   Values:
 572:.\Generated_Source\PSoC4/SignalGenerator.c **** *         - SignalGenerator_INVERT_LINE   - Inverts the line output
 573:.\Generated_Source\PSoC4/SignalGenerator.c **** *         - SignalGenerator_INVERT_LINE_N - Inverts the line_n output
 574:.\Generated_Source\PSoC4/SignalGenerator.c **** *
 575:.\Generated_Source\PSoC4/SignalGenerator.c **** * Return:
 576:.\Generated_Source\PSoC4/SignalGenerator.c **** *  None
 577:.\Generated_Source\PSoC4/SignalGenerator.c **** *
 578:.\Generated_Source\PSoC4/SignalGenerator.c **** *******************************************************************************/
 579:.\Generated_Source\PSoC4/SignalGenerator.c **** void SignalGenerator_SetPWMInvert(uint32 mask)
 580:.\Generated_Source\PSoC4/SignalGenerator.c **** {
 685              		.loc 1 580 0
 686              		.cfi_startproc
 687 0000 90B5     		push	{r4, r7, lr}
 688              		.cfi_def_cfa_offset 12
 689              		.cfi_offset 4, -12
 690              		.cfi_offset 7, -8
 691              		.cfi_offset 14, -4
 692 0002 85B0     		sub	sp, sp, #20
 693              		.cfi_def_cfa_offset 32
 694 0004 00AF     		add	r7, sp, #0
 695              		.cfi_def_cfa_register 7
 696 0006 7860     		str	r0, [r7, #4]
 581:.\Generated_Source\PSoC4/SignalGenerator.c ****     uint8 enableInterrupts;
 582:.\Generated_Source\PSoC4/SignalGenerator.c **** 
 583:.\Generated_Source\PSoC4/SignalGenerator.c ****     enableInterrupts = CyEnterCriticalSection();
 697              		.loc 1 583 0
 698 0008 3C1C     		mov	r4, r7
 699 000a 0F34     		add	r4, r4, #15
 700 000c FFF7FEFF 		bl	CyEnterCriticalSection
 701 0010 031C     		mov	r3, r0
 702 0012 2370     		strb	r3, [r4]
 584:.\Generated_Source\PSoC4/SignalGenerator.c **** 
 585:.\Generated_Source\PSoC4/SignalGenerator.c ****     SignalGenerator_CONTROL_REG &= (uint32)~SignalGenerator_INV_OUT_MASK;
 703              		.loc 1 585 0
 704 0014 0A4B     		ldr	r3, .L39
 705 0016 0A4A     		ldr	r2, .L39
 706 0018 1168     		ldr	r1, [r2]
 707 001a 0A4A     		ldr	r2, .L39+4
 708 001c 0A40     		and	r2, r1
 709 001e 1A60     		str	r2, [r3]
 586:.\Generated_Source\PSoC4/SignalGenerator.c ****     SignalGenerator_CONTROL_REG |= mask;
 710              		.loc 1 586 0
 711 0020 074B     		ldr	r3, .L39
 712 0022 074A     		ldr	r2, .L39
 713 0024 1168     		ldr	r1, [r2]
 714 0026 7A68     		ldr	r2, [r7, #4]
 715 0028 0A43     		orr	r2, r1
 716 002a 1A60     		str	r2, [r3]
 587:.\Generated_Source\PSoC4/SignalGenerator.c **** 
 588:.\Generated_Source\PSoC4/SignalGenerator.c ****     CyExitCriticalSection(enableInterrupts);
 717              		.loc 1 588 0
 718 002c 3B1C     		mov	r3, r7
 719 002e 0F33     		add	r3, r3, #15
 720 0030 1B78     		ldrb	r3, [r3]
 721 0032 181C     		mov	r0, r3
 722 0034 FFF7FEFF 		bl	CyExitCriticalSection
 589:.\Generated_Source\PSoC4/SignalGenerator.c **** }
ARM GAS  C:\Users\Clayton\AppData\Local\Temp\ccxaoGNk.s 			page 24


 723              		.loc 1 589 0
 724 0038 BD46     		mov	sp, r7
 725 003a 05B0     		add	sp, sp, #20
 726              		@ sp needed
 727 003c 90BD     		pop	{r4, r7, pc}
 728              	.L40:
 729 003e C046     		.align	2
 730              	.L39:
 731 0040 40010540 		.word	1074069824
 732 0044 FFFFCFFF 		.word	-3145729
 733              		.cfi_endproc
 734              	.LFE12:
 735              		.size	SignalGenerator_SetPWMInvert, .-SignalGenerator_SetPWMInvert
 736              		.section	.text.SignalGenerator_WriteCounter,"ax",%progbits
 737              		.align	2
 738              		.global	SignalGenerator_WriteCounter
 739              		.code	16
 740              		.thumb_func
 741              		.type	SignalGenerator_WriteCounter, %function
 742              	SignalGenerator_WriteCounter:
 743              	.LFB13:
 590:.\Generated_Source\PSoC4/SignalGenerator.c **** 
 591:.\Generated_Source\PSoC4/SignalGenerator.c **** 
 592:.\Generated_Source\PSoC4/SignalGenerator.c **** 
 593:.\Generated_Source\PSoC4/SignalGenerator.c **** /*******************************************************************************
 594:.\Generated_Source\PSoC4/SignalGenerator.c **** * Function Name: SignalGenerator_WriteCounter
 595:.\Generated_Source\PSoC4/SignalGenerator.c **** ********************************************************************************
 596:.\Generated_Source\PSoC4/SignalGenerator.c **** *
 597:.\Generated_Source\PSoC4/SignalGenerator.c **** * Summary:
 598:.\Generated_Source\PSoC4/SignalGenerator.c **** *  Writes a new 16bit counter value directly into the counter register, thus
 599:.\Generated_Source\PSoC4/SignalGenerator.c **** *  setting the counter (not the period) to the value written. It is not
 600:.\Generated_Source\PSoC4/SignalGenerator.c **** *  advised to write to this field when the counter is running.
 601:.\Generated_Source\PSoC4/SignalGenerator.c **** *
 602:.\Generated_Source\PSoC4/SignalGenerator.c **** * Parameters:
 603:.\Generated_Source\PSoC4/SignalGenerator.c **** *  count: value to write
 604:.\Generated_Source\PSoC4/SignalGenerator.c **** *
 605:.\Generated_Source\PSoC4/SignalGenerator.c **** * Return:
 606:.\Generated_Source\PSoC4/SignalGenerator.c **** *  None
 607:.\Generated_Source\PSoC4/SignalGenerator.c **** *
 608:.\Generated_Source\PSoC4/SignalGenerator.c **** *******************************************************************************/
 609:.\Generated_Source\PSoC4/SignalGenerator.c **** void SignalGenerator_WriteCounter(uint32 count)
 610:.\Generated_Source\PSoC4/SignalGenerator.c **** {
 744              		.loc 1 610 0
 745              		.cfi_startproc
 746 0000 80B5     		push	{r7, lr}
 747              		.cfi_def_cfa_offset 8
 748              		.cfi_offset 7, -8
 749              		.cfi_offset 14, -4
 750 0002 82B0     		sub	sp, sp, #8
 751              		.cfi_def_cfa_offset 16
 752 0004 00AF     		add	r7, sp, #0
 753              		.cfi_def_cfa_register 7
 754 0006 7860     		str	r0, [r7, #4]
 611:.\Generated_Source\PSoC4/SignalGenerator.c ****     SignalGenerator_COUNTER_REG = (count & SignalGenerator_16BIT_MASK);
 755              		.loc 1 611 0
 756 0008 034B     		ldr	r3, .L42
 757 000a 7A68     		ldr	r2, [r7, #4]
ARM GAS  C:\Users\Clayton\AppData\Local\Temp\ccxaoGNk.s 			page 25


 758 000c 1204     		lsl	r2, r2, #16
 759 000e 120C     		lsr	r2, r2, #16
 760 0010 1A60     		str	r2, [r3]
 612:.\Generated_Source\PSoC4/SignalGenerator.c **** }
 761              		.loc 1 612 0
 762 0012 BD46     		mov	sp, r7
 763 0014 02B0     		add	sp, sp, #8
 764              		@ sp needed
 765 0016 80BD     		pop	{r7, pc}
 766              	.L43:
 767              		.align	2
 768              	.L42:
 769 0018 48010540 		.word	1074069832
 770              		.cfi_endproc
 771              	.LFE13:
 772              		.size	SignalGenerator_WriteCounter, .-SignalGenerator_WriteCounter
 773              		.section	.text.SignalGenerator_ReadCounter,"ax",%progbits
 774              		.align	2
 775              		.global	SignalGenerator_ReadCounter
 776              		.code	16
 777              		.thumb_func
 778              		.type	SignalGenerator_ReadCounter, %function
 779              	SignalGenerator_ReadCounter:
 780              	.LFB14:
 613:.\Generated_Source\PSoC4/SignalGenerator.c **** 
 614:.\Generated_Source\PSoC4/SignalGenerator.c **** 
 615:.\Generated_Source\PSoC4/SignalGenerator.c **** /*******************************************************************************
 616:.\Generated_Source\PSoC4/SignalGenerator.c **** * Function Name: SignalGenerator_ReadCounter
 617:.\Generated_Source\PSoC4/SignalGenerator.c **** ********************************************************************************
 618:.\Generated_Source\PSoC4/SignalGenerator.c **** *
 619:.\Generated_Source\PSoC4/SignalGenerator.c **** * Summary:
 620:.\Generated_Source\PSoC4/SignalGenerator.c **** *  Reads the current counter value.
 621:.\Generated_Source\PSoC4/SignalGenerator.c **** *
 622:.\Generated_Source\PSoC4/SignalGenerator.c **** * Parameters:
 623:.\Generated_Source\PSoC4/SignalGenerator.c **** *  None
 624:.\Generated_Source\PSoC4/SignalGenerator.c **** *
 625:.\Generated_Source\PSoC4/SignalGenerator.c **** * Return:
 626:.\Generated_Source\PSoC4/SignalGenerator.c **** *  Current counter value
 627:.\Generated_Source\PSoC4/SignalGenerator.c **** *
 628:.\Generated_Source\PSoC4/SignalGenerator.c **** *******************************************************************************/
 629:.\Generated_Source\PSoC4/SignalGenerator.c **** uint32 SignalGenerator_ReadCounter(void)
 630:.\Generated_Source\PSoC4/SignalGenerator.c **** {
 781              		.loc 1 630 0
 782              		.cfi_startproc
 783 0000 80B5     		push	{r7, lr}
 784              		.cfi_def_cfa_offset 8
 785              		.cfi_offset 7, -8
 786              		.cfi_offset 14, -4
 787 0002 00AF     		add	r7, sp, #0
 788              		.cfi_def_cfa_register 7
 631:.\Generated_Source\PSoC4/SignalGenerator.c ****     return (SignalGenerator_COUNTER_REG & SignalGenerator_16BIT_MASK);
 789              		.loc 1 631 0
 790 0004 034B     		ldr	r3, .L46
 791 0006 1B68     		ldr	r3, [r3]
 792 0008 1B04     		lsl	r3, r3, #16
 793 000a 1B0C     		lsr	r3, r3, #16
 632:.\Generated_Source\PSoC4/SignalGenerator.c **** }
ARM GAS  C:\Users\Clayton\AppData\Local\Temp\ccxaoGNk.s 			page 26


 794              		.loc 1 632 0
 795 000c 181C     		mov	r0, r3
 796 000e BD46     		mov	sp, r7
 797              		@ sp needed
 798 0010 80BD     		pop	{r7, pc}
 799              	.L47:
 800 0012 C046     		.align	2
 801              	.L46:
 802 0014 48010540 		.word	1074069832
 803              		.cfi_endproc
 804              	.LFE14:
 805              		.size	SignalGenerator_ReadCounter, .-SignalGenerator_ReadCounter
 806              		.section	.text.SignalGenerator_SetCounterMode,"ax",%progbits
 807              		.align	2
 808              		.global	SignalGenerator_SetCounterMode
 809              		.code	16
 810              		.thumb_func
 811              		.type	SignalGenerator_SetCounterMode, %function
 812              	SignalGenerator_SetCounterMode:
 813              	.LFB15:
 633:.\Generated_Source\PSoC4/SignalGenerator.c **** 
 634:.\Generated_Source\PSoC4/SignalGenerator.c **** 
 635:.\Generated_Source\PSoC4/SignalGenerator.c **** /*******************************************************************************
 636:.\Generated_Source\PSoC4/SignalGenerator.c **** * Function Name: SignalGenerator_SetCounterMode
 637:.\Generated_Source\PSoC4/SignalGenerator.c **** ********************************************************************************
 638:.\Generated_Source\PSoC4/SignalGenerator.c **** *
 639:.\Generated_Source\PSoC4/SignalGenerator.c **** * Summary:
 640:.\Generated_Source\PSoC4/SignalGenerator.c **** *  Sets the counter mode.  Applicable to all modes except Quadrature Decoder
 641:.\Generated_Source\PSoC4/SignalGenerator.c **** *  and the PWM with a pseudo random output.
 642:.\Generated_Source\PSoC4/SignalGenerator.c **** *
 643:.\Generated_Source\PSoC4/SignalGenerator.c **** * Parameters:
 644:.\Generated_Source\PSoC4/SignalGenerator.c **** *  counterMode: Enumerated counter type values
 645:.\Generated_Source\PSoC4/SignalGenerator.c **** *   Values:
 646:.\Generated_Source\PSoC4/SignalGenerator.c **** *     - SignalGenerator_COUNT_UP       - Counts up
 647:.\Generated_Source\PSoC4/SignalGenerator.c **** *     - SignalGenerator_COUNT_DOWN     - Counts down
 648:.\Generated_Source\PSoC4/SignalGenerator.c **** *     - SignalGenerator_COUNT_UPDOWN0  - Counts up and down. Terminal count
 649:.\Generated_Source\PSoC4/SignalGenerator.c **** *                                         generated when counter reaches 0
 650:.\Generated_Source\PSoC4/SignalGenerator.c **** *     - SignalGenerator_COUNT_UPDOWN1  - Counts up and down. Terminal count
 651:.\Generated_Source\PSoC4/SignalGenerator.c **** *                                         generated both when counter reaches 0
 652:.\Generated_Source\PSoC4/SignalGenerator.c **** *                                         and period
 653:.\Generated_Source\PSoC4/SignalGenerator.c **** *
 654:.\Generated_Source\PSoC4/SignalGenerator.c **** * Return:
 655:.\Generated_Source\PSoC4/SignalGenerator.c **** *  None
 656:.\Generated_Source\PSoC4/SignalGenerator.c **** *
 657:.\Generated_Source\PSoC4/SignalGenerator.c **** *******************************************************************************/
 658:.\Generated_Source\PSoC4/SignalGenerator.c **** void SignalGenerator_SetCounterMode(uint32 counterMode)
 659:.\Generated_Source\PSoC4/SignalGenerator.c **** {
 814              		.loc 1 659 0
 815              		.cfi_startproc
 816 0000 90B5     		push	{r4, r7, lr}
 817              		.cfi_def_cfa_offset 12
 818              		.cfi_offset 4, -12
 819              		.cfi_offset 7, -8
 820              		.cfi_offset 14, -4
 821 0002 85B0     		sub	sp, sp, #20
 822              		.cfi_def_cfa_offset 32
 823 0004 00AF     		add	r7, sp, #0
ARM GAS  C:\Users\Clayton\AppData\Local\Temp\ccxaoGNk.s 			page 27


 824              		.cfi_def_cfa_register 7
 825 0006 7860     		str	r0, [r7, #4]
 660:.\Generated_Source\PSoC4/SignalGenerator.c ****     uint8 enableInterrupts;
 661:.\Generated_Source\PSoC4/SignalGenerator.c **** 
 662:.\Generated_Source\PSoC4/SignalGenerator.c ****     enableInterrupts = CyEnterCriticalSection();
 826              		.loc 1 662 0
 827 0008 3C1C     		mov	r4, r7
 828 000a 0F34     		add	r4, r4, #15
 829 000c FFF7FEFF 		bl	CyEnterCriticalSection
 830 0010 031C     		mov	r3, r0
 831 0012 2370     		strb	r3, [r4]
 663:.\Generated_Source\PSoC4/SignalGenerator.c **** 
 664:.\Generated_Source\PSoC4/SignalGenerator.c ****     SignalGenerator_CONTROL_REG &= (uint32)~SignalGenerator_UPDOWN_MASK;
 832              		.loc 1 664 0
 833 0014 0A4B     		ldr	r3, .L49
 834 0016 0A4A     		ldr	r2, .L49
 835 0018 1168     		ldr	r1, [r2]
 836 001a 0A4A     		ldr	r2, .L49+4
 837 001c 0A40     		and	r2, r1
 838 001e 1A60     		str	r2, [r3]
 665:.\Generated_Source\PSoC4/SignalGenerator.c ****     SignalGenerator_CONTROL_REG |= counterMode;
 839              		.loc 1 665 0
 840 0020 074B     		ldr	r3, .L49
 841 0022 074A     		ldr	r2, .L49
 842 0024 1168     		ldr	r1, [r2]
 843 0026 7A68     		ldr	r2, [r7, #4]
 844 0028 0A43     		orr	r2, r1
 845 002a 1A60     		str	r2, [r3]
 666:.\Generated_Source\PSoC4/SignalGenerator.c **** 
 667:.\Generated_Source\PSoC4/SignalGenerator.c ****     CyExitCriticalSection(enableInterrupts);
 846              		.loc 1 667 0
 847 002c 3B1C     		mov	r3, r7
 848 002e 0F33     		add	r3, r3, #15
 849 0030 1B78     		ldrb	r3, [r3]
 850 0032 181C     		mov	r0, r3
 851 0034 FFF7FEFF 		bl	CyExitCriticalSection
 668:.\Generated_Source\PSoC4/SignalGenerator.c **** }
 852              		.loc 1 668 0
 853 0038 BD46     		mov	sp, r7
 854 003a 05B0     		add	sp, sp, #20
 855              		@ sp needed
 856 003c 90BD     		pop	{r4, r7, pc}
 857              	.L50:
 858 003e C046     		.align	2
 859              	.L49:
 860 0040 40010540 		.word	1074069824
 861 0044 FFFFFCFF 		.word	-196609
 862              		.cfi_endproc
 863              	.LFE15:
 864              		.size	SignalGenerator_SetCounterMode, .-SignalGenerator_SetCounterMode
 865              		.section	.text.SignalGenerator_WritePeriod,"ax",%progbits
 866              		.align	2
 867              		.global	SignalGenerator_WritePeriod
 868              		.code	16
 869              		.thumb_func
 870              		.type	SignalGenerator_WritePeriod, %function
 871              	SignalGenerator_WritePeriod:
ARM GAS  C:\Users\Clayton\AppData\Local\Temp\ccxaoGNk.s 			page 28


 872              	.LFB16:
 669:.\Generated_Source\PSoC4/SignalGenerator.c **** 
 670:.\Generated_Source\PSoC4/SignalGenerator.c **** 
 671:.\Generated_Source\PSoC4/SignalGenerator.c **** /*******************************************************************************
 672:.\Generated_Source\PSoC4/SignalGenerator.c **** * Function Name: SignalGenerator_WritePeriod
 673:.\Generated_Source\PSoC4/SignalGenerator.c **** ********************************************************************************
 674:.\Generated_Source\PSoC4/SignalGenerator.c **** *
 675:.\Generated_Source\PSoC4/SignalGenerator.c **** * Summary:
 676:.\Generated_Source\PSoC4/SignalGenerator.c **** *  Writes the 16 bit period register with the new period value.
 677:.\Generated_Source\PSoC4/SignalGenerator.c **** *  To cause the counter to count for N cycles this register should be written
 678:.\Generated_Source\PSoC4/SignalGenerator.c **** *  with N-1 (counts from 0 to period inclusive).
 679:.\Generated_Source\PSoC4/SignalGenerator.c **** *
 680:.\Generated_Source\PSoC4/SignalGenerator.c **** * Parameters:
 681:.\Generated_Source\PSoC4/SignalGenerator.c **** *  period: Period value
 682:.\Generated_Source\PSoC4/SignalGenerator.c **** *
 683:.\Generated_Source\PSoC4/SignalGenerator.c **** * Return:
 684:.\Generated_Source\PSoC4/SignalGenerator.c **** *  None
 685:.\Generated_Source\PSoC4/SignalGenerator.c **** *
 686:.\Generated_Source\PSoC4/SignalGenerator.c **** *******************************************************************************/
 687:.\Generated_Source\PSoC4/SignalGenerator.c **** void SignalGenerator_WritePeriod(uint32 period)
 688:.\Generated_Source\PSoC4/SignalGenerator.c **** {
 873              		.loc 1 688 0
 874              		.cfi_startproc
 875 0000 80B5     		push	{r7, lr}
 876              		.cfi_def_cfa_offset 8
 877              		.cfi_offset 7, -8
 878              		.cfi_offset 14, -4
 879 0002 82B0     		sub	sp, sp, #8
 880              		.cfi_def_cfa_offset 16
 881 0004 00AF     		add	r7, sp, #0
 882              		.cfi_def_cfa_register 7
 883 0006 7860     		str	r0, [r7, #4]
 689:.\Generated_Source\PSoC4/SignalGenerator.c ****     SignalGenerator_PERIOD_REG = (period & SignalGenerator_16BIT_MASK);
 884              		.loc 1 689 0
 885 0008 034B     		ldr	r3, .L52
 886 000a 7A68     		ldr	r2, [r7, #4]
 887 000c 1204     		lsl	r2, r2, #16
 888 000e 120C     		lsr	r2, r2, #16
 889 0010 1A60     		str	r2, [r3]
 690:.\Generated_Source\PSoC4/SignalGenerator.c **** }
 890              		.loc 1 690 0
 891 0012 BD46     		mov	sp, r7
 892 0014 02B0     		add	sp, sp, #8
 893              		@ sp needed
 894 0016 80BD     		pop	{r7, pc}
 895              	.L53:
 896              		.align	2
 897              	.L52:
 898 0018 54010540 		.word	1074069844
 899              		.cfi_endproc
 900              	.LFE16:
 901              		.size	SignalGenerator_WritePeriod, .-SignalGenerator_WritePeriod
 902              		.section	.text.SignalGenerator_ReadPeriod,"ax",%progbits
 903              		.align	2
 904              		.global	SignalGenerator_ReadPeriod
 905              		.code	16
 906              		.thumb_func
ARM GAS  C:\Users\Clayton\AppData\Local\Temp\ccxaoGNk.s 			page 29


 907              		.type	SignalGenerator_ReadPeriod, %function
 908              	SignalGenerator_ReadPeriod:
 909              	.LFB17:
 691:.\Generated_Source\PSoC4/SignalGenerator.c **** 
 692:.\Generated_Source\PSoC4/SignalGenerator.c **** 
 693:.\Generated_Source\PSoC4/SignalGenerator.c **** /*******************************************************************************
 694:.\Generated_Source\PSoC4/SignalGenerator.c **** * Function Name: SignalGenerator_ReadPeriod
 695:.\Generated_Source\PSoC4/SignalGenerator.c **** ********************************************************************************
 696:.\Generated_Source\PSoC4/SignalGenerator.c **** *
 697:.\Generated_Source\PSoC4/SignalGenerator.c **** * Summary:
 698:.\Generated_Source\PSoC4/SignalGenerator.c **** *  Reads the 16 bit period register.
 699:.\Generated_Source\PSoC4/SignalGenerator.c **** *
 700:.\Generated_Source\PSoC4/SignalGenerator.c **** * Parameters:
 701:.\Generated_Source\PSoC4/SignalGenerator.c **** *  None
 702:.\Generated_Source\PSoC4/SignalGenerator.c **** *
 703:.\Generated_Source\PSoC4/SignalGenerator.c **** * Return:
 704:.\Generated_Source\PSoC4/SignalGenerator.c **** *  Period value
 705:.\Generated_Source\PSoC4/SignalGenerator.c **** *
 706:.\Generated_Source\PSoC4/SignalGenerator.c **** *******************************************************************************/
 707:.\Generated_Source\PSoC4/SignalGenerator.c **** uint32 SignalGenerator_ReadPeriod(void)
 708:.\Generated_Source\PSoC4/SignalGenerator.c **** {
 910              		.loc 1 708 0
 911              		.cfi_startproc
 912 0000 80B5     		push	{r7, lr}
 913              		.cfi_def_cfa_offset 8
 914              		.cfi_offset 7, -8
 915              		.cfi_offset 14, -4
 916 0002 00AF     		add	r7, sp, #0
 917              		.cfi_def_cfa_register 7
 709:.\Generated_Source\PSoC4/SignalGenerator.c ****     return (SignalGenerator_PERIOD_REG & SignalGenerator_16BIT_MASK);
 918              		.loc 1 709 0
 919 0004 034B     		ldr	r3, .L56
 920 0006 1B68     		ldr	r3, [r3]
 921 0008 1B04     		lsl	r3, r3, #16
 922 000a 1B0C     		lsr	r3, r3, #16
 710:.\Generated_Source\PSoC4/SignalGenerator.c **** }
 923              		.loc 1 710 0
 924 000c 181C     		mov	r0, r3
 925 000e BD46     		mov	sp, r7
 926              		@ sp needed
 927 0010 80BD     		pop	{r7, pc}
 928              	.L57:
 929 0012 C046     		.align	2
 930              	.L56:
 931 0014 54010540 		.word	1074069844
 932              		.cfi_endproc
 933              	.LFE17:
 934              		.size	SignalGenerator_ReadPeriod, .-SignalGenerator_ReadPeriod
 935              		.section	.text.SignalGenerator_SetCompareSwap,"ax",%progbits
 936              		.align	2
 937              		.global	SignalGenerator_SetCompareSwap
 938              		.code	16
 939              		.thumb_func
 940              		.type	SignalGenerator_SetCompareSwap, %function
 941              	SignalGenerator_SetCompareSwap:
 942              	.LFB18:
 711:.\Generated_Source\PSoC4/SignalGenerator.c **** 
ARM GAS  C:\Users\Clayton\AppData\Local\Temp\ccxaoGNk.s 			page 30


 712:.\Generated_Source\PSoC4/SignalGenerator.c **** 
 713:.\Generated_Source\PSoC4/SignalGenerator.c **** /*******************************************************************************
 714:.\Generated_Source\PSoC4/SignalGenerator.c **** * Function Name: SignalGenerator_SetCompareSwap
 715:.\Generated_Source\PSoC4/SignalGenerator.c **** ********************************************************************************
 716:.\Generated_Source\PSoC4/SignalGenerator.c **** *
 717:.\Generated_Source\PSoC4/SignalGenerator.c **** * Summary:
 718:.\Generated_Source\PSoC4/SignalGenerator.c **** *  Writes the register that controls whether the compare registers are
 719:.\Generated_Source\PSoC4/SignalGenerator.c **** *  swapped. When enabled in the Timer/Counter mode(without capture) the swap
 720:.\Generated_Source\PSoC4/SignalGenerator.c **** *  occurs at a TC event. In the PWM mode the swap occurs at the next TC event
 721:.\Generated_Source\PSoC4/SignalGenerator.c **** *  following a hardware switch event.
 722:.\Generated_Source\PSoC4/SignalGenerator.c **** *
 723:.\Generated_Source\PSoC4/SignalGenerator.c **** * Parameters:
 724:.\Generated_Source\PSoC4/SignalGenerator.c **** *  swapEnable
 725:.\Generated_Source\PSoC4/SignalGenerator.c **** *   Values:
 726:.\Generated_Source\PSoC4/SignalGenerator.c **** *     - 0 - Disable swap
 727:.\Generated_Source\PSoC4/SignalGenerator.c **** *     - 1 - Enable swap
 728:.\Generated_Source\PSoC4/SignalGenerator.c **** *
 729:.\Generated_Source\PSoC4/SignalGenerator.c **** * Return:
 730:.\Generated_Source\PSoC4/SignalGenerator.c **** *  None
 731:.\Generated_Source\PSoC4/SignalGenerator.c **** *
 732:.\Generated_Source\PSoC4/SignalGenerator.c **** *******************************************************************************/
 733:.\Generated_Source\PSoC4/SignalGenerator.c **** void SignalGenerator_SetCompareSwap(uint32 swapEnable)
 734:.\Generated_Source\PSoC4/SignalGenerator.c **** {
 943              		.loc 1 734 0
 944              		.cfi_startproc
 945 0000 90B5     		push	{r4, r7, lr}
 946              		.cfi_def_cfa_offset 12
 947              		.cfi_offset 4, -12
 948              		.cfi_offset 7, -8
 949              		.cfi_offset 14, -4
 950 0002 85B0     		sub	sp, sp, #20
 951              		.cfi_def_cfa_offset 32
 952 0004 00AF     		add	r7, sp, #0
 953              		.cfi_def_cfa_register 7
 954 0006 7860     		str	r0, [r7, #4]
 735:.\Generated_Source\PSoC4/SignalGenerator.c ****     uint8 enableInterrupts;
 736:.\Generated_Source\PSoC4/SignalGenerator.c **** 
 737:.\Generated_Source\PSoC4/SignalGenerator.c ****     enableInterrupts = CyEnterCriticalSection();
 955              		.loc 1 737 0
 956 0008 3C1C     		mov	r4, r7
 957 000a 0F34     		add	r4, r4, #15
 958 000c FFF7FEFF 		bl	CyEnterCriticalSection
 959 0010 031C     		mov	r3, r0
 960 0012 2370     		strb	r3, [r4]
 738:.\Generated_Source\PSoC4/SignalGenerator.c **** 
 739:.\Generated_Source\PSoC4/SignalGenerator.c ****     SignalGenerator_CONTROL_REG &= (uint32)~SignalGenerator_RELOAD_CC_MASK;
 961              		.loc 1 739 0
 962 0014 0B4B     		ldr	r3, .L59
 963 0016 0B4A     		ldr	r2, .L59
 964 0018 1268     		ldr	r2, [r2]
 965 001a 0121     		mov	r1, #1
 966 001c 8A43     		bic	r2, r1
 967 001e 1A60     		str	r2, [r3]
 740:.\Generated_Source\PSoC4/SignalGenerator.c ****     SignalGenerator_CONTROL_REG |= (swapEnable & SignalGenerator_1BIT_MASK);
 968              		.loc 1 740 0
 969 0020 084B     		ldr	r3, .L59
 970 0022 084A     		ldr	r2, .L59
ARM GAS  C:\Users\Clayton\AppData\Local\Temp\ccxaoGNk.s 			page 31


 971 0024 1168     		ldr	r1, [r2]
 972 0026 7868     		ldr	r0, [r7, #4]
 973 0028 0122     		mov	r2, #1
 974 002a 0240     		and	r2, r0
 975 002c 0A43     		orr	r2, r1
 976 002e 1A60     		str	r2, [r3]
 741:.\Generated_Source\PSoC4/SignalGenerator.c **** 
 742:.\Generated_Source\PSoC4/SignalGenerator.c ****     CyExitCriticalSection(enableInterrupts);
 977              		.loc 1 742 0
 978 0030 3B1C     		mov	r3, r7
 979 0032 0F33     		add	r3, r3, #15
 980 0034 1B78     		ldrb	r3, [r3]
 981 0036 181C     		mov	r0, r3
 982 0038 FFF7FEFF 		bl	CyExitCriticalSection
 743:.\Generated_Source\PSoC4/SignalGenerator.c **** }
 983              		.loc 1 743 0
 984 003c BD46     		mov	sp, r7
 985 003e 05B0     		add	sp, sp, #20
 986              		@ sp needed
 987 0040 90BD     		pop	{r4, r7, pc}
 988              	.L60:
 989 0042 C046     		.align	2
 990              	.L59:
 991 0044 40010540 		.word	1074069824
 992              		.cfi_endproc
 993              	.LFE18:
 994              		.size	SignalGenerator_SetCompareSwap, .-SignalGenerator_SetCompareSwap
 995              		.section	.text.SignalGenerator_WritePeriodBuf,"ax",%progbits
 996              		.align	2
 997              		.global	SignalGenerator_WritePeriodBuf
 998              		.code	16
 999              		.thumb_func
 1000              		.type	SignalGenerator_WritePeriodBuf, %function
 1001              	SignalGenerator_WritePeriodBuf:
 1002              	.LFB19:
 744:.\Generated_Source\PSoC4/SignalGenerator.c **** 
 745:.\Generated_Source\PSoC4/SignalGenerator.c **** 
 746:.\Generated_Source\PSoC4/SignalGenerator.c **** /*******************************************************************************
 747:.\Generated_Source\PSoC4/SignalGenerator.c **** * Function Name: SignalGenerator_WritePeriodBuf
 748:.\Generated_Source\PSoC4/SignalGenerator.c **** ********************************************************************************
 749:.\Generated_Source\PSoC4/SignalGenerator.c **** *
 750:.\Generated_Source\PSoC4/SignalGenerator.c **** * Summary:
 751:.\Generated_Source\PSoC4/SignalGenerator.c **** *  Writes the 16 bit period buf register with the new period value.
 752:.\Generated_Source\PSoC4/SignalGenerator.c **** *
 753:.\Generated_Source\PSoC4/SignalGenerator.c **** * Parameters:
 754:.\Generated_Source\PSoC4/SignalGenerator.c **** *  periodBuf: Period value
 755:.\Generated_Source\PSoC4/SignalGenerator.c **** *
 756:.\Generated_Source\PSoC4/SignalGenerator.c **** * Return:
 757:.\Generated_Source\PSoC4/SignalGenerator.c **** *  None
 758:.\Generated_Source\PSoC4/SignalGenerator.c **** *
 759:.\Generated_Source\PSoC4/SignalGenerator.c **** *******************************************************************************/
 760:.\Generated_Source\PSoC4/SignalGenerator.c **** void SignalGenerator_WritePeriodBuf(uint32 periodBuf)
 761:.\Generated_Source\PSoC4/SignalGenerator.c **** {
 1003              		.loc 1 761 0
 1004              		.cfi_startproc
 1005 0000 80B5     		push	{r7, lr}
 1006              		.cfi_def_cfa_offset 8
ARM GAS  C:\Users\Clayton\AppData\Local\Temp\ccxaoGNk.s 			page 32


 1007              		.cfi_offset 7, -8
 1008              		.cfi_offset 14, -4
 1009 0002 82B0     		sub	sp, sp, #8
 1010              		.cfi_def_cfa_offset 16
 1011 0004 00AF     		add	r7, sp, #0
 1012              		.cfi_def_cfa_register 7
 1013 0006 7860     		str	r0, [r7, #4]
 762:.\Generated_Source\PSoC4/SignalGenerator.c ****     SignalGenerator_PERIOD_BUF_REG = (periodBuf & SignalGenerator_16BIT_MASK);
 1014              		.loc 1 762 0
 1015 0008 034B     		ldr	r3, .L62
 1016 000a 7A68     		ldr	r2, [r7, #4]
 1017 000c 1204     		lsl	r2, r2, #16
 1018 000e 120C     		lsr	r2, r2, #16
 1019 0010 1A60     		str	r2, [r3]
 763:.\Generated_Source\PSoC4/SignalGenerator.c **** }
 1020              		.loc 1 763 0
 1021 0012 BD46     		mov	sp, r7
 1022 0014 02B0     		add	sp, sp, #8
 1023              		@ sp needed
 1024 0016 80BD     		pop	{r7, pc}
 1025              	.L63:
 1026              		.align	2
 1027              	.L62:
 1028 0018 58010540 		.word	1074069848
 1029              		.cfi_endproc
 1030              	.LFE19:
 1031              		.size	SignalGenerator_WritePeriodBuf, .-SignalGenerator_WritePeriodBuf
 1032              		.section	.text.SignalGenerator_ReadPeriodBuf,"ax",%progbits
 1033              		.align	2
 1034              		.global	SignalGenerator_ReadPeriodBuf
 1035              		.code	16
 1036              		.thumb_func
 1037              		.type	SignalGenerator_ReadPeriodBuf, %function
 1038              	SignalGenerator_ReadPeriodBuf:
 1039              	.LFB20:
 764:.\Generated_Source\PSoC4/SignalGenerator.c **** 
 765:.\Generated_Source\PSoC4/SignalGenerator.c **** 
 766:.\Generated_Source\PSoC4/SignalGenerator.c **** /*******************************************************************************
 767:.\Generated_Source\PSoC4/SignalGenerator.c **** * Function Name: SignalGenerator_ReadPeriodBuf
 768:.\Generated_Source\PSoC4/SignalGenerator.c **** ********************************************************************************
 769:.\Generated_Source\PSoC4/SignalGenerator.c **** *
 770:.\Generated_Source\PSoC4/SignalGenerator.c **** * Summary:
 771:.\Generated_Source\PSoC4/SignalGenerator.c **** *  Reads the 16 bit period buf register.
 772:.\Generated_Source\PSoC4/SignalGenerator.c **** *
 773:.\Generated_Source\PSoC4/SignalGenerator.c **** * Parameters:
 774:.\Generated_Source\PSoC4/SignalGenerator.c **** *  None
 775:.\Generated_Source\PSoC4/SignalGenerator.c **** *
 776:.\Generated_Source\PSoC4/SignalGenerator.c **** * Return:
 777:.\Generated_Source\PSoC4/SignalGenerator.c **** *  Period value
 778:.\Generated_Source\PSoC4/SignalGenerator.c **** *
 779:.\Generated_Source\PSoC4/SignalGenerator.c **** *******************************************************************************/
 780:.\Generated_Source\PSoC4/SignalGenerator.c **** uint32 SignalGenerator_ReadPeriodBuf(void)
 781:.\Generated_Source\PSoC4/SignalGenerator.c **** {
 1040              		.loc 1 781 0
 1041              		.cfi_startproc
 1042 0000 80B5     		push	{r7, lr}
 1043              		.cfi_def_cfa_offset 8
ARM GAS  C:\Users\Clayton\AppData\Local\Temp\ccxaoGNk.s 			page 33


 1044              		.cfi_offset 7, -8
 1045              		.cfi_offset 14, -4
 1046 0002 00AF     		add	r7, sp, #0
 1047              		.cfi_def_cfa_register 7
 782:.\Generated_Source\PSoC4/SignalGenerator.c ****     return (SignalGenerator_PERIOD_BUF_REG & SignalGenerator_16BIT_MASK);
 1048              		.loc 1 782 0
 1049 0004 034B     		ldr	r3, .L66
 1050 0006 1B68     		ldr	r3, [r3]
 1051 0008 1B04     		lsl	r3, r3, #16
 1052 000a 1B0C     		lsr	r3, r3, #16
 783:.\Generated_Source\PSoC4/SignalGenerator.c **** }
 1053              		.loc 1 783 0
 1054 000c 181C     		mov	r0, r3
 1055 000e BD46     		mov	sp, r7
 1056              		@ sp needed
 1057 0010 80BD     		pop	{r7, pc}
 1058              	.L67:
 1059 0012 C046     		.align	2
 1060              	.L66:
 1061 0014 58010540 		.word	1074069848
 1062              		.cfi_endproc
 1063              	.LFE20:
 1064              		.size	SignalGenerator_ReadPeriodBuf, .-SignalGenerator_ReadPeriodBuf
 1065              		.section	.text.SignalGenerator_SetPeriodSwap,"ax",%progbits
 1066              		.align	2
 1067              		.global	SignalGenerator_SetPeriodSwap
 1068              		.code	16
 1069              		.thumb_func
 1070              		.type	SignalGenerator_SetPeriodSwap, %function
 1071              	SignalGenerator_SetPeriodSwap:
 1072              	.LFB21:
 784:.\Generated_Source\PSoC4/SignalGenerator.c **** 
 785:.\Generated_Source\PSoC4/SignalGenerator.c **** 
 786:.\Generated_Source\PSoC4/SignalGenerator.c **** /*******************************************************************************
 787:.\Generated_Source\PSoC4/SignalGenerator.c **** * Function Name: SignalGenerator_SetPeriodSwap
 788:.\Generated_Source\PSoC4/SignalGenerator.c **** ********************************************************************************
 789:.\Generated_Source\PSoC4/SignalGenerator.c **** *
 790:.\Generated_Source\PSoC4/SignalGenerator.c **** * Summary:
 791:.\Generated_Source\PSoC4/SignalGenerator.c **** *  Writes the register that controls whether the period registers are
 792:.\Generated_Source\PSoC4/SignalGenerator.c **** *  swapped. When enabled in Timer/Counter mode the swap occurs at a TC event.
 793:.\Generated_Source\PSoC4/SignalGenerator.c **** *  In the PWM mode the swap occurs at the next TC event following a hardware
 794:.\Generated_Source\PSoC4/SignalGenerator.c **** *  switch event.
 795:.\Generated_Source\PSoC4/SignalGenerator.c **** *
 796:.\Generated_Source\PSoC4/SignalGenerator.c **** * Parameters:
 797:.\Generated_Source\PSoC4/SignalGenerator.c **** *  swapEnable
 798:.\Generated_Source\PSoC4/SignalGenerator.c **** *   Values:
 799:.\Generated_Source\PSoC4/SignalGenerator.c **** *     - 0 - Disable swap
 800:.\Generated_Source\PSoC4/SignalGenerator.c **** *     - 1 - Enable swap
 801:.\Generated_Source\PSoC4/SignalGenerator.c **** *
 802:.\Generated_Source\PSoC4/SignalGenerator.c **** * Return:
 803:.\Generated_Source\PSoC4/SignalGenerator.c **** *  None
 804:.\Generated_Source\PSoC4/SignalGenerator.c **** *
 805:.\Generated_Source\PSoC4/SignalGenerator.c **** *******************************************************************************/
 806:.\Generated_Source\PSoC4/SignalGenerator.c **** void SignalGenerator_SetPeriodSwap(uint32 swapEnable)
 807:.\Generated_Source\PSoC4/SignalGenerator.c **** {
 1073              		.loc 1 807 0
 1074              		.cfi_startproc
ARM GAS  C:\Users\Clayton\AppData\Local\Temp\ccxaoGNk.s 			page 34


 1075 0000 90B5     		push	{r4, r7, lr}
 1076              		.cfi_def_cfa_offset 12
 1077              		.cfi_offset 4, -12
 1078              		.cfi_offset 7, -8
 1079              		.cfi_offset 14, -4
 1080 0002 85B0     		sub	sp, sp, #20
 1081              		.cfi_def_cfa_offset 32
 1082 0004 00AF     		add	r7, sp, #0
 1083              		.cfi_def_cfa_register 7
 1084 0006 7860     		str	r0, [r7, #4]
 808:.\Generated_Source\PSoC4/SignalGenerator.c ****     uint8 enableInterrupts;
 809:.\Generated_Source\PSoC4/SignalGenerator.c **** 
 810:.\Generated_Source\PSoC4/SignalGenerator.c ****     enableInterrupts = CyEnterCriticalSection();
 1085              		.loc 1 810 0
 1086 0008 3C1C     		mov	r4, r7
 1087 000a 0F34     		add	r4, r4, #15
 1088 000c FFF7FEFF 		bl	CyEnterCriticalSection
 1089 0010 031C     		mov	r3, r0
 1090 0012 2370     		strb	r3, [r4]
 811:.\Generated_Source\PSoC4/SignalGenerator.c **** 
 812:.\Generated_Source\PSoC4/SignalGenerator.c ****     SignalGenerator_CONTROL_REG &= (uint32)~SignalGenerator_RELOAD_PERIOD_MASK;
 1091              		.loc 1 812 0
 1092 0014 0B4B     		ldr	r3, .L69
 1093 0016 0B4A     		ldr	r2, .L69
 1094 0018 1268     		ldr	r2, [r2]
 1095 001a 0221     		mov	r1, #2
 1096 001c 8A43     		bic	r2, r1
 1097 001e 1A60     		str	r2, [r3]
 813:.\Generated_Source\PSoC4/SignalGenerator.c ****     SignalGenerator_CONTROL_REG |= ((uint32)((swapEnable & SignalGenerator_1BIT_MASK) <<
 1098              		.loc 1 813 0
 1099 0020 084B     		ldr	r3, .L69
 1100 0022 084A     		ldr	r2, .L69
 1101 0024 1168     		ldr	r1, [r2]
 1102 0026 7868     		ldr	r0, [r7, #4]
 1103 0028 0122     		mov	r2, #1
 1104 002a 0240     		and	r2, r0
 1105 002c 5200     		lsl	r2, r2, #1
 1106 002e 0A43     		orr	r2, r1
 1107 0030 1A60     		str	r2, [r3]
 814:.\Generated_Source\PSoC4/SignalGenerator.c ****                                                             SignalGenerator_RELOAD_PERIOD_SHIFT));
 815:.\Generated_Source\PSoC4/SignalGenerator.c **** 
 816:.\Generated_Source\PSoC4/SignalGenerator.c ****     CyExitCriticalSection(enableInterrupts);
 1108              		.loc 1 816 0
 1109 0032 3B1C     		mov	r3, r7
 1110 0034 0F33     		add	r3, r3, #15
 1111 0036 1B78     		ldrb	r3, [r3]
 1112 0038 181C     		mov	r0, r3
 1113 003a FFF7FEFF 		bl	CyExitCriticalSection
 817:.\Generated_Source\PSoC4/SignalGenerator.c **** }
 1114              		.loc 1 817 0
 1115 003e BD46     		mov	sp, r7
 1116 0040 05B0     		add	sp, sp, #20
 1117              		@ sp needed
 1118 0042 90BD     		pop	{r4, r7, pc}
 1119              	.L70:
 1120              		.align	2
 1121              	.L69:
ARM GAS  C:\Users\Clayton\AppData\Local\Temp\ccxaoGNk.s 			page 35


 1122 0044 40010540 		.word	1074069824
 1123              		.cfi_endproc
 1124              	.LFE21:
 1125              		.size	SignalGenerator_SetPeriodSwap, .-SignalGenerator_SetPeriodSwap
 1126              		.section	.text.SignalGenerator_WriteCompare,"ax",%progbits
 1127              		.align	2
 1128              		.global	SignalGenerator_WriteCompare
 1129              		.code	16
 1130              		.thumb_func
 1131              		.type	SignalGenerator_WriteCompare, %function
 1132              	SignalGenerator_WriteCompare:
 1133              	.LFB22:
 818:.\Generated_Source\PSoC4/SignalGenerator.c **** 
 819:.\Generated_Source\PSoC4/SignalGenerator.c **** 
 820:.\Generated_Source\PSoC4/SignalGenerator.c **** /*******************************************************************************
 821:.\Generated_Source\PSoC4/SignalGenerator.c **** * Function Name: SignalGenerator_WriteCompare
 822:.\Generated_Source\PSoC4/SignalGenerator.c **** ********************************************************************************
 823:.\Generated_Source\PSoC4/SignalGenerator.c **** *
 824:.\Generated_Source\PSoC4/SignalGenerator.c **** * Summary:
 825:.\Generated_Source\PSoC4/SignalGenerator.c **** *  Writes the 16 bit compare register with the new compare value. Not
 826:.\Generated_Source\PSoC4/SignalGenerator.c **** *  applicable for Timer/Counter with Capture or in Quadrature Decoder modes.
 827:.\Generated_Source\PSoC4/SignalGenerator.c **** *
 828:.\Generated_Source\PSoC4/SignalGenerator.c **** * Parameters:
 829:.\Generated_Source\PSoC4/SignalGenerator.c **** *  compare: Compare value
 830:.\Generated_Source\PSoC4/SignalGenerator.c **** *
 831:.\Generated_Source\PSoC4/SignalGenerator.c **** * Return:
 832:.\Generated_Source\PSoC4/SignalGenerator.c **** *  None
 833:.\Generated_Source\PSoC4/SignalGenerator.c **** *
 834:.\Generated_Source\PSoC4/SignalGenerator.c **** *******************************************************************************/
 835:.\Generated_Source\PSoC4/SignalGenerator.c **** void SignalGenerator_WriteCompare(uint32 compare)
 836:.\Generated_Source\PSoC4/SignalGenerator.c **** {
 1134              		.loc 1 836 0
 1135              		.cfi_startproc
 1136 0000 80B5     		push	{r7, lr}
 1137              		.cfi_def_cfa_offset 8
 1138              		.cfi_offset 7, -8
 1139              		.cfi_offset 14, -4
 1140 0002 82B0     		sub	sp, sp, #8
 1141              		.cfi_def_cfa_offset 16
 1142 0004 00AF     		add	r7, sp, #0
 1143              		.cfi_def_cfa_register 7
 1144 0006 7860     		str	r0, [r7, #4]
 837:.\Generated_Source\PSoC4/SignalGenerator.c ****     #if (SignalGenerator_CY_TCPWM_4000)
 838:.\Generated_Source\PSoC4/SignalGenerator.c ****         uint32 currentMode;
 839:.\Generated_Source\PSoC4/SignalGenerator.c ****     #endif /* (SignalGenerator_CY_TCPWM_4000) */
 840:.\Generated_Source\PSoC4/SignalGenerator.c **** 
 841:.\Generated_Source\PSoC4/SignalGenerator.c ****     #if (SignalGenerator_CY_TCPWM_4000)
 842:.\Generated_Source\PSoC4/SignalGenerator.c ****         currentMode = ((SignalGenerator_CONTROL_REG & SignalGenerator_UPDOWN_MASK) >> SignalGenerat
 843:.\Generated_Source\PSoC4/SignalGenerator.c **** 
 844:.\Generated_Source\PSoC4/SignalGenerator.c ****         if (((uint32)SignalGenerator__COUNT_DOWN == currentMode) && (0xFFFFu != compare))
 845:.\Generated_Source\PSoC4/SignalGenerator.c ****         {
 846:.\Generated_Source\PSoC4/SignalGenerator.c ****             compare++;
 847:.\Generated_Source\PSoC4/SignalGenerator.c ****         }
 848:.\Generated_Source\PSoC4/SignalGenerator.c ****         else if (((uint32)SignalGenerator__COUNT_UP == currentMode) && (0u != compare))
 849:.\Generated_Source\PSoC4/SignalGenerator.c ****         {
 850:.\Generated_Source\PSoC4/SignalGenerator.c ****             compare--;
 851:.\Generated_Source\PSoC4/SignalGenerator.c ****         }
ARM GAS  C:\Users\Clayton\AppData\Local\Temp\ccxaoGNk.s 			page 36


 852:.\Generated_Source\PSoC4/SignalGenerator.c ****         else
 853:.\Generated_Source\PSoC4/SignalGenerator.c ****         {
 854:.\Generated_Source\PSoC4/SignalGenerator.c ****         }
 855:.\Generated_Source\PSoC4/SignalGenerator.c ****         
 856:.\Generated_Source\PSoC4/SignalGenerator.c ****     
 857:.\Generated_Source\PSoC4/SignalGenerator.c ****     #endif /* (SignalGenerator_CY_TCPWM_4000) */
 858:.\Generated_Source\PSoC4/SignalGenerator.c ****     
 859:.\Generated_Source\PSoC4/SignalGenerator.c ****     SignalGenerator_COMP_CAP_REG = (compare & SignalGenerator_16BIT_MASK);
 1145              		.loc 1 859 0
 1146 0008 034B     		ldr	r3, .L72
 1147 000a 7A68     		ldr	r2, [r7, #4]
 1148 000c 1204     		lsl	r2, r2, #16
 1149 000e 120C     		lsr	r2, r2, #16
 1150 0010 1A60     		str	r2, [r3]
 860:.\Generated_Source\PSoC4/SignalGenerator.c **** }
 1151              		.loc 1 860 0
 1152 0012 BD46     		mov	sp, r7
 1153 0014 02B0     		add	sp, sp, #8
 1154              		@ sp needed
 1155 0016 80BD     		pop	{r7, pc}
 1156              	.L73:
 1157              		.align	2
 1158              	.L72:
 1159 0018 4C010540 		.word	1074069836
 1160              		.cfi_endproc
 1161              	.LFE22:
 1162              		.size	SignalGenerator_WriteCompare, .-SignalGenerator_WriteCompare
 1163              		.section	.text.SignalGenerator_ReadCompare,"ax",%progbits
 1164              		.align	2
 1165              		.global	SignalGenerator_ReadCompare
 1166              		.code	16
 1167              		.thumb_func
 1168              		.type	SignalGenerator_ReadCompare, %function
 1169              	SignalGenerator_ReadCompare:
 1170              	.LFB23:
 861:.\Generated_Source\PSoC4/SignalGenerator.c **** 
 862:.\Generated_Source\PSoC4/SignalGenerator.c **** 
 863:.\Generated_Source\PSoC4/SignalGenerator.c **** /*******************************************************************************
 864:.\Generated_Source\PSoC4/SignalGenerator.c **** * Function Name: SignalGenerator_ReadCompare
 865:.\Generated_Source\PSoC4/SignalGenerator.c **** ********************************************************************************
 866:.\Generated_Source\PSoC4/SignalGenerator.c **** *
 867:.\Generated_Source\PSoC4/SignalGenerator.c **** * Summary:
 868:.\Generated_Source\PSoC4/SignalGenerator.c **** *  Reads the compare register. Not applicable for Timer/Counter with Capture
 869:.\Generated_Source\PSoC4/SignalGenerator.c **** *  or in Quadrature Decoder modes.
 870:.\Generated_Source\PSoC4/SignalGenerator.c **** *
 871:.\Generated_Source\PSoC4/SignalGenerator.c **** * Parameters:
 872:.\Generated_Source\PSoC4/SignalGenerator.c **** *  None
 873:.\Generated_Source\PSoC4/SignalGenerator.c **** *
 874:.\Generated_Source\PSoC4/SignalGenerator.c **** * Return:
 875:.\Generated_Source\PSoC4/SignalGenerator.c **** *  Compare value
 876:.\Generated_Source\PSoC4/SignalGenerator.c **** *
 877:.\Generated_Source\PSoC4/SignalGenerator.c **** *******************************************************************************/
 878:.\Generated_Source\PSoC4/SignalGenerator.c **** uint32 SignalGenerator_ReadCompare(void)
 879:.\Generated_Source\PSoC4/SignalGenerator.c **** {
 1171              		.loc 1 879 0
 1172              		.cfi_startproc
 1173 0000 80B5     		push	{r7, lr}
ARM GAS  C:\Users\Clayton\AppData\Local\Temp\ccxaoGNk.s 			page 37


 1174              		.cfi_def_cfa_offset 8
 1175              		.cfi_offset 7, -8
 1176              		.cfi_offset 14, -4
 1177 0002 00AF     		add	r7, sp, #0
 1178              		.cfi_def_cfa_register 7
 880:.\Generated_Source\PSoC4/SignalGenerator.c ****     #if (SignalGenerator_CY_TCPWM_4000)
 881:.\Generated_Source\PSoC4/SignalGenerator.c ****         uint32 currentMode;
 882:.\Generated_Source\PSoC4/SignalGenerator.c ****         uint32 regVal;
 883:.\Generated_Source\PSoC4/SignalGenerator.c ****     #endif /* (SignalGenerator_CY_TCPWM_4000) */
 884:.\Generated_Source\PSoC4/SignalGenerator.c **** 
 885:.\Generated_Source\PSoC4/SignalGenerator.c ****     #if (SignalGenerator_CY_TCPWM_4000)
 886:.\Generated_Source\PSoC4/SignalGenerator.c ****         currentMode = ((SignalGenerator_CONTROL_REG & SignalGenerator_UPDOWN_MASK) >> SignalGenerat
 887:.\Generated_Source\PSoC4/SignalGenerator.c ****         
 888:.\Generated_Source\PSoC4/SignalGenerator.c ****         regVal = SignalGenerator_COMP_CAP_REG;
 889:.\Generated_Source\PSoC4/SignalGenerator.c ****         
 890:.\Generated_Source\PSoC4/SignalGenerator.c ****         if (((uint32)SignalGenerator__COUNT_DOWN == currentMode) && (0u != regVal))
 891:.\Generated_Source\PSoC4/SignalGenerator.c ****         {
 892:.\Generated_Source\PSoC4/SignalGenerator.c ****             regVal--;
 893:.\Generated_Source\PSoC4/SignalGenerator.c ****         }
 894:.\Generated_Source\PSoC4/SignalGenerator.c ****         else if (((uint32)SignalGenerator__COUNT_UP == currentMode) && (0xFFFFu != regVal))
 895:.\Generated_Source\PSoC4/SignalGenerator.c ****         {
 896:.\Generated_Source\PSoC4/SignalGenerator.c ****             regVal++;
 897:.\Generated_Source\PSoC4/SignalGenerator.c ****         }
 898:.\Generated_Source\PSoC4/SignalGenerator.c ****         else
 899:.\Generated_Source\PSoC4/SignalGenerator.c ****         {
 900:.\Generated_Source\PSoC4/SignalGenerator.c ****         }
 901:.\Generated_Source\PSoC4/SignalGenerator.c **** 
 902:.\Generated_Source\PSoC4/SignalGenerator.c ****         return (regVal & SignalGenerator_16BIT_MASK);
 903:.\Generated_Source\PSoC4/SignalGenerator.c ****     #else
 904:.\Generated_Source\PSoC4/SignalGenerator.c ****         return (SignalGenerator_COMP_CAP_REG & SignalGenerator_16BIT_MASK);
 1179              		.loc 1 904 0
 1180 0004 034B     		ldr	r3, .L76
 1181 0006 1B68     		ldr	r3, [r3]
 1182 0008 1B04     		lsl	r3, r3, #16
 1183 000a 1B0C     		lsr	r3, r3, #16
 905:.\Generated_Source\PSoC4/SignalGenerator.c ****     #endif /* (SignalGenerator_CY_TCPWM_4000) */
 906:.\Generated_Source\PSoC4/SignalGenerator.c **** }
 1184              		.loc 1 906 0
 1185 000c 181C     		mov	r0, r3
 1186 000e BD46     		mov	sp, r7
 1187              		@ sp needed
 1188 0010 80BD     		pop	{r7, pc}
 1189              	.L77:
 1190 0012 C046     		.align	2
 1191              	.L76:
 1192 0014 4C010540 		.word	1074069836
 1193              		.cfi_endproc
 1194              	.LFE23:
 1195              		.size	SignalGenerator_ReadCompare, .-SignalGenerator_ReadCompare
 1196              		.section	.text.SignalGenerator_WriteCompareBuf,"ax",%progbits
 1197              		.align	2
 1198              		.global	SignalGenerator_WriteCompareBuf
 1199              		.code	16
 1200              		.thumb_func
 1201              		.type	SignalGenerator_WriteCompareBuf, %function
 1202              	SignalGenerator_WriteCompareBuf:
 1203              	.LFB24:
ARM GAS  C:\Users\Clayton\AppData\Local\Temp\ccxaoGNk.s 			page 38


 907:.\Generated_Source\PSoC4/SignalGenerator.c **** 
 908:.\Generated_Source\PSoC4/SignalGenerator.c **** 
 909:.\Generated_Source\PSoC4/SignalGenerator.c **** /*******************************************************************************
 910:.\Generated_Source\PSoC4/SignalGenerator.c **** * Function Name: SignalGenerator_WriteCompareBuf
 911:.\Generated_Source\PSoC4/SignalGenerator.c **** ********************************************************************************
 912:.\Generated_Source\PSoC4/SignalGenerator.c **** *
 913:.\Generated_Source\PSoC4/SignalGenerator.c **** * Summary:
 914:.\Generated_Source\PSoC4/SignalGenerator.c **** *  Writes the 16 bit compare buffer register with the new compare value. Not
 915:.\Generated_Source\PSoC4/SignalGenerator.c **** *  applicable for Timer/Counter with Capture or in Quadrature Decoder modes.
 916:.\Generated_Source\PSoC4/SignalGenerator.c **** *
 917:.\Generated_Source\PSoC4/SignalGenerator.c **** * Parameters:
 918:.\Generated_Source\PSoC4/SignalGenerator.c **** *  compareBuf: Compare value
 919:.\Generated_Source\PSoC4/SignalGenerator.c **** *
 920:.\Generated_Source\PSoC4/SignalGenerator.c **** * Return:
 921:.\Generated_Source\PSoC4/SignalGenerator.c **** *  None
 922:.\Generated_Source\PSoC4/SignalGenerator.c **** *
 923:.\Generated_Source\PSoC4/SignalGenerator.c **** *******************************************************************************/
 924:.\Generated_Source\PSoC4/SignalGenerator.c **** void SignalGenerator_WriteCompareBuf(uint32 compareBuf)
 925:.\Generated_Source\PSoC4/SignalGenerator.c **** {
 1204              		.loc 1 925 0
 1205              		.cfi_startproc
 1206 0000 80B5     		push	{r7, lr}
 1207              		.cfi_def_cfa_offset 8
 1208              		.cfi_offset 7, -8
 1209              		.cfi_offset 14, -4
 1210 0002 82B0     		sub	sp, sp, #8
 1211              		.cfi_def_cfa_offset 16
 1212 0004 00AF     		add	r7, sp, #0
 1213              		.cfi_def_cfa_register 7
 1214 0006 7860     		str	r0, [r7, #4]
 926:.\Generated_Source\PSoC4/SignalGenerator.c ****     #if (SignalGenerator_CY_TCPWM_4000)
 927:.\Generated_Source\PSoC4/SignalGenerator.c ****         uint32 currentMode;
 928:.\Generated_Source\PSoC4/SignalGenerator.c ****     #endif /* (SignalGenerator_CY_TCPWM_4000) */
 929:.\Generated_Source\PSoC4/SignalGenerator.c **** 
 930:.\Generated_Source\PSoC4/SignalGenerator.c ****     #if (SignalGenerator_CY_TCPWM_4000)
 931:.\Generated_Source\PSoC4/SignalGenerator.c ****         currentMode = ((SignalGenerator_CONTROL_REG & SignalGenerator_UPDOWN_MASK) >> SignalGenerat
 932:.\Generated_Source\PSoC4/SignalGenerator.c **** 
 933:.\Generated_Source\PSoC4/SignalGenerator.c ****         if (((uint32)SignalGenerator__COUNT_DOWN == currentMode) && (0xFFFFu != compareBuf))
 934:.\Generated_Source\PSoC4/SignalGenerator.c ****         {
 935:.\Generated_Source\PSoC4/SignalGenerator.c ****             compareBuf++;
 936:.\Generated_Source\PSoC4/SignalGenerator.c ****         }
 937:.\Generated_Source\PSoC4/SignalGenerator.c ****         else if (((uint32)SignalGenerator__COUNT_UP == currentMode) && (0u != compareBuf))
 938:.\Generated_Source\PSoC4/SignalGenerator.c ****         {
 939:.\Generated_Source\PSoC4/SignalGenerator.c ****             compareBuf --;
 940:.\Generated_Source\PSoC4/SignalGenerator.c ****         }
 941:.\Generated_Source\PSoC4/SignalGenerator.c ****         else
 942:.\Generated_Source\PSoC4/SignalGenerator.c ****         {
 943:.\Generated_Source\PSoC4/SignalGenerator.c ****         }
 944:.\Generated_Source\PSoC4/SignalGenerator.c ****     #endif /* (SignalGenerator_CY_TCPWM_4000) */
 945:.\Generated_Source\PSoC4/SignalGenerator.c ****     
 946:.\Generated_Source\PSoC4/SignalGenerator.c ****     SignalGenerator_COMP_CAP_BUF_REG = (compareBuf & SignalGenerator_16BIT_MASK);
 1215              		.loc 1 946 0
 1216 0008 034B     		ldr	r3, .L79
 1217 000a 7A68     		ldr	r2, [r7, #4]
 1218 000c 1204     		lsl	r2, r2, #16
 1219 000e 120C     		lsr	r2, r2, #16
 1220 0010 1A60     		str	r2, [r3]
ARM GAS  C:\Users\Clayton\AppData\Local\Temp\ccxaoGNk.s 			page 39


 947:.\Generated_Source\PSoC4/SignalGenerator.c **** }
 1221              		.loc 1 947 0
 1222 0012 BD46     		mov	sp, r7
 1223 0014 02B0     		add	sp, sp, #8
 1224              		@ sp needed
 1225 0016 80BD     		pop	{r7, pc}
 1226              	.L80:
 1227              		.align	2
 1228              	.L79:
 1229 0018 50010540 		.word	1074069840
 1230              		.cfi_endproc
 1231              	.LFE24:
 1232              		.size	SignalGenerator_WriteCompareBuf, .-SignalGenerator_WriteCompareBuf
 1233              		.section	.text.SignalGenerator_ReadCompareBuf,"ax",%progbits
 1234              		.align	2
 1235              		.global	SignalGenerator_ReadCompareBuf
 1236              		.code	16
 1237              		.thumb_func
 1238              		.type	SignalGenerator_ReadCompareBuf, %function
 1239              	SignalGenerator_ReadCompareBuf:
 1240              	.LFB25:
 948:.\Generated_Source\PSoC4/SignalGenerator.c **** 
 949:.\Generated_Source\PSoC4/SignalGenerator.c **** 
 950:.\Generated_Source\PSoC4/SignalGenerator.c **** /*******************************************************************************
 951:.\Generated_Source\PSoC4/SignalGenerator.c **** * Function Name: SignalGenerator_ReadCompareBuf
 952:.\Generated_Source\PSoC4/SignalGenerator.c **** ********************************************************************************
 953:.\Generated_Source\PSoC4/SignalGenerator.c **** *
 954:.\Generated_Source\PSoC4/SignalGenerator.c **** * Summary:
 955:.\Generated_Source\PSoC4/SignalGenerator.c **** *  Reads the compare buffer register. Not applicable for Timer/Counter with
 956:.\Generated_Source\PSoC4/SignalGenerator.c **** *  Capture or in Quadrature Decoder modes.
 957:.\Generated_Source\PSoC4/SignalGenerator.c **** *
 958:.\Generated_Source\PSoC4/SignalGenerator.c **** * Parameters:
 959:.\Generated_Source\PSoC4/SignalGenerator.c **** *  None
 960:.\Generated_Source\PSoC4/SignalGenerator.c **** *
 961:.\Generated_Source\PSoC4/SignalGenerator.c **** * Return:
 962:.\Generated_Source\PSoC4/SignalGenerator.c **** *  Compare buffer value
 963:.\Generated_Source\PSoC4/SignalGenerator.c **** *
 964:.\Generated_Source\PSoC4/SignalGenerator.c **** *******************************************************************************/
 965:.\Generated_Source\PSoC4/SignalGenerator.c **** uint32 SignalGenerator_ReadCompareBuf(void)
 966:.\Generated_Source\PSoC4/SignalGenerator.c **** {
 1241              		.loc 1 966 0
 1242              		.cfi_startproc
 1243 0000 80B5     		push	{r7, lr}
 1244              		.cfi_def_cfa_offset 8
 1245              		.cfi_offset 7, -8
 1246              		.cfi_offset 14, -4
 1247 0002 00AF     		add	r7, sp, #0
 1248              		.cfi_def_cfa_register 7
 967:.\Generated_Source\PSoC4/SignalGenerator.c ****     #if (SignalGenerator_CY_TCPWM_4000)
 968:.\Generated_Source\PSoC4/SignalGenerator.c ****         uint32 currentMode;
 969:.\Generated_Source\PSoC4/SignalGenerator.c ****         uint32 regVal;
 970:.\Generated_Source\PSoC4/SignalGenerator.c ****     #endif /* (SignalGenerator_CY_TCPWM_4000) */
 971:.\Generated_Source\PSoC4/SignalGenerator.c **** 
 972:.\Generated_Source\PSoC4/SignalGenerator.c ****     #if (SignalGenerator_CY_TCPWM_4000)
 973:.\Generated_Source\PSoC4/SignalGenerator.c ****         currentMode = ((SignalGenerator_CONTROL_REG & SignalGenerator_UPDOWN_MASK) >> SignalGenerat
 974:.\Generated_Source\PSoC4/SignalGenerator.c **** 
 975:.\Generated_Source\PSoC4/SignalGenerator.c ****         regVal = SignalGenerator_COMP_CAP_BUF_REG;
ARM GAS  C:\Users\Clayton\AppData\Local\Temp\ccxaoGNk.s 			page 40


 976:.\Generated_Source\PSoC4/SignalGenerator.c ****         
 977:.\Generated_Source\PSoC4/SignalGenerator.c ****         if (((uint32)SignalGenerator__COUNT_DOWN == currentMode) && (0u != regVal))
 978:.\Generated_Source\PSoC4/SignalGenerator.c ****         {
 979:.\Generated_Source\PSoC4/SignalGenerator.c ****             regVal--;
 980:.\Generated_Source\PSoC4/SignalGenerator.c ****         }
 981:.\Generated_Source\PSoC4/SignalGenerator.c ****         else if (((uint32)SignalGenerator__COUNT_UP == currentMode) && (0xFFFFu != regVal))
 982:.\Generated_Source\PSoC4/SignalGenerator.c ****         {
 983:.\Generated_Source\PSoC4/SignalGenerator.c ****             regVal++;
 984:.\Generated_Source\PSoC4/SignalGenerator.c ****         }
 985:.\Generated_Source\PSoC4/SignalGenerator.c ****         else
 986:.\Generated_Source\PSoC4/SignalGenerator.c ****         {
 987:.\Generated_Source\PSoC4/SignalGenerator.c ****         }
 988:.\Generated_Source\PSoC4/SignalGenerator.c **** 
 989:.\Generated_Source\PSoC4/SignalGenerator.c ****         return (regVal & SignalGenerator_16BIT_MASK);
 990:.\Generated_Source\PSoC4/SignalGenerator.c ****     #else
 991:.\Generated_Source\PSoC4/SignalGenerator.c ****         return (SignalGenerator_COMP_CAP_BUF_REG & SignalGenerator_16BIT_MASK);
 1249              		.loc 1 991 0
 1250 0004 034B     		ldr	r3, .L83
 1251 0006 1B68     		ldr	r3, [r3]
 1252 0008 1B04     		lsl	r3, r3, #16
 1253 000a 1B0C     		lsr	r3, r3, #16
 992:.\Generated_Source\PSoC4/SignalGenerator.c ****     #endif /* (SignalGenerator_CY_TCPWM_4000) */
 993:.\Generated_Source\PSoC4/SignalGenerator.c **** }
 1254              		.loc 1 993 0
 1255 000c 181C     		mov	r0, r3
 1256 000e BD46     		mov	sp, r7
 1257              		@ sp needed
 1258 0010 80BD     		pop	{r7, pc}
 1259              	.L84:
 1260 0012 C046     		.align	2
 1261              	.L83:
 1262 0014 50010540 		.word	1074069840
 1263              		.cfi_endproc
 1264              	.LFE25:
 1265              		.size	SignalGenerator_ReadCompareBuf, .-SignalGenerator_ReadCompareBuf
 1266              		.section	.text.SignalGenerator_ReadCapture,"ax",%progbits
 1267              		.align	2
 1268              		.global	SignalGenerator_ReadCapture
 1269              		.code	16
 1270              		.thumb_func
 1271              		.type	SignalGenerator_ReadCapture, %function
 1272              	SignalGenerator_ReadCapture:
 1273              	.LFB26:
 994:.\Generated_Source\PSoC4/SignalGenerator.c **** 
 995:.\Generated_Source\PSoC4/SignalGenerator.c **** 
 996:.\Generated_Source\PSoC4/SignalGenerator.c **** /*******************************************************************************
 997:.\Generated_Source\PSoC4/SignalGenerator.c **** * Function Name: SignalGenerator_ReadCapture
 998:.\Generated_Source\PSoC4/SignalGenerator.c **** ********************************************************************************
 999:.\Generated_Source\PSoC4/SignalGenerator.c **** *
1000:.\Generated_Source\PSoC4/SignalGenerator.c **** * Summary:
1001:.\Generated_Source\PSoC4/SignalGenerator.c **** *  Reads the captured counter value. This API is applicable only for
1002:.\Generated_Source\PSoC4/SignalGenerator.c **** *  Timer/Counter with the capture mode and Quadrature Decoder modes.
1003:.\Generated_Source\PSoC4/SignalGenerator.c **** *
1004:.\Generated_Source\PSoC4/SignalGenerator.c **** * Parameters:
1005:.\Generated_Source\PSoC4/SignalGenerator.c **** *  None
1006:.\Generated_Source\PSoC4/SignalGenerator.c **** *
1007:.\Generated_Source\PSoC4/SignalGenerator.c **** * Return:
ARM GAS  C:\Users\Clayton\AppData\Local\Temp\ccxaoGNk.s 			page 41


1008:.\Generated_Source\PSoC4/SignalGenerator.c **** *  Capture value
1009:.\Generated_Source\PSoC4/SignalGenerator.c **** *
1010:.\Generated_Source\PSoC4/SignalGenerator.c **** *******************************************************************************/
1011:.\Generated_Source\PSoC4/SignalGenerator.c **** uint32 SignalGenerator_ReadCapture(void)
1012:.\Generated_Source\PSoC4/SignalGenerator.c **** {
 1274              		.loc 1 1012 0
 1275              		.cfi_startproc
 1276 0000 80B5     		push	{r7, lr}
 1277              		.cfi_def_cfa_offset 8
 1278              		.cfi_offset 7, -8
 1279              		.cfi_offset 14, -4
 1280 0002 00AF     		add	r7, sp, #0
 1281              		.cfi_def_cfa_register 7
1013:.\Generated_Source\PSoC4/SignalGenerator.c ****     return (SignalGenerator_COMP_CAP_REG & SignalGenerator_16BIT_MASK);
 1282              		.loc 1 1013 0
 1283 0004 034B     		ldr	r3, .L87
 1284 0006 1B68     		ldr	r3, [r3]
 1285 0008 1B04     		lsl	r3, r3, #16
 1286 000a 1B0C     		lsr	r3, r3, #16
1014:.\Generated_Source\PSoC4/SignalGenerator.c **** }
 1287              		.loc 1 1014 0
 1288 000c 181C     		mov	r0, r3
 1289 000e BD46     		mov	sp, r7
 1290              		@ sp needed
 1291 0010 80BD     		pop	{r7, pc}
 1292              	.L88:
 1293 0012 C046     		.align	2
 1294              	.L87:
 1295 0014 4C010540 		.word	1074069836
 1296              		.cfi_endproc
 1297              	.LFE26:
 1298              		.size	SignalGenerator_ReadCapture, .-SignalGenerator_ReadCapture
 1299              		.section	.text.SignalGenerator_ReadCaptureBuf,"ax",%progbits
 1300              		.align	2
 1301              		.global	SignalGenerator_ReadCaptureBuf
 1302              		.code	16
 1303              		.thumb_func
 1304              		.type	SignalGenerator_ReadCaptureBuf, %function
 1305              	SignalGenerator_ReadCaptureBuf:
 1306              	.LFB27:
1015:.\Generated_Source\PSoC4/SignalGenerator.c **** 
1016:.\Generated_Source\PSoC4/SignalGenerator.c **** 
1017:.\Generated_Source\PSoC4/SignalGenerator.c **** /*******************************************************************************
1018:.\Generated_Source\PSoC4/SignalGenerator.c **** * Function Name: SignalGenerator_ReadCaptureBuf
1019:.\Generated_Source\PSoC4/SignalGenerator.c **** ********************************************************************************
1020:.\Generated_Source\PSoC4/SignalGenerator.c **** *
1021:.\Generated_Source\PSoC4/SignalGenerator.c **** * Summary:
1022:.\Generated_Source\PSoC4/SignalGenerator.c **** *  Reads the capture buffer register. This API is applicable only for
1023:.\Generated_Source\PSoC4/SignalGenerator.c **** *  Timer/Counter with the capture mode and Quadrature Decoder modes.
1024:.\Generated_Source\PSoC4/SignalGenerator.c **** *
1025:.\Generated_Source\PSoC4/SignalGenerator.c **** * Parameters:
1026:.\Generated_Source\PSoC4/SignalGenerator.c **** *  None
1027:.\Generated_Source\PSoC4/SignalGenerator.c **** *
1028:.\Generated_Source\PSoC4/SignalGenerator.c **** * Return:
1029:.\Generated_Source\PSoC4/SignalGenerator.c **** *  Capture buffer value
1030:.\Generated_Source\PSoC4/SignalGenerator.c **** *
1031:.\Generated_Source\PSoC4/SignalGenerator.c **** *******************************************************************************/
ARM GAS  C:\Users\Clayton\AppData\Local\Temp\ccxaoGNk.s 			page 42


1032:.\Generated_Source\PSoC4/SignalGenerator.c **** uint32 SignalGenerator_ReadCaptureBuf(void)
1033:.\Generated_Source\PSoC4/SignalGenerator.c **** {
 1307              		.loc 1 1033 0
 1308              		.cfi_startproc
 1309 0000 80B5     		push	{r7, lr}
 1310              		.cfi_def_cfa_offset 8
 1311              		.cfi_offset 7, -8
 1312              		.cfi_offset 14, -4
 1313 0002 00AF     		add	r7, sp, #0
 1314              		.cfi_def_cfa_register 7
1034:.\Generated_Source\PSoC4/SignalGenerator.c ****     return (SignalGenerator_COMP_CAP_BUF_REG & SignalGenerator_16BIT_MASK);
 1315              		.loc 1 1034 0
 1316 0004 034B     		ldr	r3, .L91
 1317 0006 1B68     		ldr	r3, [r3]
 1318 0008 1B04     		lsl	r3, r3, #16
 1319 000a 1B0C     		lsr	r3, r3, #16
1035:.\Generated_Source\PSoC4/SignalGenerator.c **** }
 1320              		.loc 1 1035 0
 1321 000c 181C     		mov	r0, r3
 1322 000e BD46     		mov	sp, r7
 1323              		@ sp needed
 1324 0010 80BD     		pop	{r7, pc}
 1325              	.L92:
 1326 0012 C046     		.align	2
 1327              	.L91:
 1328 0014 50010540 		.word	1074069840
 1329              		.cfi_endproc
 1330              	.LFE27:
 1331              		.size	SignalGenerator_ReadCaptureBuf, .-SignalGenerator_ReadCaptureBuf
 1332              		.section	.text.SignalGenerator_SetCaptureMode,"ax",%progbits
 1333              		.align	2
 1334              		.global	SignalGenerator_SetCaptureMode
 1335              		.code	16
 1336              		.thumb_func
 1337              		.type	SignalGenerator_SetCaptureMode, %function
 1338              	SignalGenerator_SetCaptureMode:
 1339              	.LFB28:
1036:.\Generated_Source\PSoC4/SignalGenerator.c **** 
1037:.\Generated_Source\PSoC4/SignalGenerator.c **** 
1038:.\Generated_Source\PSoC4/SignalGenerator.c **** /*******************************************************************************
1039:.\Generated_Source\PSoC4/SignalGenerator.c **** * Function Name: SignalGenerator_SetCaptureMode
1040:.\Generated_Source\PSoC4/SignalGenerator.c **** ********************************************************************************
1041:.\Generated_Source\PSoC4/SignalGenerator.c **** *
1042:.\Generated_Source\PSoC4/SignalGenerator.c **** * Summary:
1043:.\Generated_Source\PSoC4/SignalGenerator.c **** *  Sets the capture trigger mode. For PWM mode this is the switch input.
1044:.\Generated_Source\PSoC4/SignalGenerator.c **** *  This input is not applicable to the Timer/Counter without Capture and
1045:.\Generated_Source\PSoC4/SignalGenerator.c **** *  Quadrature Decoder modes.
1046:.\Generated_Source\PSoC4/SignalGenerator.c **** *
1047:.\Generated_Source\PSoC4/SignalGenerator.c **** * Parameters:
1048:.\Generated_Source\PSoC4/SignalGenerator.c **** *  triggerMode: Enumerated trigger mode value
1049:.\Generated_Source\PSoC4/SignalGenerator.c **** *   Values:
1050:.\Generated_Source\PSoC4/SignalGenerator.c **** *     - SignalGenerator_TRIG_LEVEL     - Level
1051:.\Generated_Source\PSoC4/SignalGenerator.c **** *     - SignalGenerator_TRIG_RISING    - Rising edge
1052:.\Generated_Source\PSoC4/SignalGenerator.c **** *     - SignalGenerator_TRIG_FALLING   - Falling edge
1053:.\Generated_Source\PSoC4/SignalGenerator.c **** *     - SignalGenerator_TRIG_BOTH      - Both rising and falling edge
1054:.\Generated_Source\PSoC4/SignalGenerator.c **** *
1055:.\Generated_Source\PSoC4/SignalGenerator.c **** * Return:
ARM GAS  C:\Users\Clayton\AppData\Local\Temp\ccxaoGNk.s 			page 43


1056:.\Generated_Source\PSoC4/SignalGenerator.c **** *  None
1057:.\Generated_Source\PSoC4/SignalGenerator.c **** *
1058:.\Generated_Source\PSoC4/SignalGenerator.c **** *******************************************************************************/
1059:.\Generated_Source\PSoC4/SignalGenerator.c **** void SignalGenerator_SetCaptureMode(uint32 triggerMode)
1060:.\Generated_Source\PSoC4/SignalGenerator.c **** {
 1340              		.loc 1 1060 0
 1341              		.cfi_startproc
 1342 0000 90B5     		push	{r4, r7, lr}
 1343              		.cfi_def_cfa_offset 12
 1344              		.cfi_offset 4, -12
 1345              		.cfi_offset 7, -8
 1346              		.cfi_offset 14, -4
 1347 0002 85B0     		sub	sp, sp, #20
 1348              		.cfi_def_cfa_offset 32
 1349 0004 00AF     		add	r7, sp, #0
 1350              		.cfi_def_cfa_register 7
 1351 0006 7860     		str	r0, [r7, #4]
1061:.\Generated_Source\PSoC4/SignalGenerator.c ****     uint8 enableInterrupts;
1062:.\Generated_Source\PSoC4/SignalGenerator.c **** 
1063:.\Generated_Source\PSoC4/SignalGenerator.c ****     enableInterrupts = CyEnterCriticalSection();
 1352              		.loc 1 1063 0
 1353 0008 3C1C     		mov	r4, r7
 1354 000a 0F34     		add	r4, r4, #15
 1355 000c FFF7FEFF 		bl	CyEnterCriticalSection
 1356 0010 031C     		mov	r3, r0
 1357 0012 2370     		strb	r3, [r4]
1064:.\Generated_Source\PSoC4/SignalGenerator.c **** 
1065:.\Generated_Source\PSoC4/SignalGenerator.c ****     SignalGenerator_TRIG_CONTROL1_REG &= (uint32)~SignalGenerator_CAPTURE_MASK;
 1358              		.loc 1 1065 0
 1359 0014 0A4B     		ldr	r3, .L94
 1360 0016 0A4A     		ldr	r2, .L94
 1361 0018 1268     		ldr	r2, [r2]
 1362 001a 0321     		mov	r1, #3
 1363 001c 8A43     		bic	r2, r1
 1364 001e 1A60     		str	r2, [r3]
1066:.\Generated_Source\PSoC4/SignalGenerator.c ****     SignalGenerator_TRIG_CONTROL1_REG |= triggerMode;
 1365              		.loc 1 1066 0
 1366 0020 074B     		ldr	r3, .L94
 1367 0022 074A     		ldr	r2, .L94
 1368 0024 1168     		ldr	r1, [r2]
 1369 0026 7A68     		ldr	r2, [r7, #4]
 1370 0028 0A43     		orr	r2, r1
 1371 002a 1A60     		str	r2, [r3]
1067:.\Generated_Source\PSoC4/SignalGenerator.c **** 
1068:.\Generated_Source\PSoC4/SignalGenerator.c ****     CyExitCriticalSection(enableInterrupts);
 1372              		.loc 1 1068 0
 1373 002c 3B1C     		mov	r3, r7
 1374 002e 0F33     		add	r3, r3, #15
 1375 0030 1B78     		ldrb	r3, [r3]
 1376 0032 181C     		mov	r0, r3
 1377 0034 FFF7FEFF 		bl	CyExitCriticalSection
1069:.\Generated_Source\PSoC4/SignalGenerator.c **** }
 1378              		.loc 1 1069 0
 1379 0038 BD46     		mov	sp, r7
 1380 003a 05B0     		add	sp, sp, #20
 1381              		@ sp needed
 1382 003c 90BD     		pop	{r4, r7, pc}
ARM GAS  C:\Users\Clayton\AppData\Local\Temp\ccxaoGNk.s 			page 44


 1383              	.L95:
 1384 003e C046     		.align	2
 1385              	.L94:
 1386 0040 64010540 		.word	1074069860
 1387              		.cfi_endproc
 1388              	.LFE28:
 1389              		.size	SignalGenerator_SetCaptureMode, .-SignalGenerator_SetCaptureMode
 1390              		.section	.text.SignalGenerator_SetReloadMode,"ax",%progbits
 1391              		.align	2
 1392              		.global	SignalGenerator_SetReloadMode
 1393              		.code	16
 1394              		.thumb_func
 1395              		.type	SignalGenerator_SetReloadMode, %function
 1396              	SignalGenerator_SetReloadMode:
 1397              	.LFB29:
1070:.\Generated_Source\PSoC4/SignalGenerator.c **** 
1071:.\Generated_Source\PSoC4/SignalGenerator.c **** 
1072:.\Generated_Source\PSoC4/SignalGenerator.c **** /*******************************************************************************
1073:.\Generated_Source\PSoC4/SignalGenerator.c **** * Function Name: SignalGenerator_SetReloadMode
1074:.\Generated_Source\PSoC4/SignalGenerator.c **** ********************************************************************************
1075:.\Generated_Source\PSoC4/SignalGenerator.c **** *
1076:.\Generated_Source\PSoC4/SignalGenerator.c **** * Summary:
1077:.\Generated_Source\PSoC4/SignalGenerator.c **** *  Sets the reload trigger mode. For Quadrature Decoder mode this is the index
1078:.\Generated_Source\PSoC4/SignalGenerator.c **** *  input.
1079:.\Generated_Source\PSoC4/SignalGenerator.c **** *
1080:.\Generated_Source\PSoC4/SignalGenerator.c **** * Parameters:
1081:.\Generated_Source\PSoC4/SignalGenerator.c **** *  triggerMode: Enumerated trigger mode value
1082:.\Generated_Source\PSoC4/SignalGenerator.c **** *   Values:
1083:.\Generated_Source\PSoC4/SignalGenerator.c **** *     - SignalGenerator_TRIG_LEVEL     - Level
1084:.\Generated_Source\PSoC4/SignalGenerator.c **** *     - SignalGenerator_TRIG_RISING    - Rising edge
1085:.\Generated_Source\PSoC4/SignalGenerator.c **** *     - SignalGenerator_TRIG_FALLING   - Falling edge
1086:.\Generated_Source\PSoC4/SignalGenerator.c **** *     - SignalGenerator_TRIG_BOTH      - Both rising and falling edge
1087:.\Generated_Source\PSoC4/SignalGenerator.c **** *
1088:.\Generated_Source\PSoC4/SignalGenerator.c **** * Return:
1089:.\Generated_Source\PSoC4/SignalGenerator.c **** *  None
1090:.\Generated_Source\PSoC4/SignalGenerator.c **** *
1091:.\Generated_Source\PSoC4/SignalGenerator.c **** *******************************************************************************/
1092:.\Generated_Source\PSoC4/SignalGenerator.c **** void SignalGenerator_SetReloadMode(uint32 triggerMode)
1093:.\Generated_Source\PSoC4/SignalGenerator.c **** {
 1398              		.loc 1 1093 0
 1399              		.cfi_startproc
 1400 0000 90B5     		push	{r4, r7, lr}
 1401              		.cfi_def_cfa_offset 12
 1402              		.cfi_offset 4, -12
 1403              		.cfi_offset 7, -8
 1404              		.cfi_offset 14, -4
 1405 0002 85B0     		sub	sp, sp, #20
 1406              		.cfi_def_cfa_offset 32
 1407 0004 00AF     		add	r7, sp, #0
 1408              		.cfi_def_cfa_register 7
 1409 0006 7860     		str	r0, [r7, #4]
1094:.\Generated_Source\PSoC4/SignalGenerator.c ****     uint8 enableInterrupts;
1095:.\Generated_Source\PSoC4/SignalGenerator.c **** 
1096:.\Generated_Source\PSoC4/SignalGenerator.c ****     enableInterrupts = CyEnterCriticalSection();
 1410              		.loc 1 1096 0
 1411 0008 3C1C     		mov	r4, r7
 1412 000a 0F34     		add	r4, r4, #15
ARM GAS  C:\Users\Clayton\AppData\Local\Temp\ccxaoGNk.s 			page 45


 1413 000c FFF7FEFF 		bl	CyEnterCriticalSection
 1414 0010 031C     		mov	r3, r0
 1415 0012 2370     		strb	r3, [r4]
1097:.\Generated_Source\PSoC4/SignalGenerator.c **** 
1098:.\Generated_Source\PSoC4/SignalGenerator.c ****     SignalGenerator_TRIG_CONTROL1_REG &= (uint32)~SignalGenerator_RELOAD_MASK;
 1416              		.loc 1 1098 0
 1417 0014 0A4B     		ldr	r3, .L97
 1418 0016 0A4A     		ldr	r2, .L97
 1419 0018 1268     		ldr	r2, [r2]
 1420 001a 3021     		mov	r1, #48
 1421 001c 8A43     		bic	r2, r1
 1422 001e 1A60     		str	r2, [r3]
1099:.\Generated_Source\PSoC4/SignalGenerator.c ****     SignalGenerator_TRIG_CONTROL1_REG |= ((uint32)(triggerMode << SignalGenerator_RELOAD_SHIFT));
 1423              		.loc 1 1099 0
 1424 0020 074B     		ldr	r3, .L97
 1425 0022 074A     		ldr	r2, .L97
 1426 0024 1168     		ldr	r1, [r2]
 1427 0026 7A68     		ldr	r2, [r7, #4]
 1428 0028 1201     		lsl	r2, r2, #4
 1429 002a 0A43     		orr	r2, r1
 1430 002c 1A60     		str	r2, [r3]
1100:.\Generated_Source\PSoC4/SignalGenerator.c **** 
1101:.\Generated_Source\PSoC4/SignalGenerator.c ****     CyExitCriticalSection(enableInterrupts);
 1431              		.loc 1 1101 0
 1432 002e 3B1C     		mov	r3, r7
 1433 0030 0F33     		add	r3, r3, #15
 1434 0032 1B78     		ldrb	r3, [r3]
 1435 0034 181C     		mov	r0, r3
 1436 0036 FFF7FEFF 		bl	CyExitCriticalSection
1102:.\Generated_Source\PSoC4/SignalGenerator.c **** }
 1437              		.loc 1 1102 0
 1438 003a BD46     		mov	sp, r7
 1439 003c 05B0     		add	sp, sp, #20
 1440              		@ sp needed
 1441 003e 90BD     		pop	{r4, r7, pc}
 1442              	.L98:
 1443              		.align	2
 1444              	.L97:
 1445 0040 64010540 		.word	1074069860
 1446              		.cfi_endproc
 1447              	.LFE29:
 1448              		.size	SignalGenerator_SetReloadMode, .-SignalGenerator_SetReloadMode
 1449              		.section	.text.SignalGenerator_SetStartMode,"ax",%progbits
 1450              		.align	2
 1451              		.global	SignalGenerator_SetStartMode
 1452              		.code	16
 1453              		.thumb_func
 1454              		.type	SignalGenerator_SetStartMode, %function
 1455              	SignalGenerator_SetStartMode:
 1456              	.LFB30:
1103:.\Generated_Source\PSoC4/SignalGenerator.c **** 
1104:.\Generated_Source\PSoC4/SignalGenerator.c **** 
1105:.\Generated_Source\PSoC4/SignalGenerator.c **** /*******************************************************************************
1106:.\Generated_Source\PSoC4/SignalGenerator.c **** * Function Name: SignalGenerator_SetStartMode
1107:.\Generated_Source\PSoC4/SignalGenerator.c **** ********************************************************************************
1108:.\Generated_Source\PSoC4/SignalGenerator.c **** *
1109:.\Generated_Source\PSoC4/SignalGenerator.c **** * Summary:
ARM GAS  C:\Users\Clayton\AppData\Local\Temp\ccxaoGNk.s 			page 46


1110:.\Generated_Source\PSoC4/SignalGenerator.c **** *  Sets the start trigger mode. For Quadrature Decoder mode this is the
1111:.\Generated_Source\PSoC4/SignalGenerator.c **** *  phiB input.
1112:.\Generated_Source\PSoC4/SignalGenerator.c **** *
1113:.\Generated_Source\PSoC4/SignalGenerator.c **** * Parameters:
1114:.\Generated_Source\PSoC4/SignalGenerator.c **** *  triggerMode: Enumerated trigger mode value
1115:.\Generated_Source\PSoC4/SignalGenerator.c **** *   Values:
1116:.\Generated_Source\PSoC4/SignalGenerator.c **** *     - SignalGenerator_TRIG_LEVEL     - Level
1117:.\Generated_Source\PSoC4/SignalGenerator.c **** *     - SignalGenerator_TRIG_RISING    - Rising edge
1118:.\Generated_Source\PSoC4/SignalGenerator.c **** *     - SignalGenerator_TRIG_FALLING   - Falling edge
1119:.\Generated_Source\PSoC4/SignalGenerator.c **** *     - SignalGenerator_TRIG_BOTH      - Both rising and falling edge
1120:.\Generated_Source\PSoC4/SignalGenerator.c **** *
1121:.\Generated_Source\PSoC4/SignalGenerator.c **** * Return:
1122:.\Generated_Source\PSoC4/SignalGenerator.c **** *  None
1123:.\Generated_Source\PSoC4/SignalGenerator.c **** *
1124:.\Generated_Source\PSoC4/SignalGenerator.c **** *******************************************************************************/
1125:.\Generated_Source\PSoC4/SignalGenerator.c **** void SignalGenerator_SetStartMode(uint32 triggerMode)
1126:.\Generated_Source\PSoC4/SignalGenerator.c **** {
 1457              		.loc 1 1126 0
 1458              		.cfi_startproc
 1459 0000 90B5     		push	{r4, r7, lr}
 1460              		.cfi_def_cfa_offset 12
 1461              		.cfi_offset 4, -12
 1462              		.cfi_offset 7, -8
 1463              		.cfi_offset 14, -4
 1464 0002 85B0     		sub	sp, sp, #20
 1465              		.cfi_def_cfa_offset 32
 1466 0004 00AF     		add	r7, sp, #0
 1467              		.cfi_def_cfa_register 7
 1468 0006 7860     		str	r0, [r7, #4]
1127:.\Generated_Source\PSoC4/SignalGenerator.c ****     uint8 enableInterrupts;
1128:.\Generated_Source\PSoC4/SignalGenerator.c **** 
1129:.\Generated_Source\PSoC4/SignalGenerator.c ****     enableInterrupts = CyEnterCriticalSection();
 1469              		.loc 1 1129 0
 1470 0008 3C1C     		mov	r4, r7
 1471 000a 0F34     		add	r4, r4, #15
 1472 000c FFF7FEFF 		bl	CyEnterCriticalSection
 1473 0010 031C     		mov	r3, r0
 1474 0012 2370     		strb	r3, [r4]
1130:.\Generated_Source\PSoC4/SignalGenerator.c **** 
1131:.\Generated_Source\PSoC4/SignalGenerator.c ****     SignalGenerator_TRIG_CONTROL1_REG &= (uint32)~SignalGenerator_START_MASK;
 1475              		.loc 1 1131 0
 1476 0014 0A4B     		ldr	r3, .L100
 1477 0016 0A4A     		ldr	r2, .L100
 1478 0018 1168     		ldr	r1, [r2]
 1479 001a 0A4A     		ldr	r2, .L100+4
 1480 001c 0A40     		and	r2, r1
 1481 001e 1A60     		str	r2, [r3]
1132:.\Generated_Source\PSoC4/SignalGenerator.c ****     SignalGenerator_TRIG_CONTROL1_REG |= ((uint32)(triggerMode << SignalGenerator_START_SHIFT));
 1482              		.loc 1 1132 0
 1483 0020 074B     		ldr	r3, .L100
 1484 0022 074A     		ldr	r2, .L100
 1485 0024 1168     		ldr	r1, [r2]
 1486 0026 7A68     		ldr	r2, [r7, #4]
 1487 0028 1202     		lsl	r2, r2, #8
 1488 002a 0A43     		orr	r2, r1
 1489 002c 1A60     		str	r2, [r3]
1133:.\Generated_Source\PSoC4/SignalGenerator.c **** 
ARM GAS  C:\Users\Clayton\AppData\Local\Temp\ccxaoGNk.s 			page 47


1134:.\Generated_Source\PSoC4/SignalGenerator.c ****     CyExitCriticalSection(enableInterrupts);
 1490              		.loc 1 1134 0
 1491 002e 3B1C     		mov	r3, r7
 1492 0030 0F33     		add	r3, r3, #15
 1493 0032 1B78     		ldrb	r3, [r3]
 1494 0034 181C     		mov	r0, r3
 1495 0036 FFF7FEFF 		bl	CyExitCriticalSection
1135:.\Generated_Source\PSoC4/SignalGenerator.c **** }
 1496              		.loc 1 1135 0
 1497 003a BD46     		mov	sp, r7
 1498 003c 05B0     		add	sp, sp, #20
 1499              		@ sp needed
 1500 003e 90BD     		pop	{r4, r7, pc}
 1501              	.L101:
 1502              		.align	2
 1503              	.L100:
 1504 0040 64010540 		.word	1074069860
 1505 0044 FFFCFFFF 		.word	-769
 1506              		.cfi_endproc
 1507              	.LFE30:
 1508              		.size	SignalGenerator_SetStartMode, .-SignalGenerator_SetStartMode
 1509              		.section	.text.SignalGenerator_SetStopMode,"ax",%progbits
 1510              		.align	2
 1511              		.global	SignalGenerator_SetStopMode
 1512              		.code	16
 1513              		.thumb_func
 1514              		.type	SignalGenerator_SetStopMode, %function
 1515              	SignalGenerator_SetStopMode:
 1516              	.LFB31:
1136:.\Generated_Source\PSoC4/SignalGenerator.c **** 
1137:.\Generated_Source\PSoC4/SignalGenerator.c **** 
1138:.\Generated_Source\PSoC4/SignalGenerator.c **** /*******************************************************************************
1139:.\Generated_Source\PSoC4/SignalGenerator.c **** * Function Name: SignalGenerator_SetStopMode
1140:.\Generated_Source\PSoC4/SignalGenerator.c **** ********************************************************************************
1141:.\Generated_Source\PSoC4/SignalGenerator.c **** *
1142:.\Generated_Source\PSoC4/SignalGenerator.c **** * Summary:
1143:.\Generated_Source\PSoC4/SignalGenerator.c **** *  Sets the stop trigger mode. For PWM mode this is the kill input.
1144:.\Generated_Source\PSoC4/SignalGenerator.c **** *
1145:.\Generated_Source\PSoC4/SignalGenerator.c **** * Parameters:
1146:.\Generated_Source\PSoC4/SignalGenerator.c **** *  triggerMode: Enumerated trigger mode value
1147:.\Generated_Source\PSoC4/SignalGenerator.c **** *   Values:
1148:.\Generated_Source\PSoC4/SignalGenerator.c **** *     - SignalGenerator_TRIG_LEVEL     - Level
1149:.\Generated_Source\PSoC4/SignalGenerator.c **** *     - SignalGenerator_TRIG_RISING    - Rising edge
1150:.\Generated_Source\PSoC4/SignalGenerator.c **** *     - SignalGenerator_TRIG_FALLING   - Falling edge
1151:.\Generated_Source\PSoC4/SignalGenerator.c **** *     - SignalGenerator_TRIG_BOTH      - Both rising and falling edge
1152:.\Generated_Source\PSoC4/SignalGenerator.c **** *
1153:.\Generated_Source\PSoC4/SignalGenerator.c **** * Return:
1154:.\Generated_Source\PSoC4/SignalGenerator.c **** *  None
1155:.\Generated_Source\PSoC4/SignalGenerator.c **** *
1156:.\Generated_Source\PSoC4/SignalGenerator.c **** *******************************************************************************/
1157:.\Generated_Source\PSoC4/SignalGenerator.c **** void SignalGenerator_SetStopMode(uint32 triggerMode)
1158:.\Generated_Source\PSoC4/SignalGenerator.c **** {
 1517              		.loc 1 1158 0
 1518              		.cfi_startproc
 1519 0000 90B5     		push	{r4, r7, lr}
 1520              		.cfi_def_cfa_offset 12
 1521              		.cfi_offset 4, -12
ARM GAS  C:\Users\Clayton\AppData\Local\Temp\ccxaoGNk.s 			page 48


 1522              		.cfi_offset 7, -8
 1523              		.cfi_offset 14, -4
 1524 0002 85B0     		sub	sp, sp, #20
 1525              		.cfi_def_cfa_offset 32
 1526 0004 00AF     		add	r7, sp, #0
 1527              		.cfi_def_cfa_register 7
 1528 0006 7860     		str	r0, [r7, #4]
1159:.\Generated_Source\PSoC4/SignalGenerator.c ****     uint8 enableInterrupts;
1160:.\Generated_Source\PSoC4/SignalGenerator.c **** 
1161:.\Generated_Source\PSoC4/SignalGenerator.c ****     enableInterrupts = CyEnterCriticalSection();
 1529              		.loc 1 1161 0
 1530 0008 3C1C     		mov	r4, r7
 1531 000a 0F34     		add	r4, r4, #15
 1532 000c FFF7FEFF 		bl	CyEnterCriticalSection
 1533 0010 031C     		mov	r3, r0
 1534 0012 2370     		strb	r3, [r4]
1162:.\Generated_Source\PSoC4/SignalGenerator.c **** 
1163:.\Generated_Source\PSoC4/SignalGenerator.c ****     SignalGenerator_TRIG_CONTROL1_REG &= (uint32)~SignalGenerator_STOP_MASK;
 1535              		.loc 1 1163 0
 1536 0014 0A4B     		ldr	r3, .L103
 1537 0016 0A4A     		ldr	r2, .L103
 1538 0018 1268     		ldr	r2, [r2]
 1539 001a C021     		mov	r1, #192
 1540 001c 8A43     		bic	r2, r1
 1541 001e 1A60     		str	r2, [r3]
1164:.\Generated_Source\PSoC4/SignalGenerator.c ****     SignalGenerator_TRIG_CONTROL1_REG |= ((uint32)(triggerMode << SignalGenerator_STOP_SHIFT));
 1542              		.loc 1 1164 0
 1543 0020 074B     		ldr	r3, .L103
 1544 0022 074A     		ldr	r2, .L103
 1545 0024 1168     		ldr	r1, [r2]
 1546 0026 7A68     		ldr	r2, [r7, #4]
 1547 0028 9201     		lsl	r2, r2, #6
 1548 002a 0A43     		orr	r2, r1
 1549 002c 1A60     		str	r2, [r3]
1165:.\Generated_Source\PSoC4/SignalGenerator.c **** 
1166:.\Generated_Source\PSoC4/SignalGenerator.c ****     CyExitCriticalSection(enableInterrupts);
 1550              		.loc 1 1166 0
 1551 002e 3B1C     		mov	r3, r7
 1552 0030 0F33     		add	r3, r3, #15
 1553 0032 1B78     		ldrb	r3, [r3]
 1554 0034 181C     		mov	r0, r3
 1555 0036 FFF7FEFF 		bl	CyExitCriticalSection
1167:.\Generated_Source\PSoC4/SignalGenerator.c **** }
 1556              		.loc 1 1167 0
 1557 003a BD46     		mov	sp, r7
 1558 003c 05B0     		add	sp, sp, #20
 1559              		@ sp needed
 1560 003e 90BD     		pop	{r4, r7, pc}
 1561              	.L104:
 1562              		.align	2
 1563              	.L103:
 1564 0040 64010540 		.word	1074069860
 1565              		.cfi_endproc
 1566              	.LFE31:
 1567              		.size	SignalGenerator_SetStopMode, .-SignalGenerator_SetStopMode
 1568              		.section	.text.SignalGenerator_SetCountMode,"ax",%progbits
 1569              		.align	2
ARM GAS  C:\Users\Clayton\AppData\Local\Temp\ccxaoGNk.s 			page 49


 1570              		.global	SignalGenerator_SetCountMode
 1571              		.code	16
 1572              		.thumb_func
 1573              		.type	SignalGenerator_SetCountMode, %function
 1574              	SignalGenerator_SetCountMode:
 1575              	.LFB32:
1168:.\Generated_Source\PSoC4/SignalGenerator.c **** 
1169:.\Generated_Source\PSoC4/SignalGenerator.c **** 
1170:.\Generated_Source\PSoC4/SignalGenerator.c **** /*******************************************************************************
1171:.\Generated_Source\PSoC4/SignalGenerator.c **** * Function Name: SignalGenerator_SetCountMode
1172:.\Generated_Source\PSoC4/SignalGenerator.c **** ********************************************************************************
1173:.\Generated_Source\PSoC4/SignalGenerator.c **** *
1174:.\Generated_Source\PSoC4/SignalGenerator.c **** * Summary:
1175:.\Generated_Source\PSoC4/SignalGenerator.c **** *  Sets the count trigger mode. For Quadrature Decoder mode this is the phiA
1176:.\Generated_Source\PSoC4/SignalGenerator.c **** *  input.
1177:.\Generated_Source\PSoC4/SignalGenerator.c **** *
1178:.\Generated_Source\PSoC4/SignalGenerator.c **** * Parameters:
1179:.\Generated_Source\PSoC4/SignalGenerator.c **** *  triggerMode: Enumerated trigger mode value
1180:.\Generated_Source\PSoC4/SignalGenerator.c **** *   Values:
1181:.\Generated_Source\PSoC4/SignalGenerator.c **** *     - SignalGenerator_TRIG_LEVEL     - Level
1182:.\Generated_Source\PSoC4/SignalGenerator.c **** *     - SignalGenerator_TRIG_RISING    - Rising edge
1183:.\Generated_Source\PSoC4/SignalGenerator.c **** *     - SignalGenerator_TRIG_FALLING   - Falling edge
1184:.\Generated_Source\PSoC4/SignalGenerator.c **** *     - SignalGenerator_TRIG_BOTH      - Both rising and falling edge
1185:.\Generated_Source\PSoC4/SignalGenerator.c **** *
1186:.\Generated_Source\PSoC4/SignalGenerator.c **** * Return:
1187:.\Generated_Source\PSoC4/SignalGenerator.c **** *  None
1188:.\Generated_Source\PSoC4/SignalGenerator.c **** *
1189:.\Generated_Source\PSoC4/SignalGenerator.c **** *******************************************************************************/
1190:.\Generated_Source\PSoC4/SignalGenerator.c **** void SignalGenerator_SetCountMode(uint32 triggerMode)
1191:.\Generated_Source\PSoC4/SignalGenerator.c **** {
 1576              		.loc 1 1191 0
 1577              		.cfi_startproc
 1578 0000 90B5     		push	{r4, r7, lr}
 1579              		.cfi_def_cfa_offset 12
 1580              		.cfi_offset 4, -12
 1581              		.cfi_offset 7, -8
 1582              		.cfi_offset 14, -4
 1583 0002 85B0     		sub	sp, sp, #20
 1584              		.cfi_def_cfa_offset 32
 1585 0004 00AF     		add	r7, sp, #0
 1586              		.cfi_def_cfa_register 7
 1587 0006 7860     		str	r0, [r7, #4]
1192:.\Generated_Source\PSoC4/SignalGenerator.c ****     uint8 enableInterrupts;
1193:.\Generated_Source\PSoC4/SignalGenerator.c **** 
1194:.\Generated_Source\PSoC4/SignalGenerator.c ****     enableInterrupts = CyEnterCriticalSection();
 1588              		.loc 1 1194 0
 1589 0008 3C1C     		mov	r4, r7
 1590 000a 0F34     		add	r4, r4, #15
 1591 000c FFF7FEFF 		bl	CyEnterCriticalSection
 1592 0010 031C     		mov	r3, r0
 1593 0012 2370     		strb	r3, [r4]
1195:.\Generated_Source\PSoC4/SignalGenerator.c **** 
1196:.\Generated_Source\PSoC4/SignalGenerator.c ****     SignalGenerator_TRIG_CONTROL1_REG &= (uint32)~SignalGenerator_COUNT_MASK;
 1594              		.loc 1 1196 0
 1595 0014 0A4B     		ldr	r3, .L106
 1596 0016 0A4A     		ldr	r2, .L106
 1597 0018 1268     		ldr	r2, [r2]
ARM GAS  C:\Users\Clayton\AppData\Local\Temp\ccxaoGNk.s 			page 50


 1598 001a 0C21     		mov	r1, #12
 1599 001c 8A43     		bic	r2, r1
 1600 001e 1A60     		str	r2, [r3]
1197:.\Generated_Source\PSoC4/SignalGenerator.c ****     SignalGenerator_TRIG_CONTROL1_REG |= ((uint32)(triggerMode << SignalGenerator_COUNT_SHIFT));
 1601              		.loc 1 1197 0
 1602 0020 074B     		ldr	r3, .L106
 1603 0022 074A     		ldr	r2, .L106
 1604 0024 1168     		ldr	r1, [r2]
 1605 0026 7A68     		ldr	r2, [r7, #4]
 1606 0028 9200     		lsl	r2, r2, #2
 1607 002a 0A43     		orr	r2, r1
 1608 002c 1A60     		str	r2, [r3]
1198:.\Generated_Source\PSoC4/SignalGenerator.c **** 
1199:.\Generated_Source\PSoC4/SignalGenerator.c ****     CyExitCriticalSection(enableInterrupts);
 1609              		.loc 1 1199 0
 1610 002e 3B1C     		mov	r3, r7
 1611 0030 0F33     		add	r3, r3, #15
 1612 0032 1B78     		ldrb	r3, [r3]
 1613 0034 181C     		mov	r0, r3
 1614 0036 FFF7FEFF 		bl	CyExitCriticalSection
1200:.\Generated_Source\PSoC4/SignalGenerator.c **** }
 1615              		.loc 1 1200 0
 1616 003a BD46     		mov	sp, r7
 1617 003c 05B0     		add	sp, sp, #20
 1618              		@ sp needed
 1619 003e 90BD     		pop	{r4, r7, pc}
 1620              	.L107:
 1621              		.align	2
 1622              	.L106:
 1623 0040 64010540 		.word	1074069860
 1624              		.cfi_endproc
 1625              	.LFE32:
 1626              		.size	SignalGenerator_SetCountMode, .-SignalGenerator_SetCountMode
 1627              		.section	.text.SignalGenerator_TriggerCommand,"ax",%progbits
 1628              		.align	2
 1629              		.global	SignalGenerator_TriggerCommand
 1630              		.code	16
 1631              		.thumb_func
 1632              		.type	SignalGenerator_TriggerCommand, %function
 1633              	SignalGenerator_TriggerCommand:
 1634              	.LFB33:
1201:.\Generated_Source\PSoC4/SignalGenerator.c **** 
1202:.\Generated_Source\PSoC4/SignalGenerator.c **** 
1203:.\Generated_Source\PSoC4/SignalGenerator.c **** /*******************************************************************************
1204:.\Generated_Source\PSoC4/SignalGenerator.c **** * Function Name: SignalGenerator_TriggerCommand
1205:.\Generated_Source\PSoC4/SignalGenerator.c **** ********************************************************************************
1206:.\Generated_Source\PSoC4/SignalGenerator.c **** *
1207:.\Generated_Source\PSoC4/SignalGenerator.c **** * Summary:
1208:.\Generated_Source\PSoC4/SignalGenerator.c **** *  Triggers the designated command to occur on the designated TCPWM instances.
1209:.\Generated_Source\PSoC4/SignalGenerator.c **** *  The mask can be used to apply this command simultaneously to more than one
1210:.\Generated_Source\PSoC4/SignalGenerator.c **** *  instance.  This allows multiple TCPWM instances to be synchronized.
1211:.\Generated_Source\PSoC4/SignalGenerator.c **** *
1212:.\Generated_Source\PSoC4/SignalGenerator.c **** * Parameters:
1213:.\Generated_Source\PSoC4/SignalGenerator.c **** *  mask: A combination of mask bits for each instance of the TCPWM that the
1214:.\Generated_Source\PSoC4/SignalGenerator.c **** *        command should apply to.  This function from one instance can be used
1215:.\Generated_Source\PSoC4/SignalGenerator.c **** *        to apply the command to any of the instances in the design.
1216:.\Generated_Source\PSoC4/SignalGenerator.c **** *        The mask value for a specific instance is available with the MASK
ARM GAS  C:\Users\Clayton\AppData\Local\Temp\ccxaoGNk.s 			page 51


1217:.\Generated_Source\PSoC4/SignalGenerator.c **** *        define.
1218:.\Generated_Source\PSoC4/SignalGenerator.c **** *  command: Enumerated command values. Capture command only applicable for
1219:.\Generated_Source\PSoC4/SignalGenerator.c **** *           Timer/Counter with Capture and PWM modes.
1220:.\Generated_Source\PSoC4/SignalGenerator.c **** *   Values:
1221:.\Generated_Source\PSoC4/SignalGenerator.c **** *     - SignalGenerator_CMD_CAPTURE    - Trigger Capture command
1222:.\Generated_Source\PSoC4/SignalGenerator.c **** *     - SignalGenerator_CMD_RELOAD     - Trigger Reload command
1223:.\Generated_Source\PSoC4/SignalGenerator.c **** *     - SignalGenerator_CMD_STOP       - Trigger Stop command
1224:.\Generated_Source\PSoC4/SignalGenerator.c **** *     - SignalGenerator_CMD_START      - Trigger Start command
1225:.\Generated_Source\PSoC4/SignalGenerator.c **** *
1226:.\Generated_Source\PSoC4/SignalGenerator.c **** * Return:
1227:.\Generated_Source\PSoC4/SignalGenerator.c **** *  None
1228:.\Generated_Source\PSoC4/SignalGenerator.c **** *
1229:.\Generated_Source\PSoC4/SignalGenerator.c **** *******************************************************************************/
1230:.\Generated_Source\PSoC4/SignalGenerator.c **** void SignalGenerator_TriggerCommand(uint32 mask, uint32 command)
1231:.\Generated_Source\PSoC4/SignalGenerator.c **** {
 1635              		.loc 1 1231 0
 1636              		.cfi_startproc
 1637 0000 90B5     		push	{r4, r7, lr}
 1638              		.cfi_def_cfa_offset 12
 1639              		.cfi_offset 4, -12
 1640              		.cfi_offset 7, -8
 1641              		.cfi_offset 14, -4
 1642 0002 85B0     		sub	sp, sp, #20
 1643              		.cfi_def_cfa_offset 32
 1644 0004 00AF     		add	r7, sp, #0
 1645              		.cfi_def_cfa_register 7
 1646 0006 7860     		str	r0, [r7, #4]
 1647 0008 3960     		str	r1, [r7]
1232:.\Generated_Source\PSoC4/SignalGenerator.c ****     uint8 enableInterrupts;
1233:.\Generated_Source\PSoC4/SignalGenerator.c **** 
1234:.\Generated_Source\PSoC4/SignalGenerator.c ****     enableInterrupts = CyEnterCriticalSection();
 1648              		.loc 1 1234 0
 1649 000a 3C1C     		mov	r4, r7
 1650 000c 0F34     		add	r4, r4, #15
 1651 000e FFF7FEFF 		bl	CyEnterCriticalSection
 1652 0012 031C     		mov	r3, r0
 1653 0014 2370     		strb	r3, [r4]
1235:.\Generated_Source\PSoC4/SignalGenerator.c **** 
1236:.\Generated_Source\PSoC4/SignalGenerator.c ****     SignalGenerator_COMMAND_REG = ((uint32)(mask << command));
 1654              		.loc 1 1236 0
 1655 0016 084B     		ldr	r3, .L109
 1656 0018 3A68     		ldr	r2, [r7]
 1657 001a 7968     		ldr	r1, [r7, #4]
 1658 001c 081C     		mov	r0, r1
 1659 001e 9040     		lsl	r0, r0, r2
 1660 0020 021C     		mov	r2, r0
 1661 0022 1A60     		str	r2, [r3]
1237:.\Generated_Source\PSoC4/SignalGenerator.c **** 
1238:.\Generated_Source\PSoC4/SignalGenerator.c ****     CyExitCriticalSection(enableInterrupts);
 1662              		.loc 1 1238 0
 1663 0024 3B1C     		mov	r3, r7
 1664 0026 0F33     		add	r3, r3, #15
 1665 0028 1B78     		ldrb	r3, [r3]
 1666 002a 181C     		mov	r0, r3
 1667 002c FFF7FEFF 		bl	CyExitCriticalSection
1239:.\Generated_Source\PSoC4/SignalGenerator.c **** }
 1668              		.loc 1 1239 0
ARM GAS  C:\Users\Clayton\AppData\Local\Temp\ccxaoGNk.s 			page 52


 1669 0030 BD46     		mov	sp, r7
 1670 0032 05B0     		add	sp, sp, #20
 1671              		@ sp needed
 1672 0034 90BD     		pop	{r4, r7, pc}
 1673              	.L110:
 1674 0036 C046     		.align	2
 1675              	.L109:
 1676 0038 08000540 		.word	1074069512
 1677              		.cfi_endproc
 1678              	.LFE33:
 1679              		.size	SignalGenerator_TriggerCommand, .-SignalGenerator_TriggerCommand
 1680              		.section	.text.SignalGenerator_ReadStatus,"ax",%progbits
 1681              		.align	2
 1682              		.global	SignalGenerator_ReadStatus
 1683              		.code	16
 1684              		.thumb_func
 1685              		.type	SignalGenerator_ReadStatus, %function
 1686              	SignalGenerator_ReadStatus:
 1687              	.LFB34:
1240:.\Generated_Source\PSoC4/SignalGenerator.c **** 
1241:.\Generated_Source\PSoC4/SignalGenerator.c **** 
1242:.\Generated_Source\PSoC4/SignalGenerator.c **** /*******************************************************************************
1243:.\Generated_Source\PSoC4/SignalGenerator.c **** * Function Name: SignalGenerator_ReadStatus
1244:.\Generated_Source\PSoC4/SignalGenerator.c **** ********************************************************************************
1245:.\Generated_Source\PSoC4/SignalGenerator.c **** *
1246:.\Generated_Source\PSoC4/SignalGenerator.c **** * Summary:
1247:.\Generated_Source\PSoC4/SignalGenerator.c **** *  Reads the status of the SignalGenerator.
1248:.\Generated_Source\PSoC4/SignalGenerator.c **** *
1249:.\Generated_Source\PSoC4/SignalGenerator.c **** * Parameters:
1250:.\Generated_Source\PSoC4/SignalGenerator.c **** *  None
1251:.\Generated_Source\PSoC4/SignalGenerator.c **** *
1252:.\Generated_Source\PSoC4/SignalGenerator.c **** * Return:
1253:.\Generated_Source\PSoC4/SignalGenerator.c **** *  Status
1254:.\Generated_Source\PSoC4/SignalGenerator.c **** *   Values:
1255:.\Generated_Source\PSoC4/SignalGenerator.c **** *     - SignalGenerator_STATUS_DOWN    - Set if counting down
1256:.\Generated_Source\PSoC4/SignalGenerator.c **** *     - SignalGenerator_STATUS_RUNNING - Set if counter is running
1257:.\Generated_Source\PSoC4/SignalGenerator.c **** *
1258:.\Generated_Source\PSoC4/SignalGenerator.c **** *******************************************************************************/
1259:.\Generated_Source\PSoC4/SignalGenerator.c **** uint32 SignalGenerator_ReadStatus(void)
1260:.\Generated_Source\PSoC4/SignalGenerator.c **** {
 1688              		.loc 1 1260 0
 1689              		.cfi_startproc
 1690 0000 80B5     		push	{r7, lr}
 1691              		.cfi_def_cfa_offset 8
 1692              		.cfi_offset 7, -8
 1693              		.cfi_offset 14, -4
 1694 0002 00AF     		add	r7, sp, #0
 1695              		.cfi_def_cfa_register 7
1261:.\Generated_Source\PSoC4/SignalGenerator.c ****     return ((SignalGenerator_STATUS_REG >> SignalGenerator_RUNNING_STATUS_SHIFT) |
 1696              		.loc 1 1261 0
 1697 0004 054B     		ldr	r3, .L113
 1698 0006 1B68     		ldr	r3, [r3]
 1699 0008 9A0F     		lsr	r2, r3, #30
1262:.\Generated_Source\PSoC4/SignalGenerator.c ****             (SignalGenerator_STATUS_REG & SignalGenerator_STATUS_DOWN));
 1700              		.loc 1 1262 0
 1701 000a 044B     		ldr	r3, .L113
 1702 000c 1968     		ldr	r1, [r3]
ARM GAS  C:\Users\Clayton\AppData\Local\Temp\ccxaoGNk.s 			page 53


 1703 000e 0123     		mov	r3, #1
 1704 0010 0B40     		and	r3, r1
1261:.\Generated_Source\PSoC4/SignalGenerator.c ****     return ((SignalGenerator_STATUS_REG >> SignalGenerator_RUNNING_STATUS_SHIFT) |
 1705              		.loc 1 1261 0
 1706 0012 1343     		orr	r3, r2
1263:.\Generated_Source\PSoC4/SignalGenerator.c **** }
 1707              		.loc 1 1263 0
 1708 0014 181C     		mov	r0, r3
 1709 0016 BD46     		mov	sp, r7
 1710              		@ sp needed
 1711 0018 80BD     		pop	{r7, pc}
 1712              	.L114:
 1713 001a C046     		.align	2
 1714              	.L113:
 1715 001c 44010540 		.word	1074069828
 1716              		.cfi_endproc
 1717              	.LFE34:
 1718              		.size	SignalGenerator_ReadStatus, .-SignalGenerator_ReadStatus
 1719              		.section	.text.SignalGenerator_SetInterruptMode,"ax",%progbits
 1720              		.align	2
 1721              		.global	SignalGenerator_SetInterruptMode
 1722              		.code	16
 1723              		.thumb_func
 1724              		.type	SignalGenerator_SetInterruptMode, %function
 1725              	SignalGenerator_SetInterruptMode:
 1726              	.LFB35:
1264:.\Generated_Source\PSoC4/SignalGenerator.c **** 
1265:.\Generated_Source\PSoC4/SignalGenerator.c **** 
1266:.\Generated_Source\PSoC4/SignalGenerator.c **** /*******************************************************************************
1267:.\Generated_Source\PSoC4/SignalGenerator.c **** * Function Name: SignalGenerator_SetInterruptMode
1268:.\Generated_Source\PSoC4/SignalGenerator.c **** ********************************************************************************
1269:.\Generated_Source\PSoC4/SignalGenerator.c **** *
1270:.\Generated_Source\PSoC4/SignalGenerator.c **** * Summary:
1271:.\Generated_Source\PSoC4/SignalGenerator.c **** *  Sets the interrupt mask to control which interrupt
1272:.\Generated_Source\PSoC4/SignalGenerator.c **** *  requests generate the interrupt signal.
1273:.\Generated_Source\PSoC4/SignalGenerator.c **** *
1274:.\Generated_Source\PSoC4/SignalGenerator.c **** * Parameters:
1275:.\Generated_Source\PSoC4/SignalGenerator.c **** *   interruptMask: Mask of bits to be enabled
1276:.\Generated_Source\PSoC4/SignalGenerator.c **** *   Values:
1277:.\Generated_Source\PSoC4/SignalGenerator.c **** *     - SignalGenerator_INTR_MASK_TC       - Terminal count mask
1278:.\Generated_Source\PSoC4/SignalGenerator.c **** *     - SignalGenerator_INTR_MASK_CC_MATCH - Compare count / capture mask
1279:.\Generated_Source\PSoC4/SignalGenerator.c **** *
1280:.\Generated_Source\PSoC4/SignalGenerator.c **** * Return:
1281:.\Generated_Source\PSoC4/SignalGenerator.c **** *  None
1282:.\Generated_Source\PSoC4/SignalGenerator.c **** *
1283:.\Generated_Source\PSoC4/SignalGenerator.c **** *******************************************************************************/
1284:.\Generated_Source\PSoC4/SignalGenerator.c **** void SignalGenerator_SetInterruptMode(uint32 interruptMask)
1285:.\Generated_Source\PSoC4/SignalGenerator.c **** {
 1727              		.loc 1 1285 0
 1728              		.cfi_startproc
 1729 0000 80B5     		push	{r7, lr}
 1730              		.cfi_def_cfa_offset 8
 1731              		.cfi_offset 7, -8
 1732              		.cfi_offset 14, -4
 1733 0002 82B0     		sub	sp, sp, #8
 1734              		.cfi_def_cfa_offset 16
 1735 0004 00AF     		add	r7, sp, #0
ARM GAS  C:\Users\Clayton\AppData\Local\Temp\ccxaoGNk.s 			page 54


 1736              		.cfi_def_cfa_register 7
 1737 0006 7860     		str	r0, [r7, #4]
1286:.\Generated_Source\PSoC4/SignalGenerator.c ****     SignalGenerator_INTERRUPT_MASK_REG =  interruptMask;
 1738              		.loc 1 1286 0
 1739 0008 024B     		ldr	r3, .L116
 1740 000a 7A68     		ldr	r2, [r7, #4]
 1741 000c 1A60     		str	r2, [r3]
1287:.\Generated_Source\PSoC4/SignalGenerator.c **** }
 1742              		.loc 1 1287 0
 1743 000e BD46     		mov	sp, r7
 1744 0010 02B0     		add	sp, sp, #8
 1745              		@ sp needed
 1746 0012 80BD     		pop	{r7, pc}
 1747              	.L117:
 1748              		.align	2
 1749              	.L116:
 1750 0014 78010540 		.word	1074069880
 1751              		.cfi_endproc
 1752              	.LFE35:
 1753              		.size	SignalGenerator_SetInterruptMode, .-SignalGenerator_SetInterruptMode
 1754              		.section	.text.SignalGenerator_GetInterruptSourceMasked,"ax",%progbits
 1755              		.align	2
 1756              		.global	SignalGenerator_GetInterruptSourceMasked
 1757              		.code	16
 1758              		.thumb_func
 1759              		.type	SignalGenerator_GetInterruptSourceMasked, %function
 1760              	SignalGenerator_GetInterruptSourceMasked:
 1761              	.LFB36:
1288:.\Generated_Source\PSoC4/SignalGenerator.c **** 
1289:.\Generated_Source\PSoC4/SignalGenerator.c **** 
1290:.\Generated_Source\PSoC4/SignalGenerator.c **** /*******************************************************************************
1291:.\Generated_Source\PSoC4/SignalGenerator.c **** * Function Name: SignalGenerator_GetInterruptSourceMasked
1292:.\Generated_Source\PSoC4/SignalGenerator.c **** ********************************************************************************
1293:.\Generated_Source\PSoC4/SignalGenerator.c **** *
1294:.\Generated_Source\PSoC4/SignalGenerator.c **** * Summary:
1295:.\Generated_Source\PSoC4/SignalGenerator.c **** *  Gets the interrupt requests masked by the interrupt mask.
1296:.\Generated_Source\PSoC4/SignalGenerator.c **** *
1297:.\Generated_Source\PSoC4/SignalGenerator.c **** * Parameters:
1298:.\Generated_Source\PSoC4/SignalGenerator.c **** *   None
1299:.\Generated_Source\PSoC4/SignalGenerator.c **** *
1300:.\Generated_Source\PSoC4/SignalGenerator.c **** * Return:
1301:.\Generated_Source\PSoC4/SignalGenerator.c **** *  Masked interrupt source
1302:.\Generated_Source\PSoC4/SignalGenerator.c **** *   Values:
1303:.\Generated_Source\PSoC4/SignalGenerator.c **** *     - SignalGenerator_INTR_MASK_TC       - Terminal count mask
1304:.\Generated_Source\PSoC4/SignalGenerator.c **** *     - SignalGenerator_INTR_MASK_CC_MATCH - Compare count / capture mask
1305:.\Generated_Source\PSoC4/SignalGenerator.c **** *
1306:.\Generated_Source\PSoC4/SignalGenerator.c **** *******************************************************************************/
1307:.\Generated_Source\PSoC4/SignalGenerator.c **** uint32 SignalGenerator_GetInterruptSourceMasked(void)
1308:.\Generated_Source\PSoC4/SignalGenerator.c **** {
 1762              		.loc 1 1308 0
 1763              		.cfi_startproc
 1764 0000 80B5     		push	{r7, lr}
 1765              		.cfi_def_cfa_offset 8
 1766              		.cfi_offset 7, -8
 1767              		.cfi_offset 14, -4
 1768 0002 00AF     		add	r7, sp, #0
 1769              		.cfi_def_cfa_register 7
ARM GAS  C:\Users\Clayton\AppData\Local\Temp\ccxaoGNk.s 			page 55


1309:.\Generated_Source\PSoC4/SignalGenerator.c ****     return (SignalGenerator_INTERRUPT_MASKED_REG);
 1770              		.loc 1 1309 0
 1771 0004 024B     		ldr	r3, .L120
 1772 0006 1B68     		ldr	r3, [r3]
1310:.\Generated_Source\PSoC4/SignalGenerator.c **** }
 1773              		.loc 1 1310 0
 1774 0008 181C     		mov	r0, r3
 1775 000a BD46     		mov	sp, r7
 1776              		@ sp needed
 1777 000c 80BD     		pop	{r7, pc}
 1778              	.L121:
 1779 000e C046     		.align	2
 1780              	.L120:
 1781 0010 7C010540 		.word	1074069884
 1782              		.cfi_endproc
 1783              	.LFE36:
 1784              		.size	SignalGenerator_GetInterruptSourceMasked, .-SignalGenerator_GetInterruptSourceMasked
 1785              		.section	.text.SignalGenerator_GetInterruptSource,"ax",%progbits
 1786              		.align	2
 1787              		.global	SignalGenerator_GetInterruptSource
 1788              		.code	16
 1789              		.thumb_func
 1790              		.type	SignalGenerator_GetInterruptSource, %function
 1791              	SignalGenerator_GetInterruptSource:
 1792              	.LFB37:
1311:.\Generated_Source\PSoC4/SignalGenerator.c **** 
1312:.\Generated_Source\PSoC4/SignalGenerator.c **** 
1313:.\Generated_Source\PSoC4/SignalGenerator.c **** /*******************************************************************************
1314:.\Generated_Source\PSoC4/SignalGenerator.c **** * Function Name: SignalGenerator_GetInterruptSource
1315:.\Generated_Source\PSoC4/SignalGenerator.c **** ********************************************************************************
1316:.\Generated_Source\PSoC4/SignalGenerator.c **** *
1317:.\Generated_Source\PSoC4/SignalGenerator.c **** * Summary:
1318:.\Generated_Source\PSoC4/SignalGenerator.c **** *  Gets the interrupt requests (without masking).
1319:.\Generated_Source\PSoC4/SignalGenerator.c **** *
1320:.\Generated_Source\PSoC4/SignalGenerator.c **** * Parameters:
1321:.\Generated_Source\PSoC4/SignalGenerator.c **** *  None
1322:.\Generated_Source\PSoC4/SignalGenerator.c **** *
1323:.\Generated_Source\PSoC4/SignalGenerator.c **** * Return:
1324:.\Generated_Source\PSoC4/SignalGenerator.c **** *  Interrupt request value
1325:.\Generated_Source\PSoC4/SignalGenerator.c **** *   Values:
1326:.\Generated_Source\PSoC4/SignalGenerator.c **** *     - SignalGenerator_INTR_MASK_TC       - Terminal count mask
1327:.\Generated_Source\PSoC4/SignalGenerator.c **** *     - SignalGenerator_INTR_MASK_CC_MATCH - Compare count / capture mask
1328:.\Generated_Source\PSoC4/SignalGenerator.c **** *
1329:.\Generated_Source\PSoC4/SignalGenerator.c **** *******************************************************************************/
1330:.\Generated_Source\PSoC4/SignalGenerator.c **** uint32 SignalGenerator_GetInterruptSource(void)
1331:.\Generated_Source\PSoC4/SignalGenerator.c **** {
 1793              		.loc 1 1331 0
 1794              		.cfi_startproc
 1795 0000 80B5     		push	{r7, lr}
 1796              		.cfi_def_cfa_offset 8
 1797              		.cfi_offset 7, -8
 1798              		.cfi_offset 14, -4
 1799 0002 00AF     		add	r7, sp, #0
 1800              		.cfi_def_cfa_register 7
1332:.\Generated_Source\PSoC4/SignalGenerator.c ****     return (SignalGenerator_INTERRUPT_REQ_REG);
 1801              		.loc 1 1332 0
 1802 0004 024B     		ldr	r3, .L124
ARM GAS  C:\Users\Clayton\AppData\Local\Temp\ccxaoGNk.s 			page 56


 1803 0006 1B68     		ldr	r3, [r3]
1333:.\Generated_Source\PSoC4/SignalGenerator.c **** }
 1804              		.loc 1 1333 0
 1805 0008 181C     		mov	r0, r3
 1806 000a BD46     		mov	sp, r7
 1807              		@ sp needed
 1808 000c 80BD     		pop	{r7, pc}
 1809              	.L125:
 1810 000e C046     		.align	2
 1811              	.L124:
 1812 0010 70010540 		.word	1074069872
 1813              		.cfi_endproc
 1814              	.LFE37:
 1815              		.size	SignalGenerator_GetInterruptSource, .-SignalGenerator_GetInterruptSource
 1816              		.section	.text.SignalGenerator_ClearInterrupt,"ax",%progbits
 1817              		.align	2
 1818              		.global	SignalGenerator_ClearInterrupt
 1819              		.code	16
 1820              		.thumb_func
 1821              		.type	SignalGenerator_ClearInterrupt, %function
 1822              	SignalGenerator_ClearInterrupt:
 1823              	.LFB38:
1334:.\Generated_Source\PSoC4/SignalGenerator.c **** 
1335:.\Generated_Source\PSoC4/SignalGenerator.c **** 
1336:.\Generated_Source\PSoC4/SignalGenerator.c **** /*******************************************************************************
1337:.\Generated_Source\PSoC4/SignalGenerator.c **** * Function Name: SignalGenerator_ClearInterrupt
1338:.\Generated_Source\PSoC4/SignalGenerator.c **** ********************************************************************************
1339:.\Generated_Source\PSoC4/SignalGenerator.c **** *
1340:.\Generated_Source\PSoC4/SignalGenerator.c **** * Summary:
1341:.\Generated_Source\PSoC4/SignalGenerator.c **** *  Clears the interrupt request.
1342:.\Generated_Source\PSoC4/SignalGenerator.c **** *
1343:.\Generated_Source\PSoC4/SignalGenerator.c **** * Parameters:
1344:.\Generated_Source\PSoC4/SignalGenerator.c **** *   interruptMask: Mask of interrupts to clear
1345:.\Generated_Source\PSoC4/SignalGenerator.c **** *   Values:
1346:.\Generated_Source\PSoC4/SignalGenerator.c **** *     - SignalGenerator_INTR_MASK_TC       - Terminal count mask
1347:.\Generated_Source\PSoC4/SignalGenerator.c **** *     - SignalGenerator_INTR_MASK_CC_MATCH - Compare count / capture mask
1348:.\Generated_Source\PSoC4/SignalGenerator.c **** *
1349:.\Generated_Source\PSoC4/SignalGenerator.c **** * Return:
1350:.\Generated_Source\PSoC4/SignalGenerator.c **** *  None
1351:.\Generated_Source\PSoC4/SignalGenerator.c **** *
1352:.\Generated_Source\PSoC4/SignalGenerator.c **** *******************************************************************************/
1353:.\Generated_Source\PSoC4/SignalGenerator.c **** void SignalGenerator_ClearInterrupt(uint32 interruptMask)
1354:.\Generated_Source\PSoC4/SignalGenerator.c **** {
 1824              		.loc 1 1354 0
 1825              		.cfi_startproc
 1826 0000 80B5     		push	{r7, lr}
 1827              		.cfi_def_cfa_offset 8
 1828              		.cfi_offset 7, -8
 1829              		.cfi_offset 14, -4
 1830 0002 82B0     		sub	sp, sp, #8
 1831              		.cfi_def_cfa_offset 16
 1832 0004 00AF     		add	r7, sp, #0
 1833              		.cfi_def_cfa_register 7
 1834 0006 7860     		str	r0, [r7, #4]
1355:.\Generated_Source\PSoC4/SignalGenerator.c ****     SignalGenerator_INTERRUPT_REQ_REG = interruptMask;
 1835              		.loc 1 1355 0
 1836 0008 024B     		ldr	r3, .L127
ARM GAS  C:\Users\Clayton\AppData\Local\Temp\ccxaoGNk.s 			page 57


 1837 000a 7A68     		ldr	r2, [r7, #4]
 1838 000c 1A60     		str	r2, [r3]
1356:.\Generated_Source\PSoC4/SignalGenerator.c **** }
 1839              		.loc 1 1356 0
 1840 000e BD46     		mov	sp, r7
 1841 0010 02B0     		add	sp, sp, #8
 1842              		@ sp needed
 1843 0012 80BD     		pop	{r7, pc}
 1844              	.L128:
 1845              		.align	2
 1846              	.L127:
 1847 0014 70010540 		.word	1074069872
 1848              		.cfi_endproc
 1849              	.LFE38:
 1850              		.size	SignalGenerator_ClearInterrupt, .-SignalGenerator_ClearInterrupt
 1851              		.section	.text.SignalGenerator_SetInterrupt,"ax",%progbits
 1852              		.align	2
 1853              		.global	SignalGenerator_SetInterrupt
 1854              		.code	16
 1855              		.thumb_func
 1856              		.type	SignalGenerator_SetInterrupt, %function
 1857              	SignalGenerator_SetInterrupt:
 1858              	.LFB39:
1357:.\Generated_Source\PSoC4/SignalGenerator.c **** 
1358:.\Generated_Source\PSoC4/SignalGenerator.c **** 
1359:.\Generated_Source\PSoC4/SignalGenerator.c **** /*******************************************************************************
1360:.\Generated_Source\PSoC4/SignalGenerator.c **** * Function Name: SignalGenerator_SetInterrupt
1361:.\Generated_Source\PSoC4/SignalGenerator.c **** ********************************************************************************
1362:.\Generated_Source\PSoC4/SignalGenerator.c **** *
1363:.\Generated_Source\PSoC4/SignalGenerator.c **** * Summary:
1364:.\Generated_Source\PSoC4/SignalGenerator.c **** *  Sets a software interrupt request.
1365:.\Generated_Source\PSoC4/SignalGenerator.c **** *
1366:.\Generated_Source\PSoC4/SignalGenerator.c **** * Parameters:
1367:.\Generated_Source\PSoC4/SignalGenerator.c **** *   interruptMask: Mask of interrupts to set
1368:.\Generated_Source\PSoC4/SignalGenerator.c **** *   Values:
1369:.\Generated_Source\PSoC4/SignalGenerator.c **** *     - SignalGenerator_INTR_MASK_TC       - Terminal count mask
1370:.\Generated_Source\PSoC4/SignalGenerator.c **** *     - SignalGenerator_INTR_MASK_CC_MATCH - Compare count / capture mask
1371:.\Generated_Source\PSoC4/SignalGenerator.c **** *
1372:.\Generated_Source\PSoC4/SignalGenerator.c **** * Return:
1373:.\Generated_Source\PSoC4/SignalGenerator.c **** *  None
1374:.\Generated_Source\PSoC4/SignalGenerator.c **** *
1375:.\Generated_Source\PSoC4/SignalGenerator.c **** *******************************************************************************/
1376:.\Generated_Source\PSoC4/SignalGenerator.c **** void SignalGenerator_SetInterrupt(uint32 interruptMask)
1377:.\Generated_Source\PSoC4/SignalGenerator.c **** {
 1859              		.loc 1 1377 0
 1860              		.cfi_startproc
 1861 0000 80B5     		push	{r7, lr}
 1862              		.cfi_def_cfa_offset 8
 1863              		.cfi_offset 7, -8
 1864              		.cfi_offset 14, -4
 1865 0002 82B0     		sub	sp, sp, #8
 1866              		.cfi_def_cfa_offset 16
 1867 0004 00AF     		add	r7, sp, #0
 1868              		.cfi_def_cfa_register 7
 1869 0006 7860     		str	r0, [r7, #4]
1378:.\Generated_Source\PSoC4/SignalGenerator.c ****     SignalGenerator_INTERRUPT_SET_REG = interruptMask;
 1870              		.loc 1 1378 0
ARM GAS  C:\Users\Clayton\AppData\Local\Temp\ccxaoGNk.s 			page 58


 1871 0008 024B     		ldr	r3, .L130
 1872 000a 7A68     		ldr	r2, [r7, #4]
 1873 000c 1A60     		str	r2, [r3]
1379:.\Generated_Source\PSoC4/SignalGenerator.c **** }
 1874              		.loc 1 1379 0
 1875 000e BD46     		mov	sp, r7
 1876 0010 02B0     		add	sp, sp, #8
 1877              		@ sp needed
 1878 0012 80BD     		pop	{r7, pc}
 1879              	.L131:
 1880              		.align	2
 1881              	.L130:
 1882 0014 74010540 		.word	1074069876
 1883              		.cfi_endproc
 1884              	.LFE39:
 1885              		.size	SignalGenerator_SetInterrupt, .-SignalGenerator_SetInterrupt
 1886              		.text
 1887              	.Letext0:
 1888              		.file 2 ".\\Generated_Source\\PSoC4\\cytypes.h"
 1889              		.section	.debug_info,"",%progbits
 1890              	.Ldebug_info0:
 1891 0000 EC060000 		.4byte	0x6ec
 1892 0004 0400     		.2byte	0x4
 1893 0006 00000000 		.4byte	.Ldebug_abbrev0
 1894 000a 04       		.byte	0x4
 1895 000b 01       		.uleb128 0x1
 1896 000c CB040000 		.4byte	.LASF76
 1897 0010 01       		.byte	0x1
 1898 0011 1C000000 		.4byte	.LASF77
 1899 0015 4E020000 		.4byte	.LASF78
 1900 0019 00000000 		.4byte	.Ldebug_ranges0+0
 1901 001d 00000000 		.4byte	0
 1902 0021 00000000 		.4byte	.Ldebug_line0
 1903 0025 02       		.uleb128 0x2
 1904 0026 01       		.byte	0x1
 1905 0027 06       		.byte	0x6
 1906 0028 F1000000 		.4byte	.LASF0
 1907 002c 02       		.uleb128 0x2
 1908 002d 01       		.byte	0x1
 1909 002e 08       		.byte	0x8
 1910 002f 75040000 		.4byte	.LASF1
 1911 0033 02       		.uleb128 0x2
 1912 0034 02       		.byte	0x2
 1913 0035 05       		.byte	0x5
 1914 0036 26030000 		.4byte	.LASF2
 1915 003a 02       		.uleb128 0x2
 1916 003b 02       		.byte	0x2
 1917 003c 07       		.byte	0x7
 1918 003d D1020000 		.4byte	.LASF3
 1919 0041 02       		.uleb128 0x2
 1920 0042 04       		.byte	0x4
 1921 0043 05       		.byte	0x5
 1922 0044 31010000 		.4byte	.LASF4
 1923 0048 02       		.uleb128 0x2
 1924 0049 04       		.byte	0x4
 1925 004a 07       		.byte	0x7
 1926 004b 33020000 		.4byte	.LASF5
ARM GAS  C:\Users\Clayton\AppData\Local\Temp\ccxaoGNk.s 			page 59


 1927 004f 02       		.uleb128 0x2
 1928 0050 08       		.byte	0x8
 1929 0051 05       		.byte	0x5
 1930 0052 E3000000 		.4byte	.LASF6
 1931 0056 02       		.uleb128 0x2
 1932 0057 08       		.byte	0x8
 1933 0058 07       		.byte	0x7
 1934 0059 6B000000 		.4byte	.LASF7
 1935 005d 03       		.uleb128 0x3
 1936 005e 04       		.byte	0x4
 1937 005f 05       		.byte	0x5
 1938 0060 696E7400 		.ascii	"int\000"
 1939 0064 02       		.uleb128 0x2
 1940 0065 04       		.byte	0x4
 1941 0066 07       		.byte	0x7
 1942 0067 FD010000 		.4byte	.LASF8
 1943 006b 04       		.uleb128 0x4
 1944 006c 5D010000 		.4byte	.LASF9
 1945 0070 02       		.byte	0x2
 1946 0071 A1       		.byte	0xa1
 1947 0072 2C000000 		.4byte	0x2c
 1948 0076 04       		.uleb128 0x4
 1949 0077 C1010000 		.4byte	.LASF10
 1950 007b 02       		.byte	0x2
 1951 007c A3       		.byte	0xa3
 1952 007d 48000000 		.4byte	0x48
 1953 0081 02       		.uleb128 0x2
 1954 0082 04       		.byte	0x4
 1955 0083 04       		.byte	0x4
 1956 0084 29040000 		.4byte	.LASF11
 1957 0088 02       		.uleb128 0x2
 1958 0089 08       		.byte	0x8
 1959 008a 04       		.byte	0x4
 1960 008b 9E010000 		.4byte	.LASF12
 1961 008f 02       		.uleb128 0x2
 1962 0090 01       		.byte	0x1
 1963 0091 08       		.byte	0x8
 1964 0092 F3050000 		.4byte	.LASF13
 1965 0096 05       		.uleb128 0x5
 1966 0097 4C030000 		.4byte	.LASF14
 1967 009b 02       		.byte	0x2
 1968 009c 4D01     		.2byte	0x14d
 1969 009e A2000000 		.4byte	0xa2
 1970 00a2 06       		.uleb128 0x6
 1971 00a3 76000000 		.4byte	0x76
 1972 00a7 02       		.uleb128 0x2
 1973 00a8 04       		.byte	0x4
 1974 00a9 07       		.byte	0x7
 1975 00aa A3030000 		.4byte	.LASF15
 1976 00ae 07       		.uleb128 0x7
 1977 00af 09060000 		.4byte	.LASF16
 1978 00b3 01       		.byte	0x1
 1979 00b4 26       		.byte	0x26
 1980 00b5 00000000 		.4byte	.LFB0
 1981 00b9 40000000 		.4byte	.LFE0-.LFB0
 1982 00bd 01       		.uleb128 0x1
 1983 00be 9C       		.byte	0x9c
ARM GAS  C:\Users\Clayton\AppData\Local\Temp\ccxaoGNk.s 			page 60


 1984 00bf 08       		.uleb128 0x8
 1985 00c0 FD000000 		.4byte	.LASF18
 1986 00c4 01       		.byte	0x1
 1987 00c5 B1       		.byte	0xb1
 1988 00c6 00000000 		.4byte	.LFB1
 1989 00ca 38000000 		.4byte	.LFE1-.LFB1
 1990 00ce 01       		.uleb128 0x1
 1991 00cf 9C       		.byte	0x9c
 1992 00d0 E3000000 		.4byte	0xe3
 1993 00d4 09       		.uleb128 0x9
 1994 00d5 46060000 		.4byte	.LASF20
 1995 00d9 01       		.byte	0x1
 1996 00da B3       		.byte	0xb3
 1997 00db 6B000000 		.4byte	0x6b
 1998 00df 02       		.uleb128 0x2
 1999 00e0 91       		.byte	0x91
 2000 00e1 6F       		.sleb128 -17
 2001 00e2 00       		.byte	0
 2002 00e3 07       		.uleb128 0x7
 2003 00e4 06000000 		.4byte	.LASF17
 2004 00e8 01       		.byte	0x1
 2005 00e9 E0       		.byte	0xe0
 2006 00ea 00000000 		.4byte	.LFB2
 2007 00ee 24000000 		.4byte	.LFE2-.LFB2
 2008 00f2 01       		.uleb128 0x1
 2009 00f3 9C       		.byte	0x9c
 2010 00f4 08       		.uleb128 0x8
 2011 00f5 03030000 		.4byte	.LASF19
 2012 00f9 01       		.byte	0x1
 2013 00fa FA       		.byte	0xfa
 2014 00fb 00000000 		.4byte	.LFB3
 2015 00ff 30000000 		.4byte	.LFE3-.LFB3
 2016 0103 01       		.uleb128 0x1
 2017 0104 9C       		.byte	0x9c
 2018 0105 18010000 		.4byte	0x118
 2019 0109 09       		.uleb128 0x9
 2020 010a 46060000 		.4byte	.LASF20
 2021 010e 01       		.byte	0x1
 2022 010f FC       		.byte	0xfc
 2023 0110 6B000000 		.4byte	0x6b
 2024 0114 02       		.uleb128 0x2
 2025 0115 91       		.byte	0x91
 2026 0116 6F       		.sleb128 -17
 2027 0117 00       		.byte	0
 2028 0118 0A       		.uleb128 0xa
 2029 0119 95060000 		.4byte	.LASF21
 2030 011d 01       		.byte	0x1
 2031 011e 1F01     		.2byte	0x11f
 2032 0120 00000000 		.4byte	.LFB4
 2033 0124 48000000 		.4byte	.LFE4-.LFB4
 2034 0128 01       		.uleb128 0x1
 2035 0129 9C       		.byte	0x9c
 2036 012a 4D010000 		.4byte	0x14d
 2037 012e 0B       		.uleb128 0xb
 2038 012f F8050000 		.4byte	.LASF23
 2039 0133 01       		.byte	0x1
 2040 0134 1F01     		.2byte	0x11f
ARM GAS  C:\Users\Clayton\AppData\Local\Temp\ccxaoGNk.s 			page 61


 2041 0136 76000000 		.4byte	0x76
 2042 013a 02       		.uleb128 0x2
 2043 013b 91       		.byte	0x91
 2044 013c 64       		.sleb128 -28
 2045 013d 0C       		.uleb128 0xc
 2046 013e 46060000 		.4byte	.LASF20
 2047 0142 01       		.byte	0x1
 2048 0143 2101     		.2byte	0x121
 2049 0145 6B000000 		.4byte	0x6b
 2050 0149 02       		.uleb128 0x2
 2051 014a 91       		.byte	0x91
 2052 014b 6F       		.sleb128 -17
 2053 014c 00       		.byte	0
 2054 014d 0A       		.uleb128 0xa
 2055 014e 60050000 		.4byte	.LASF22
 2056 0152 01       		.byte	0x1
 2057 0153 4001     		.2byte	0x140
 2058 0155 00000000 		.4byte	.LFB5
 2059 0159 48000000 		.4byte	.LFE5-.LFB5
 2060 015d 01       		.uleb128 0x1
 2061 015e 9C       		.byte	0x9c
 2062 015f 82010000 		.4byte	0x182
 2063 0163 0B       		.uleb128 0xb
 2064 0164 BD000000 		.4byte	.LASF24
 2065 0168 01       		.byte	0x1
 2066 0169 4001     		.2byte	0x140
 2067 016b 76000000 		.4byte	0x76
 2068 016f 02       		.uleb128 0x2
 2069 0170 91       		.byte	0x91
 2070 0171 64       		.sleb128 -28
 2071 0172 0C       		.uleb128 0xc
 2072 0173 46060000 		.4byte	.LASF20
 2073 0177 01       		.byte	0x1
 2074 0178 4201     		.2byte	0x142
 2075 017a 6B000000 		.4byte	0x6b
 2076 017e 02       		.uleb128 0x2
 2077 017f 91       		.byte	0x91
 2078 0180 6F       		.sleb128 -17
 2079 0181 00       		.byte	0
 2080 0182 0A       		.uleb128 0xa
 2081 0183 14010000 		.4byte	.LASF25
 2082 0187 01       		.byte	0x1
 2083 0188 6501     		.2byte	0x165
 2084 018a 00000000 		.4byte	.LFB6
 2085 018e 48000000 		.4byte	.LFE6-.LFB6
 2086 0192 01       		.uleb128 0x1
 2087 0193 9C       		.byte	0x9c
 2088 0194 B7010000 		.4byte	0x1b7
 2089 0198 0B       		.uleb128 0xb
 2090 0199 2F040000 		.4byte	.LASF26
 2091 019d 01       		.byte	0x1
 2092 019e 6501     		.2byte	0x165
 2093 01a0 76000000 		.4byte	0x76
 2094 01a4 02       		.uleb128 0x2
 2095 01a5 91       		.byte	0x91
 2096 01a6 64       		.sleb128 -28
 2097 01a7 0C       		.uleb128 0xc
ARM GAS  C:\Users\Clayton\AppData\Local\Temp\ccxaoGNk.s 			page 62


 2098 01a8 46060000 		.4byte	.LASF20
 2099 01ac 01       		.byte	0x1
 2100 01ad 6701     		.2byte	0x167
 2101 01af 6B000000 		.4byte	0x6b
 2102 01b3 02       		.uleb128 0x2
 2103 01b4 91       		.byte	0x91
 2104 01b5 6F       		.sleb128 -17
 2105 01b6 00       		.byte	0
 2106 01b7 0A       		.uleb128 0xa
 2107 01b8 63010000 		.4byte	.LASF27
 2108 01bc 01       		.byte	0x1
 2109 01bd 8501     		.2byte	0x185
 2110 01bf 00000000 		.4byte	.LFB7
 2111 01c3 4C000000 		.4byte	.LFE7-.LFB7
 2112 01c7 01       		.uleb128 0x1
 2113 01c8 9C       		.byte	0x9c
 2114 01c9 EC010000 		.4byte	0x1ec
 2115 01cd 0B       		.uleb128 0xb
 2116 01ce 18030000 		.4byte	.LASF28
 2117 01d2 01       		.byte	0x1
 2118 01d3 8501     		.2byte	0x185
 2119 01d5 76000000 		.4byte	0x76
 2120 01d9 02       		.uleb128 0x2
 2121 01da 91       		.byte	0x91
 2122 01db 64       		.sleb128 -28
 2123 01dc 0C       		.uleb128 0xc
 2124 01dd 46060000 		.4byte	.LASF20
 2125 01e1 01       		.byte	0x1
 2126 01e2 8701     		.2byte	0x187
 2127 01e4 6B000000 		.4byte	0x6b
 2128 01e8 02       		.uleb128 0x2
 2129 01e9 91       		.byte	0x91
 2130 01ea 6F       		.sleb128 -17
 2131 01eb 00       		.byte	0
 2132 01ec 0D       		.uleb128 0xd
 2133 01ed 9F040000 		.4byte	.LASF29
 2134 01f1 01       		.byte	0x1
 2135 01f2 BB01     		.2byte	0x1bb
 2136 01f4 00000000 		.4byte	.LFB8
 2137 01f8 1C000000 		.4byte	.LFE8-.LFB8
 2138 01fc 01       		.uleb128 0x1
 2139 01fd 9C       		.byte	0x9c
 2140 01fe 12020000 		.4byte	0x212
 2141 0202 0B       		.uleb128 0xb
 2142 0203 45020000 		.4byte	.LASF30
 2143 0207 01       		.byte	0x1
 2144 0208 BB01     		.2byte	0x1bb
 2145 020a 76000000 		.4byte	0x76
 2146 020e 02       		.uleb128 0x2
 2147 020f 91       		.byte	0x91
 2148 0210 74       		.sleb128 -12
 2149 0211 00       		.byte	0
 2150 0212 0A       		.uleb128 0xa
 2151 0213 00070000 		.4byte	.LASF31
 2152 0217 01       		.byte	0x1
 2153 0218 DF01     		.2byte	0x1df
 2154 021a 00000000 		.4byte	.LFB9
ARM GAS  C:\Users\Clayton\AppData\Local\Temp\ccxaoGNk.s 			page 63


 2155 021e 48000000 		.4byte	.LFE9-.LFB9
 2156 0222 01       		.uleb128 0x1
 2157 0223 9C       		.byte	0x9c
 2158 0224 47020000 		.4byte	0x247
 2159 0228 0B       		.uleb128 0xb
 2160 0229 CB030000 		.4byte	.LASF32
 2161 022d 01       		.byte	0x1
 2162 022e DF01     		.2byte	0x1df
 2163 0230 76000000 		.4byte	0x76
 2164 0234 02       		.uleb128 0x2
 2165 0235 91       		.byte	0x91
 2166 0236 64       		.sleb128 -28
 2167 0237 0C       		.uleb128 0xc
 2168 0238 46060000 		.4byte	.LASF20
 2169 023c 01       		.byte	0x1
 2170 023d E101     		.2byte	0x1e1
 2171 023f 6B000000 		.4byte	0x6b
 2172 0243 02       		.uleb128 0x2
 2173 0244 91       		.byte	0x91
 2174 0245 6F       		.sleb128 -17
 2175 0246 00       		.byte	0
 2176 0247 0A       		.uleb128 0xa
 2177 0248 0A020000 		.4byte	.LASF33
 2178 024c 01       		.byte	0x1
 2179 024d 0102     		.2byte	0x201
 2180 024f 00000000 		.4byte	.LFB10
 2181 0253 48000000 		.4byte	.LFE10-.LFB10
 2182 0257 01       		.uleb128 0x1
 2183 0258 9C       		.byte	0x9c
 2184 0259 7C020000 		.4byte	0x27c
 2185 025d 0B       		.uleb128 0xb
 2186 025e BA040000 		.4byte	.LASF34
 2187 0262 01       		.byte	0x1
 2188 0263 0102     		.2byte	0x201
 2189 0265 76000000 		.4byte	0x76
 2190 0269 02       		.uleb128 0x2
 2191 026a 91       		.byte	0x91
 2192 026b 64       		.sleb128 -28
 2193 026c 0C       		.uleb128 0xc
 2194 026d 46060000 		.4byte	.LASF20
 2195 0271 01       		.byte	0x1
 2196 0272 0302     		.2byte	0x203
 2197 0274 6B000000 		.4byte	0x6b
 2198 0278 02       		.uleb128 0x2
 2199 0279 91       		.byte	0x91
 2200 027a 6F       		.sleb128 -17
 2201 027b 00       		.byte	0
 2202 027c 0A       		.uleb128 0xa
 2203 027d E1060000 		.4byte	.LASF35
 2204 0281 01       		.byte	0x1
 2205 0282 2202     		.2byte	0x222
 2206 0284 00000000 		.4byte	.LFB11
 2207 0288 4C000000 		.4byte	.LFE11-.LFB11
 2208 028c 01       		.uleb128 0x1
 2209 028d 9C       		.byte	0x9c
 2210 028e B1020000 		.4byte	0x2b1
 2211 0292 0B       		.uleb128 0xb
ARM GAS  C:\Users\Clayton\AppData\Local\Temp\ccxaoGNk.s 			page 64


 2212 0293 F4010000 		.4byte	.LASF36
 2213 0297 01       		.byte	0x1
 2214 0298 2202     		.2byte	0x222
 2215 029a 76000000 		.4byte	0x76
 2216 029e 02       		.uleb128 0x2
 2217 029f 91       		.byte	0x91
 2218 02a0 64       		.sleb128 -28
 2219 02a1 0C       		.uleb128 0xc
 2220 02a2 46060000 		.4byte	.LASF20
 2221 02a6 01       		.byte	0x1
 2222 02a7 2402     		.2byte	0x224
 2223 02a9 6B000000 		.4byte	0x6b
 2224 02ad 02       		.uleb128 0x2
 2225 02ae 91       		.byte	0x91
 2226 02af 6F       		.sleb128 -17
 2227 02b0 00       		.byte	0
 2228 02b1 0A       		.uleb128 0xa
 2229 02b2 1F070000 		.4byte	.LASF37
 2230 02b6 01       		.byte	0x1
 2231 02b7 4302     		.2byte	0x243
 2232 02b9 00000000 		.4byte	.LFB12
 2233 02bd 48000000 		.4byte	.LFE12-.LFB12
 2234 02c1 01       		.uleb128 0x1
 2235 02c2 9C       		.byte	0x9c
 2236 02c3 E6020000 		.4byte	0x2e6
 2237 02c7 0B       		.uleb128 0xb
 2238 02c8 EF010000 		.4byte	.LASF38
 2239 02cc 01       		.byte	0x1
 2240 02cd 4302     		.2byte	0x243
 2241 02cf 76000000 		.4byte	0x76
 2242 02d3 02       		.uleb128 0x2
 2243 02d4 91       		.byte	0x91
 2244 02d5 64       		.sleb128 -28
 2245 02d6 0C       		.uleb128 0xc
 2246 02d7 46060000 		.4byte	.LASF20
 2247 02db 01       		.byte	0x1
 2248 02dc 4502     		.2byte	0x245
 2249 02de 6B000000 		.4byte	0x6b
 2250 02e2 02       		.uleb128 0x2
 2251 02e3 91       		.byte	0x91
 2252 02e4 6F       		.sleb128 -17
 2253 02e5 00       		.byte	0
 2254 02e6 0D       		.uleb128 0xd
 2255 02e7 29060000 		.4byte	.LASF39
 2256 02eb 01       		.byte	0x1
 2257 02ec 6102     		.2byte	0x261
 2258 02ee 00000000 		.4byte	.LFB13
 2259 02f2 1C000000 		.4byte	.LFE13-.LFB13
 2260 02f6 01       		.uleb128 0x1
 2261 02f7 9C       		.byte	0x9c
 2262 02f8 0C030000 		.4byte	0x30c
 2263 02fc 0B       		.uleb128 0xb
 2264 02fd 00000000 		.4byte	.LASF40
 2265 0301 01       		.byte	0x1
 2266 0302 6102     		.2byte	0x261
 2267 0304 76000000 		.4byte	0x76
 2268 0308 02       		.uleb128 0x2
ARM GAS  C:\Users\Clayton\AppData\Local\Temp\ccxaoGNk.s 			page 65


 2269 0309 91       		.byte	0x91
 2270 030a 74       		.sleb128 -12
 2271 030b 00       		.byte	0
 2272 030c 0E       		.uleb128 0xe
 2273 030d 30030000 		.4byte	.LASF45
 2274 0311 01       		.byte	0x1
 2275 0312 7502     		.2byte	0x275
 2276 0314 76000000 		.4byte	0x76
 2277 0318 00000000 		.4byte	.LFB14
 2278 031c 18000000 		.4byte	.LFE14-.LFB14
 2279 0320 01       		.uleb128 0x1
 2280 0321 9C       		.byte	0x9c
 2281 0322 0A       		.uleb128 0xa
 2282 0323 56040000 		.4byte	.LASF41
 2283 0327 01       		.byte	0x1
 2284 0328 9202     		.2byte	0x292
 2285 032a 00000000 		.4byte	.LFB15
 2286 032e 48000000 		.4byte	.LFE15-.LFB15
 2287 0332 01       		.uleb128 0x1
 2288 0333 9C       		.byte	0x9c
 2289 0334 57030000 		.4byte	0x357
 2290 0338 0B       		.uleb128 0xb
 2291 0339 FD050000 		.4byte	.LASF42
 2292 033d 01       		.byte	0x1
 2293 033e 9202     		.2byte	0x292
 2294 0340 76000000 		.4byte	0x76
 2295 0344 02       		.uleb128 0x2
 2296 0345 91       		.byte	0x91
 2297 0346 64       		.sleb128 -28
 2298 0347 0C       		.uleb128 0xc
 2299 0348 46060000 		.4byte	.LASF20
 2300 034c 01       		.byte	0x1
 2301 034d 9402     		.2byte	0x294
 2302 034f 6B000000 		.4byte	0x6b
 2303 0353 02       		.uleb128 0x2
 2304 0354 91       		.byte	0x91
 2305 0355 6F       		.sleb128 -17
 2306 0356 00       		.byte	0
 2307 0357 0D       		.uleb128 0xd
 2308 0358 82000000 		.4byte	.LASF43
 2309 035c 01       		.byte	0x1
 2310 035d AF02     		.2byte	0x2af
 2311 035f 00000000 		.4byte	.LFB16
 2312 0363 1C000000 		.4byte	.LFE16-.LFB16
 2313 0367 01       		.uleb128 0x1
 2314 0368 9C       		.byte	0x9c
 2315 0369 7D030000 		.4byte	0x37d
 2316 036d 0B       		.uleb128 0xb
 2317 036e 64000000 		.4byte	.LASF44
 2318 0372 01       		.byte	0x1
 2319 0373 AF02     		.2byte	0x2af
 2320 0375 76000000 		.4byte	0x76
 2321 0379 02       		.uleb128 0x2
 2322 037a 91       		.byte	0x91
 2323 037b 74       		.sleb128 -12
 2324 037c 00       		.byte	0
 2325 037d 0E       		.uleb128 0xe
ARM GAS  C:\Users\Clayton\AppData\Local\Temp\ccxaoGNk.s 			page 66


 2326 037e 52030000 		.4byte	.LASF46
 2327 0382 01       		.byte	0x1
 2328 0383 C302     		.2byte	0x2c3
 2329 0385 76000000 		.4byte	0x76
 2330 0389 00000000 		.4byte	.LFB17
 2331 038d 18000000 		.4byte	.LFE17-.LFB17
 2332 0391 01       		.uleb128 0x1
 2333 0392 9C       		.byte	0x9c
 2334 0393 0A       		.uleb128 0xa
 2335 0394 76060000 		.4byte	.LASF47
 2336 0398 01       		.byte	0x1
 2337 0399 DD02     		.2byte	0x2dd
 2338 039b 00000000 		.4byte	.LFB18
 2339 039f 48000000 		.4byte	.LFE18-.LFB18
 2340 03a3 01       		.uleb128 0x1
 2341 03a4 9C       		.byte	0x9c
 2342 03a5 C8030000 		.4byte	0x3c8
 2343 03a9 0B       		.uleb128 0xb
 2344 03aa AD060000 		.4byte	.LASF48
 2345 03ae 01       		.byte	0x1
 2346 03af DD02     		.2byte	0x2dd
 2347 03b1 76000000 		.4byte	0x76
 2348 03b5 02       		.uleb128 0x2
 2349 03b6 91       		.byte	0x91
 2350 03b7 64       		.sleb128 -28
 2351 03b8 0C       		.uleb128 0xc
 2352 03b9 46060000 		.4byte	.LASF20
 2353 03bd 01       		.byte	0x1
 2354 03be DF02     		.2byte	0x2df
 2355 03c0 6B000000 		.4byte	0x6b
 2356 03c4 02       		.uleb128 0x2
 2357 03c5 91       		.byte	0x91
 2358 03c6 6F       		.sleb128 -17
 2359 03c7 00       		.byte	0
 2360 03c8 0D       		.uleb128 0xd
 2361 03c9 E4020000 		.4byte	.LASF49
 2362 03cd 01       		.byte	0x1
 2363 03ce F802     		.2byte	0x2f8
 2364 03d0 00000000 		.4byte	.LFB19
 2365 03d4 1C000000 		.4byte	.LFE19-.LFB19
 2366 03d8 01       		.uleb128 0x1
 2367 03d9 9C       		.byte	0x9c
 2368 03da EE030000 		.4byte	0x3ee
 2369 03de 0B       		.uleb128 0xb
 2370 03df D7060000 		.4byte	.LASF50
 2371 03e3 01       		.byte	0x1
 2372 03e4 F802     		.2byte	0x2f8
 2373 03e6 76000000 		.4byte	0x76
 2374 03ea 02       		.uleb128 0x2
 2375 03eb 91       		.byte	0x91
 2376 03ec 74       		.sleb128 -12
 2377 03ed 00       		.byte	0
 2378 03ee 0E       		.uleb128 0xe
 2379 03ef 6D030000 		.4byte	.LASF51
 2380 03f3 01       		.byte	0x1
 2381 03f4 0C03     		.2byte	0x30c
 2382 03f6 76000000 		.4byte	0x76
ARM GAS  C:\Users\Clayton\AppData\Local\Temp\ccxaoGNk.s 			page 67


 2383 03fa 00000000 		.4byte	.LFB20
 2384 03fe 18000000 		.4byte	.LFE20-.LFB20
 2385 0402 01       		.uleb128 0x1
 2386 0403 9C       		.byte	0x9c
 2387 0404 0A       		.uleb128 0xa
 2388 0405 E2030000 		.4byte	.LASF52
 2389 0409 01       		.byte	0x1
 2390 040a 2603     		.2byte	0x326
 2391 040c 00000000 		.4byte	.LFB21
 2392 0410 48000000 		.4byte	.LFE21-.LFB21
 2393 0414 01       		.uleb128 0x1
 2394 0415 9C       		.byte	0x9c
 2395 0416 39040000 		.4byte	0x439
 2396 041a 0B       		.uleb128 0xb
 2397 041b AD060000 		.4byte	.LASF48
 2398 041f 01       		.byte	0x1
 2399 0420 2603     		.2byte	0x326
 2400 0422 76000000 		.4byte	0x76
 2401 0426 02       		.uleb128 0x2
 2402 0427 91       		.byte	0x91
 2403 0428 64       		.sleb128 -28
 2404 0429 0C       		.uleb128 0xc
 2405 042a 46060000 		.4byte	.LASF20
 2406 042e 01       		.byte	0x1
 2407 042f 2803     		.2byte	0x328
 2408 0431 6B000000 		.4byte	0x6b
 2409 0435 02       		.uleb128 0x2
 2410 0436 91       		.byte	0x91
 2411 0437 6F       		.sleb128 -17
 2412 0438 00       		.byte	0
 2413 0439 0D       		.uleb128 0xd
 2414 043a B8050000 		.4byte	.LASF53
 2415 043e 01       		.byte	0x1
 2416 043f 4303     		.2byte	0x343
 2417 0441 00000000 		.4byte	.LFB22
 2418 0445 1C000000 		.4byte	.LFE22-.LFB22
 2419 0449 01       		.uleb128 0x1
 2420 044a 9C       		.byte	0x9c
 2421 044b 5F040000 		.4byte	0x45f
 2422 044f 0B       		.uleb128 0xb
 2423 0450 DA030000 		.4byte	.LASF54
 2424 0454 01       		.byte	0x1
 2425 0455 4303     		.2byte	0x343
 2426 0457 76000000 		.4byte	0x76
 2427 045b 02       		.uleb128 0x2
 2428 045c 91       		.byte	0x91
 2429 045d 74       		.sleb128 -12
 2430 045e 00       		.byte	0
 2431 045f 0E       		.uleb128 0xe
 2432 0460 B5020000 		.4byte	.LASF55
 2433 0464 01       		.byte	0x1
 2434 0465 6E03     		.2byte	0x36e
 2435 0467 76000000 		.4byte	0x76
 2436 046b 00000000 		.4byte	.LFB23
 2437 046f 18000000 		.4byte	.LFE23-.LFB23
 2438 0473 01       		.uleb128 0x1
 2439 0474 9C       		.byte	0x9c
ARM GAS  C:\Users\Clayton\AppData\Local\Temp\ccxaoGNk.s 			page 68


 2440 0475 0D       		.uleb128 0xd
 2441 0476 7E010000 		.4byte	.LASF56
 2442 047a 01       		.byte	0x1
 2443 047b 9C03     		.2byte	0x39c
 2444 047d 00000000 		.4byte	.LFB24
 2445 0481 1C000000 		.4byte	.LFE24-.LFB24
 2446 0485 01       		.uleb128 0x1
 2447 0486 9C       		.byte	0x9c
 2448 0487 9B040000 		.4byte	0x49b
 2449 048b 0B       		.uleb128 0xb
 2450 048c 1E060000 		.4byte	.LASF57
 2451 0490 01       		.byte	0x1
 2452 0491 9C03     		.2byte	0x39c
 2453 0493 76000000 		.4byte	0x76
 2454 0497 02       		.uleb128 0x2
 2455 0498 91       		.byte	0x91
 2456 0499 74       		.sleb128 -12
 2457 049a 00       		.byte	0
 2458 049b 0E       		.uleb128 0xe
 2459 049c 57060000 		.4byte	.LASF58
 2460 04a0 01       		.byte	0x1
 2461 04a1 C503     		.2byte	0x3c5
 2462 04a3 76000000 		.4byte	0x76
 2463 04a7 00000000 		.4byte	.LFB25
 2464 04ab 18000000 		.4byte	.LFE25-.LFB25
 2465 04af 01       		.uleb128 0x1
 2466 04b0 9C       		.byte	0x9c
 2467 04b1 0E       		.uleb128 0xe
 2468 04b2 A5010000 		.4byte	.LASF59
 2469 04b6 01       		.byte	0x1
 2470 04b7 F303     		.2byte	0x3f3
 2471 04b9 76000000 		.4byte	0x76
 2472 04bd 00000000 		.4byte	.LFB26
 2473 04c1 18000000 		.4byte	.LFE26-.LFB26
 2474 04c5 01       		.uleb128 0x1
 2475 04c6 9C       		.byte	0x9c
 2476 04c7 0E       		.uleb128 0xe
 2477 04c8 AC030000 		.4byte	.LASF60
 2478 04cc 01       		.byte	0x1
 2479 04cd 0804     		.2byte	0x408
 2480 04cf 76000000 		.4byte	0x76
 2481 04d3 00000000 		.4byte	.LFB27
 2482 04d7 18000000 		.4byte	.LFE27-.LFB27
 2483 04db 01       		.uleb128 0x1
 2484 04dc 9C       		.byte	0x9c
 2485 04dd 0A       		.uleb128 0xa
 2486 04de B8060000 		.4byte	.LASF61
 2487 04e2 01       		.byte	0x1
 2488 04e3 2304     		.2byte	0x423
 2489 04e5 00000000 		.4byte	.LFB28
 2490 04e9 44000000 		.4byte	.LFE28-.LFB28
 2491 04ed 01       		.uleb128 0x1
 2492 04ee 9C       		.byte	0x9c
 2493 04ef 12050000 		.4byte	0x512
 2494 04f3 0B       		.uleb128 0xb
 2495 04f4 C8010000 		.4byte	.LASF62
 2496 04f8 01       		.byte	0x1
ARM GAS  C:\Users\Clayton\AppData\Local\Temp\ccxaoGNk.s 			page 69


 2497 04f9 2304     		.2byte	0x423
 2498 04fb 76000000 		.4byte	0x76
 2499 04ff 02       		.uleb128 0x2
 2500 0500 91       		.byte	0x91
 2501 0501 64       		.sleb128 -28
 2502 0502 0C       		.uleb128 0xc
 2503 0503 46060000 		.4byte	.LASF20
 2504 0507 01       		.byte	0x1
 2505 0508 2504     		.2byte	0x425
 2506 050a 6B000000 		.4byte	0x6b
 2507 050e 02       		.uleb128 0x2
 2508 050f 91       		.byte	0x91
 2509 0510 6F       		.sleb128 -17
 2510 0511 00       		.byte	0
 2511 0512 0A       		.uleb128 0xa
 2512 0513 D5050000 		.4byte	.LASF63
 2513 0517 01       		.byte	0x1
 2514 0518 4404     		.2byte	0x444
 2515 051a 00000000 		.4byte	.LFB29
 2516 051e 44000000 		.4byte	.LFE29-.LFB29
 2517 0522 01       		.uleb128 0x1
 2518 0523 9C       		.byte	0x9c
 2519 0524 47050000 		.4byte	0x547
 2520 0528 0B       		.uleb128 0xb
 2521 0529 C8010000 		.4byte	.LASF62
 2522 052d 01       		.byte	0x1
 2523 052e 4404     		.2byte	0x444
 2524 0530 76000000 		.4byte	0x76
 2525 0534 02       		.uleb128 0x2
 2526 0535 91       		.byte	0x91
 2527 0536 64       		.sleb128 -28
 2528 0537 0C       		.uleb128 0xc
 2529 0538 46060000 		.4byte	.LASF20
 2530 053c 01       		.byte	0x1
 2531 053d 4604     		.2byte	0x446
 2532 053f 6B000000 		.4byte	0x6b
 2533 0543 02       		.uleb128 0x2
 2534 0544 91       		.byte	0x91
 2535 0545 6F       		.sleb128 -17
 2536 0546 00       		.byte	0
 2537 0547 0A       		.uleb128 0xa
 2538 0548 7A050000 		.4byte	.LASF64
 2539 054c 01       		.byte	0x1
 2540 054d 6504     		.2byte	0x465
 2541 054f 00000000 		.4byte	.LFB30
 2542 0553 48000000 		.4byte	.LFE30-.LFB30
 2543 0557 01       		.uleb128 0x1
 2544 0558 9C       		.byte	0x9c
 2545 0559 7C050000 		.4byte	0x57c
 2546 055d 0B       		.uleb128 0xb
 2547 055e C8010000 		.4byte	.LASF62
 2548 0562 01       		.byte	0x1
 2549 0563 6504     		.2byte	0x465
 2550 0565 76000000 		.4byte	0x76
 2551 0569 02       		.uleb128 0x2
 2552 056a 91       		.byte	0x91
 2553 056b 64       		.sleb128 -28
ARM GAS  C:\Users\Clayton\AppData\Local\Temp\ccxaoGNk.s 			page 70


 2554 056c 0C       		.uleb128 0xc
 2555 056d 46060000 		.4byte	.LASF20
 2556 0571 01       		.byte	0x1
 2557 0572 6704     		.2byte	0x467
 2558 0574 6B000000 		.4byte	0x6b
 2559 0578 02       		.uleb128 0x2
 2560 0579 91       		.byte	0x91
 2561 057a 6F       		.sleb128 -17
 2562 057b 00       		.byte	0
 2563 057c 0A       		.uleb128 0xa
 2564 057d 83040000 		.4byte	.LASF65
 2565 0581 01       		.byte	0x1
 2566 0582 8504     		.2byte	0x485
 2567 0584 00000000 		.4byte	.LFB31
 2568 0588 44000000 		.4byte	.LFE31-.LFB31
 2569 058c 01       		.uleb128 0x1
 2570 058d 9C       		.byte	0x9c
 2571 058e B1050000 		.4byte	0x5b1
 2572 0592 0B       		.uleb128 0xb
 2573 0593 C8010000 		.4byte	.LASF62
 2574 0597 01       		.byte	0x1
 2575 0598 8504     		.2byte	0x485
 2576 059a 76000000 		.4byte	0x76
 2577 059e 02       		.uleb128 0x2
 2578 059f 91       		.byte	0x91
 2579 05a0 64       		.sleb128 -28
 2580 05a1 0C       		.uleb128 0xc
 2581 05a2 46060000 		.4byte	.LASF20
 2582 05a6 01       		.byte	0x1
 2583 05a7 8704     		.2byte	0x487
 2584 05a9 6B000000 		.4byte	0x6b
 2585 05ad 02       		.uleb128 0x2
 2586 05ae 91       		.byte	0x91
 2587 05af 6F       		.sleb128 -17
 2588 05b0 00       		.byte	0
 2589 05b1 0A       		.uleb128 0xa
 2590 05b2 39040000 		.4byte	.LASF66
 2591 05b6 01       		.byte	0x1
 2592 05b7 A604     		.2byte	0x4a6
 2593 05b9 00000000 		.4byte	.LFB32
 2594 05bd 44000000 		.4byte	.LFE32-.LFB32
 2595 05c1 01       		.uleb128 0x1
 2596 05c2 9C       		.byte	0x9c
 2597 05c3 E6050000 		.4byte	0x5e6
 2598 05c7 0B       		.uleb128 0xb
 2599 05c8 C8010000 		.4byte	.LASF62
 2600 05cc 01       		.byte	0x1
 2601 05cd A604     		.2byte	0x4a6
 2602 05cf 76000000 		.4byte	0x76
 2603 05d3 02       		.uleb128 0x2
 2604 05d4 91       		.byte	0x91
 2605 05d5 64       		.sleb128 -28
 2606 05d6 0C       		.uleb128 0xc
 2607 05d7 46060000 		.4byte	.LASF20
 2608 05db 01       		.byte	0x1
 2609 05dc A804     		.2byte	0x4a8
 2610 05de 6B000000 		.4byte	0x6b
ARM GAS  C:\Users\Clayton\AppData\Local\Temp\ccxaoGNk.s 			page 71


 2611 05e2 02       		.uleb128 0x2
 2612 05e3 91       		.byte	0x91
 2613 05e4 6F       		.sleb128 -17
 2614 05e5 00       		.byte	0
 2615 05e6 0A       		.uleb128 0xa
 2616 05e7 9E000000 		.4byte	.LASF67
 2617 05eb 01       		.byte	0x1
 2618 05ec CE04     		.2byte	0x4ce
 2619 05ee 00000000 		.4byte	.LFB33
 2620 05f2 3C000000 		.4byte	.LFE33-.LFB33
 2621 05f6 01       		.uleb128 0x1
 2622 05f7 9C       		.byte	0x9c
 2623 05f8 2A060000 		.4byte	0x62a
 2624 05fc 0B       		.uleb128 0xb
 2625 05fd EF010000 		.4byte	.LASF38
 2626 0601 01       		.byte	0x1
 2627 0602 CE04     		.2byte	0x4ce
 2628 0604 76000000 		.4byte	0x76
 2629 0608 02       		.uleb128 0x2
 2630 0609 91       		.byte	0x91
 2631 060a 64       		.sleb128 -28
 2632 060b 0B       		.uleb128 0xb
 2633 060c 2B020000 		.4byte	.LASF68
 2634 0610 01       		.byte	0x1
 2635 0611 CE04     		.2byte	0x4ce
 2636 0613 76000000 		.4byte	0x76
 2637 0617 02       		.uleb128 0x2
 2638 0618 91       		.byte	0x91
 2639 0619 60       		.sleb128 -32
 2640 061a 0C       		.uleb128 0xc
 2641 061b 46060000 		.4byte	.LASF20
 2642 061f 01       		.byte	0x1
 2643 0620 D004     		.2byte	0x4d0
 2644 0622 6B000000 		.4byte	0x6b
 2645 0626 02       		.uleb128 0x2
 2646 0627 91       		.byte	0x91
 2647 0628 6F       		.sleb128 -17
 2648 0629 00       		.byte	0
 2649 062a 0E       		.uleb128 0xe
 2650 062b D4010000 		.4byte	.LASF69
 2651 062f 01       		.byte	0x1
 2652 0630 EB04     		.2byte	0x4eb
 2653 0632 76000000 		.4byte	0x76
 2654 0636 00000000 		.4byte	.LFB34
 2655 063a 20000000 		.4byte	.LFE34-.LFB34
 2656 063e 01       		.uleb128 0x1
 2657 063f 9C       		.byte	0x9c
 2658 0640 0D       		.uleb128 0xd
 2659 0641 97050000 		.4byte	.LASF70
 2660 0645 01       		.byte	0x1
 2661 0646 0405     		.2byte	0x504
 2662 0648 00000000 		.4byte	.LFB35
 2663 064c 18000000 		.4byte	.LFE35-.LFB35
 2664 0650 01       		.uleb128 0x1
 2665 0651 9C       		.byte	0x9c
 2666 0652 66060000 		.4byte	0x666
 2667 0656 0B       		.uleb128 0xb
ARM GAS  C:\Users\Clayton\AppData\Local\Temp\ccxaoGNk.s 			page 72


 2668 0657 52050000 		.4byte	.LASF71
 2669 065b 01       		.byte	0x1
 2670 065c 0405     		.2byte	0x504
 2671 065e 76000000 		.4byte	0x76
 2672 0662 02       		.uleb128 0x2
 2673 0663 91       		.byte	0x91
 2674 0664 74       		.sleb128 -12
 2675 0665 00       		.byte	0
 2676 0666 0E       		.uleb128 0xe
 2677 0667 00040000 		.4byte	.LASF72
 2678 066b 01       		.byte	0x1
 2679 066c 1B05     		.2byte	0x51b
 2680 066e 76000000 		.4byte	0x76
 2681 0672 00000000 		.4byte	.LFB36
 2682 0676 14000000 		.4byte	.LFE36-.LFB36
 2683 067a 01       		.uleb128 0x1
 2684 067b 9C       		.byte	0x9c
 2685 067c 0E       		.uleb128 0xe
 2686 067d 3A010000 		.4byte	.LASF73
 2687 0681 01       		.byte	0x1
 2688 0682 3205     		.2byte	0x532
 2689 0684 76000000 		.4byte	0x76
 2690 0688 00000000 		.4byte	.LFB37
 2691 068c 14000000 		.4byte	.LFE37-.LFB37
 2692 0690 01       		.uleb128 0x1
 2693 0691 9C       		.byte	0x9c
 2694 0692 0D       		.uleb128 0xd
 2695 0693 C4000000 		.4byte	.LASF74
 2696 0697 01       		.byte	0x1
 2697 0698 4905     		.2byte	0x549
 2698 069a 00000000 		.4byte	.LFB38
 2699 069e 18000000 		.4byte	.LFE38-.LFB38
 2700 06a2 01       		.uleb128 0x1
 2701 06a3 9C       		.byte	0x9c
 2702 06a4 B8060000 		.4byte	0x6b8
 2703 06a8 0B       		.uleb128 0xb
 2704 06a9 52050000 		.4byte	.LASF71
 2705 06ad 01       		.byte	0x1
 2706 06ae 4905     		.2byte	0x549
 2707 06b0 76000000 		.4byte	0x76
 2708 06b4 02       		.uleb128 0x2
 2709 06b5 91       		.byte	0x91
 2710 06b6 74       		.sleb128 -12
 2711 06b7 00       		.byte	0
 2712 06b8 0D       		.uleb128 0xd
 2713 06b9 47000000 		.4byte	.LASF75
 2714 06bd 01       		.byte	0x1
 2715 06be 6005     		.2byte	0x560
 2716 06c0 00000000 		.4byte	.LFB39
 2717 06c4 18000000 		.4byte	.LFE39-.LFB39
 2718 06c8 01       		.uleb128 0x1
 2719 06c9 9C       		.byte	0x9c
 2720 06ca DE060000 		.4byte	0x6de
 2721 06ce 0B       		.uleb128 0xb
 2722 06cf 52050000 		.4byte	.LASF71
 2723 06d3 01       		.byte	0x1
 2724 06d4 6005     		.2byte	0x560
ARM GAS  C:\Users\Clayton\AppData\Local\Temp\ccxaoGNk.s 			page 73


 2725 06d6 76000000 		.4byte	0x76
 2726 06da 02       		.uleb128 0x2
 2727 06db 91       		.byte	0x91
 2728 06dc 74       		.sleb128 -12
 2729 06dd 00       		.byte	0
 2730 06de 0F       		.uleb128 0xf
 2731 06df 8B030000 		.4byte	.LASF79
 2732 06e3 01       		.byte	0x1
 2733 06e4 15       		.byte	0x15
 2734 06e5 6B000000 		.4byte	0x6b
 2735 06e9 05       		.uleb128 0x5
 2736 06ea 03       		.byte	0x3
 2737 06eb 00000000 		.4byte	SignalGenerator_initVar
 2738 06ef 00       		.byte	0
 2739              		.section	.debug_abbrev,"",%progbits
 2740              	.Ldebug_abbrev0:
 2741 0000 01       		.uleb128 0x1
 2742 0001 11       		.uleb128 0x11
 2743 0002 01       		.byte	0x1
 2744 0003 25       		.uleb128 0x25
 2745 0004 0E       		.uleb128 0xe
 2746 0005 13       		.uleb128 0x13
 2747 0006 0B       		.uleb128 0xb
 2748 0007 03       		.uleb128 0x3
 2749 0008 0E       		.uleb128 0xe
 2750 0009 1B       		.uleb128 0x1b
 2751 000a 0E       		.uleb128 0xe
 2752 000b 55       		.uleb128 0x55
 2753 000c 17       		.uleb128 0x17
 2754 000d 11       		.uleb128 0x11
 2755 000e 01       		.uleb128 0x1
 2756 000f 10       		.uleb128 0x10
 2757 0010 17       		.uleb128 0x17
 2758 0011 00       		.byte	0
 2759 0012 00       		.byte	0
 2760 0013 02       		.uleb128 0x2
 2761 0014 24       		.uleb128 0x24
 2762 0015 00       		.byte	0
 2763 0016 0B       		.uleb128 0xb
 2764 0017 0B       		.uleb128 0xb
 2765 0018 3E       		.uleb128 0x3e
 2766 0019 0B       		.uleb128 0xb
 2767 001a 03       		.uleb128 0x3
 2768 001b 0E       		.uleb128 0xe
 2769 001c 00       		.byte	0
 2770 001d 00       		.byte	0
 2771 001e 03       		.uleb128 0x3
 2772 001f 24       		.uleb128 0x24
 2773 0020 00       		.byte	0
 2774 0021 0B       		.uleb128 0xb
 2775 0022 0B       		.uleb128 0xb
 2776 0023 3E       		.uleb128 0x3e
 2777 0024 0B       		.uleb128 0xb
 2778 0025 03       		.uleb128 0x3
 2779 0026 08       		.uleb128 0x8
 2780 0027 00       		.byte	0
 2781 0028 00       		.byte	0
ARM GAS  C:\Users\Clayton\AppData\Local\Temp\ccxaoGNk.s 			page 74


 2782 0029 04       		.uleb128 0x4
 2783 002a 16       		.uleb128 0x16
 2784 002b 00       		.byte	0
 2785 002c 03       		.uleb128 0x3
 2786 002d 0E       		.uleb128 0xe
 2787 002e 3A       		.uleb128 0x3a
 2788 002f 0B       		.uleb128 0xb
 2789 0030 3B       		.uleb128 0x3b
 2790 0031 0B       		.uleb128 0xb
 2791 0032 49       		.uleb128 0x49
 2792 0033 13       		.uleb128 0x13
 2793 0034 00       		.byte	0
 2794 0035 00       		.byte	0
 2795 0036 05       		.uleb128 0x5
 2796 0037 16       		.uleb128 0x16
 2797 0038 00       		.byte	0
 2798 0039 03       		.uleb128 0x3
 2799 003a 0E       		.uleb128 0xe
 2800 003b 3A       		.uleb128 0x3a
 2801 003c 0B       		.uleb128 0xb
 2802 003d 3B       		.uleb128 0x3b
 2803 003e 05       		.uleb128 0x5
 2804 003f 49       		.uleb128 0x49
 2805 0040 13       		.uleb128 0x13
 2806 0041 00       		.byte	0
 2807 0042 00       		.byte	0
 2808 0043 06       		.uleb128 0x6
 2809 0044 35       		.uleb128 0x35
 2810 0045 00       		.byte	0
 2811 0046 49       		.uleb128 0x49
 2812 0047 13       		.uleb128 0x13
 2813 0048 00       		.byte	0
 2814 0049 00       		.byte	0
 2815 004a 07       		.uleb128 0x7
 2816 004b 2E       		.uleb128 0x2e
 2817 004c 00       		.byte	0
 2818 004d 3F       		.uleb128 0x3f
 2819 004e 19       		.uleb128 0x19
 2820 004f 03       		.uleb128 0x3
 2821 0050 0E       		.uleb128 0xe
 2822 0051 3A       		.uleb128 0x3a
 2823 0052 0B       		.uleb128 0xb
 2824 0053 3B       		.uleb128 0x3b
 2825 0054 0B       		.uleb128 0xb
 2826 0055 27       		.uleb128 0x27
 2827 0056 19       		.uleb128 0x19
 2828 0057 11       		.uleb128 0x11
 2829 0058 01       		.uleb128 0x1
 2830 0059 12       		.uleb128 0x12
 2831 005a 06       		.uleb128 0x6
 2832 005b 40       		.uleb128 0x40
 2833 005c 18       		.uleb128 0x18
 2834 005d 9642     		.uleb128 0x2116
 2835 005f 19       		.uleb128 0x19
 2836 0060 00       		.byte	0
 2837 0061 00       		.byte	0
 2838 0062 08       		.uleb128 0x8
ARM GAS  C:\Users\Clayton\AppData\Local\Temp\ccxaoGNk.s 			page 75


 2839 0063 2E       		.uleb128 0x2e
 2840 0064 01       		.byte	0x1
 2841 0065 3F       		.uleb128 0x3f
 2842 0066 19       		.uleb128 0x19
 2843 0067 03       		.uleb128 0x3
 2844 0068 0E       		.uleb128 0xe
 2845 0069 3A       		.uleb128 0x3a
 2846 006a 0B       		.uleb128 0xb
 2847 006b 3B       		.uleb128 0x3b
 2848 006c 0B       		.uleb128 0xb
 2849 006d 27       		.uleb128 0x27
 2850 006e 19       		.uleb128 0x19
 2851 006f 11       		.uleb128 0x11
 2852 0070 01       		.uleb128 0x1
 2853 0071 12       		.uleb128 0x12
 2854 0072 06       		.uleb128 0x6
 2855 0073 40       		.uleb128 0x40
 2856 0074 18       		.uleb128 0x18
 2857 0075 9642     		.uleb128 0x2116
 2858 0077 19       		.uleb128 0x19
 2859 0078 01       		.uleb128 0x1
 2860 0079 13       		.uleb128 0x13
 2861 007a 00       		.byte	0
 2862 007b 00       		.byte	0
 2863 007c 09       		.uleb128 0x9
 2864 007d 34       		.uleb128 0x34
 2865 007e 00       		.byte	0
 2866 007f 03       		.uleb128 0x3
 2867 0080 0E       		.uleb128 0xe
 2868 0081 3A       		.uleb128 0x3a
 2869 0082 0B       		.uleb128 0xb
 2870 0083 3B       		.uleb128 0x3b
 2871 0084 0B       		.uleb128 0xb
 2872 0085 49       		.uleb128 0x49
 2873 0086 13       		.uleb128 0x13
 2874 0087 02       		.uleb128 0x2
 2875 0088 18       		.uleb128 0x18
 2876 0089 00       		.byte	0
 2877 008a 00       		.byte	0
 2878 008b 0A       		.uleb128 0xa
 2879 008c 2E       		.uleb128 0x2e
 2880 008d 01       		.byte	0x1
 2881 008e 3F       		.uleb128 0x3f
 2882 008f 19       		.uleb128 0x19
 2883 0090 03       		.uleb128 0x3
 2884 0091 0E       		.uleb128 0xe
 2885 0092 3A       		.uleb128 0x3a
 2886 0093 0B       		.uleb128 0xb
 2887 0094 3B       		.uleb128 0x3b
 2888 0095 05       		.uleb128 0x5
 2889 0096 27       		.uleb128 0x27
 2890 0097 19       		.uleb128 0x19
 2891 0098 11       		.uleb128 0x11
 2892 0099 01       		.uleb128 0x1
 2893 009a 12       		.uleb128 0x12
 2894 009b 06       		.uleb128 0x6
 2895 009c 40       		.uleb128 0x40
ARM GAS  C:\Users\Clayton\AppData\Local\Temp\ccxaoGNk.s 			page 76


 2896 009d 18       		.uleb128 0x18
 2897 009e 9642     		.uleb128 0x2116
 2898 00a0 19       		.uleb128 0x19
 2899 00a1 01       		.uleb128 0x1
 2900 00a2 13       		.uleb128 0x13
 2901 00a3 00       		.byte	0
 2902 00a4 00       		.byte	0
 2903 00a5 0B       		.uleb128 0xb
 2904 00a6 05       		.uleb128 0x5
 2905 00a7 00       		.byte	0
 2906 00a8 03       		.uleb128 0x3
 2907 00a9 0E       		.uleb128 0xe
 2908 00aa 3A       		.uleb128 0x3a
 2909 00ab 0B       		.uleb128 0xb
 2910 00ac 3B       		.uleb128 0x3b
 2911 00ad 05       		.uleb128 0x5
 2912 00ae 49       		.uleb128 0x49
 2913 00af 13       		.uleb128 0x13
 2914 00b0 02       		.uleb128 0x2
 2915 00b1 18       		.uleb128 0x18
 2916 00b2 00       		.byte	0
 2917 00b3 00       		.byte	0
 2918 00b4 0C       		.uleb128 0xc
 2919 00b5 34       		.uleb128 0x34
 2920 00b6 00       		.byte	0
 2921 00b7 03       		.uleb128 0x3
 2922 00b8 0E       		.uleb128 0xe
 2923 00b9 3A       		.uleb128 0x3a
 2924 00ba 0B       		.uleb128 0xb
 2925 00bb 3B       		.uleb128 0x3b
 2926 00bc 05       		.uleb128 0x5
 2927 00bd 49       		.uleb128 0x49
 2928 00be 13       		.uleb128 0x13
 2929 00bf 02       		.uleb128 0x2
 2930 00c0 18       		.uleb128 0x18
 2931 00c1 00       		.byte	0
 2932 00c2 00       		.byte	0
 2933 00c3 0D       		.uleb128 0xd
 2934 00c4 2E       		.uleb128 0x2e
 2935 00c5 01       		.byte	0x1
 2936 00c6 3F       		.uleb128 0x3f
 2937 00c7 19       		.uleb128 0x19
 2938 00c8 03       		.uleb128 0x3
 2939 00c9 0E       		.uleb128 0xe
 2940 00ca 3A       		.uleb128 0x3a
 2941 00cb 0B       		.uleb128 0xb
 2942 00cc 3B       		.uleb128 0x3b
 2943 00cd 05       		.uleb128 0x5
 2944 00ce 27       		.uleb128 0x27
 2945 00cf 19       		.uleb128 0x19
 2946 00d0 11       		.uleb128 0x11
 2947 00d1 01       		.uleb128 0x1
 2948 00d2 12       		.uleb128 0x12
 2949 00d3 06       		.uleb128 0x6
 2950 00d4 40       		.uleb128 0x40
 2951 00d5 18       		.uleb128 0x18
 2952 00d6 9742     		.uleb128 0x2117
ARM GAS  C:\Users\Clayton\AppData\Local\Temp\ccxaoGNk.s 			page 77


 2953 00d8 19       		.uleb128 0x19
 2954 00d9 01       		.uleb128 0x1
 2955 00da 13       		.uleb128 0x13
 2956 00db 00       		.byte	0
 2957 00dc 00       		.byte	0
 2958 00dd 0E       		.uleb128 0xe
 2959 00de 2E       		.uleb128 0x2e
 2960 00df 00       		.byte	0
 2961 00e0 3F       		.uleb128 0x3f
 2962 00e1 19       		.uleb128 0x19
 2963 00e2 03       		.uleb128 0x3
 2964 00e3 0E       		.uleb128 0xe
 2965 00e4 3A       		.uleb128 0x3a
 2966 00e5 0B       		.uleb128 0xb
 2967 00e6 3B       		.uleb128 0x3b
 2968 00e7 05       		.uleb128 0x5
 2969 00e8 27       		.uleb128 0x27
 2970 00e9 19       		.uleb128 0x19
 2971 00ea 49       		.uleb128 0x49
 2972 00eb 13       		.uleb128 0x13
 2973 00ec 11       		.uleb128 0x11
 2974 00ed 01       		.uleb128 0x1
 2975 00ee 12       		.uleb128 0x12
 2976 00ef 06       		.uleb128 0x6
 2977 00f0 40       		.uleb128 0x40
 2978 00f1 18       		.uleb128 0x18
 2979 00f2 9742     		.uleb128 0x2117
 2980 00f4 19       		.uleb128 0x19
 2981 00f5 00       		.byte	0
 2982 00f6 00       		.byte	0
 2983 00f7 0F       		.uleb128 0xf
 2984 00f8 34       		.uleb128 0x34
 2985 00f9 00       		.byte	0
 2986 00fa 03       		.uleb128 0x3
 2987 00fb 0E       		.uleb128 0xe
 2988 00fc 3A       		.uleb128 0x3a
 2989 00fd 0B       		.uleb128 0xb
 2990 00fe 3B       		.uleb128 0x3b
 2991 00ff 0B       		.uleb128 0xb
 2992 0100 49       		.uleb128 0x49
 2993 0101 13       		.uleb128 0x13
 2994 0102 3F       		.uleb128 0x3f
 2995 0103 19       		.uleb128 0x19
 2996 0104 02       		.uleb128 0x2
 2997 0105 18       		.uleb128 0x18
 2998 0106 00       		.byte	0
 2999 0107 00       		.byte	0
 3000 0108 00       		.byte	0
 3001              		.section	.debug_aranges,"",%progbits
 3002 0000 54010000 		.4byte	0x154
 3003 0004 0200     		.2byte	0x2
 3004 0006 00000000 		.4byte	.Ldebug_info0
 3005 000a 04       		.byte	0x4
 3006 000b 00       		.byte	0
 3007 000c 0000     		.2byte	0
 3008 000e 0000     		.2byte	0
 3009 0010 00000000 		.4byte	.LFB0
ARM GAS  C:\Users\Clayton\AppData\Local\Temp\ccxaoGNk.s 			page 78


 3010 0014 40000000 		.4byte	.LFE0-.LFB0
 3011 0018 00000000 		.4byte	.LFB1
 3012 001c 38000000 		.4byte	.LFE1-.LFB1
 3013 0020 00000000 		.4byte	.LFB2
 3014 0024 24000000 		.4byte	.LFE2-.LFB2
 3015 0028 00000000 		.4byte	.LFB3
 3016 002c 30000000 		.4byte	.LFE3-.LFB3
 3017 0030 00000000 		.4byte	.LFB4
 3018 0034 48000000 		.4byte	.LFE4-.LFB4
 3019 0038 00000000 		.4byte	.LFB5
 3020 003c 48000000 		.4byte	.LFE5-.LFB5
 3021 0040 00000000 		.4byte	.LFB6
 3022 0044 48000000 		.4byte	.LFE6-.LFB6
 3023 0048 00000000 		.4byte	.LFB7
 3024 004c 4C000000 		.4byte	.LFE7-.LFB7
 3025 0050 00000000 		.4byte	.LFB8
 3026 0054 1C000000 		.4byte	.LFE8-.LFB8
 3027 0058 00000000 		.4byte	.LFB9
 3028 005c 48000000 		.4byte	.LFE9-.LFB9
 3029 0060 00000000 		.4byte	.LFB10
 3030 0064 48000000 		.4byte	.LFE10-.LFB10
 3031 0068 00000000 		.4byte	.LFB11
 3032 006c 4C000000 		.4byte	.LFE11-.LFB11
 3033 0070 00000000 		.4byte	.LFB12
 3034 0074 48000000 		.4byte	.LFE12-.LFB12
 3035 0078 00000000 		.4byte	.LFB13
 3036 007c 1C000000 		.4byte	.LFE13-.LFB13
 3037 0080 00000000 		.4byte	.LFB14
 3038 0084 18000000 		.4byte	.LFE14-.LFB14
 3039 0088 00000000 		.4byte	.LFB15
 3040 008c 48000000 		.4byte	.LFE15-.LFB15
 3041 0090 00000000 		.4byte	.LFB16
 3042 0094 1C000000 		.4byte	.LFE16-.LFB16
 3043 0098 00000000 		.4byte	.LFB17
 3044 009c 18000000 		.4byte	.LFE17-.LFB17
 3045 00a0 00000000 		.4byte	.LFB18
 3046 00a4 48000000 		.4byte	.LFE18-.LFB18
 3047 00a8 00000000 		.4byte	.LFB19
 3048 00ac 1C000000 		.4byte	.LFE19-.LFB19
 3049 00b0 00000000 		.4byte	.LFB20
 3050 00b4 18000000 		.4byte	.LFE20-.LFB20
 3051 00b8 00000000 		.4byte	.LFB21
 3052 00bc 48000000 		.4byte	.LFE21-.LFB21
 3053 00c0 00000000 		.4byte	.LFB22
 3054 00c4 1C000000 		.4byte	.LFE22-.LFB22
 3055 00c8 00000000 		.4byte	.LFB23
 3056 00cc 18000000 		.4byte	.LFE23-.LFB23
 3057 00d0 00000000 		.4byte	.LFB24
 3058 00d4 1C000000 		.4byte	.LFE24-.LFB24
 3059 00d8 00000000 		.4byte	.LFB25
 3060 00dc 18000000 		.4byte	.LFE25-.LFB25
 3061 00e0 00000000 		.4byte	.LFB26
 3062 00e4 18000000 		.4byte	.LFE26-.LFB26
 3063 00e8 00000000 		.4byte	.LFB27
 3064 00ec 18000000 		.4byte	.LFE27-.LFB27
 3065 00f0 00000000 		.4byte	.LFB28
 3066 00f4 44000000 		.4byte	.LFE28-.LFB28
ARM GAS  C:\Users\Clayton\AppData\Local\Temp\ccxaoGNk.s 			page 79


 3067 00f8 00000000 		.4byte	.LFB29
 3068 00fc 44000000 		.4byte	.LFE29-.LFB29
 3069 0100 00000000 		.4byte	.LFB30
 3070 0104 48000000 		.4byte	.LFE30-.LFB30
 3071 0108 00000000 		.4byte	.LFB31
 3072 010c 44000000 		.4byte	.LFE31-.LFB31
 3073 0110 00000000 		.4byte	.LFB32
 3074 0114 44000000 		.4byte	.LFE32-.LFB32
 3075 0118 00000000 		.4byte	.LFB33
 3076 011c 3C000000 		.4byte	.LFE33-.LFB33
 3077 0120 00000000 		.4byte	.LFB34
 3078 0124 20000000 		.4byte	.LFE34-.LFB34
 3079 0128 00000000 		.4byte	.LFB35
 3080 012c 18000000 		.4byte	.LFE35-.LFB35
 3081 0130 00000000 		.4byte	.LFB36
 3082 0134 14000000 		.4byte	.LFE36-.LFB36
 3083 0138 00000000 		.4byte	.LFB37
 3084 013c 14000000 		.4byte	.LFE37-.LFB37
 3085 0140 00000000 		.4byte	.LFB38
 3086 0144 18000000 		.4byte	.LFE38-.LFB38
 3087 0148 00000000 		.4byte	.LFB39
 3088 014c 18000000 		.4byte	.LFE39-.LFB39
 3089 0150 00000000 		.4byte	0
 3090 0154 00000000 		.4byte	0
 3091              		.section	.debug_ranges,"",%progbits
 3092              	.Ldebug_ranges0:
 3093 0000 00000000 		.4byte	.LFB0
 3094 0004 40000000 		.4byte	.LFE0
 3095 0008 00000000 		.4byte	.LFB1
 3096 000c 38000000 		.4byte	.LFE1
 3097 0010 00000000 		.4byte	.LFB2
 3098 0014 24000000 		.4byte	.LFE2
 3099 0018 00000000 		.4byte	.LFB3
 3100 001c 30000000 		.4byte	.LFE3
 3101 0020 00000000 		.4byte	.LFB4
 3102 0024 48000000 		.4byte	.LFE4
 3103 0028 00000000 		.4byte	.LFB5
 3104 002c 48000000 		.4byte	.LFE5
 3105 0030 00000000 		.4byte	.LFB6
 3106 0034 48000000 		.4byte	.LFE6
 3107 0038 00000000 		.4byte	.LFB7
 3108 003c 4C000000 		.4byte	.LFE7
 3109 0040 00000000 		.4byte	.LFB8
 3110 0044 1C000000 		.4byte	.LFE8
 3111 0048 00000000 		.4byte	.LFB9
 3112 004c 48000000 		.4byte	.LFE9
 3113 0050 00000000 		.4byte	.LFB10
 3114 0054 48000000 		.4byte	.LFE10
 3115 0058 00000000 		.4byte	.LFB11
 3116 005c 4C000000 		.4byte	.LFE11
 3117 0060 00000000 		.4byte	.LFB12
 3118 0064 48000000 		.4byte	.LFE12
 3119 0068 00000000 		.4byte	.LFB13
 3120 006c 1C000000 		.4byte	.LFE13
 3121 0070 00000000 		.4byte	.LFB14
 3122 0074 18000000 		.4byte	.LFE14
 3123 0078 00000000 		.4byte	.LFB15
ARM GAS  C:\Users\Clayton\AppData\Local\Temp\ccxaoGNk.s 			page 80


 3124 007c 48000000 		.4byte	.LFE15
 3125 0080 00000000 		.4byte	.LFB16
 3126 0084 1C000000 		.4byte	.LFE16
 3127 0088 00000000 		.4byte	.LFB17
 3128 008c 18000000 		.4byte	.LFE17
 3129 0090 00000000 		.4byte	.LFB18
 3130 0094 48000000 		.4byte	.LFE18
 3131 0098 00000000 		.4byte	.LFB19
 3132 009c 1C000000 		.4byte	.LFE19
 3133 00a0 00000000 		.4byte	.LFB20
 3134 00a4 18000000 		.4byte	.LFE20
 3135 00a8 00000000 		.4byte	.LFB21
 3136 00ac 48000000 		.4byte	.LFE21
 3137 00b0 00000000 		.4byte	.LFB22
 3138 00b4 1C000000 		.4byte	.LFE22
 3139 00b8 00000000 		.4byte	.LFB23
 3140 00bc 18000000 		.4byte	.LFE23
 3141 00c0 00000000 		.4byte	.LFB24
 3142 00c4 1C000000 		.4byte	.LFE24
 3143 00c8 00000000 		.4byte	.LFB25
 3144 00cc 18000000 		.4byte	.LFE25
 3145 00d0 00000000 		.4byte	.LFB26
 3146 00d4 18000000 		.4byte	.LFE26
 3147 00d8 00000000 		.4byte	.LFB27
 3148 00dc 18000000 		.4byte	.LFE27
 3149 00e0 00000000 		.4byte	.LFB28
 3150 00e4 44000000 		.4byte	.LFE28
 3151 00e8 00000000 		.4byte	.LFB29
 3152 00ec 44000000 		.4byte	.LFE29
 3153 00f0 00000000 		.4byte	.LFB30
 3154 00f4 48000000 		.4byte	.LFE30
 3155 00f8 00000000 		.4byte	.LFB31
 3156 00fc 44000000 		.4byte	.LFE31
 3157 0100 00000000 		.4byte	.LFB32
 3158 0104 44000000 		.4byte	.LFE32
 3159 0108 00000000 		.4byte	.LFB33
 3160 010c 3C000000 		.4byte	.LFE33
 3161 0110 00000000 		.4byte	.LFB34
 3162 0114 20000000 		.4byte	.LFE34
 3163 0118 00000000 		.4byte	.LFB35
 3164 011c 18000000 		.4byte	.LFE35
 3165 0120 00000000 		.4byte	.LFB36
 3166 0124 14000000 		.4byte	.LFE36
 3167 0128 00000000 		.4byte	.LFB37
 3168 012c 14000000 		.4byte	.LFE37
 3169 0130 00000000 		.4byte	.LFB38
 3170 0134 18000000 		.4byte	.LFE38
 3171 0138 00000000 		.4byte	.LFB39
 3172 013c 18000000 		.4byte	.LFE39
 3173 0140 00000000 		.4byte	0
 3174 0144 00000000 		.4byte	0
 3175              		.section	.debug_line,"",%progbits
 3176              	.Ldebug_line0:
 3177 0000 75030000 		.section	.debug_str,"MS",%progbits,1
 3177      02004E00 
 3177      00000201 
 3177      FB0E0D00 
ARM GAS  C:\Users\Clayton\AppData\Local\Temp\ccxaoGNk.s 			page 81


 3177      01010101 
 3178              	.LASF40:
 3179 0000 636F756E 		.ascii	"count\000"
 3179      7400
 3180              	.LASF17:
 3181 0006 5369676E 		.ascii	"SignalGenerator_Start\000"
 3181      616C4765 
 3181      6E657261 
 3181      746F725F 
 3181      53746172 
 3182              	.LASF77:
 3183 001c 2E5C4765 		.ascii	".\\Generated_Source\\PSoC4\\SignalGenerator.c\000"
 3183      6E657261 
 3183      7465645F 
 3183      536F7572 
 3183      63655C50 
 3184              	.LASF75:
 3185 0047 5369676E 		.ascii	"SignalGenerator_SetInterrupt\000"
 3185      616C4765 
 3185      6E657261 
 3185      746F725F 
 3185      53657449 
 3186              	.LASF44:
 3187 0064 70657269 		.ascii	"period\000"
 3187      6F6400
 3188              	.LASF7:
 3189 006b 6C6F6E67 		.ascii	"long long unsigned int\000"
 3189      206C6F6E 
 3189      6720756E 
 3189      7369676E 
 3189      65642069 
 3190              	.LASF43:
 3191 0082 5369676E 		.ascii	"SignalGenerator_WritePeriod\000"
 3191      616C4765 
 3191      6E657261 
 3191      746F725F 
 3191      57726974 
 3192              	.LASF67:
 3193 009e 5369676E 		.ascii	"SignalGenerator_TriggerCommand\000"
 3193      616C4765 
 3193      6E657261 
 3193      746F725F 
 3193      54726967 
 3194              	.LASF24:
 3195 00bd 71644D6F 		.ascii	"qdMode\000"
 3195      646500
 3196              	.LASF74:
 3197 00c4 5369676E 		.ascii	"SignalGenerator_ClearInterrupt\000"
 3197      616C4765 
 3197      6E657261 
 3197      746F725F 
 3197      436C6561 
 3198              	.LASF6:
 3199 00e3 6C6F6E67 		.ascii	"long long int\000"
 3199      206C6F6E 
 3199      6720696E 
 3199      7400
ARM GAS  C:\Users\Clayton\AppData\Local\Temp\ccxaoGNk.s 			page 82


 3200              	.LASF0:
 3201 00f1 7369676E 		.ascii	"signed char\000"
 3201      65642063 
 3201      68617200 
 3202              	.LASF18:
 3203 00fd 5369676E 		.ascii	"SignalGenerator_Enable\000"
 3203      616C4765 
 3203      6E657261 
 3203      746F725F 
 3203      456E6162 
 3204              	.LASF25:
 3205 0114 5369676E 		.ascii	"SignalGenerator_SetPrescaler\000"
 3205      616C4765 
 3205      6E657261 
 3205      746F725F 
 3205      53657450 
 3206              	.LASF4:
 3207 0131 6C6F6E67 		.ascii	"long int\000"
 3207      20696E74 
 3207      00
 3208              	.LASF73:
 3209 013a 5369676E 		.ascii	"SignalGenerator_GetInterruptSource\000"
 3209      616C4765 
 3209      6E657261 
 3209      746F725F 
 3209      47657449 
 3210              	.LASF9:
 3211 015d 75696E74 		.ascii	"uint8\000"
 3211      3800
 3212              	.LASF27:
 3213 0163 5369676E 		.ascii	"SignalGenerator_SetOneShot\000"
 3213      616C4765 
 3213      6E657261 
 3213      746F725F 
 3213      5365744F 
 3214              	.LASF56:
 3215 017e 5369676E 		.ascii	"SignalGenerator_WriteCompareBuf\000"
 3215      616C4765 
 3215      6E657261 
 3215      746F725F 
 3215      57726974 
 3216              	.LASF12:
 3217 019e 646F7562 		.ascii	"double\000"
 3217      6C6500
 3218              	.LASF59:
 3219 01a5 5369676E 		.ascii	"SignalGenerator_ReadCapture\000"
 3219      616C4765 
 3219      6E657261 
 3219      746F725F 
 3219      52656164 
 3220              	.LASF10:
 3221 01c1 75696E74 		.ascii	"uint32\000"
 3221      333200
 3222              	.LASF62:
 3223 01c8 74726967 		.ascii	"triggerMode\000"
 3223      6765724D 
 3223      6F646500 
ARM GAS  C:\Users\Clayton\AppData\Local\Temp\ccxaoGNk.s 			page 83


 3224              	.LASF69:
 3225 01d4 5369676E 		.ascii	"SignalGenerator_ReadStatus\000"
 3225      616C4765 
 3225      6E657261 
 3225      746F725F 
 3225      52656164 
 3226              	.LASF38:
 3227 01ef 6D61736B 		.ascii	"mask\000"
 3227      00
 3228              	.LASF36:
 3229 01f4 64656164 		.ascii	"deadTime\000"
 3229      54696D65 
 3229      00
 3230              	.LASF8:
 3231 01fd 756E7369 		.ascii	"unsigned int\000"
 3231      676E6564 
 3231      20696E74 
 3231      00
 3232              	.LASF33:
 3233 020a 5369676E 		.ascii	"SignalGenerator_SetPWMStopOnKill\000"
 3233      616C4765 
 3233      6E657261 
 3233      746F725F 
 3233      53657450 
 3234              	.LASF68:
 3235 022b 636F6D6D 		.ascii	"command\000"
 3235      616E6400 
 3236              	.LASF5:
 3237 0233 6C6F6E67 		.ascii	"long unsigned int\000"
 3237      20756E73 
 3237      69676E65 
 3237      6420696E 
 3237      7400
 3238              	.LASF30:
 3239 0245 6D6F6465 		.ascii	"modeMask\000"
 3239      4D61736B 
 3239      00
 3240              	.LASF78:
 3241 024e 433A5C55 		.ascii	"C:\\Users\\Clayton\\Documents\\Mars Rover\\MasterCo"
 3241      73657273 
 3241      5C436C61 
 3241      79746F6E 
 3241      5C446F63 
 3242 027c 6E74726F 		.ascii	"ntrollerBoard\\BYURover2015\\BYURover2015MainBoardS"
 3242      6C6C6572 
 3242      426F6172 
 3242      645C4259 
 3242      55526F76 
 3243 02ad 4D2E6379 		.ascii	"M.cydsn\000"
 3243      64736E00 
 3244              	.LASF55:
 3245 02b5 5369676E 		.ascii	"SignalGenerator_ReadCompare\000"
 3245      616C4765 
 3245      6E657261 
 3245      746F725F 
 3245      52656164 
 3246              	.LASF3:
ARM GAS  C:\Users\Clayton\AppData\Local\Temp\ccxaoGNk.s 			page 84


 3247 02d1 73686F72 		.ascii	"short unsigned int\000"
 3247      7420756E 
 3247      7369676E 
 3247      65642069 
 3247      6E7400
 3248              	.LASF49:
 3249 02e4 5369676E 		.ascii	"SignalGenerator_WritePeriodBuf\000"
 3249      616C4765 
 3249      6E657261 
 3249      746F725F 
 3249      57726974 
 3250              	.LASF19:
 3251 0303 5369676E 		.ascii	"SignalGenerator_Stop\000"
 3251      616C4765 
 3251      6E657261 
 3251      746F725F 
 3251      53746F70 
 3252              	.LASF28:
 3253 0318 6F6E6553 		.ascii	"oneShotEnable\000"
 3253      686F7445 
 3253      6E61626C 
 3253      6500
 3254              	.LASF2:
 3255 0326 73686F72 		.ascii	"short int\000"
 3255      7420696E 
 3255      7400
 3256              	.LASF45:
 3257 0330 5369676E 		.ascii	"SignalGenerator_ReadCounter\000"
 3257      616C4765 
 3257      6E657261 
 3257      746F725F 
 3257      52656164 
 3258              	.LASF14:
 3259 034c 72656733 		.ascii	"reg32\000"
 3259      3200
 3260              	.LASF46:
 3261 0352 5369676E 		.ascii	"SignalGenerator_ReadPeriod\000"
 3261      616C4765 
 3261      6E657261 
 3261      746F725F 
 3261      52656164 
 3262              	.LASF51:
 3263 036d 5369676E 		.ascii	"SignalGenerator_ReadPeriodBuf\000"
 3263      616C4765 
 3263      6E657261 
 3263      746F725F 
 3263      52656164 
 3264              	.LASF79:
 3265 038b 5369676E 		.ascii	"SignalGenerator_initVar\000"
 3265      616C4765 
 3265      6E657261 
 3265      746F725F 
 3265      696E6974 
 3266              	.LASF15:
 3267 03a3 73697A65 		.ascii	"sizetype\000"
 3267      74797065 
 3267      00
ARM GAS  C:\Users\Clayton\AppData\Local\Temp\ccxaoGNk.s 			page 85


 3268              	.LASF60:
 3269 03ac 5369676E 		.ascii	"SignalGenerator_ReadCaptureBuf\000"
 3269      616C4765 
 3269      6E657261 
 3269      746F725F 
 3269      52656164 
 3270              	.LASF32:
 3271 03cb 73796E63 		.ascii	"syncKillEnable\000"
 3271      4B696C6C 
 3271      456E6162 
 3271      6C6500
 3272              	.LASF54:
 3273 03da 636F6D70 		.ascii	"compare\000"
 3273      61726500 
 3274              	.LASF52:
 3275 03e2 5369676E 		.ascii	"SignalGenerator_SetPeriodSwap\000"
 3275      616C4765 
 3275      6E657261 
 3275      746F725F 
 3275      53657450 
 3276              	.LASF72:
 3277 0400 5369676E 		.ascii	"SignalGenerator_GetInterruptSourceMasked\000"
 3277      616C4765 
 3277      6E657261 
 3277      746F725F 
 3277      47657449 
 3278              	.LASF11:
 3279 0429 666C6F61 		.ascii	"float\000"
 3279      7400
 3280              	.LASF26:
 3281 042f 70726573 		.ascii	"prescaler\000"
 3281      63616C65 
 3281      7200
 3282              	.LASF66:
 3283 0439 5369676E 		.ascii	"SignalGenerator_SetCountMode\000"
 3283      616C4765 
 3283      6E657261 
 3283      746F725F 
 3283      53657443 
 3284              	.LASF41:
 3285 0456 5369676E 		.ascii	"SignalGenerator_SetCounterMode\000"
 3285      616C4765 
 3285      6E657261 
 3285      746F725F 
 3285      53657443 
 3286              	.LASF1:
 3287 0475 756E7369 		.ascii	"unsigned char\000"
 3287      676E6564 
 3287      20636861 
 3287      7200
 3288              	.LASF65:
 3289 0483 5369676E 		.ascii	"SignalGenerator_SetStopMode\000"
 3289      616C4765 
 3289      6E657261 
 3289      746F725F 
 3289      53657453 
 3290              	.LASF29:
ARM GAS  C:\Users\Clayton\AppData\Local\Temp\ccxaoGNk.s 			page 86


 3291 049f 5369676E 		.ascii	"SignalGenerator_SetPWMMode\000"
 3291      616C4765 
 3291      6E657261 
 3291      746F725F 
 3291      53657450 
 3292              	.LASF34:
 3293 04ba 73746F70 		.ascii	"stopOnKillEnable\000"
 3293      4F6E4B69 
 3293      6C6C456E 
 3293      61626C65 
 3293      00
 3294              	.LASF76:
 3295 04cb 474E5520 		.ascii	"GNU C 4.8.4 20140526 (release) [ARM/embedded-4_8-br"
 3295      4320342E 
 3295      382E3420 
 3295      32303134 
 3295      30353236 
 3296 04fe 616E6368 		.ascii	"anch revision 211358] -mcpu=cortex-m0 -mthumb -g -O"
 3296      20726576 
 3296      6973696F 
 3296      6E203231 
 3296      31333538 
 3297 0531 30202D73 		.ascii	"0 -std=gnu99 -ffunction-sections\000"
 3297      74643D67 
 3297      6E753939 
 3297      202D6666 
 3297      756E6374 
 3298              	.LASF71:
 3299 0552 696E7465 		.ascii	"interruptMask\000"
 3299      72727570 
 3299      744D6173 
 3299      6B00
 3300              	.LASF22:
 3301 0560 5369676E 		.ascii	"SignalGenerator_SetQDMode\000"
 3301      616C4765 
 3301      6E657261 
 3301      746F725F 
 3301      53657451 
 3302              	.LASF64:
 3303 057a 5369676E 		.ascii	"SignalGenerator_SetStartMode\000"
 3303      616C4765 
 3303      6E657261 
 3303      746F725F 
 3303      53657453 
 3304              	.LASF70:
 3305 0597 5369676E 		.ascii	"SignalGenerator_SetInterruptMode\000"
 3305      616C4765 
 3305      6E657261 
 3305      746F725F 
 3305      53657449 
 3306              	.LASF53:
 3307 05b8 5369676E 		.ascii	"SignalGenerator_WriteCompare\000"
 3307      616C4765 
 3307      6E657261 
 3307      746F725F 
 3307      57726974 
 3308              	.LASF63:
ARM GAS  C:\Users\Clayton\AppData\Local\Temp\ccxaoGNk.s 			page 87


 3309 05d5 5369676E 		.ascii	"SignalGenerator_SetReloadMode\000"
 3309      616C4765 
 3309      6E657261 
 3309      746F725F 
 3309      53657452 
 3310              	.LASF13:
 3311 05f3 63686172 		.ascii	"char\000"
 3311      00
 3312              	.LASF23:
 3313 05f8 6D6F6465 		.ascii	"mode\000"
 3313      00
 3314              	.LASF42:
 3315 05fd 636F756E 		.ascii	"counterMode\000"
 3315      7465724D 
 3315      6F646500 
 3316              	.LASF16:
 3317 0609 5369676E 		.ascii	"SignalGenerator_Init\000"
 3317      616C4765 
 3317      6E657261 
 3317      746F725F 
 3317      496E6974 
 3318              	.LASF57:
 3319 061e 636F6D70 		.ascii	"compareBuf\000"
 3319      61726542 
 3319      756600
 3320              	.LASF39:
 3321 0629 5369676E 		.ascii	"SignalGenerator_WriteCounter\000"
 3321      616C4765 
 3321      6E657261 
 3321      746F725F 
 3321      57726974 
 3322              	.LASF20:
 3323 0646 656E6162 		.ascii	"enableInterrupts\000"
 3323      6C65496E 
 3323      74657272 
 3323      75707473 
 3323      00
 3324              	.LASF58:
 3325 0657 5369676E 		.ascii	"SignalGenerator_ReadCompareBuf\000"
 3325      616C4765 
 3325      6E657261 
 3325      746F725F 
 3325      52656164 
 3326              	.LASF47:
 3327 0676 5369676E 		.ascii	"SignalGenerator_SetCompareSwap\000"
 3327      616C4765 
 3327      6E657261 
 3327      746F725F 
 3327      53657443 
 3328              	.LASF21:
 3329 0695 5369676E 		.ascii	"SignalGenerator_SetMode\000"
 3329      616C4765 
 3329      6E657261 
 3329      746F725F 
 3329      5365744D 
 3330              	.LASF48:
 3331 06ad 73776170 		.ascii	"swapEnable\000"
ARM GAS  C:\Users\Clayton\AppData\Local\Temp\ccxaoGNk.s 			page 88


 3331      456E6162 
 3331      6C6500
 3332              	.LASF61:
 3333 06b8 5369676E 		.ascii	"SignalGenerator_SetCaptureMode\000"
 3333      616C4765 
 3333      6E657261 
 3333      746F725F 
 3333      53657443 
 3334              	.LASF50:
 3335 06d7 70657269 		.ascii	"periodBuf\000"
 3335      6F644275 
 3335      6600
 3336              	.LASF35:
 3337 06e1 5369676E 		.ascii	"SignalGenerator_SetPWMDeadTime\000"
 3337      616C4765 
 3337      6E657261 
 3337      746F725F 
 3337      53657450 
 3338              	.LASF31:
 3339 0700 5369676E 		.ascii	"SignalGenerator_SetPWMSyncKill\000"
 3339      616C4765 
 3339      6E657261 
 3339      746F725F 
 3339      53657450 
 3340              	.LASF37:
 3341 071f 5369676E 		.ascii	"SignalGenerator_SetPWMInvert\000"
 3341      616C4765 
 3341      6E657261 
 3341      746F725F 
 3341      53657450 
 3342              		.ident	"GCC: (GNU Tools for ARM Embedded Processors) 4.8.4 20140526 (release) [ARM/embedded-4_8-br
