ARM GAS  C:\Users\Clayton\AppData\Local\Temp\ccUTJmK8.s 			page 1


   1              		.cpu cortex-m0
   2              		.fpu softvfp
   3              		.eabi_attribute 20, 1
   4              		.eabi_attribute 21, 1
   5              		.eabi_attribute 23, 3
   6              		.eabi_attribute 24, 1
   7              		.eabi_attribute 25, 1
   8              		.eabi_attribute 26, 1
   9              		.eabi_attribute 30, 6
  10              		.eabi_attribute 34, 0
  11              		.eabi_attribute 18, 4
  12              		.code	16
  13              		.file	"tinyprintf_1_printf.c"
  14              		.text
  15              	.Ltext0:
  16              		.cfi_sections	.debug_frame
  17              		.bss
  18              		.align	2
  19              	stdout_putf:
  20 0000 00000000 		.space	4
  21              		.align	2
  22              	stdout_putp:
  23 0004 00000000 		.space	4
  24              		.global	__aeabi_uidiv
  25              		.global	__aeabi_uidivmod
  26              		.section	.text.ui2a,"ax",%progbits
  27              		.align	2
  28              		.code	16
  29              		.thumb_func
  30              		.type	ui2a, %function
  31              	ui2a:
  32              	.LFB0:
  33              		.file 1 ".\\Generated_Source\\PSoC4\\tinyprintf_1_printf.c"
   1:.\Generated_Source\PSoC4/tinyprintf_1_printf.c **** /*
   2:.\Generated_Source\PSoC4/tinyprintf_1_printf.c ****  * Copyright (c) 2004,2012 Kustaa Nyholm / SpareTimeLabs
   3:.\Generated_Source\PSoC4/tinyprintf_1_printf.c ****  *
   4:.\Generated_Source\PSoC4/tinyprintf_1_printf.c ****  * All rights reserved.
   5:.\Generated_Source\PSoC4/tinyprintf_1_printf.c ****  *
   6:.\Generated_Source\PSoC4/tinyprintf_1_printf.c ****  * Redistribution and use in source and binary forms, with or without modification, 
   7:.\Generated_Source\PSoC4/tinyprintf_1_printf.c ****  * are permitted provided that the following conditions are met:
   8:.\Generated_Source\PSoC4/tinyprintf_1_printf.c ****  *
   9:.\Generated_Source\PSoC4/tinyprintf_1_printf.c ****  * Redistributions of source code must retain the above copyright notice, this list 
  10:.\Generated_Source\PSoC4/tinyprintf_1_printf.c ****  * of conditions and the following disclaimer.
  11:.\Generated_Source\PSoC4/tinyprintf_1_printf.c ****  * 
  12:.\Generated_Source\PSoC4/tinyprintf_1_printf.c ****  * Redistributions in binary form must reproduce the above copyright notice, this 
  13:.\Generated_Source\PSoC4/tinyprintf_1_printf.c ****  * list of conditions and the following disclaimer in the documentation and/or other
  14:.\Generated_Source\PSoC4/tinyprintf_1_printf.c ****  * materials provided with the distribution.
  15:.\Generated_Source\PSoC4/tinyprintf_1_printf.c ****  *  
  16:.\Generated_Source\PSoC4/tinyprintf_1_printf.c ****  * Neither the name of the Kustaa Nyholm or SpareTimeLabs nor the names of its 
  17:.\Generated_Source\PSoC4/tinyprintf_1_printf.c ****  * contributors may be used to endorse or promote products derived from this software 
  18:.\Generated_Source\PSoC4/tinyprintf_1_printf.c ****  * without specific prior written permission.
  19:.\Generated_Source\PSoC4/tinyprintf_1_printf.c ****  * 
  20:.\Generated_Source\PSoC4/tinyprintf_1_printf.c ****  * THIS SOFTWARE IS PROVIDED BY THE COPYRIGHT HOLDERS AND CONTRIBUTORS "AS IS" 
  21:.\Generated_Source\PSoC4/tinyprintf_1_printf.c ****  * AND ANY EXPRESS OR IMPLIED WARRANTIES, INCLUDING, BUT NOT LIMITED TO, THE IMPLIED 
  22:.\Generated_Source\PSoC4/tinyprintf_1_printf.c ****  * WARRANTIES OF MERCHANTABILITY AND FITNESS FOR A PARTICULAR PURPOSE ARE DISCLAIMED. 
  23:.\Generated_Source\PSoC4/tinyprintf_1_printf.c ****  * IN NO EVENT SHALL THE COPYRIGHT HOLDER OR CONTRIBUTORS BE LIABLE FOR ANY DIRECT, 
  24:.\Generated_Source\PSoC4/tinyprintf_1_printf.c ****  * INDIRECT, INCIDENTAL, SPECIAL, EXEMPLARY, OR CONSEQUENTIAL DAMAGES (INCLUDING, BUT 
ARM GAS  C:\Users\Clayton\AppData\Local\Temp\ccUTJmK8.s 			page 2


  25:.\Generated_Source\PSoC4/tinyprintf_1_printf.c ****  * NOT LIMITED TO, PROCUREMENT OF SUBSTITUTE GOODS OR SERVICES; LOSS OF USE, DATA, 
  26:.\Generated_Source\PSoC4/tinyprintf_1_printf.c ****  * OR PROFITS; OR BUSINESS INTERRUPTION) HOWEVER CAUSED AND ON ANY THEORY OF LIABILITY, 
  27:.\Generated_Source\PSoC4/tinyprintf_1_printf.c ****  * WHETHER IN CONTRACT, STRICT LIABILITY, OR TORT (INCLUDING NEGLIGENCE OR OTHERWISE) 
  28:.\Generated_Source\PSoC4/tinyprintf_1_printf.c ****  * ARISING IN ANY WAY OUT OF THE USE OF THIS SOFTWARE, EVEN IF ADVISED OF THE POSSIBILITY
  29:.\Generated_Source\PSoC4/tinyprintf_1_printf.c ****  * OF SUCH DAMAGE.
  30:.\Generated_Source\PSoC4/tinyprintf_1_printf.c ****  */
  31:.\Generated_Source\PSoC4/tinyprintf_1_printf.c **** 
  32:.\Generated_Source\PSoC4/tinyprintf_1_printf.c **** #include "tinyprintf_1_printf.h"
  33:.\Generated_Source\PSoC4/tinyprintf_1_printf.c **** 
  34:.\Generated_Source\PSoC4/tinyprintf_1_printf.c **** typedef void (*putcf) (void*,char);
  35:.\Generated_Source\PSoC4/tinyprintf_1_printf.c **** static putcf stdout_putf;
  36:.\Generated_Source\PSoC4/tinyprintf_1_printf.c **** static void* stdout_putp;
  37:.\Generated_Source\PSoC4/tinyprintf_1_printf.c **** 
  38:.\Generated_Source\PSoC4/tinyprintf_1_printf.c **** 
  39:.\Generated_Source\PSoC4/tinyprintf_1_printf.c **** #ifdef PRINTF_LONG_SUPPORT
  40:.\Generated_Source\PSoC4/tinyprintf_1_printf.c **** 
  41:.\Generated_Source\PSoC4/tinyprintf_1_printf.c **** static void uli2a(unsigned long int num, unsigned int base, int uc,char * bf)
  42:.\Generated_Source\PSoC4/tinyprintf_1_printf.c **** 	{
  43:.\Generated_Source\PSoC4/tinyprintf_1_printf.c **** 	int n=0;
  44:.\Generated_Source\PSoC4/tinyprintf_1_printf.c **** 	unsigned int d=1;
  45:.\Generated_Source\PSoC4/tinyprintf_1_printf.c **** 	while (num/d >= base)
  46:.\Generated_Source\PSoC4/tinyprintf_1_printf.c **** 		d*=base;		 
  47:.\Generated_Source\PSoC4/tinyprintf_1_printf.c **** 	while (d!=0) {
  48:.\Generated_Source\PSoC4/tinyprintf_1_printf.c **** 		int dgt = num / d;
  49:.\Generated_Source\PSoC4/tinyprintf_1_printf.c **** 		num%=d;
  50:.\Generated_Source\PSoC4/tinyprintf_1_printf.c **** 		d/=base;
  51:.\Generated_Source\PSoC4/tinyprintf_1_printf.c **** 		if (n || dgt>0|| d==0) {
  52:.\Generated_Source\PSoC4/tinyprintf_1_printf.c **** 			*bf++ = dgt+(dgt<10 ? '0' : (uc ? 'A' : 'a')-10);
  53:.\Generated_Source\PSoC4/tinyprintf_1_printf.c **** 			++n;
  54:.\Generated_Source\PSoC4/tinyprintf_1_printf.c **** 			}
  55:.\Generated_Source\PSoC4/tinyprintf_1_printf.c **** 		}
  56:.\Generated_Source\PSoC4/tinyprintf_1_printf.c **** 	*bf=0;
  57:.\Generated_Source\PSoC4/tinyprintf_1_printf.c **** 	}
  58:.\Generated_Source\PSoC4/tinyprintf_1_printf.c **** 
  59:.\Generated_Source\PSoC4/tinyprintf_1_printf.c **** static void li2a (long num, char * bf)
  60:.\Generated_Source\PSoC4/tinyprintf_1_printf.c **** 	{
  61:.\Generated_Source\PSoC4/tinyprintf_1_printf.c **** 	if (num<0) {
  62:.\Generated_Source\PSoC4/tinyprintf_1_printf.c **** 		num=-num;
  63:.\Generated_Source\PSoC4/tinyprintf_1_printf.c **** 		*bf++ = '-';
  64:.\Generated_Source\PSoC4/tinyprintf_1_printf.c **** 		}
  65:.\Generated_Source\PSoC4/tinyprintf_1_printf.c **** 	uli2a(num,10,0,bf);
  66:.\Generated_Source\PSoC4/tinyprintf_1_printf.c **** 	}
  67:.\Generated_Source\PSoC4/tinyprintf_1_printf.c **** 
  68:.\Generated_Source\PSoC4/tinyprintf_1_printf.c **** #endif
  69:.\Generated_Source\PSoC4/tinyprintf_1_printf.c **** 
  70:.\Generated_Source\PSoC4/tinyprintf_1_printf.c **** static void ui2a(unsigned int num, unsigned int base, int uc,char * bf)
  71:.\Generated_Source\PSoC4/tinyprintf_1_printf.c **** 	{
  34              		.loc 1 71 0
  35              		.cfi_startproc
  36 0000 80B5     		push	{r7, lr}
  37              		.cfi_def_cfa_offset 8
  38              		.cfi_offset 7, -8
  39              		.cfi_offset 14, -4
  40 0002 88B0     		sub	sp, sp, #32
  41              		.cfi_def_cfa_offset 40
  42 0004 00AF     		add	r7, sp, #0
  43              		.cfi_def_cfa_register 7
ARM GAS  C:\Users\Clayton\AppData\Local\Temp\ccUTJmK8.s 			page 3


  44 0006 F860     		str	r0, [r7, #12]
  45 0008 B960     		str	r1, [r7, #8]
  46 000a 7A60     		str	r2, [r7, #4]
  47 000c 3B60     		str	r3, [r7]
  72:.\Generated_Source\PSoC4/tinyprintf_1_printf.c **** 	int n=0;
  48              		.loc 1 72 0
  49 000e 0023     		mov	r3, #0
  50 0010 FB61     		str	r3, [r7, #28]
  73:.\Generated_Source\PSoC4/tinyprintf_1_printf.c **** 	unsigned int d=1;
  51              		.loc 1 73 0
  52 0012 0123     		mov	r3, #1
  53 0014 BB61     		str	r3, [r7, #24]
  74:.\Generated_Source\PSoC4/tinyprintf_1_printf.c **** 	while (num/d >= base)
  54              		.loc 1 74 0
  55 0016 03E0     		b	.L2
  56              	.L3:
  75:.\Generated_Source\PSoC4/tinyprintf_1_printf.c **** 		d*=base;		
  57              		.loc 1 75 0
  58 0018 BB69     		ldr	r3, [r7, #24]
  59 001a BA68     		ldr	r2, [r7, #8]
  60 001c 5343     		mul	r3, r2
  61 001e BB61     		str	r3, [r7, #24]
  62              	.L2:
  74:.\Generated_Source\PSoC4/tinyprintf_1_printf.c **** 	while (num/d >= base)
  63              		.loc 1 74 0 discriminator 1
  64 0020 F868     		ldr	r0, [r7, #12]
  65 0022 B969     		ldr	r1, [r7, #24]
  66 0024 FFF7FEFF 		bl	__aeabi_uidiv
  67 0028 031C     		mov	r3, r0
  68 002a 1A1C     		mov	r2, r3
  69 002c BB68     		ldr	r3, [r7, #8]
  70 002e 9A42     		cmp	r2, r3
  71 0030 F2D2     		bcs	.L3
  76:.\Generated_Source\PSoC4/tinyprintf_1_printf.c **** 	while (d!=0) {
  72              		.loc 1 76 0
  73 0032 31E0     		b	.L4
  74              	.L10:
  75              	.LBB2:
  77:.\Generated_Source\PSoC4/tinyprintf_1_printf.c **** 		int dgt = num / d;
  76              		.loc 1 77 0
  77 0034 F868     		ldr	r0, [r7, #12]
  78 0036 B969     		ldr	r1, [r7, #24]
  79 0038 FFF7FEFF 		bl	__aeabi_uidiv
  80 003c 031C     		mov	r3, r0
  81 003e 7B61     		str	r3, [r7, #20]
  78:.\Generated_Source\PSoC4/tinyprintf_1_printf.c **** 		num%= d;
  82              		.loc 1 78 0
  83 0040 FB68     		ldr	r3, [r7, #12]
  84 0042 181C     		mov	r0, r3
  85 0044 B969     		ldr	r1, [r7, #24]
  86 0046 FFF7FEFF 		bl	__aeabi_uidivmod
  87 004a 0B1C     		mov	r3, r1
  88 004c FB60     		str	r3, [r7, #12]
  79:.\Generated_Source\PSoC4/tinyprintf_1_printf.c **** 		d/=base;
  89              		.loc 1 79 0
  90 004e B869     		ldr	r0, [r7, #24]
  91 0050 B968     		ldr	r1, [r7, #8]
ARM GAS  C:\Users\Clayton\AppData\Local\Temp\ccUTJmK8.s 			page 4


  92 0052 FFF7FEFF 		bl	__aeabi_uidiv
  93 0056 031C     		mov	r3, r0
  94 0058 BB61     		str	r3, [r7, #24]
  80:.\Generated_Source\PSoC4/tinyprintf_1_printf.c **** 		if (n || dgt>0 || d==0) {
  95              		.loc 1 80 0
  96 005a FB69     		ldr	r3, [r7, #28]
  97 005c 002B     		cmp	r3, #0
  98 005e 05D1     		bne	.L5
  99              		.loc 1 80 0 is_stmt 0 discriminator 1
 100 0060 7B69     		ldr	r3, [r7, #20]
 101 0062 002B     		cmp	r3, #0
 102 0064 02DC     		bgt	.L5
 103 0066 BB69     		ldr	r3, [r7, #24]
 104 0068 002B     		cmp	r3, #0
 105 006a 15D1     		bne	.L4
 106              	.L5:
  81:.\Generated_Source\PSoC4/tinyprintf_1_printf.c **** 			*bf++ = dgt+(dgt<10 ? '0' : (uc ? 'A' : 'a')-10);
 107              		.loc 1 81 0 is_stmt 1
 108 006c 3B68     		ldr	r3, [r7]
 109 006e 5A1C     		add	r2, r3, #1
 110 0070 3A60     		str	r2, [r7]
 111 0072 7A69     		ldr	r2, [r7, #20]
 112 0074 092A     		cmp	r2, #9
 113 0076 06DD     		ble	.L6
 114              		.loc 1 81 0 is_stmt 0 discriminator 1
 115 0078 7A68     		ldr	r2, [r7, #4]
 116 007a 002A     		cmp	r2, #0
 117 007c 01D0     		beq	.L7
 118              		.loc 1 81 0 discriminator 3
 119 007e 3722     		mov	r2, #55
 120 0080 02E0     		b	.L9
 121              	.L7:
 122              		.loc 1 81 0 discriminator 4
 123 0082 5722     		mov	r2, #87
 124 0084 00E0     		b	.L9
 125              	.L6:
 126              		.loc 1 81 0 discriminator 2
 127 0086 3022     		mov	r2, #48
 128              	.L9:
 129              		.loc 1 81 0 discriminator 5
 130 0088 7969     		ldr	r1, [r7, #20]
 131 008a C9B2     		uxtb	r1, r1
 132 008c 5218     		add	r2, r2, r1
 133 008e D2B2     		uxtb	r2, r2
 134 0090 1A70     		strb	r2, [r3]
  82:.\Generated_Source\PSoC4/tinyprintf_1_printf.c **** 			++n;
 135              		.loc 1 82 0 is_stmt 1 discriminator 5
 136 0092 FB69     		ldr	r3, [r7, #28]
 137 0094 0133     		add	r3, r3, #1
 138 0096 FB61     		str	r3, [r7, #28]
 139              	.L4:
 140              	.LBE2:
  76:.\Generated_Source\PSoC4/tinyprintf_1_printf.c **** 	while (d!=0) {
 141              		.loc 1 76 0 discriminator 1
 142 0098 BB69     		ldr	r3, [r7, #24]
 143 009a 002B     		cmp	r3, #0
 144 009c CAD1     		bne	.L10
ARM GAS  C:\Users\Clayton\AppData\Local\Temp\ccUTJmK8.s 			page 5


  83:.\Generated_Source\PSoC4/tinyprintf_1_printf.c **** 			}
  84:.\Generated_Source\PSoC4/tinyprintf_1_printf.c **** 		}
  85:.\Generated_Source\PSoC4/tinyprintf_1_printf.c **** 	*bf=0;
 145              		.loc 1 85 0
 146 009e 3B68     		ldr	r3, [r7]
 147 00a0 0022     		mov	r2, #0
 148 00a2 1A70     		strb	r2, [r3]
  86:.\Generated_Source\PSoC4/tinyprintf_1_printf.c **** 	}
 149              		.loc 1 86 0
 150 00a4 BD46     		mov	sp, r7
 151 00a6 08B0     		add	sp, sp, #32
 152              		@ sp needed
 153 00a8 80BD     		pop	{r7, pc}
 154              		.cfi_endproc
 155              	.LFE0:
 156              		.size	ui2a, .-ui2a
 157 00aa C046     		.section	.text.i2a,"ax",%progbits
 158              		.align	2
 159              		.code	16
 160              		.thumb_func
 161              		.type	i2a, %function
 162              	i2a:
 163              	.LFB1:
  87:.\Generated_Source\PSoC4/tinyprintf_1_printf.c **** 
  88:.\Generated_Source\PSoC4/tinyprintf_1_printf.c **** static void i2a (int num, char * bf)
  89:.\Generated_Source\PSoC4/tinyprintf_1_printf.c **** 	{
 164              		.loc 1 89 0
 165              		.cfi_startproc
 166 0000 80B5     		push	{r7, lr}
 167              		.cfi_def_cfa_offset 8
 168              		.cfi_offset 7, -8
 169              		.cfi_offset 14, -4
 170 0002 82B0     		sub	sp, sp, #8
 171              		.cfi_def_cfa_offset 16
 172 0004 00AF     		add	r7, sp, #0
 173              		.cfi_def_cfa_register 7
 174 0006 7860     		str	r0, [r7, #4]
 175 0008 3960     		str	r1, [r7]
  90:.\Generated_Source\PSoC4/tinyprintf_1_printf.c **** 	if (num<0) {
 176              		.loc 1 90 0
 177 000a 7B68     		ldr	r3, [r7, #4]
 178 000c 002B     		cmp	r3, #0
 179 000e 07DA     		bge	.L12
  91:.\Generated_Source\PSoC4/tinyprintf_1_printf.c **** 		num=-num;
 180              		.loc 1 91 0
 181 0010 7B68     		ldr	r3, [r7, #4]
 182 0012 5B42     		neg	r3, r3
 183 0014 7B60     		str	r3, [r7, #4]
  92:.\Generated_Source\PSoC4/tinyprintf_1_printf.c **** 		*bf++ = '-';
 184              		.loc 1 92 0
 185 0016 3B68     		ldr	r3, [r7]
 186 0018 5A1C     		add	r2, r3, #1
 187 001a 3A60     		str	r2, [r7]
 188 001c 2D22     		mov	r2, #45
 189 001e 1A70     		strb	r2, [r3]
 190              	.L12:
  93:.\Generated_Source\PSoC4/tinyprintf_1_printf.c **** 		}
ARM GAS  C:\Users\Clayton\AppData\Local\Temp\ccUTJmK8.s 			page 6


  94:.\Generated_Source\PSoC4/tinyprintf_1_printf.c **** 	ui2a(num,10,0,bf);
 191              		.loc 1 94 0
 192 0020 7A68     		ldr	r2, [r7, #4]
 193 0022 3B68     		ldr	r3, [r7]
 194 0024 101C     		mov	r0, r2
 195 0026 0A21     		mov	r1, #10
 196 0028 0022     		mov	r2, #0
 197 002a FFF7FEFF 		bl	ui2a
  95:.\Generated_Source\PSoC4/tinyprintf_1_printf.c **** 	}
 198              		.loc 1 95 0
 199 002e BD46     		mov	sp, r7
 200 0030 02B0     		add	sp, sp, #8
 201              		@ sp needed
 202 0032 80BD     		pop	{r7, pc}
 203              		.cfi_endproc
 204              	.LFE1:
 205              		.size	i2a, .-i2a
 206              		.section	.text.a2d,"ax",%progbits
 207              		.align	2
 208              		.code	16
 209              		.thumb_func
 210              		.type	a2d, %function
 211              	a2d:
 212              	.LFB2:
  96:.\Generated_Source\PSoC4/tinyprintf_1_printf.c **** 
  97:.\Generated_Source\PSoC4/tinyprintf_1_printf.c **** static int a2d(char ch)
  98:.\Generated_Source\PSoC4/tinyprintf_1_printf.c **** 	{
 213              		.loc 1 98 0
 214              		.cfi_startproc
 215 0000 80B5     		push	{r7, lr}
 216              		.cfi_def_cfa_offset 8
 217              		.cfi_offset 7, -8
 218              		.cfi_offset 14, -4
 219 0002 82B0     		sub	sp, sp, #8
 220              		.cfi_def_cfa_offset 16
 221 0004 00AF     		add	r7, sp, #0
 222              		.cfi_def_cfa_register 7
 223 0006 021C     		mov	r2, r0
 224 0008 FB1D     		add	r3, r7, #7
 225 000a 1A70     		strb	r2, [r3]
  99:.\Generated_Source\PSoC4/tinyprintf_1_printf.c **** 	if (ch>='0' && ch<='9') 
 226              		.loc 1 99 0
 227 000c FB1D     		add	r3, r7, #7
 228 000e 1B78     		ldrb	r3, [r3]
 229 0010 2F2B     		cmp	r3, #47
 230 0012 07D9     		bls	.L14
 231              		.loc 1 99 0 is_stmt 0 discriminator 1
 232 0014 FB1D     		add	r3, r7, #7
 233 0016 1B78     		ldrb	r3, [r3]
 234 0018 392B     		cmp	r3, #57
 235 001a 03D8     		bhi	.L14
 100:.\Generated_Source\PSoC4/tinyprintf_1_printf.c **** 		return ch-'0';
 236              		.loc 1 100 0 is_stmt 1
 237 001c FB1D     		add	r3, r7, #7
 238 001e 1B78     		ldrb	r3, [r3]
 239 0020 303B     		sub	r3, r3, #48
 240 0022 19E0     		b	.L15
ARM GAS  C:\Users\Clayton\AppData\Local\Temp\ccUTJmK8.s 			page 7


 241              	.L14:
 101:.\Generated_Source\PSoC4/tinyprintf_1_printf.c **** 	else if (ch>='a' && ch<='f')
 242              		.loc 1 101 0
 243 0024 FB1D     		add	r3, r7, #7
 244 0026 1B78     		ldrb	r3, [r3]
 245 0028 602B     		cmp	r3, #96
 246 002a 07D9     		bls	.L16
 247              		.loc 1 101 0 is_stmt 0 discriminator 1
 248 002c FB1D     		add	r3, r7, #7
 249 002e 1B78     		ldrb	r3, [r3]
 250 0030 662B     		cmp	r3, #102
 251 0032 03D8     		bhi	.L16
 102:.\Generated_Source\PSoC4/tinyprintf_1_printf.c **** 		return ch-'a'+10;
 252              		.loc 1 102 0 is_stmt 1
 253 0034 FB1D     		add	r3, r7, #7
 254 0036 1B78     		ldrb	r3, [r3]
 255 0038 573B     		sub	r3, r3, #87
 256 003a 0DE0     		b	.L15
 257              	.L16:
 103:.\Generated_Source\PSoC4/tinyprintf_1_printf.c **** 	else if (ch>='A' && ch<='F')
 258              		.loc 1 103 0
 259 003c FB1D     		add	r3, r7, #7
 260 003e 1B78     		ldrb	r3, [r3]
 261 0040 402B     		cmp	r3, #64
 262 0042 07D9     		bls	.L17
 263              		.loc 1 103 0 is_stmt 0 discriminator 1
 264 0044 FB1D     		add	r3, r7, #7
 265 0046 1B78     		ldrb	r3, [r3]
 266 0048 462B     		cmp	r3, #70
 267 004a 03D8     		bhi	.L17
 104:.\Generated_Source\PSoC4/tinyprintf_1_printf.c **** 		return ch-'A'+10;
 268              		.loc 1 104 0 is_stmt 1
 269 004c FB1D     		add	r3, r7, #7
 270 004e 1B78     		ldrb	r3, [r3]
 271 0050 373B     		sub	r3, r3, #55
 272 0052 01E0     		b	.L15
 273              	.L17:
 105:.\Generated_Source\PSoC4/tinyprintf_1_printf.c **** 	else return -1;
 274              		.loc 1 105 0
 275 0054 0123     		mov	r3, #1
 276 0056 5B42     		neg	r3, r3
 277              	.L15:
 106:.\Generated_Source\PSoC4/tinyprintf_1_printf.c **** 	}
 278              		.loc 1 106 0
 279 0058 181C     		mov	r0, r3
 280 005a BD46     		mov	sp, r7
 281 005c 02B0     		add	sp, sp, #8
 282              		@ sp needed
 283 005e 80BD     		pop	{r7, pc}
 284              		.cfi_endproc
 285              	.LFE2:
 286              		.size	a2d, .-a2d
 287              		.section	.text.a2i,"ax",%progbits
 288              		.align	2
 289              		.code	16
 290              		.thumb_func
 291              		.type	a2i, %function
ARM GAS  C:\Users\Clayton\AppData\Local\Temp\ccUTJmK8.s 			page 8


 292              	a2i:
 293              	.LFB3:
 107:.\Generated_Source\PSoC4/tinyprintf_1_printf.c **** 
 108:.\Generated_Source\PSoC4/tinyprintf_1_printf.c **** static char a2i(char ch, char** src,int base,int* nump)
 109:.\Generated_Source\PSoC4/tinyprintf_1_printf.c **** 	{
 294              		.loc 1 109 0
 295              		.cfi_startproc
 296 0000 80B5     		push	{r7, lr}
 297              		.cfi_def_cfa_offset 8
 298              		.cfi_offset 7, -8
 299              		.cfi_offset 14, -4
 300 0002 88B0     		sub	sp, sp, #32
 301              		.cfi_def_cfa_offset 40
 302 0004 00AF     		add	r7, sp, #0
 303              		.cfi_def_cfa_register 7
 304 0006 B960     		str	r1, [r7, #8]
 305 0008 7A60     		str	r2, [r7, #4]
 306 000a 3B60     		str	r3, [r7]
 307 000c 3B1C     		mov	r3, r7
 308 000e 0F33     		add	r3, r3, #15
 309 0010 021C     		add	r2, r0, #0
 310 0012 1A70     		strb	r2, [r3]
 110:.\Generated_Source\PSoC4/tinyprintf_1_printf.c **** 	char* p= *src;
 311              		.loc 1 110 0
 312 0014 BB68     		ldr	r3, [r7, #8]
 313 0016 1B68     		ldr	r3, [r3]
 314 0018 FB61     		str	r3, [r7, #28]
 111:.\Generated_Source\PSoC4/tinyprintf_1_printf.c **** 	int num=0;
 315              		.loc 1 111 0
 316 001a 0023     		mov	r3, #0
 317 001c BB61     		str	r3, [r7, #24]
 112:.\Generated_Source\PSoC4/tinyprintf_1_printf.c **** 	int digit;
 113:.\Generated_Source\PSoC4/tinyprintf_1_printf.c **** 	while ((digit=a2d(ch))>=0) {
 318              		.loc 1 113 0
 319 001e 11E0     		b	.L19
 320              	.L22:
 114:.\Generated_Source\PSoC4/tinyprintf_1_printf.c **** 		if (digit>base) break;
 321              		.loc 1 114 0
 322 0020 7A69     		ldr	r2, [r7, #20]
 323 0022 7B68     		ldr	r3, [r7, #4]
 324 0024 9A42     		cmp	r2, r3
 325 0026 00DD     		ble	.L20
 326              		.loc 1 114 0 is_stmt 0 discriminator 1
 327 0028 17E0     		b	.L21
 328              	.L20:
 115:.\Generated_Source\PSoC4/tinyprintf_1_printf.c **** 		num=num*base+digit;
 329              		.loc 1 115 0 is_stmt 1
 330 002a BB69     		ldr	r3, [r7, #24]
 331 002c 7A68     		ldr	r2, [r7, #4]
 332 002e 5A43     		mul	r2, r3
 333 0030 7B69     		ldr	r3, [r7, #20]
 334 0032 D318     		add	r3, r2, r3
 335 0034 BB61     		str	r3, [r7, #24]
 116:.\Generated_Source\PSoC4/tinyprintf_1_printf.c **** 		ch=*p++;
 336              		.loc 1 116 0
 337 0036 FB69     		ldr	r3, [r7, #28]
 338 0038 5A1C     		add	r2, r3, #1
ARM GAS  C:\Users\Clayton\AppData\Local\Temp\ccUTJmK8.s 			page 9


 339 003a FA61     		str	r2, [r7, #28]
 340 003c 3A1C     		mov	r2, r7
 341 003e 0F32     		add	r2, r2, #15
 342 0040 1B78     		ldrb	r3, [r3]
 343 0042 1370     		strb	r3, [r2]
 344              	.L19:
 113:.\Generated_Source\PSoC4/tinyprintf_1_printf.c **** 	while ((digit=a2d(ch))>=0) {
 345              		.loc 1 113 0 discriminator 1
 346 0044 3B1C     		mov	r3, r7
 347 0046 0F33     		add	r3, r3, #15
 348 0048 1B78     		ldrb	r3, [r3]
 349 004a 181C     		mov	r0, r3
 350 004c FFF7FEFF 		bl	a2d
 351 0050 031C     		mov	r3, r0
 352 0052 7B61     		str	r3, [r7, #20]
 353 0054 7B69     		ldr	r3, [r7, #20]
 354 0056 002B     		cmp	r3, #0
 355 0058 E2DA     		bge	.L22
 356              	.L21:
 117:.\Generated_Source\PSoC4/tinyprintf_1_printf.c **** 		}
 118:.\Generated_Source\PSoC4/tinyprintf_1_printf.c **** 	*src=p;
 357              		.loc 1 118 0
 358 005a BB68     		ldr	r3, [r7, #8]
 359 005c FA69     		ldr	r2, [r7, #28]
 360 005e 1A60     		str	r2, [r3]
 119:.\Generated_Source\PSoC4/tinyprintf_1_printf.c **** 	*nump=num;
 361              		.loc 1 119 0
 362 0060 3B68     		ldr	r3, [r7]
 363 0062 BA69     		ldr	r2, [r7, #24]
 364 0064 1A60     		str	r2, [r3]
 120:.\Generated_Source\PSoC4/tinyprintf_1_printf.c **** 	return ch;
 365              		.loc 1 120 0
 366 0066 3B1C     		mov	r3, r7
 367 0068 0F33     		add	r3, r3, #15
 368 006a 1B78     		ldrb	r3, [r3]
 121:.\Generated_Source\PSoC4/tinyprintf_1_printf.c **** 	}
 369              		.loc 1 121 0
 370 006c 181C     		mov	r0, r3
 371 006e BD46     		mov	sp, r7
 372 0070 08B0     		add	sp, sp, #32
 373              		@ sp needed
 374 0072 80BD     		pop	{r7, pc}
 375              		.cfi_endproc
 376              	.LFE3:
 377              		.size	a2i, .-a2i
 378              		.section	.text.putchw,"ax",%progbits
 379              		.align	2
 380              		.code	16
 381              		.thumb_func
 382              		.type	putchw, %function
 383              	putchw:
 384              	.LFB4:
 122:.\Generated_Source\PSoC4/tinyprintf_1_printf.c **** 
 123:.\Generated_Source\PSoC4/tinyprintf_1_printf.c **** static void putchw(void* putp,putcf putf,int n, char z, char* bf)
 124:.\Generated_Source\PSoC4/tinyprintf_1_printf.c **** 	{
 385              		.loc 1 124 0
 386              		.cfi_startproc
ARM GAS  C:\Users\Clayton\AppData\Local\Temp\ccUTJmK8.s 			page 10


 387 0000 80B5     		push	{r7, lr}
 388              		.cfi_def_cfa_offset 8
 389              		.cfi_offset 7, -8
 390              		.cfi_offset 14, -4
 391 0002 86B0     		sub	sp, sp, #24
 392              		.cfi_def_cfa_offset 32
 393 0004 00AF     		add	r7, sp, #0
 394              		.cfi_def_cfa_register 7
 395 0006 F860     		str	r0, [r7, #12]
 396 0008 B960     		str	r1, [r7, #8]
 397 000a 7A60     		str	r2, [r7, #4]
 398 000c 1A1C     		mov	r2, r3
 399 000e FB1C     		add	r3, r7, #3
 400 0010 1A70     		strb	r2, [r3]
 125:.\Generated_Source\PSoC4/tinyprintf_1_printf.c **** 	char fc=z? '0' : ' ';
 401              		.loc 1 125 0
 402 0012 FB1C     		add	r3, r7, #3
 403 0014 1B78     		ldrb	r3, [r3]
 404 0016 002B     		cmp	r3, #0
 405 0018 01D0     		beq	.L25
 406              		.loc 1 125 0 is_stmt 0 discriminator 1
 407 001a 3023     		mov	r3, #48
 408 001c 00E0     		b	.L26
 409              	.L25:
 410              		.loc 1 125 0 discriminator 2
 411 001e 2023     		mov	r3, #32
 412              	.L26:
 413              		.loc 1 125 0 discriminator 3
 414 0020 3A1C     		mov	r2, r7
 415 0022 1332     		add	r2, r2, #19
 416 0024 1370     		strb	r3, [r2]
 126:.\Generated_Source\PSoC4/tinyprintf_1_printf.c **** 	char ch;
 127:.\Generated_Source\PSoC4/tinyprintf_1_printf.c **** 	char* p=bf;
 417              		.loc 1 127 0 is_stmt 1 discriminator 3
 418 0026 3B6A     		ldr	r3, [r7, #32]
 419 0028 7B61     		str	r3, [r7, #20]
 128:.\Generated_Source\PSoC4/tinyprintf_1_printf.c **** 	while (*p++ && n > 0)
 420              		.loc 1 128 0 discriminator 3
 421 002a 02E0     		b	.L27
 422              	.L29:
 129:.\Generated_Source\PSoC4/tinyprintf_1_printf.c **** 		n--;
 423              		.loc 1 129 0
 424 002c 7B68     		ldr	r3, [r7, #4]
 425 002e 013B     		sub	r3, r3, #1
 426 0030 7B60     		str	r3, [r7, #4]
 427              	.L27:
 128:.\Generated_Source\PSoC4/tinyprintf_1_printf.c **** 	while (*p++ && n > 0)
 428              		.loc 1 128 0 discriminator 1
 429 0032 7B69     		ldr	r3, [r7, #20]
 430 0034 5A1C     		add	r2, r3, #1
 431 0036 7A61     		str	r2, [r7, #20]
 432 0038 1B78     		ldrb	r3, [r3]
 433 003a 002B     		cmp	r3, #0
 434 003c 02D0     		beq	.L28
 128:.\Generated_Source\PSoC4/tinyprintf_1_printf.c **** 	while (*p++ && n > 0)
 435              		.loc 1 128 0 is_stmt 0 discriminator 2
 436 003e 7B68     		ldr	r3, [r7, #4]
ARM GAS  C:\Users\Clayton\AppData\Local\Temp\ccUTJmK8.s 			page 11


 437 0040 002B     		cmp	r3, #0
 438 0042 F3DC     		bgt	.L29
 439              	.L28:
 130:.\Generated_Source\PSoC4/tinyprintf_1_printf.c **** 	while (n-- > 0) 
 440              		.loc 1 130 0 is_stmt 1
 441 0044 07E0     		b	.L30
 442              	.L31:
 131:.\Generated_Source\PSoC4/tinyprintf_1_printf.c **** 		putf(putp,fc);
 443              		.loc 1 131 0
 444 0046 F968     		ldr	r1, [r7, #12]
 445 0048 3B1C     		mov	r3, r7
 446 004a 1333     		add	r3, r3, #19
 447 004c 1A78     		ldrb	r2, [r3]
 448 004e BB68     		ldr	r3, [r7, #8]
 449 0050 081C     		mov	r0, r1
 450 0052 111C     		mov	r1, r2
 451 0054 9847     		blx	r3
 452              	.L30:
 130:.\Generated_Source\PSoC4/tinyprintf_1_printf.c **** 	while (n-- > 0) 
 453              		.loc 1 130 0 discriminator 1
 454 0056 7B68     		ldr	r3, [r7, #4]
 455 0058 5A1E     		sub	r2, r3, #1
 456 005a 7A60     		str	r2, [r7, #4]
 457 005c 002B     		cmp	r3, #0
 458 005e F2DC     		bgt	.L31
 132:.\Generated_Source\PSoC4/tinyprintf_1_printf.c **** 	while ((ch= *bf++))
 459              		.loc 1 132 0
 460 0060 07E0     		b	.L32
 461              	.L33:
 133:.\Generated_Source\PSoC4/tinyprintf_1_printf.c **** 		putf(putp,ch);
 462              		.loc 1 133 0
 463 0062 F968     		ldr	r1, [r7, #12]
 464 0064 3B1C     		mov	r3, r7
 465 0066 1233     		add	r3, r3, #18
 466 0068 1A78     		ldrb	r2, [r3]
 467 006a BB68     		ldr	r3, [r7, #8]
 468 006c 081C     		mov	r0, r1
 469 006e 111C     		mov	r1, r2
 470 0070 9847     		blx	r3
 471              	.L32:
 132:.\Generated_Source\PSoC4/tinyprintf_1_printf.c **** 	while ((ch= *bf++))
 472              		.loc 1 132 0 discriminator 1
 473 0072 3B6A     		ldr	r3, [r7, #32]
 474 0074 5A1C     		add	r2, r3, #1
 475 0076 3A62     		str	r2, [r7, #32]
 476 0078 3A1C     		mov	r2, r7
 477 007a 1232     		add	r2, r2, #18
 478 007c 1B78     		ldrb	r3, [r3]
 479 007e 1370     		strb	r3, [r2]
 480 0080 3B1C     		mov	r3, r7
 481 0082 1233     		add	r3, r3, #18
 482 0084 1B78     		ldrb	r3, [r3]
 483 0086 002B     		cmp	r3, #0
 484 0088 EBD1     		bne	.L33
 134:.\Generated_Source\PSoC4/tinyprintf_1_printf.c **** 	}
 485              		.loc 1 134 0
 486 008a BD46     		mov	sp, r7
ARM GAS  C:\Users\Clayton\AppData\Local\Temp\ccUTJmK8.s 			page 12


 487 008c 06B0     		add	sp, sp, #24
 488              		@ sp needed
 489 008e 80BD     		pop	{r7, pc}
 490              		.cfi_endproc
 491              	.LFE4:
 492              		.size	putchw, .-putchw
 493              		.section	.text.tfp_format,"ax",%progbits
 494              		.align	2
 495              		.global	tfp_format
 496              		.code	16
 497              		.thumb_func
 498              		.type	tfp_format, %function
 499              	tfp_format:
 500              	.LFB5:
 135:.\Generated_Source\PSoC4/tinyprintf_1_printf.c **** 
 136:.\Generated_Source\PSoC4/tinyprintf_1_printf.c **** void tfp_format(void* putp,putcf putf,char *fmt, va_list va)
 137:.\Generated_Source\PSoC4/tinyprintf_1_printf.c **** 	{
 501              		.loc 1 137 0
 502              		.cfi_startproc
 503 0000 90B5     		push	{r4, r7, lr}
 504              		.cfi_def_cfa_offset 12
 505              		.cfi_offset 4, -12
 506              		.cfi_offset 7, -8
 507              		.cfi_offset 14, -4
 508 0002 8DB0     		sub	sp, sp, #52
 509              		.cfi_def_cfa_offset 64
 510 0004 02AF     		add	r7, sp, #8
 511              		.cfi_def_cfa 7, 56
 512 0006 F860     		str	r0, [r7, #12]
 513 0008 B960     		str	r1, [r7, #8]
 514 000a 7A60     		str	r2, [r7, #4]
 515 000c 3B60     		str	r3, [r7]
 138:.\Generated_Source\PSoC4/tinyprintf_1_printf.c **** 	char bf[12];
 139:.\Generated_Source\PSoC4/tinyprintf_1_printf.c ****     
 140:.\Generated_Source\PSoC4/tinyprintf_1_printf.c **** 	char ch;
 141:.\Generated_Source\PSoC4/tinyprintf_1_printf.c **** 
 142:.\Generated_Source\PSoC4/tinyprintf_1_printf.c **** 
 143:.\Generated_Source\PSoC4/tinyprintf_1_printf.c **** 	while ((ch=*(fmt++))) {
 516              		.loc 1 143 0
 517 000e CAE0     		b	.L35
 518              	.L51:
 144:.\Generated_Source\PSoC4/tinyprintf_1_printf.c **** 		if (ch!='%') 
 519              		.loc 1 144 0
 520 0010 3B1C     		mov	r3, r7
 521 0012 2733     		add	r3, r3, #39
 522 0014 1B78     		ldrb	r3, [r3]
 523 0016 252B     		cmp	r3, #37
 524 0018 08D0     		beq	.L36
 145:.\Generated_Source\PSoC4/tinyprintf_1_printf.c **** 			putf(putp,ch);
 525              		.loc 1 145 0
 526 001a F968     		ldr	r1, [r7, #12]
 527 001c 3B1C     		mov	r3, r7
 528 001e 2733     		add	r3, r3, #39
 529 0020 1A78     		ldrb	r2, [r3]
 530 0022 BB68     		ldr	r3, [r7, #8]
 531 0024 081C     		mov	r0, r1
 532 0026 111C     		mov	r1, r2
ARM GAS  C:\Users\Clayton\AppData\Local\Temp\ccUTJmK8.s 			page 13


 533 0028 9847     		blx	r3
 534 002a BCE0     		b	.L35
 535              	.L36:
 536              	.LBB3:
 146:.\Generated_Source\PSoC4/tinyprintf_1_printf.c **** 		else {
 147:.\Generated_Source\PSoC4/tinyprintf_1_printf.c **** 			char lz=0;
 537              		.loc 1 147 0
 538 002c 3B1C     		mov	r3, r7
 539 002e 2633     		add	r3, r3, #38
 540 0030 0022     		mov	r2, #0
 541 0032 1A70     		strb	r2, [r3]
 148:.\Generated_Source\PSoC4/tinyprintf_1_printf.c **** #ifdef 	PRINTF_LONG_SUPPORT
 149:.\Generated_Source\PSoC4/tinyprintf_1_printf.c **** 			char lng=0;
 150:.\Generated_Source\PSoC4/tinyprintf_1_printf.c **** #endif
 151:.\Generated_Source\PSoC4/tinyprintf_1_printf.c **** 			int w=0;
 542              		.loc 1 151 0
 543 0034 0023     		mov	r3, #0
 544 0036 7B61     		str	r3, [r7, #20]
 152:.\Generated_Source\PSoC4/tinyprintf_1_printf.c **** 			ch=*(fmt++);
 545              		.loc 1 152 0
 546 0038 7B68     		ldr	r3, [r7, #4]
 547 003a 5A1C     		add	r2, r3, #1
 548 003c 7A60     		str	r2, [r7, #4]
 549 003e 3A1C     		mov	r2, r7
 550 0040 2732     		add	r2, r2, #39
 551 0042 1B78     		ldrb	r3, [r3]
 552 0044 1370     		strb	r3, [r2]
 153:.\Generated_Source\PSoC4/tinyprintf_1_printf.c **** 			if (ch=='0') {
 553              		.loc 1 153 0
 554 0046 3B1C     		mov	r3, r7
 555 0048 2733     		add	r3, r3, #39
 556 004a 1B78     		ldrb	r3, [r3]
 557 004c 302B     		cmp	r3, #48
 558 004e 0AD1     		bne	.L37
 154:.\Generated_Source\PSoC4/tinyprintf_1_printf.c **** 				ch=*(fmt++);
 559              		.loc 1 154 0
 560 0050 7B68     		ldr	r3, [r7, #4]
 561 0052 5A1C     		add	r2, r3, #1
 562 0054 7A60     		str	r2, [r7, #4]
 563 0056 3A1C     		mov	r2, r7
 564 0058 2732     		add	r2, r2, #39
 565 005a 1B78     		ldrb	r3, [r3]
 566 005c 1370     		strb	r3, [r2]
 155:.\Generated_Source\PSoC4/tinyprintf_1_printf.c **** 				lz=1;
 567              		.loc 1 155 0
 568 005e 3B1C     		mov	r3, r7
 569 0060 2633     		add	r3, r3, #38
 570 0062 0122     		mov	r2, #1
 571 0064 1A70     		strb	r2, [r3]
 572              	.L37:
 156:.\Generated_Source\PSoC4/tinyprintf_1_printf.c **** 				}
 157:.\Generated_Source\PSoC4/tinyprintf_1_printf.c **** 			if (ch>='0' && ch<='9') {
 573              		.loc 1 157 0
 574 0066 3B1C     		mov	r3, r7
 575 0068 2733     		add	r3, r3, #39
 576 006a 1B78     		ldrb	r3, [r3]
 577 006c 2F2B     		cmp	r3, #47
ARM GAS  C:\Users\Clayton\AppData\Local\Temp\ccUTJmK8.s 			page 14


 578 006e 13D9     		bls	.L38
 579              		.loc 1 157 0 is_stmt 0 discriminator 1
 580 0070 3B1C     		mov	r3, r7
 581 0072 2733     		add	r3, r3, #39
 582 0074 1B78     		ldrb	r3, [r3]
 583 0076 392B     		cmp	r3, #57
 584 0078 0ED8     		bhi	.L38
 158:.\Generated_Source\PSoC4/tinyprintf_1_printf.c **** 				ch=a2i(ch,&fmt,10,&w);
 585              		.loc 1 158 0 is_stmt 1
 586 007a 3C1C     		mov	r4, r7
 587 007c 2734     		add	r4, r4, #39
 588 007e 3B1C     		mov	r3, r7
 589 0080 2733     		add	r3, r3, #39
 590 0082 1978     		ldrb	r1, [r3]
 591 0084 3A1D     		add	r2, r7, #4
 592 0086 3B1C     		mov	r3, r7
 593 0088 1433     		add	r3, r3, #20
 594 008a 081C     		mov	r0, r1
 595 008c 111C     		mov	r1, r2
 596 008e 0A22     		mov	r2, #10
 597 0090 FFF7FEFF 		bl	a2i
 598 0094 031C     		mov	r3, r0
 599 0096 2370     		strb	r3, [r4]
 600              	.L38:
 159:.\Generated_Source\PSoC4/tinyprintf_1_printf.c **** 				}
 160:.\Generated_Source\PSoC4/tinyprintf_1_printf.c **** #ifdef 	PRINTF_LONG_SUPPORT
 161:.\Generated_Source\PSoC4/tinyprintf_1_printf.c **** 			if (ch=='l') {
 162:.\Generated_Source\PSoC4/tinyprintf_1_printf.c **** 				ch=*(fmt++);
 163:.\Generated_Source\PSoC4/tinyprintf_1_printf.c **** 				lng=1;
 164:.\Generated_Source\PSoC4/tinyprintf_1_printf.c **** 			}
 165:.\Generated_Source\PSoC4/tinyprintf_1_printf.c **** #endif
 166:.\Generated_Source\PSoC4/tinyprintf_1_printf.c **** 			switch (ch) {
 601              		.loc 1 166 0
 602 0098 3B1C     		mov	r3, r7
 603 009a 2733     		add	r3, r3, #39
 604 009c 1B78     		ldrb	r3, [r3]
 605 009e 632B     		cmp	r3, #99
 606 00a0 5FD0     		beq	.L40
 607 00a2 08DC     		bgt	.L41
 608 00a4 252B     		cmp	r3, #37
 609 00a6 00D1     		bne	.LCB529
 610 00a8 74E0     		b	.L42	@long jump
 611              	.LCB529:
 612 00aa 582B     		cmp	r3, #88
 613 00ac 3BD0     		beq	.L43
 614 00ae 002B     		cmp	r3, #0
 615 00b0 00D1     		bne	.LCB533
 616 00b2 86E0     		b	.L52	@long jump
 617              	.LCB533:
 167:.\Generated_Source\PSoC4/tinyprintf_1_printf.c **** 				case 0: 
 168:.\Generated_Source\PSoC4/tinyprintf_1_printf.c **** 					goto abort;
 169:.\Generated_Source\PSoC4/tinyprintf_1_printf.c **** 				case 'u' : {
 170:.\Generated_Source\PSoC4/tinyprintf_1_printf.c **** #ifdef 	PRINTF_LONG_SUPPORT
 171:.\Generated_Source\PSoC4/tinyprintf_1_printf.c **** 					if (lng)
 172:.\Generated_Source\PSoC4/tinyprintf_1_printf.c **** 						uli2a(va_arg(va, unsigned long int),10,0,bf);
 173:.\Generated_Source\PSoC4/tinyprintf_1_printf.c **** 					else
 174:.\Generated_Source\PSoC4/tinyprintf_1_printf.c **** #endif
ARM GAS  C:\Users\Clayton\AppData\Local\Temp\ccUTJmK8.s 			page 15


 175:.\Generated_Source\PSoC4/tinyprintf_1_printf.c **** 					ui2a(va_arg(va, unsigned int),10,0,bf);
 176:.\Generated_Source\PSoC4/tinyprintf_1_printf.c **** 					putchw(putp,putf,w,lz,bf);
 177:.\Generated_Source\PSoC4/tinyprintf_1_printf.c **** 					break;
 178:.\Generated_Source\PSoC4/tinyprintf_1_printf.c **** 					}
 179:.\Generated_Source\PSoC4/tinyprintf_1_printf.c **** 				case 'd' :  {
 180:.\Generated_Source\PSoC4/tinyprintf_1_printf.c **** #ifdef 	PRINTF_LONG_SUPPORT
 181:.\Generated_Source\PSoC4/tinyprintf_1_printf.c **** 					if (lng)
 182:.\Generated_Source\PSoC4/tinyprintf_1_printf.c **** 						li2a(va_arg(va, unsigned long int),bf);
 183:.\Generated_Source\PSoC4/tinyprintf_1_printf.c **** 					else
 184:.\Generated_Source\PSoC4/tinyprintf_1_printf.c **** #endif
 185:.\Generated_Source\PSoC4/tinyprintf_1_printf.c **** 					i2a(va_arg(va, int),bf);
 186:.\Generated_Source\PSoC4/tinyprintf_1_printf.c **** 					putchw(putp,putf,w,lz,bf);
 187:.\Generated_Source\PSoC4/tinyprintf_1_printf.c **** 					break;
 188:.\Generated_Source\PSoC4/tinyprintf_1_printf.c **** 					}
 189:.\Generated_Source\PSoC4/tinyprintf_1_printf.c **** 				case 'x': case 'X' : 
 190:.\Generated_Source\PSoC4/tinyprintf_1_printf.c **** #ifdef 	PRINTF_LONG_SUPPORT
 191:.\Generated_Source\PSoC4/tinyprintf_1_printf.c **** 					if (lng)
 192:.\Generated_Source\PSoC4/tinyprintf_1_printf.c **** 						uli2a(va_arg(va, unsigned long int),16,(ch=='X'),bf);
 193:.\Generated_Source\PSoC4/tinyprintf_1_printf.c **** 					else
 194:.\Generated_Source\PSoC4/tinyprintf_1_printf.c **** #endif
 195:.\Generated_Source\PSoC4/tinyprintf_1_printf.c **** 					ui2a(va_arg(va, unsigned int),16,(ch=='X'),bf);
 196:.\Generated_Source\PSoC4/tinyprintf_1_printf.c **** 					putchw(putp,putf,w,lz,bf);
 197:.\Generated_Source\PSoC4/tinyprintf_1_printf.c **** 					break;
 198:.\Generated_Source\PSoC4/tinyprintf_1_printf.c **** 				case 'c' : 
 199:.\Generated_Source\PSoC4/tinyprintf_1_printf.c **** 					putf(putp,(char)(va_arg(va, int)));
 200:.\Generated_Source\PSoC4/tinyprintf_1_printf.c **** 					break;
 201:.\Generated_Source\PSoC4/tinyprintf_1_printf.c **** 				case 's' : 
 202:.\Generated_Source\PSoC4/tinyprintf_1_printf.c **** 					putchw(putp,putf,w,0,va_arg(va, char*));
 203:.\Generated_Source\PSoC4/tinyprintf_1_printf.c **** 					break;
 204:.\Generated_Source\PSoC4/tinyprintf_1_printf.c **** 				case '%' :
 205:.\Generated_Source\PSoC4/tinyprintf_1_printf.c **** 					putf(putp,ch);
 206:.\Generated_Source\PSoC4/tinyprintf_1_printf.c **** 				default:
 207:.\Generated_Source\PSoC4/tinyprintf_1_printf.c **** 					break;
 618              		.loc 1 207 0
 619 00b4 76E0     		b	.L53
 620              	.L41:
 166:.\Generated_Source\PSoC4/tinyprintf_1_printf.c **** 			switch (ch) {
 621              		.loc 1 166 0
 622 00b6 732B     		cmp	r3, #115
 623 00b8 5ED0     		beq	.L45
 624 00ba 02DC     		bgt	.L46
 625 00bc 642B     		cmp	r3, #100
 626 00be 1CD0     		beq	.L47
 627              		.loc 1 207 0
 628 00c0 70E0     		b	.L53
 629              	.L46:
 166:.\Generated_Source\PSoC4/tinyprintf_1_printf.c **** 			switch (ch) {
 630              		.loc 1 166 0
 631 00c2 752B     		cmp	r3, #117
 632 00c4 02D0     		beq	.L48
 633 00c6 782B     		cmp	r3, #120
 634 00c8 2DD0     		beq	.L43
 635              		.loc 1 207 0
 636 00ca 6BE0     		b	.L53
 637              	.L48:
 175:.\Generated_Source\PSoC4/tinyprintf_1_printf.c **** 					ui2a(va_arg(va, unsigned int),10,0,bf);
 638              		.loc 1 175 0
ARM GAS  C:\Users\Clayton\AppData\Local\Temp\ccUTJmK8.s 			page 16


 639 00cc 3B68     		ldr	r3, [r7]
 640 00ce 1A1D     		add	r2, r3, #4
 641 00d0 3A60     		str	r2, [r7]
 642 00d2 1A68     		ldr	r2, [r3]
 643 00d4 3B1C     		mov	r3, r7
 644 00d6 1833     		add	r3, r3, #24
 645 00d8 101C     		mov	r0, r2
 646 00da 0A21     		mov	r1, #10
 647 00dc 0022     		mov	r2, #0
 648 00de FFF7FEFF 		bl	ui2a
 176:.\Generated_Source\PSoC4/tinyprintf_1_printf.c **** 					putchw(putp,putf,w,lz,bf);
 649              		.loc 1 176 0
 650 00e2 7A69     		ldr	r2, [r7, #20]
 651 00e4 F868     		ldr	r0, [r7, #12]
 652 00e6 B968     		ldr	r1, [r7, #8]
 653 00e8 3B1C     		mov	r3, r7
 654 00ea 2633     		add	r3, r3, #38
 655 00ec 1B78     		ldrb	r3, [r3]
 656 00ee 3C1C     		mov	r4, r7
 657 00f0 1834     		add	r4, r4, #24
 658 00f2 0094     		str	r4, [sp]
 659 00f4 FFF7FEFF 		bl	putchw
 177:.\Generated_Source\PSoC4/tinyprintf_1_printf.c **** 					break;
 660              		.loc 1 177 0
 661 00f8 55E0     		b	.L50
 662              	.L47:
 185:.\Generated_Source\PSoC4/tinyprintf_1_printf.c **** 					i2a(va_arg(va, int),bf);
 663              		.loc 1 185 0
 664 00fa 3B68     		ldr	r3, [r7]
 665 00fc 1A1D     		add	r2, r3, #4
 666 00fe 3A60     		str	r2, [r7]
 667 0100 1A68     		ldr	r2, [r3]
 668 0102 3B1C     		mov	r3, r7
 669 0104 1833     		add	r3, r3, #24
 670 0106 101C     		mov	r0, r2
 671 0108 191C     		mov	r1, r3
 672 010a FFF7FEFF 		bl	i2a
 186:.\Generated_Source\PSoC4/tinyprintf_1_printf.c **** 					putchw(putp,putf,w,lz,bf);
 673              		.loc 1 186 0
 674 010e 7A69     		ldr	r2, [r7, #20]
 675 0110 F868     		ldr	r0, [r7, #12]
 676 0112 B968     		ldr	r1, [r7, #8]
 677 0114 3B1C     		mov	r3, r7
 678 0116 2633     		add	r3, r3, #38
 679 0118 1B78     		ldrb	r3, [r3]
 680 011a 3C1C     		mov	r4, r7
 681 011c 1834     		add	r4, r4, #24
 682 011e 0094     		str	r4, [sp]
 683 0120 FFF7FEFF 		bl	putchw
 187:.\Generated_Source\PSoC4/tinyprintf_1_printf.c **** 					break;
 684              		.loc 1 187 0
 685 0124 3FE0     		b	.L50
 686              	.L43:
 195:.\Generated_Source\PSoC4/tinyprintf_1_printf.c **** 					ui2a(va_arg(va, unsigned int),16,(ch=='X'),bf);
 687              		.loc 1 195 0
 688 0126 3B68     		ldr	r3, [r7]
 689 0128 1A1D     		add	r2, r3, #4
ARM GAS  C:\Users\Clayton\AppData\Local\Temp\ccUTJmK8.s 			page 17


 690 012a 3A60     		str	r2, [r7]
 691 012c 1968     		ldr	r1, [r3]
 692 012e 3B1C     		mov	r3, r7
 693 0130 2733     		add	r3, r3, #39
 694 0132 1B78     		ldrb	r3, [r3]
 695 0134 583B     		sub	r3, r3, #88
 696 0136 5A42     		neg	r2, r3
 697 0138 5341     		adc	r3, r3, r2
 698 013a DBB2     		uxtb	r3, r3
 699 013c 1A1C     		mov	r2, r3
 700 013e 3B1C     		mov	r3, r7
 701 0140 1833     		add	r3, r3, #24
 702 0142 081C     		mov	r0, r1
 703 0144 1021     		mov	r1, #16
 704 0146 FFF7FEFF 		bl	ui2a
 196:.\Generated_Source\PSoC4/tinyprintf_1_printf.c **** 					putchw(putp,putf,w,lz,bf);
 705              		.loc 1 196 0
 706 014a 7A69     		ldr	r2, [r7, #20]
 707 014c F868     		ldr	r0, [r7, #12]
 708 014e B968     		ldr	r1, [r7, #8]
 709 0150 3B1C     		mov	r3, r7
 710 0152 2633     		add	r3, r3, #38
 711 0154 1B78     		ldrb	r3, [r3]
 712 0156 3C1C     		mov	r4, r7
 713 0158 1834     		add	r4, r4, #24
 714 015a 0094     		str	r4, [sp]
 715 015c FFF7FEFF 		bl	putchw
 197:.\Generated_Source\PSoC4/tinyprintf_1_printf.c **** 					break;
 716              		.loc 1 197 0
 717 0160 21E0     		b	.L50
 718              	.L40:
 199:.\Generated_Source\PSoC4/tinyprintf_1_printf.c **** 					putf(putp,(char)(va_arg(va, int)));
 719              		.loc 1 199 0
 720 0162 3B68     		ldr	r3, [r7]
 721 0164 1A1D     		add	r2, r3, #4
 722 0166 3A60     		str	r2, [r7]
 723 0168 1B68     		ldr	r3, [r3]
 724 016a DAB2     		uxtb	r2, r3
 725 016c F968     		ldr	r1, [r7, #12]
 726 016e BB68     		ldr	r3, [r7, #8]
 727 0170 081C     		mov	r0, r1
 728 0172 111C     		mov	r1, r2
 729 0174 9847     		blx	r3
 200:.\Generated_Source\PSoC4/tinyprintf_1_printf.c **** 					break;
 730              		.loc 1 200 0
 731 0176 16E0     		b	.L50
 732              	.L45:
 202:.\Generated_Source\PSoC4/tinyprintf_1_printf.c **** 					putchw(putp,putf,w,0,va_arg(va, char*));
 733              		.loc 1 202 0
 734 0178 7A69     		ldr	r2, [r7, #20]
 735 017a 3B68     		ldr	r3, [r7]
 736 017c 191D     		add	r1, r3, #4
 737 017e 3960     		str	r1, [r7]
 738 0180 1868     		ldr	r0, [r3]
 739 0182 F968     		ldr	r1, [r7, #12]
 740 0184 BB68     		ldr	r3, [r7, #8]
 741 0186 0090     		str	r0, [sp]
ARM GAS  C:\Users\Clayton\AppData\Local\Temp\ccUTJmK8.s 			page 18


 742 0188 081C     		mov	r0, r1
 743 018a 191C     		mov	r1, r3
 744 018c 0023     		mov	r3, #0
 745 018e FFF7FEFF 		bl	putchw
 203:.\Generated_Source\PSoC4/tinyprintf_1_printf.c **** 					break;
 746              		.loc 1 203 0
 747 0192 08E0     		b	.L50
 748              	.L42:
 205:.\Generated_Source\PSoC4/tinyprintf_1_printf.c **** 					putf(putp,ch);
 749              		.loc 1 205 0
 750 0194 F968     		ldr	r1, [r7, #12]
 751 0196 3B1C     		mov	r3, r7
 752 0198 2733     		add	r3, r3, #39
 753 019a 1A78     		ldrb	r2, [r3]
 754 019c BB68     		ldr	r3, [r7, #8]
 755 019e 081C     		mov	r0, r1
 756 01a0 111C     		mov	r1, r2
 757 01a2 9847     		blx	r3
 758              	.L53:
 759              		.loc 1 207 0
 760 01a4 C046     		mov	r8, r8
 761              	.L50:
 762              	.L35:
 763              	.LBE3:
 143:.\Generated_Source\PSoC4/tinyprintf_1_printf.c **** 	while ((ch=*(fmt++))) {
 764              		.loc 1 143 0 discriminator 1
 765 01a6 7B68     		ldr	r3, [r7, #4]
 766 01a8 5A1C     		add	r2, r3, #1
 767 01aa 7A60     		str	r2, [r7, #4]
 768 01ac 3A1C     		mov	r2, r7
 769 01ae 2732     		add	r2, r2, #39
 770 01b0 1B78     		ldrb	r3, [r3]
 771 01b2 1370     		strb	r3, [r2]
 772 01b4 3B1C     		mov	r3, r7
 773 01b6 2733     		add	r3, r3, #39
 774 01b8 1B78     		ldrb	r3, [r3]
 775 01ba 002B     		cmp	r3, #0
 776 01bc 00D0     		beq	.LCB690
 777 01be 27E7     		b	.L51	@long jump
 778              	.LCB690:
 779 01c0 00E0     		b	.L34
 780              	.L49:
 781              	.L52:
 782              	.LBB4:
 168:.\Generated_Source\PSoC4/tinyprintf_1_printf.c **** 					goto abort;
 783              		.loc 1 168 0
 784 01c2 C046     		mov	r8, r8
 785              	.L34:
 786              	.LBE4:
 208:.\Generated_Source\PSoC4/tinyprintf_1_printf.c **** 				}
 209:.\Generated_Source\PSoC4/tinyprintf_1_printf.c **** 			}
 210:.\Generated_Source\PSoC4/tinyprintf_1_printf.c **** 		}
 211:.\Generated_Source\PSoC4/tinyprintf_1_printf.c **** 	abort:;
 212:.\Generated_Source\PSoC4/tinyprintf_1_printf.c **** 	}
 787              		.loc 1 212 0
 788 01c4 BD46     		mov	sp, r7
 789 01c6 0BB0     		add	sp, sp, #44
ARM GAS  C:\Users\Clayton\AppData\Local\Temp\ccUTJmK8.s 			page 19


 790              		@ sp needed
 791 01c8 90BD     		pop	{r4, r7, pc}
 792              		.cfi_endproc
 793              	.LFE5:
 794              		.size	tfp_format, .-tfp_format
 795 01ca C046     		.section	.text.init_printf,"ax",%progbits
 796              		.align	2
 797              		.global	init_printf
 798              		.code	16
 799              		.thumb_func
 800              		.type	init_printf, %function
 801              	init_printf:
 802              	.LFB6:
 213:.\Generated_Source\PSoC4/tinyprintf_1_printf.c **** 
 214:.\Generated_Source\PSoC4/tinyprintf_1_printf.c **** 
 215:.\Generated_Source\PSoC4/tinyprintf_1_printf.c **** void init_printf(void* putp,void (*putf) (void*,char))
 216:.\Generated_Source\PSoC4/tinyprintf_1_printf.c **** 	{
 803              		.loc 1 216 0
 804              		.cfi_startproc
 805 0000 80B5     		push	{r7, lr}
 806              		.cfi_def_cfa_offset 8
 807              		.cfi_offset 7, -8
 808              		.cfi_offset 14, -4
 809 0002 82B0     		sub	sp, sp, #8
 810              		.cfi_def_cfa_offset 16
 811 0004 00AF     		add	r7, sp, #0
 812              		.cfi_def_cfa_register 7
 813 0006 7860     		str	r0, [r7, #4]
 814 0008 3960     		str	r1, [r7]
 217:.\Generated_Source\PSoC4/tinyprintf_1_printf.c **** 	stdout_putf=putf;
 815              		.loc 1 217 0
 816 000a 044B     		ldr	r3, .L55
 817 000c 3A68     		ldr	r2, [r7]
 818 000e 1A60     		str	r2, [r3]
 218:.\Generated_Source\PSoC4/tinyprintf_1_printf.c **** 	stdout_putp=putp;
 819              		.loc 1 218 0
 820 0010 034B     		ldr	r3, .L55+4
 821 0012 7A68     		ldr	r2, [r7, #4]
 822 0014 1A60     		str	r2, [r3]
 219:.\Generated_Source\PSoC4/tinyprintf_1_printf.c **** 	}
 823              		.loc 1 219 0
 824 0016 BD46     		mov	sp, r7
 825 0018 02B0     		add	sp, sp, #8
 826              		@ sp needed
 827 001a 80BD     		pop	{r7, pc}
 828              	.L56:
 829              		.align	2
 830              	.L55:
 831 001c 00000000 		.word	stdout_putf
 832 0020 04000000 		.word	stdout_putp
 833              		.cfi_endproc
 834              	.LFE6:
 835              		.size	init_printf, .-init_printf
 836              		.section	.text.tfp_printf,"ax",%progbits
 837              		.align	2
 838              		.global	tfp_printf
 839              		.code	16
ARM GAS  C:\Users\Clayton\AppData\Local\Temp\ccUTJmK8.s 			page 20


 840              		.thumb_func
 841              		.type	tfp_printf, %function
 842              	tfp_printf:
 843              	.LFB7:
 220:.\Generated_Source\PSoC4/tinyprintf_1_printf.c **** 
 221:.\Generated_Source\PSoC4/tinyprintf_1_printf.c **** void tfp_printf(char *fmt, ...)
 222:.\Generated_Source\PSoC4/tinyprintf_1_printf.c **** 	{
 844              		.loc 1 222 0
 845              		.cfi_startproc
 846 0000 0FB4     		push	{r0, r1, r2, r3}
 847              		.cfi_def_cfa_offset 16
 848 0002 80B5     		push	{r7, lr}
 849              		.cfi_def_cfa_offset 24
 850              		.cfi_offset 7, -24
 851              		.cfi_offset 14, -20
 852 0004 82B0     		sub	sp, sp, #8
 853              		.cfi_def_cfa_offset 32
 854 0006 00AF     		add	r7, sp, #0
 855              		.cfi_def_cfa_register 7
 223:.\Generated_Source\PSoC4/tinyprintf_1_printf.c **** 	va_list va;
 224:.\Generated_Source\PSoC4/tinyprintf_1_printf.c **** 	va_start(va,fmt);
 856              		.loc 1 224 0
 857 0008 3B1C     		mov	r3, r7
 858 000a 1433     		add	r3, r3, #20
 859 000c 7B60     		str	r3, [r7, #4]
 225:.\Generated_Source\PSoC4/tinyprintf_1_printf.c **** 	tfp_format(stdout_putp,stdout_putf,fmt,va);
 860              		.loc 1 225 0
 861 000e 074B     		ldr	r3, .L58
 862 0010 1868     		ldr	r0, [r3]
 863 0012 074B     		ldr	r3, .L58+4
 864 0014 1968     		ldr	r1, [r3]
 865 0016 3A69     		ldr	r2, [r7, #16]
 866 0018 7B68     		ldr	r3, [r7, #4]
 867 001a FFF7FEFF 		bl	tfp_format
 226:.\Generated_Source\PSoC4/tinyprintf_1_printf.c **** 	va_end(va);
 227:.\Generated_Source\PSoC4/tinyprintf_1_printf.c **** 	}
 868              		.loc 1 227 0
 869 001e BD46     		mov	sp, r7
 870 0020 02B0     		add	sp, sp, #8
 871              		@ sp needed
 872 0022 80BC     		pop	{r7}
 873 0024 08BC     		pop	{r3}
 874 0026 04B0     		add	sp, sp, #16
 875 0028 1847     		bx	r3
 876              	.L59:
 877 002a C046     		.align	2
 878              	.L58:
 879 002c 04000000 		.word	stdout_putp
 880 0030 00000000 		.word	stdout_putf
 881              		.cfi_endproc
 882              	.LFE7:
 883              		.size	tfp_printf, .-tfp_printf
 884              		.section	.text.putcp,"ax",%progbits
 885              		.align	2
 886              		.code	16
 887              		.thumb_func
 888              		.type	putcp, %function
ARM GAS  C:\Users\Clayton\AppData\Local\Temp\ccUTJmK8.s 			page 21


 889              	putcp:
 890              	.LFB8:
 228:.\Generated_Source\PSoC4/tinyprintf_1_printf.c **** 
 229:.\Generated_Source\PSoC4/tinyprintf_1_printf.c **** static void putcp(void* p,char c)
 230:.\Generated_Source\PSoC4/tinyprintf_1_printf.c **** 	{
 891              		.loc 1 230 0
 892              		.cfi_startproc
 893 0000 80B5     		push	{r7, lr}
 894              		.cfi_def_cfa_offset 8
 895              		.cfi_offset 7, -8
 896              		.cfi_offset 14, -4
 897 0002 82B0     		sub	sp, sp, #8
 898              		.cfi_def_cfa_offset 16
 899 0004 00AF     		add	r7, sp, #0
 900              		.cfi_def_cfa_register 7
 901 0006 7860     		str	r0, [r7, #4]
 902 0008 0A1C     		mov	r2, r1
 903 000a FB1C     		add	r3, r7, #3
 904 000c 1A70     		strb	r2, [r3]
 231:.\Generated_Source\PSoC4/tinyprintf_1_printf.c **** 	*(*((char**)p))++ = c;
 905              		.loc 1 231 0
 906 000e 7B68     		ldr	r3, [r7, #4]
 907 0010 1B68     		ldr	r3, [r3]
 908 0012 591C     		add	r1, r3, #1
 909 0014 7A68     		ldr	r2, [r7, #4]
 910 0016 1160     		str	r1, [r2]
 911 0018 FA1C     		add	r2, r7, #3
 912 001a 1278     		ldrb	r2, [r2]
 913 001c 1A70     		strb	r2, [r3]
 232:.\Generated_Source\PSoC4/tinyprintf_1_printf.c **** 	}
 914              		.loc 1 232 0
 915 001e BD46     		mov	sp, r7
 916 0020 02B0     		add	sp, sp, #8
 917              		@ sp needed
 918 0022 80BD     		pop	{r7, pc}
 919              		.cfi_endproc
 920              	.LFE8:
 921              		.size	putcp, .-putcp
 922              		.section	.text.tfp_sprintf,"ax",%progbits
 923              		.align	2
 924              		.global	tfp_sprintf
 925              		.code	16
 926              		.thumb_func
 927              		.type	tfp_sprintf, %function
 928              	tfp_sprintf:
 929              	.LFB9:
 233:.\Generated_Source\PSoC4/tinyprintf_1_printf.c **** 
 234:.\Generated_Source\PSoC4/tinyprintf_1_printf.c **** 
 235:.\Generated_Source\PSoC4/tinyprintf_1_printf.c **** 
 236:.\Generated_Source\PSoC4/tinyprintf_1_printf.c **** void tfp_sprintf(char* s,char *fmt, ...)
 237:.\Generated_Source\PSoC4/tinyprintf_1_printf.c **** 	{
 930              		.loc 1 237 0
 931              		.cfi_startproc
 932 0000 0EB4     		push	{r1, r2, r3}
 933              		.cfi_def_cfa_offset 12
 934 0002 80B5     		push	{r7, lr}
 935              		.cfi_def_cfa_offset 20
ARM GAS  C:\Users\Clayton\AppData\Local\Temp\ccUTJmK8.s 			page 22


 936              		.cfi_offset 7, -20
 937              		.cfi_offset 14, -16
 938 0004 85B0     		sub	sp, sp, #20
 939              		.cfi_def_cfa_offset 40
 940 0006 00AF     		add	r7, sp, #0
 941              		.cfi_def_cfa_register 7
 942 0008 7860     		str	r0, [r7, #4]
 238:.\Generated_Source\PSoC4/tinyprintf_1_printf.c **** 	va_list va;
 239:.\Generated_Source\PSoC4/tinyprintf_1_printf.c **** 	va_start(va,fmt);
 943              		.loc 1 239 0
 944 000a 3B1C     		mov	r3, r7
 945 000c 2033     		add	r3, r3, #32
 946 000e FB60     		str	r3, [r7, #12]
 240:.\Generated_Source\PSoC4/tinyprintf_1_printf.c **** 	tfp_format(&s,putcp,fmt,va);
 947              		.loc 1 240 0
 948 0010 381D     		add	r0, r7, #4
 949 0012 0849     		ldr	r1, .L62
 950 0014 FA69     		ldr	r2, [r7, #28]
 951 0016 FB68     		ldr	r3, [r7, #12]
 952 0018 FFF7FEFF 		bl	tfp_format
 241:.\Generated_Source\PSoC4/tinyprintf_1_printf.c **** 	putcp(&s,0);
 953              		.loc 1 241 0
 954 001c 3B1D     		add	r3, r7, #4
 955 001e 181C     		mov	r0, r3
 956 0020 0021     		mov	r1, #0
 957 0022 FFF7FEFF 		bl	putcp
 242:.\Generated_Source\PSoC4/tinyprintf_1_printf.c **** 	va_end(va);
 243:.\Generated_Source\PSoC4/tinyprintf_1_printf.c **** 	}
 958              		.loc 1 243 0
 959 0026 BD46     		mov	sp, r7
 960 0028 05B0     		add	sp, sp, #20
 961              		@ sp needed
 962 002a 80BC     		pop	{r7}
 963 002c 08BC     		pop	{r3}
 964 002e 03B0     		add	sp, sp, #12
 965 0030 1847     		bx	r3
 966              	.L63:
 967 0032 C046     		.align	2
 968              	.L62:
 969 0034 00000000 		.word	putcp
 970              		.cfi_endproc
 971              	.LFE9:
 972              		.size	tfp_sprintf, .-tfp_sprintf
 973              		.text
 974              	.Letext0:
 975              		.file 2 "c:\\program files (x86)\\cypress\\psoc creator\\3.1\\psoc creator\\import\\gnu_cs\\arm\\4
 976              		.file 3 "<built-in>"