ARM GAS  C:\Users\Clayton\AppData\Local\Temp\ccV6CXNe.s 			page 1


   1              		.cpu cortex-m0
   2              		.fpu softvfp
   3              		.eabi_attribute 20, 1
   4              		.eabi_attribute 21, 1
   5              		.eabi_attribute 23, 3
   6              		.eabi_attribute 24, 1
   7              		.eabi_attribute 25, 1
   8              		.eabi_attribute 26, 1
   9              		.eabi_attribute 30, 6
  10              		.eabi_attribute 34, 0
  11              		.eabi_attribute 18, 4
  12              		.code	16
  13              		.file	"UART_1.c"
  14              		.text
  15              	.Ltext0:
  16              		.cfi_sections	.debug_frame
  17              		.global	UART_1_initVar
  18              		.bss
  19              		.type	UART_1_initVar, %object
  20              		.size	UART_1_initVar, 1
  21              	UART_1_initVar:
  22 0000 00       		.space	1
  23              		.global	UART_1_customIntrHandler
  24 0001 000000   		.align	2
  25              		.type	UART_1_customIntrHandler, %object
  26              		.size	UART_1_customIntrHandler, 4
  27              	UART_1_customIntrHandler:
  28 0004 00000000 		.space	4
  29              		.section	.text.UART_1_Init,"ax",%progbits
  30              		.align	2
  31              		.global	UART_1_Init
  32              		.code	16
  33              		.thumb_func
  34              		.type	UART_1_Init, %function
  35              	UART_1_Init:
  36              	.LFB0:
  37              		.file 1 ".\\Generated_Source\\PSoC4\\UART_1.c"
   1:.\Generated_Source\PSoC4/UART_1.c **** /*******************************************************************************
   2:.\Generated_Source\PSoC4/UART_1.c **** * File Name: UART_1.c
   3:.\Generated_Source\PSoC4/UART_1.c **** * Version 2.0
   4:.\Generated_Source\PSoC4/UART_1.c **** *
   5:.\Generated_Source\PSoC4/UART_1.c **** * Description:
   6:.\Generated_Source\PSoC4/UART_1.c **** *  This file provides the source code to the API for the SCB Component.
   7:.\Generated_Source\PSoC4/UART_1.c **** *
   8:.\Generated_Source\PSoC4/UART_1.c **** * Note:
   9:.\Generated_Source\PSoC4/UART_1.c **** *
  10:.\Generated_Source\PSoC4/UART_1.c **** *******************************************************************************
  11:.\Generated_Source\PSoC4/UART_1.c **** * Copyright 2013-2014, Cypress Semiconductor Corporation.  All rights reserved.
  12:.\Generated_Source\PSoC4/UART_1.c **** * You may use this file only in accordance with the license, terms, conditions,
  13:.\Generated_Source\PSoC4/UART_1.c **** * disclaimers, and limitations in the end user license agreement accompanying
  14:.\Generated_Source\PSoC4/UART_1.c **** * the software package with which this file was provided.
  15:.\Generated_Source\PSoC4/UART_1.c **** *******************************************************************************/
  16:.\Generated_Source\PSoC4/UART_1.c **** 
  17:.\Generated_Source\PSoC4/UART_1.c **** #include "UART_1_PVT.h"
  18:.\Generated_Source\PSoC4/UART_1.c **** 
  19:.\Generated_Source\PSoC4/UART_1.c **** #if(UART_1_SCB_MODE_I2C_INC)
  20:.\Generated_Source\PSoC4/UART_1.c ****     #include "UART_1_I2C_PVT.h"
ARM GAS  C:\Users\Clayton\AppData\Local\Temp\ccV6CXNe.s 			page 2


  21:.\Generated_Source\PSoC4/UART_1.c **** #endif /* (UART_1_SCB_MODE_I2C_INC) */
  22:.\Generated_Source\PSoC4/UART_1.c **** 
  23:.\Generated_Source\PSoC4/UART_1.c **** #if(UART_1_SCB_MODE_EZI2C_INC)
  24:.\Generated_Source\PSoC4/UART_1.c ****     #include "UART_1_EZI2C_PVT.h"
  25:.\Generated_Source\PSoC4/UART_1.c **** #endif /* (UART_1_SCB_MODE_EZI2C_INC) */
  26:.\Generated_Source\PSoC4/UART_1.c **** 
  27:.\Generated_Source\PSoC4/UART_1.c **** #if(UART_1_SCB_MODE_SPI_INC || UART_1_SCB_MODE_UART_INC)
  28:.\Generated_Source\PSoC4/UART_1.c ****     #include "UART_1_SPI_UART_PVT.h"
  29:.\Generated_Source\PSoC4/UART_1.c **** #endif /* (UART_1_SCB_MODE_SPI_INC || UART_1_SCB_MODE_UART_INC) */
  30:.\Generated_Source\PSoC4/UART_1.c **** 
  31:.\Generated_Source\PSoC4/UART_1.c **** 
  32:.\Generated_Source\PSoC4/UART_1.c **** /***************************************
  33:.\Generated_Source\PSoC4/UART_1.c **** *    Run Time Configuration Vars
  34:.\Generated_Source\PSoC4/UART_1.c **** ***************************************/
  35:.\Generated_Source\PSoC4/UART_1.c **** 
  36:.\Generated_Source\PSoC4/UART_1.c **** /* Stores internal component configuration for Unconfigured mode */
  37:.\Generated_Source\PSoC4/UART_1.c **** #if(UART_1_SCB_MODE_UNCONFIG_CONST_CFG)
  38:.\Generated_Source\PSoC4/UART_1.c ****     /* Common configuration variables */
  39:.\Generated_Source\PSoC4/UART_1.c ****     uint8 UART_1_scbMode = UART_1_SCB_MODE_UNCONFIG;
  40:.\Generated_Source\PSoC4/UART_1.c ****     uint8 UART_1_scbEnableWake;
  41:.\Generated_Source\PSoC4/UART_1.c ****     uint8 UART_1_scbEnableIntr;
  42:.\Generated_Source\PSoC4/UART_1.c **** 
  43:.\Generated_Source\PSoC4/UART_1.c ****     /* I2C configuration variables */
  44:.\Generated_Source\PSoC4/UART_1.c ****     uint8 UART_1_mode;
  45:.\Generated_Source\PSoC4/UART_1.c ****     uint8 UART_1_acceptAddr;
  46:.\Generated_Source\PSoC4/UART_1.c **** 
  47:.\Generated_Source\PSoC4/UART_1.c ****     /* SPI/UART configuration variables */
  48:.\Generated_Source\PSoC4/UART_1.c ****     volatile uint8 * UART_1_rxBuffer;
  49:.\Generated_Source\PSoC4/UART_1.c ****     uint8  UART_1_rxDataBits;
  50:.\Generated_Source\PSoC4/UART_1.c ****     uint32 UART_1_rxBufferSize;
  51:.\Generated_Source\PSoC4/UART_1.c **** 
  52:.\Generated_Source\PSoC4/UART_1.c ****     volatile uint8 * UART_1_txBuffer;
  53:.\Generated_Source\PSoC4/UART_1.c ****     uint8  UART_1_txDataBits;
  54:.\Generated_Source\PSoC4/UART_1.c ****     uint32 UART_1_txBufferSize;
  55:.\Generated_Source\PSoC4/UART_1.c **** 
  56:.\Generated_Source\PSoC4/UART_1.c ****     /* EZI2C configuration variables */
  57:.\Generated_Source\PSoC4/UART_1.c ****     uint8 UART_1_numberOfAddr;
  58:.\Generated_Source\PSoC4/UART_1.c ****     uint8 UART_1_subAddrSize;
  59:.\Generated_Source\PSoC4/UART_1.c **** #endif /* (UART_1_SCB_MODE_UNCONFIG_CONST_CFG) */
  60:.\Generated_Source\PSoC4/UART_1.c **** 
  61:.\Generated_Source\PSoC4/UART_1.c **** 
  62:.\Generated_Source\PSoC4/UART_1.c **** /***************************************
  63:.\Generated_Source\PSoC4/UART_1.c **** *     Common SCB Vars
  64:.\Generated_Source\PSoC4/UART_1.c **** ***************************************/
  65:.\Generated_Source\PSoC4/UART_1.c **** 
  66:.\Generated_Source\PSoC4/UART_1.c **** uint8 UART_1_initVar = 0u;
  67:.\Generated_Source\PSoC4/UART_1.c **** 
  68:.\Generated_Source\PSoC4/UART_1.c **** #if !defined (CY_REMOVE_UART_1_CUSTOM_INTR_HANDLER)
  69:.\Generated_Source\PSoC4/UART_1.c ****     cyisraddress UART_1_customIntrHandler = NULL;
  70:.\Generated_Source\PSoC4/UART_1.c **** #endif /* !defined (CY_REMOVE_UART_1_CUSTOM_INTR_HANDLER) */
  71:.\Generated_Source\PSoC4/UART_1.c **** 
  72:.\Generated_Source\PSoC4/UART_1.c **** 
  73:.\Generated_Source\PSoC4/UART_1.c **** /***************************************
  74:.\Generated_Source\PSoC4/UART_1.c **** *    Private Function Prototypes
  75:.\Generated_Source\PSoC4/UART_1.c **** ***************************************/
  76:.\Generated_Source\PSoC4/UART_1.c **** 
  77:.\Generated_Source\PSoC4/UART_1.c **** static void UART_1_ScbEnableIntr(void);
ARM GAS  C:\Users\Clayton\AppData\Local\Temp\ccV6CXNe.s 			page 3


  78:.\Generated_Source\PSoC4/UART_1.c **** static void UART_1_ScbModeStop(void);
  79:.\Generated_Source\PSoC4/UART_1.c **** 
  80:.\Generated_Source\PSoC4/UART_1.c **** 
  81:.\Generated_Source\PSoC4/UART_1.c **** /*******************************************************************************
  82:.\Generated_Source\PSoC4/UART_1.c **** * Function Name: UART_1_Init
  83:.\Generated_Source\PSoC4/UART_1.c **** ********************************************************************************
  84:.\Generated_Source\PSoC4/UART_1.c **** *
  85:.\Generated_Source\PSoC4/UART_1.c **** * Summary:
  86:.\Generated_Source\PSoC4/UART_1.c **** *  Initializes the SCB component to operate in one of the selected
  87:.\Generated_Source\PSoC4/UART_1.c **** *  configurations: I2C, SPI, UART or EZI2C.
  88:.\Generated_Source\PSoC4/UART_1.c **** *  When the configuration is set to "Unconfigured SCB", this function does
  89:.\Generated_Source\PSoC4/UART_1.c **** *  not do any initialization. Use mode-specific initialization APIs instead:
  90:.\Generated_Source\PSoC4/UART_1.c **** *  SCB_I2CInit, SCB_SpiInit, SCB_UartInit or SCB_EzI2CInit.
  91:.\Generated_Source\PSoC4/UART_1.c **** *
  92:.\Generated_Source\PSoC4/UART_1.c **** * Parameters:
  93:.\Generated_Source\PSoC4/UART_1.c **** *  None
  94:.\Generated_Source\PSoC4/UART_1.c **** *
  95:.\Generated_Source\PSoC4/UART_1.c **** * Return:
  96:.\Generated_Source\PSoC4/UART_1.c **** *  None
  97:.\Generated_Source\PSoC4/UART_1.c **** *
  98:.\Generated_Source\PSoC4/UART_1.c **** *******************************************************************************/
  99:.\Generated_Source\PSoC4/UART_1.c **** void UART_1_Init(void)
 100:.\Generated_Source\PSoC4/UART_1.c **** {
  38              		.loc 1 100 0
  39              		.cfi_startproc
  40 0000 80B5     		push	{r7, lr}
  41              		.cfi_def_cfa_offset 8
  42              		.cfi_offset 7, -8
  43              		.cfi_offset 14, -4
  44 0002 00AF     		add	r7, sp, #0
  45              		.cfi_def_cfa_register 7
 101:.\Generated_Source\PSoC4/UART_1.c **** #if(UART_1_SCB_MODE_UNCONFIG_CONST_CFG)
 102:.\Generated_Source\PSoC4/UART_1.c ****     if(UART_1_SCB_MODE_UNCONFIG_RUNTM_CFG)
 103:.\Generated_Source\PSoC4/UART_1.c ****     {
 104:.\Generated_Source\PSoC4/UART_1.c ****         UART_1_initVar = 0u;
 105:.\Generated_Source\PSoC4/UART_1.c ****     }
 106:.\Generated_Source\PSoC4/UART_1.c ****     else
 107:.\Generated_Source\PSoC4/UART_1.c ****     {
 108:.\Generated_Source\PSoC4/UART_1.c ****         /* Initialization was done before this function call */
 109:.\Generated_Source\PSoC4/UART_1.c ****     }
 110:.\Generated_Source\PSoC4/UART_1.c **** 
 111:.\Generated_Source\PSoC4/UART_1.c **** #elif(UART_1_SCB_MODE_I2C_CONST_CFG)
 112:.\Generated_Source\PSoC4/UART_1.c ****     UART_1_I2CInit();
 113:.\Generated_Source\PSoC4/UART_1.c **** 
 114:.\Generated_Source\PSoC4/UART_1.c **** #elif(UART_1_SCB_MODE_SPI_CONST_CFG)
 115:.\Generated_Source\PSoC4/UART_1.c ****     UART_1_SpiInit();
 116:.\Generated_Source\PSoC4/UART_1.c **** 
 117:.\Generated_Source\PSoC4/UART_1.c **** #elif(UART_1_SCB_MODE_UART_CONST_CFG)
 118:.\Generated_Source\PSoC4/UART_1.c ****     UART_1_UartInit();
  46              		.loc 1 118 0
  47 0004 FFF7FEFF 		bl	UART_1_UartInit
 119:.\Generated_Source\PSoC4/UART_1.c **** 
 120:.\Generated_Source\PSoC4/UART_1.c **** #elif(UART_1_SCB_MODE_EZI2C_CONST_CFG)
 121:.\Generated_Source\PSoC4/UART_1.c ****     UART_1_EzI2CInit();
 122:.\Generated_Source\PSoC4/UART_1.c **** 
 123:.\Generated_Source\PSoC4/UART_1.c **** #endif /* (UART_1_SCB_MODE_UNCONFIG_CONST_CFG) */
 124:.\Generated_Source\PSoC4/UART_1.c **** }
ARM GAS  C:\Users\Clayton\AppData\Local\Temp\ccV6CXNe.s 			page 4


  48              		.loc 1 124 0
  49 0008 BD46     		mov	sp, r7
  50              		@ sp needed
  51 000a 80BD     		pop	{r7, pc}
  52              		.cfi_endproc
  53              	.LFE0:
  54              		.size	UART_1_Init, .-UART_1_Init
  55              		.section	.text.UART_1_Enable,"ax",%progbits
  56              		.align	2
  57              		.global	UART_1_Enable
  58              		.code	16
  59              		.thumb_func
  60              		.type	UART_1_Enable, %function
  61              	UART_1_Enable:
  62              	.LFB1:
 125:.\Generated_Source\PSoC4/UART_1.c **** 
 126:.\Generated_Source\PSoC4/UART_1.c **** 
 127:.\Generated_Source\PSoC4/UART_1.c **** /*******************************************************************************
 128:.\Generated_Source\PSoC4/UART_1.c **** * Function Name: UART_1_Enable
 129:.\Generated_Source\PSoC4/UART_1.c **** ********************************************************************************
 130:.\Generated_Source\PSoC4/UART_1.c **** *
 131:.\Generated_Source\PSoC4/UART_1.c **** * Summary:
 132:.\Generated_Source\PSoC4/UART_1.c **** *  Enables the SCB component operation.
 133:.\Generated_Source\PSoC4/UART_1.c **** *  The SCB configuration should be not changed when the component is enabled.
 134:.\Generated_Source\PSoC4/UART_1.c **** *  Any configuration changes should be made after disabling the component.
 135:.\Generated_Source\PSoC4/UART_1.c **** *
 136:.\Generated_Source\PSoC4/UART_1.c **** * Parameters:
 137:.\Generated_Source\PSoC4/UART_1.c **** *  None
 138:.\Generated_Source\PSoC4/UART_1.c **** *
 139:.\Generated_Source\PSoC4/UART_1.c **** * Return:
 140:.\Generated_Source\PSoC4/UART_1.c **** *  None
 141:.\Generated_Source\PSoC4/UART_1.c **** *
 142:.\Generated_Source\PSoC4/UART_1.c **** *******************************************************************************/
 143:.\Generated_Source\PSoC4/UART_1.c **** void UART_1_Enable(void)
 144:.\Generated_Source\PSoC4/UART_1.c **** {
  63              		.loc 1 144 0
  64              		.cfi_startproc
  65 0000 80B5     		push	{r7, lr}
  66              		.cfi_def_cfa_offset 8
  67              		.cfi_offset 7, -8
  68              		.cfi_offset 14, -4
  69 0002 00AF     		add	r7, sp, #0
  70              		.cfi_def_cfa_register 7
 145:.\Generated_Source\PSoC4/UART_1.c **** #if(UART_1_SCB_MODE_UNCONFIG_CONST_CFG)
 146:.\Generated_Source\PSoC4/UART_1.c ****     /* Enable SCB block, only if it is already configured */
 147:.\Generated_Source\PSoC4/UART_1.c ****     if(!UART_1_SCB_MODE_UNCONFIG_RUNTM_CFG)
 148:.\Generated_Source\PSoC4/UART_1.c ****     {
 149:.\Generated_Source\PSoC4/UART_1.c ****         UART_1_CTRL_REG |= UART_1_CTRL_ENABLED;
 150:.\Generated_Source\PSoC4/UART_1.c **** 
 151:.\Generated_Source\PSoC4/UART_1.c ****         UART_1_ScbEnableIntr();
 152:.\Generated_Source\PSoC4/UART_1.c ****     }
 153:.\Generated_Source\PSoC4/UART_1.c **** #else
 154:.\Generated_Source\PSoC4/UART_1.c ****     UART_1_CTRL_REG |= UART_1_CTRL_ENABLED;
  71              		.loc 1 154 0
  72 0004 054B     		ldr	r3, .L3
  73 0006 054A     		ldr	r2, .L3
  74 0008 1268     		ldr	r2, [r2]
ARM GAS  C:\Users\Clayton\AppData\Local\Temp\ccV6CXNe.s 			page 5


  75 000a 8021     		mov	r1, #128
  76 000c 0906     		lsl	r1, r1, #24
  77 000e 0A43     		orr	r2, r1
  78 0010 1A60     		str	r2, [r3]
 155:.\Generated_Source\PSoC4/UART_1.c **** 
 156:.\Generated_Source\PSoC4/UART_1.c ****     UART_1_ScbEnableIntr();
  79              		.loc 1 156 0
  80 0012 FFF7FEFF 		bl	UART_1_ScbEnableIntr
 157:.\Generated_Source\PSoC4/UART_1.c **** #endif /* (UART_1_SCB_MODE_UNCONFIG_CONST_CFG) */
 158:.\Generated_Source\PSoC4/UART_1.c **** }
  81              		.loc 1 158 0
  82 0016 BD46     		mov	sp, r7
  83              		@ sp needed
  84 0018 80BD     		pop	{r7, pc}
  85              	.L4:
  86 001a C046     		.align	2
  87              	.L3:
  88 001c 00000640 		.word	1074135040
  89              		.cfi_endproc
  90              	.LFE1:
  91              		.size	UART_1_Enable, .-UART_1_Enable
  92              		.section	.text.UART_1_Start,"ax",%progbits
  93              		.align	2
  94              		.global	UART_1_Start
  95              		.code	16
  96              		.thumb_func
  97              		.type	UART_1_Start, %function
  98              	UART_1_Start:
  99              	.LFB2:
 159:.\Generated_Source\PSoC4/UART_1.c **** 
 160:.\Generated_Source\PSoC4/UART_1.c **** 
 161:.\Generated_Source\PSoC4/UART_1.c **** /*******************************************************************************
 162:.\Generated_Source\PSoC4/UART_1.c **** * Function Name: UART_1_Start
 163:.\Generated_Source\PSoC4/UART_1.c **** ********************************************************************************
 164:.\Generated_Source\PSoC4/UART_1.c **** *
 165:.\Generated_Source\PSoC4/UART_1.c **** * Summary:
 166:.\Generated_Source\PSoC4/UART_1.c **** *  Invokes SCB_Init() and SCB_Enable().
 167:.\Generated_Source\PSoC4/UART_1.c **** *  After this function call, the component is enabled and ready for operation.
 168:.\Generated_Source\PSoC4/UART_1.c **** *  When configuration is set to "Unconfigured SCB", the component must first be
 169:.\Generated_Source\PSoC4/UART_1.c **** *  initialized to operate in one of the following configurations: I2C, SPI, UART
 170:.\Generated_Source\PSoC4/UART_1.c **** *  or EZ I2C. Otherwise this function does not enable the component.
 171:.\Generated_Source\PSoC4/UART_1.c **** *
 172:.\Generated_Source\PSoC4/UART_1.c **** * Parameters:
 173:.\Generated_Source\PSoC4/UART_1.c **** *  None
 174:.\Generated_Source\PSoC4/UART_1.c **** *
 175:.\Generated_Source\PSoC4/UART_1.c **** * Return:
 176:.\Generated_Source\PSoC4/UART_1.c **** *  None
 177:.\Generated_Source\PSoC4/UART_1.c **** *
 178:.\Generated_Source\PSoC4/UART_1.c **** * Global variables:
 179:.\Generated_Source\PSoC4/UART_1.c **** *  UART_1_initVar - used to check initial configuration, modified
 180:.\Generated_Source\PSoC4/UART_1.c **** *  on first function call.
 181:.\Generated_Source\PSoC4/UART_1.c **** *
 182:.\Generated_Source\PSoC4/UART_1.c **** *******************************************************************************/
 183:.\Generated_Source\PSoC4/UART_1.c **** void UART_1_Start(void)
 184:.\Generated_Source\PSoC4/UART_1.c **** {
 100              		.loc 1 184 0
 101              		.cfi_startproc
ARM GAS  C:\Users\Clayton\AppData\Local\Temp\ccV6CXNe.s 			page 6


 102 0000 80B5     		push	{r7, lr}
 103              		.cfi_def_cfa_offset 8
 104              		.cfi_offset 7, -8
 105              		.cfi_offset 14, -4
 106 0002 00AF     		add	r7, sp, #0
 107              		.cfi_def_cfa_register 7
 185:.\Generated_Source\PSoC4/UART_1.c ****     if(0u == UART_1_initVar)
 108              		.loc 1 185 0
 109 0004 064B     		ldr	r3, .L7
 110 0006 1B78     		ldrb	r3, [r3]
 111 0008 002B     		cmp	r3, #0
 112 000a 04D1     		bne	.L6
 186:.\Generated_Source\PSoC4/UART_1.c ****     {
 187:.\Generated_Source\PSoC4/UART_1.c ****         UART_1_Init();
 113              		.loc 1 187 0
 114 000c FFF7FEFF 		bl	UART_1_Init
 188:.\Generated_Source\PSoC4/UART_1.c ****         UART_1_initVar = 1u; /* Component was initialized */
 115              		.loc 1 188 0
 116 0010 034B     		ldr	r3, .L7
 117 0012 0122     		mov	r2, #1
 118 0014 1A70     		strb	r2, [r3]
 119              	.L6:
 189:.\Generated_Source\PSoC4/UART_1.c ****     }
 190:.\Generated_Source\PSoC4/UART_1.c **** 
 191:.\Generated_Source\PSoC4/UART_1.c ****     UART_1_Enable();
 120              		.loc 1 191 0
 121 0016 FFF7FEFF 		bl	UART_1_Enable
 192:.\Generated_Source\PSoC4/UART_1.c **** }
 122              		.loc 1 192 0
 123 001a BD46     		mov	sp, r7
 124              		@ sp needed
 125 001c 80BD     		pop	{r7, pc}
 126              	.L8:
 127 001e C046     		.align	2
 128              	.L7:
 129 0020 00000000 		.word	UART_1_initVar
 130              		.cfi_endproc
 131              	.LFE2:
 132              		.size	UART_1_Start, .-UART_1_Start
 133              		.section	.text.UART_1_Stop,"ax",%progbits
 134              		.align	2
 135              		.global	UART_1_Stop
 136              		.code	16
 137              		.thumb_func
 138              		.type	UART_1_Stop, %function
 139              	UART_1_Stop:
 140              	.LFB3:
 193:.\Generated_Source\PSoC4/UART_1.c **** 
 194:.\Generated_Source\PSoC4/UART_1.c **** 
 195:.\Generated_Source\PSoC4/UART_1.c **** /*******************************************************************************
 196:.\Generated_Source\PSoC4/UART_1.c **** * Function Name: UART_1_Stop
 197:.\Generated_Source\PSoC4/UART_1.c **** ********************************************************************************
 198:.\Generated_Source\PSoC4/UART_1.c **** *
 199:.\Generated_Source\PSoC4/UART_1.c **** * Summary:
 200:.\Generated_Source\PSoC4/UART_1.c **** *  Disables the SCB component and its interrupt.
 201:.\Generated_Source\PSoC4/UART_1.c **** *
 202:.\Generated_Source\PSoC4/UART_1.c **** * Parameters:
ARM GAS  C:\Users\Clayton\AppData\Local\Temp\ccV6CXNe.s 			page 7


 203:.\Generated_Source\PSoC4/UART_1.c **** *  None
 204:.\Generated_Source\PSoC4/UART_1.c **** *
 205:.\Generated_Source\PSoC4/UART_1.c **** * Return:
 206:.\Generated_Source\PSoC4/UART_1.c **** *  None
 207:.\Generated_Source\PSoC4/UART_1.c **** *
 208:.\Generated_Source\PSoC4/UART_1.c **** *******************************************************************************/
 209:.\Generated_Source\PSoC4/UART_1.c **** void UART_1_Stop(void)
 210:.\Generated_Source\PSoC4/UART_1.c **** {
 141              		.loc 1 210 0
 142              		.cfi_startproc
 143 0000 80B5     		push	{r7, lr}
 144              		.cfi_def_cfa_offset 8
 145              		.cfi_offset 7, -8
 146              		.cfi_offset 14, -4
 147 0002 00AF     		add	r7, sp, #0
 148              		.cfi_def_cfa_register 7
 211:.\Generated_Source\PSoC4/UART_1.c **** #if(UART_1_SCB_IRQ_INTERNAL)
 212:.\Generated_Source\PSoC4/UART_1.c ****     UART_1_DisableInt();
 213:.\Generated_Source\PSoC4/UART_1.c **** #endif /* (UART_1_SCB_IRQ_INTERNAL) */
 214:.\Generated_Source\PSoC4/UART_1.c **** 
 215:.\Generated_Source\PSoC4/UART_1.c ****     UART_1_CTRL_REG &= (uint32) ~UART_1_CTRL_ENABLED;  /* Disable scb IP */
 149              		.loc 1 215 0
 150 0004 044B     		ldr	r3, .L10
 151 0006 044A     		ldr	r2, .L10
 152 0008 1268     		ldr	r2, [r2]
 153 000a 5200     		lsl	r2, r2, #1
 154 000c 5208     		lsr	r2, r2, #1
 155 000e 1A60     		str	r2, [r3]
 216:.\Generated_Source\PSoC4/UART_1.c **** 
 217:.\Generated_Source\PSoC4/UART_1.c **** #if(UART_1_SCB_IRQ_INTERNAL)
 218:.\Generated_Source\PSoC4/UART_1.c ****     UART_1_ClearPendingInt();
 219:.\Generated_Source\PSoC4/UART_1.c **** #endif /* (UART_1_SCB_IRQ_INTERNAL) */
 220:.\Generated_Source\PSoC4/UART_1.c **** 
 221:.\Generated_Source\PSoC4/UART_1.c ****     UART_1_ScbModeStop(); /* Calls scbMode specific Stop function */
 156              		.loc 1 221 0
 157 0010 FFF7FEFF 		bl	UART_1_ScbModeStop
 222:.\Generated_Source\PSoC4/UART_1.c **** }
 158              		.loc 1 222 0
 159 0014 BD46     		mov	sp, r7
 160              		@ sp needed
 161 0016 80BD     		pop	{r7, pc}
 162              	.L11:
 163              		.align	2
 164              	.L10:
 165 0018 00000640 		.word	1074135040
 166              		.cfi_endproc
 167              	.LFE3:
 168              		.size	UART_1_Stop, .-UART_1_Stop
 169              		.section	.text.UART_1_SetRxFifoLevel,"ax",%progbits
 170              		.align	2
 171              		.global	UART_1_SetRxFifoLevel
 172              		.code	16
 173              		.thumb_func
 174              		.type	UART_1_SetRxFifoLevel, %function
 175              	UART_1_SetRxFifoLevel:
 176              	.LFB4:
 223:.\Generated_Source\PSoC4/UART_1.c **** 
ARM GAS  C:\Users\Clayton\AppData\Local\Temp\ccV6CXNe.s 			page 8


 224:.\Generated_Source\PSoC4/UART_1.c **** 
 225:.\Generated_Source\PSoC4/UART_1.c **** /*******************************************************************************
 226:.\Generated_Source\PSoC4/UART_1.c **** * Function Name: UART_1_SetRxFifoLevel
 227:.\Generated_Source\PSoC4/UART_1.c **** ********************************************************************************
 228:.\Generated_Source\PSoC4/UART_1.c **** *
 229:.\Generated_Source\PSoC4/UART_1.c **** * Summary:
 230:.\Generated_Source\PSoC4/UART_1.c **** *  Sets level in the RX FIFO to generate a RX level interrupt.
 231:.\Generated_Source\PSoC4/UART_1.c **** *  When the RX FIFO has more entries than the RX FIFO level an RX level
 232:.\Generated_Source\PSoC4/UART_1.c **** *  interrupt request is generated.
 233:.\Generated_Source\PSoC4/UART_1.c **** *
 234:.\Generated_Source\PSoC4/UART_1.c **** * Parameters:
 235:.\Generated_Source\PSoC4/UART_1.c **** *  level: Level in the RX FIFO to generate RX level interrupt.
 236:.\Generated_Source\PSoC4/UART_1.c **** *         The range of valid level values is between 0 and RX FIFO depth - 1.
 237:.\Generated_Source\PSoC4/UART_1.c **** *
 238:.\Generated_Source\PSoC4/UART_1.c **** * Return:
 239:.\Generated_Source\PSoC4/UART_1.c **** *  None
 240:.\Generated_Source\PSoC4/UART_1.c **** *
 241:.\Generated_Source\PSoC4/UART_1.c **** *******************************************************************************/
 242:.\Generated_Source\PSoC4/UART_1.c **** void UART_1_SetRxFifoLevel(uint32 level)
 243:.\Generated_Source\PSoC4/UART_1.c **** {
 177              		.loc 1 243 0
 178              		.cfi_startproc
 179 0000 80B5     		push	{r7, lr}
 180              		.cfi_def_cfa_offset 8
 181              		.cfi_offset 7, -8
 182              		.cfi_offset 14, -4
 183 0002 84B0     		sub	sp, sp, #16
 184              		.cfi_def_cfa_offset 24
 185 0004 00AF     		add	r7, sp, #0
 186              		.cfi_def_cfa_register 7
 187 0006 7860     		str	r0, [r7, #4]
 244:.\Generated_Source\PSoC4/UART_1.c ****     uint32 rxFifoCtrl;
 245:.\Generated_Source\PSoC4/UART_1.c **** 
 246:.\Generated_Source\PSoC4/UART_1.c ****     rxFifoCtrl = UART_1_RX_FIFO_CTRL_REG;
 188              		.loc 1 246 0
 189 0008 094B     		ldr	r3, .L13
 190 000a 1B68     		ldr	r3, [r3]
 191 000c FB60     		str	r3, [r7, #12]
 247:.\Generated_Source\PSoC4/UART_1.c **** 
 248:.\Generated_Source\PSoC4/UART_1.c ****     rxFifoCtrl &= ((uint32) ~UART_1_RX_FIFO_CTRL_TRIGGER_LEVEL_MASK); /* Clear level mask bits */
 192              		.loc 1 248 0
 193 000e FB68     		ldr	r3, [r7, #12]
 194 0010 0722     		mov	r2, #7
 195 0012 9343     		bic	r3, r2
 196 0014 FB60     		str	r3, [r7, #12]
 249:.\Generated_Source\PSoC4/UART_1.c ****     rxFifoCtrl |= ((uint32) (UART_1_RX_FIFO_CTRL_TRIGGER_LEVEL_MASK & level));
 197              		.loc 1 249 0
 198 0016 7A68     		ldr	r2, [r7, #4]
 199 0018 0723     		mov	r3, #7
 200 001a 1340     		and	r3, r2
 201 001c FA68     		ldr	r2, [r7, #12]
 202 001e 1343     		orr	r3, r2
 203 0020 FB60     		str	r3, [r7, #12]
 250:.\Generated_Source\PSoC4/UART_1.c **** 
 251:.\Generated_Source\PSoC4/UART_1.c ****     UART_1_RX_FIFO_CTRL_REG = rxFifoCtrl;
 204              		.loc 1 251 0
 205 0022 034B     		ldr	r3, .L13
ARM GAS  C:\Users\Clayton\AppData\Local\Temp\ccV6CXNe.s 			page 9


 206 0024 FA68     		ldr	r2, [r7, #12]
 207 0026 1A60     		str	r2, [r3]
 252:.\Generated_Source\PSoC4/UART_1.c **** }
 208              		.loc 1 252 0
 209 0028 BD46     		mov	sp, r7
 210 002a 04B0     		add	sp, sp, #16
 211              		@ sp needed
 212 002c 80BD     		pop	{r7, pc}
 213              	.L14:
 214 002e C046     		.align	2
 215              	.L13:
 216 0030 04030640 		.word	1074135812
 217              		.cfi_endproc
 218              	.LFE4:
 219              		.size	UART_1_SetRxFifoLevel, .-UART_1_SetRxFifoLevel
 220              		.section	.text.UART_1_SetTxFifoLevel,"ax",%progbits
 221              		.align	2
 222              		.global	UART_1_SetTxFifoLevel
 223              		.code	16
 224              		.thumb_func
 225              		.type	UART_1_SetTxFifoLevel, %function
 226              	UART_1_SetTxFifoLevel:
 227              	.LFB5:
 253:.\Generated_Source\PSoC4/UART_1.c **** 
 254:.\Generated_Source\PSoC4/UART_1.c **** 
 255:.\Generated_Source\PSoC4/UART_1.c **** /*******************************************************************************
 256:.\Generated_Source\PSoC4/UART_1.c **** * Function Name: UART_1_SetTxFifoLevel
 257:.\Generated_Source\PSoC4/UART_1.c **** ********************************************************************************
 258:.\Generated_Source\PSoC4/UART_1.c **** *
 259:.\Generated_Source\PSoC4/UART_1.c **** * Summary:
 260:.\Generated_Source\PSoC4/UART_1.c **** *  Sets level in the TX FIFO to generate a TX level interrupt.
 261:.\Generated_Source\PSoC4/UART_1.c **** *  When the TX FIFO has more entries than the TX FIFO level an TX level
 262:.\Generated_Source\PSoC4/UART_1.c **** *  interrupt request is generated.
 263:.\Generated_Source\PSoC4/UART_1.c **** *
 264:.\Generated_Source\PSoC4/UART_1.c **** * Parameters:
 265:.\Generated_Source\PSoC4/UART_1.c **** *  level: Level in the TX FIFO to generate TX level interrupt.
 266:.\Generated_Source\PSoC4/UART_1.c **** *         The range of valid level values is between 0 and TX FIFO depth - 1.
 267:.\Generated_Source\PSoC4/UART_1.c **** *
 268:.\Generated_Source\PSoC4/UART_1.c **** * Return:
 269:.\Generated_Source\PSoC4/UART_1.c **** *  None
 270:.\Generated_Source\PSoC4/UART_1.c **** *
 271:.\Generated_Source\PSoC4/UART_1.c **** *******************************************************************************/
 272:.\Generated_Source\PSoC4/UART_1.c **** void UART_1_SetTxFifoLevel(uint32 level)
 273:.\Generated_Source\PSoC4/UART_1.c **** {
 228              		.loc 1 273 0
 229              		.cfi_startproc
 230 0000 80B5     		push	{r7, lr}
 231              		.cfi_def_cfa_offset 8
 232              		.cfi_offset 7, -8
 233              		.cfi_offset 14, -4
 234 0002 84B0     		sub	sp, sp, #16
 235              		.cfi_def_cfa_offset 24
 236 0004 00AF     		add	r7, sp, #0
 237              		.cfi_def_cfa_register 7
 238 0006 7860     		str	r0, [r7, #4]
 274:.\Generated_Source\PSoC4/UART_1.c ****     uint32 txFifoCtrl;
 275:.\Generated_Source\PSoC4/UART_1.c **** 
ARM GAS  C:\Users\Clayton\AppData\Local\Temp\ccV6CXNe.s 			page 10


 276:.\Generated_Source\PSoC4/UART_1.c ****     txFifoCtrl = UART_1_TX_FIFO_CTRL_REG;
 239              		.loc 1 276 0
 240 0008 094B     		ldr	r3, .L16
 241 000a 1B68     		ldr	r3, [r3]
 242 000c FB60     		str	r3, [r7, #12]
 277:.\Generated_Source\PSoC4/UART_1.c **** 
 278:.\Generated_Source\PSoC4/UART_1.c ****     txFifoCtrl &= ((uint32) ~UART_1_TX_FIFO_CTRL_TRIGGER_LEVEL_MASK); /* Clear level mask bits */
 243              		.loc 1 278 0
 244 000e FB68     		ldr	r3, [r7, #12]
 245 0010 0722     		mov	r2, #7
 246 0012 9343     		bic	r3, r2
 247 0014 FB60     		str	r3, [r7, #12]
 279:.\Generated_Source\PSoC4/UART_1.c ****     txFifoCtrl |= ((uint32) (UART_1_TX_FIFO_CTRL_TRIGGER_LEVEL_MASK & level));
 248              		.loc 1 279 0
 249 0016 7A68     		ldr	r2, [r7, #4]
 250 0018 0723     		mov	r3, #7
 251 001a 1340     		and	r3, r2
 252 001c FA68     		ldr	r2, [r7, #12]
 253 001e 1343     		orr	r3, r2
 254 0020 FB60     		str	r3, [r7, #12]
 280:.\Generated_Source\PSoC4/UART_1.c **** 
 281:.\Generated_Source\PSoC4/UART_1.c ****     UART_1_TX_FIFO_CTRL_REG = txFifoCtrl;
 255              		.loc 1 281 0
 256 0022 034B     		ldr	r3, .L16
 257 0024 FA68     		ldr	r2, [r7, #12]
 258 0026 1A60     		str	r2, [r3]
 282:.\Generated_Source\PSoC4/UART_1.c **** }
 259              		.loc 1 282 0
 260 0028 BD46     		mov	sp, r7
 261 002a 04B0     		add	sp, sp, #16
 262              		@ sp needed
 263 002c 80BD     		pop	{r7, pc}
 264              	.L17:
 265 002e C046     		.align	2
 266              	.L16:
 267 0030 04020640 		.word	1074135556
 268              		.cfi_endproc
 269              	.LFE5:
 270              		.size	UART_1_SetTxFifoLevel, .-UART_1_SetTxFifoLevel
 271              		.section	.text.UART_1_SetCustomInterruptHandler,"ax",%progbits
 272              		.align	2
 273              		.global	UART_1_SetCustomInterruptHandler
 274              		.code	16
 275              		.thumb_func
 276              		.type	UART_1_SetCustomInterruptHandler, %function
 277              	UART_1_SetCustomInterruptHandler:
 278              	.LFB6:
 283:.\Generated_Source\PSoC4/UART_1.c **** 
 284:.\Generated_Source\PSoC4/UART_1.c **** 
 285:.\Generated_Source\PSoC4/UART_1.c **** /*******************************************************************************
 286:.\Generated_Source\PSoC4/UART_1.c **** * Function Name: UART_1_SetCustomInterruptHandler
 287:.\Generated_Source\PSoC4/UART_1.c **** ********************************************************************************
 288:.\Generated_Source\PSoC4/UART_1.c **** *
 289:.\Generated_Source\PSoC4/UART_1.c **** * Summary:
 290:.\Generated_Source\PSoC4/UART_1.c **** *  Registers a function to be called by the internal interrupt handler.
 291:.\Generated_Source\PSoC4/UART_1.c **** *  First the function that is registered is called, then the internal interrupt
 292:.\Generated_Source\PSoC4/UART_1.c **** *  handler performs any operation such as software buffer management functions
ARM GAS  C:\Users\Clayton\AppData\Local\Temp\ccV6CXNe.s 			page 11


 293:.\Generated_Source\PSoC4/UART_1.c **** *  before the interrupt returns.  It is the user's responsibility not to break
 294:.\Generated_Source\PSoC4/UART_1.c **** *  the software buffer operations. Only one custom handler is supported, which
 295:.\Generated_Source\PSoC4/UART_1.c **** *  is the function provided by the most recent call.
 296:.\Generated_Source\PSoC4/UART_1.c **** *  At the initialization time no custom handler is registered.
 297:.\Generated_Source\PSoC4/UART_1.c **** *
 298:.\Generated_Source\PSoC4/UART_1.c **** * Parameters:
 299:.\Generated_Source\PSoC4/UART_1.c **** *  func: Pointer to the function to register.
 300:.\Generated_Source\PSoC4/UART_1.c **** *        The value NULL indicates to remove the current custom interrupt
 301:.\Generated_Source\PSoC4/UART_1.c **** *        handler.
 302:.\Generated_Source\PSoC4/UART_1.c **** *
 303:.\Generated_Source\PSoC4/UART_1.c **** * Return:
 304:.\Generated_Source\PSoC4/UART_1.c **** *  None
 305:.\Generated_Source\PSoC4/UART_1.c **** *
 306:.\Generated_Source\PSoC4/UART_1.c **** *******************************************************************************/
 307:.\Generated_Source\PSoC4/UART_1.c **** void UART_1_SetCustomInterruptHandler(cyisraddress func)
 308:.\Generated_Source\PSoC4/UART_1.c **** {
 279              		.loc 1 308 0
 280              		.cfi_startproc
 281 0000 80B5     		push	{r7, lr}
 282              		.cfi_def_cfa_offset 8
 283              		.cfi_offset 7, -8
 284              		.cfi_offset 14, -4
 285 0002 82B0     		sub	sp, sp, #8
 286              		.cfi_def_cfa_offset 16
 287 0004 00AF     		add	r7, sp, #0
 288              		.cfi_def_cfa_register 7
 289 0006 7860     		str	r0, [r7, #4]
 309:.\Generated_Source\PSoC4/UART_1.c **** #if !defined (CY_REMOVE_UART_1_CUSTOM_INTR_HANDLER)
 310:.\Generated_Source\PSoC4/UART_1.c ****     UART_1_customIntrHandler = func; /* Register interrupt handler */
 290              		.loc 1 310 0
 291 0008 024B     		ldr	r3, .L19
 292 000a 7A68     		ldr	r2, [r7, #4]
 293 000c 1A60     		str	r2, [r3]
 311:.\Generated_Source\PSoC4/UART_1.c **** #else
 312:.\Generated_Source\PSoC4/UART_1.c ****     if(NULL != func)
 313:.\Generated_Source\PSoC4/UART_1.c ****     {
 314:.\Generated_Source\PSoC4/UART_1.c ****         /* Suppress compiler warning */
 315:.\Generated_Source\PSoC4/UART_1.c ****     }
 316:.\Generated_Source\PSoC4/UART_1.c **** #endif /* !defined (CY_REMOVE_UART_1_CUSTOM_INTR_HANDLER) */
 317:.\Generated_Source\PSoC4/UART_1.c **** }
 294              		.loc 1 317 0
 295 000e BD46     		mov	sp, r7
 296 0010 02B0     		add	sp, sp, #8
 297              		@ sp needed
 298 0012 80BD     		pop	{r7, pc}
 299              	.L20:
 300              		.align	2
 301              	.L19:
 302 0014 00000000 		.word	UART_1_customIntrHandler
 303              		.cfi_endproc
 304              	.LFE6:
 305              		.size	UART_1_SetCustomInterruptHandler, .-UART_1_SetCustomInterruptHandler
 306              		.section	.text.UART_1_ScbEnableIntr,"ax",%progbits
 307              		.align	2
 308              		.code	16
 309              		.thumb_func
 310              		.type	UART_1_ScbEnableIntr, %function
ARM GAS  C:\Users\Clayton\AppData\Local\Temp\ccV6CXNe.s 			page 12


 311              	UART_1_ScbEnableIntr:
 312              	.LFB7:
 318:.\Generated_Source\PSoC4/UART_1.c **** 
 319:.\Generated_Source\PSoC4/UART_1.c **** 
 320:.\Generated_Source\PSoC4/UART_1.c **** /*******************************************************************************
 321:.\Generated_Source\PSoC4/UART_1.c **** * Function Name: UART_1_ScbModeEnableIntr
 322:.\Generated_Source\PSoC4/UART_1.c **** ********************************************************************************
 323:.\Generated_Source\PSoC4/UART_1.c **** *
 324:.\Generated_Source\PSoC4/UART_1.c **** * Summary:
 325:.\Generated_Source\PSoC4/UART_1.c **** *  Enables an interrupt for a specific mode.
 326:.\Generated_Source\PSoC4/UART_1.c **** *
 327:.\Generated_Source\PSoC4/UART_1.c **** * Parameters:
 328:.\Generated_Source\PSoC4/UART_1.c **** *  None
 329:.\Generated_Source\PSoC4/UART_1.c **** *
 330:.\Generated_Source\PSoC4/UART_1.c **** * Return:
 331:.\Generated_Source\PSoC4/UART_1.c **** *  None
 332:.\Generated_Source\PSoC4/UART_1.c **** *
 333:.\Generated_Source\PSoC4/UART_1.c **** *******************************************************************************/
 334:.\Generated_Source\PSoC4/UART_1.c **** static void UART_1_ScbEnableIntr(void)
 335:.\Generated_Source\PSoC4/UART_1.c **** {
 313              		.loc 1 335 0
 314              		.cfi_startproc
 315 0000 80B5     		push	{r7, lr}
 316              		.cfi_def_cfa_offset 8
 317              		.cfi_offset 7, -8
 318              		.cfi_offset 14, -4
 319 0002 00AF     		add	r7, sp, #0
 320              		.cfi_def_cfa_register 7
 336:.\Generated_Source\PSoC4/UART_1.c **** #if(UART_1_SCB_IRQ_INTERNAL)
 337:.\Generated_Source\PSoC4/UART_1.c ****     #if(UART_1_SCB_MODE_UNCONFIG_CONST_CFG)
 338:.\Generated_Source\PSoC4/UART_1.c ****         /* Enable interrupt in NVIC */
 339:.\Generated_Source\PSoC4/UART_1.c ****         if(0u != UART_1_scbEnableIntr)
 340:.\Generated_Source\PSoC4/UART_1.c ****         {
 341:.\Generated_Source\PSoC4/UART_1.c ****             UART_1_EnableInt();
 342:.\Generated_Source\PSoC4/UART_1.c ****         }
 343:.\Generated_Source\PSoC4/UART_1.c ****     #else
 344:.\Generated_Source\PSoC4/UART_1.c ****         UART_1_EnableInt();
 345:.\Generated_Source\PSoC4/UART_1.c **** 
 346:.\Generated_Source\PSoC4/UART_1.c ****     #endif /* (UART_1_SCB_MODE_UNCONFIG_CONST_CFG) */
 347:.\Generated_Source\PSoC4/UART_1.c **** #endif /* (UART_1_SCB_IRQ_INTERNAL) */
 348:.\Generated_Source\PSoC4/UART_1.c **** }
 321              		.loc 1 348 0
 322 0004 BD46     		mov	sp, r7
 323              		@ sp needed
 324 0006 80BD     		pop	{r7, pc}
 325              		.cfi_endproc
 326              	.LFE7:
 327              		.size	UART_1_ScbEnableIntr, .-UART_1_ScbEnableIntr
 328              		.section	.text.UART_1_ScbModeStop,"ax",%progbits
 329              		.align	2
 330              		.code	16
 331              		.thumb_func
 332              		.type	UART_1_ScbModeStop, %function
 333              	UART_1_ScbModeStop:
 334              	.LFB8:
 349:.\Generated_Source\PSoC4/UART_1.c **** 
 350:.\Generated_Source\PSoC4/UART_1.c **** 
ARM GAS  C:\Users\Clayton\AppData\Local\Temp\ccV6CXNe.s 			page 13


 351:.\Generated_Source\PSoC4/UART_1.c **** /*******************************************************************************
 352:.\Generated_Source\PSoC4/UART_1.c **** * Function Name: UART_1_ScbModeStop
 353:.\Generated_Source\PSoC4/UART_1.c **** ********************************************************************************
 354:.\Generated_Source\PSoC4/UART_1.c **** *
 355:.\Generated_Source\PSoC4/UART_1.c **** * Summary:
 356:.\Generated_Source\PSoC4/UART_1.c **** *  Calls the Stop function for a specific operation mode.
 357:.\Generated_Source\PSoC4/UART_1.c **** *
 358:.\Generated_Source\PSoC4/UART_1.c **** * Parameters:
 359:.\Generated_Source\PSoC4/UART_1.c **** *  None
 360:.\Generated_Source\PSoC4/UART_1.c **** *
 361:.\Generated_Source\PSoC4/UART_1.c **** * Return:
 362:.\Generated_Source\PSoC4/UART_1.c **** *  None
 363:.\Generated_Source\PSoC4/UART_1.c **** *
 364:.\Generated_Source\PSoC4/UART_1.c **** *******************************************************************************/
 365:.\Generated_Source\PSoC4/UART_1.c **** static void UART_1_ScbModeStop(void)
 366:.\Generated_Source\PSoC4/UART_1.c **** {
 335              		.loc 1 366 0
 336              		.cfi_startproc
 337 0000 80B5     		push	{r7, lr}
 338              		.cfi_def_cfa_offset 8
 339              		.cfi_offset 7, -8
 340              		.cfi_offset 14, -4
 341 0002 00AF     		add	r7, sp, #0
 342              		.cfi_def_cfa_register 7
 367:.\Generated_Source\PSoC4/UART_1.c **** #if(UART_1_SCB_MODE_UNCONFIG_CONST_CFG)
 368:.\Generated_Source\PSoC4/UART_1.c ****     if(UART_1_SCB_MODE_I2C_RUNTM_CFG)
 369:.\Generated_Source\PSoC4/UART_1.c ****     {
 370:.\Generated_Source\PSoC4/UART_1.c ****         UART_1_I2CStop();
 371:.\Generated_Source\PSoC4/UART_1.c ****     }
 372:.\Generated_Source\PSoC4/UART_1.c ****     else if (UART_1_SCB_MODE_EZI2C_RUNTM_CFG)
 373:.\Generated_Source\PSoC4/UART_1.c ****     {
 374:.\Generated_Source\PSoC4/UART_1.c ****         UART_1_EzI2CStop();
 375:.\Generated_Source\PSoC4/UART_1.c ****     }
 376:.\Generated_Source\PSoC4/UART_1.c **** #if (!UART_1_CY_SCBIP_V1)
 377:.\Generated_Source\PSoC4/UART_1.c ****     else if (UART_1_SCB_MODE_UART_RUNTM_CFG)
 378:.\Generated_Source\PSoC4/UART_1.c ****     {
 379:.\Generated_Source\PSoC4/UART_1.c ****         UART_1_UartStop();
 380:.\Generated_Source\PSoC4/UART_1.c ****     }
 381:.\Generated_Source\PSoC4/UART_1.c **** #endif /* (!UART_1_CY_SCBIP_V1) */
 382:.\Generated_Source\PSoC4/UART_1.c ****     else
 383:.\Generated_Source\PSoC4/UART_1.c ****     {
 384:.\Generated_Source\PSoC4/UART_1.c ****         /* Do nothing for other modes */
 385:.\Generated_Source\PSoC4/UART_1.c ****     }
 386:.\Generated_Source\PSoC4/UART_1.c **** #elif(UART_1_SCB_MODE_I2C_CONST_CFG)
 387:.\Generated_Source\PSoC4/UART_1.c ****     UART_1_I2CStop();
 388:.\Generated_Source\PSoC4/UART_1.c **** 
 389:.\Generated_Source\PSoC4/UART_1.c **** #elif(UART_1_SCB_MODE_EZI2C_CONST_CFG)
 390:.\Generated_Source\PSoC4/UART_1.c ****     UART_1_EzI2CStop();
 391:.\Generated_Source\PSoC4/UART_1.c **** 
 392:.\Generated_Source\PSoC4/UART_1.c **** #elif(UART_1_SCB_MODE_UART_CONST_CFG)
 393:.\Generated_Source\PSoC4/UART_1.c ****     UART_1_UartStop();
 394:.\Generated_Source\PSoC4/UART_1.c **** 
 395:.\Generated_Source\PSoC4/UART_1.c **** #endif /* (UART_1_SCB_MODE_UNCONFIG_CONST_CFG) */
 396:.\Generated_Source\PSoC4/UART_1.c **** }
 343              		.loc 1 396 0
 344 0004 BD46     		mov	sp, r7
 345              		@ sp needed
ARM GAS  C:\Users\Clayton\AppData\Local\Temp\ccV6CXNe.s 			page 14


 346 0006 80BD     		pop	{r7, pc}
 347              		.cfi_endproc
 348              	.LFE8:
 349              		.size	UART_1_ScbModeStop, .-UART_1_ScbModeStop
 350              		.section	.text.UART_1_I2CSlaveNackGeneration,"ax",%progbits
 351              		.align	2
 352              		.global	UART_1_I2CSlaveNackGeneration
 353              		.code	16
 354              		.thumb_func
 355              		.type	UART_1_I2CSlaveNackGeneration, %function
 356              	UART_1_I2CSlaveNackGeneration:
 357              	.LFB9:
 397:.\Generated_Source\PSoC4/UART_1.c **** 
 398:.\Generated_Source\PSoC4/UART_1.c **** 
 399:.\Generated_Source\PSoC4/UART_1.c **** #if(UART_1_SCB_MODE_UNCONFIG_CONST_CFG)
 400:.\Generated_Source\PSoC4/UART_1.c ****     /*******************************************************************************
 401:.\Generated_Source\PSoC4/UART_1.c ****     * Function Name: UART_1_SetPins
 402:.\Generated_Source\PSoC4/UART_1.c ****     ********************************************************************************
 403:.\Generated_Source\PSoC4/UART_1.c ****     *
 404:.\Generated_Source\PSoC4/UART_1.c ****     * Summary:
 405:.\Generated_Source\PSoC4/UART_1.c ****     *  Sets the pins settings accordingly to the selected operation mode.
 406:.\Generated_Source\PSoC4/UART_1.c ****     *  Only available in the Unconfigured operation mode. The mode specific
 407:.\Generated_Source\PSoC4/UART_1.c ****     *  initialization function calls it.
 408:.\Generated_Source\PSoC4/UART_1.c ****     *  Pins configuration is set by PSoC Creator when a specific mode of operation
 409:.\Generated_Source\PSoC4/UART_1.c ****     *  is selected in design time.
 410:.\Generated_Source\PSoC4/UART_1.c ****     *
 411:.\Generated_Source\PSoC4/UART_1.c ****     * Parameters:
 412:.\Generated_Source\PSoC4/UART_1.c ****     *  mode:      Mode of SCB operation.
 413:.\Generated_Source\PSoC4/UART_1.c ****     *  subMode:   Sub-mode of SCB operation. It is only required for SPI and UART
 414:.\Generated_Source\PSoC4/UART_1.c ****     *             modes.
 415:.\Generated_Source\PSoC4/UART_1.c ****     *  uartEnableMask: enables TX or RX direction and RTS and CTS signals.
 416:.\Generated_Source\PSoC4/UART_1.c ****     *
 417:.\Generated_Source\PSoC4/UART_1.c ****     * Return:
 418:.\Generated_Source\PSoC4/UART_1.c ****     *  None
 419:.\Generated_Source\PSoC4/UART_1.c ****     *
 420:.\Generated_Source\PSoC4/UART_1.c ****     *******************************************************************************/
 421:.\Generated_Source\PSoC4/UART_1.c ****     void UART_1_SetPins(uint32 mode, uint32 subMode, uint32 uartEnableMask)
 422:.\Generated_Source\PSoC4/UART_1.c ****     {
 423:.\Generated_Source\PSoC4/UART_1.c ****         uint32 hsiomSel [UART_1_SCB_PINS_NUMBER];
 424:.\Generated_Source\PSoC4/UART_1.c ****         uint32 pinsDm   [UART_1_SCB_PINS_NUMBER];
 425:.\Generated_Source\PSoC4/UART_1.c **** 
 426:.\Generated_Source\PSoC4/UART_1.c ****     #if (!UART_1_CY_SCBIP_V1)
 427:.\Generated_Source\PSoC4/UART_1.c ****         uint32 pinsInBuf = 0u;
 428:.\Generated_Source\PSoC4/UART_1.c ****     #endif /* (!UART_1_CY_SCBIP_V1) */
 429:.\Generated_Source\PSoC4/UART_1.c **** 
 430:.\Generated_Source\PSoC4/UART_1.c ****         uint32 i;
 431:.\Generated_Source\PSoC4/UART_1.c **** 
 432:.\Generated_Source\PSoC4/UART_1.c ****         /* Set default HSIOM to GPIO and Drive Mode to Analog Hi-Z */
 433:.\Generated_Source\PSoC4/UART_1.c ****         for(i = 0u; i < UART_1_SCB_PINS_NUMBER; i++)
 434:.\Generated_Source\PSoC4/UART_1.c ****         {
 435:.\Generated_Source\PSoC4/UART_1.c ****             hsiomSel[i]  = UART_1_HSIOM_DEF_SEL;
 436:.\Generated_Source\PSoC4/UART_1.c ****             pinsDm[i]    = UART_1_PIN_DM_ALG_HIZ;
 437:.\Generated_Source\PSoC4/UART_1.c ****         }
 438:.\Generated_Source\PSoC4/UART_1.c **** 
 439:.\Generated_Source\PSoC4/UART_1.c ****         if((UART_1_SCB_MODE_I2C   == mode) ||
 440:.\Generated_Source\PSoC4/UART_1.c ****            (UART_1_SCB_MODE_EZI2C == mode))
 441:.\Generated_Source\PSoC4/UART_1.c ****         {
ARM GAS  C:\Users\Clayton\AppData\Local\Temp\ccV6CXNe.s 			page 15


 442:.\Generated_Source\PSoC4/UART_1.c ****             hsiomSel[UART_1_MOSI_SCL_RX_PIN_INDEX] = UART_1_HSIOM_I2C_SEL;
 443:.\Generated_Source\PSoC4/UART_1.c ****             hsiomSel[UART_1_MISO_SDA_TX_PIN_INDEX] = UART_1_HSIOM_I2C_SEL;
 444:.\Generated_Source\PSoC4/UART_1.c **** 
 445:.\Generated_Source\PSoC4/UART_1.c ****             pinsDm[UART_1_MOSI_SCL_RX_PIN_INDEX] = UART_1_PIN_DM_OD_LO;
 446:.\Generated_Source\PSoC4/UART_1.c ****             pinsDm[UART_1_MISO_SDA_TX_PIN_INDEX] = UART_1_PIN_DM_OD_LO;
 447:.\Generated_Source\PSoC4/UART_1.c ****         }
 448:.\Generated_Source\PSoC4/UART_1.c ****     #if (!UART_1_CY_SCBIP_V1)
 449:.\Generated_Source\PSoC4/UART_1.c ****         else if(UART_1_SCB_MODE_SPI == mode)
 450:.\Generated_Source\PSoC4/UART_1.c ****         {
 451:.\Generated_Source\PSoC4/UART_1.c ****             hsiomSel[UART_1_MOSI_SCL_RX_PIN_INDEX] = UART_1_HSIOM_SPI_SEL;
 452:.\Generated_Source\PSoC4/UART_1.c ****             hsiomSel[UART_1_MISO_SDA_TX_PIN_INDEX] = UART_1_HSIOM_SPI_SEL;
 453:.\Generated_Source\PSoC4/UART_1.c ****             hsiomSel[UART_1_SCLK_PIN_INDEX]        = UART_1_HSIOM_SPI_SEL;
 454:.\Generated_Source\PSoC4/UART_1.c **** 
 455:.\Generated_Source\PSoC4/UART_1.c ****             if(UART_1_SPI_SLAVE == subMode)
 456:.\Generated_Source\PSoC4/UART_1.c ****             {
 457:.\Generated_Source\PSoC4/UART_1.c ****                 /* Slave */
 458:.\Generated_Source\PSoC4/UART_1.c ****                 pinsDm[UART_1_MOSI_SCL_RX_PIN_INDEX] = UART_1_PIN_DM_DIG_HIZ;
 459:.\Generated_Source\PSoC4/UART_1.c ****                 pinsDm[UART_1_MISO_SDA_TX_PIN_INDEX] = UART_1_PIN_DM_STRONG;
 460:.\Generated_Source\PSoC4/UART_1.c ****                 pinsDm[UART_1_SCLK_PIN_INDEX]        = UART_1_PIN_DM_DIG_HIZ;
 461:.\Generated_Source\PSoC4/UART_1.c **** 
 462:.\Generated_Source\PSoC4/UART_1.c ****             #if(UART_1_SS0_PIN)
 463:.\Generated_Source\PSoC4/UART_1.c ****                 /* Only SS0 is valid choice for Slave */
 464:.\Generated_Source\PSoC4/UART_1.c ****                 hsiomSel[UART_1_SS0_PIN_INDEX] = UART_1_HSIOM_SPI_SEL;
 465:.\Generated_Source\PSoC4/UART_1.c ****                 pinsDm  [UART_1_SS0_PIN_INDEX] = UART_1_PIN_DM_DIG_HIZ;
 466:.\Generated_Source\PSoC4/UART_1.c ****             #endif /* (UART_1_SS1_PIN) */
 467:.\Generated_Source\PSoC4/UART_1.c **** 
 468:.\Generated_Source\PSoC4/UART_1.c ****             #if(UART_1_MISO_SDA_TX_PIN)
 469:.\Generated_Source\PSoC4/UART_1.c ****                 /* Disable input buffer */
 470:.\Generated_Source\PSoC4/UART_1.c ****                  pinsInBuf |= UART_1_MISO_SDA_TX_PIN_MASK;
 471:.\Generated_Source\PSoC4/UART_1.c ****             #endif /* (UART_1_MISO_SDA_TX_PIN_PIN) */
 472:.\Generated_Source\PSoC4/UART_1.c ****             }
 473:.\Generated_Source\PSoC4/UART_1.c ****             else /* (Master) */
 474:.\Generated_Source\PSoC4/UART_1.c ****             {
 475:.\Generated_Source\PSoC4/UART_1.c ****                 pinsDm[UART_1_MOSI_SCL_RX_PIN_INDEX] = UART_1_PIN_DM_STRONG;
 476:.\Generated_Source\PSoC4/UART_1.c ****                 pinsDm[UART_1_MISO_SDA_TX_PIN_INDEX] = UART_1_PIN_DM_DIG_HIZ;
 477:.\Generated_Source\PSoC4/UART_1.c ****                 pinsDm[UART_1_SCLK_PIN_INDEX]        = UART_1_PIN_DM_STRONG;
 478:.\Generated_Source\PSoC4/UART_1.c **** 
 479:.\Generated_Source\PSoC4/UART_1.c ****             #if(UART_1_SS0_PIN)
 480:.\Generated_Source\PSoC4/UART_1.c ****                 hsiomSel [UART_1_SS0_PIN_INDEX] = UART_1_HSIOM_SPI_SEL;
 481:.\Generated_Source\PSoC4/UART_1.c ****                 pinsDm   [UART_1_SS0_PIN_INDEX] = UART_1_PIN_DM_STRONG;
 482:.\Generated_Source\PSoC4/UART_1.c ****                 pinsInBuf                                |= UART_1_SS0_PIN_MASK;
 483:.\Generated_Source\PSoC4/UART_1.c ****             #endif /* (UART_1_SS0_PIN) */
 484:.\Generated_Source\PSoC4/UART_1.c **** 
 485:.\Generated_Source\PSoC4/UART_1.c ****             #if(UART_1_SS1_PIN)
 486:.\Generated_Source\PSoC4/UART_1.c ****                 hsiomSel [UART_1_SS1_PIN_INDEX] = UART_1_HSIOM_SPI_SEL;
 487:.\Generated_Source\PSoC4/UART_1.c ****                 pinsDm   [UART_1_SS1_PIN_INDEX] = UART_1_PIN_DM_STRONG;
 488:.\Generated_Source\PSoC4/UART_1.c ****                 pinsInBuf                                |= UART_1_SS1_PIN_MASK;
 489:.\Generated_Source\PSoC4/UART_1.c ****             #endif /* (UART_1_SS1_PIN) */
 490:.\Generated_Source\PSoC4/UART_1.c **** 
 491:.\Generated_Source\PSoC4/UART_1.c ****             #if(UART_1_SS2_PIN)
 492:.\Generated_Source\PSoC4/UART_1.c ****                 hsiomSel [UART_1_SS2_PIN_INDEX] = UART_1_HSIOM_SPI_SEL;
 493:.\Generated_Source\PSoC4/UART_1.c ****                 pinsDm   [UART_1_SS2_PIN_INDEX] = UART_1_PIN_DM_STRONG;
 494:.\Generated_Source\PSoC4/UART_1.c ****                 pinsInBuf                                |= UART_1_SS2_PIN_MASK;
 495:.\Generated_Source\PSoC4/UART_1.c ****             #endif /* (UART_1_SS2_PIN) */
 496:.\Generated_Source\PSoC4/UART_1.c **** 
 497:.\Generated_Source\PSoC4/UART_1.c ****             #if(UART_1_SS3_PIN)
 498:.\Generated_Source\PSoC4/UART_1.c ****                 hsiomSel [UART_1_SS3_PIN_INDEX] = UART_1_HSIOM_SPI_SEL;
ARM GAS  C:\Users\Clayton\AppData\Local\Temp\ccV6CXNe.s 			page 16


 499:.\Generated_Source\PSoC4/UART_1.c ****                 pinsDm   [UART_1_SS3_PIN_INDEX] = UART_1_PIN_DM_STRONG;
 500:.\Generated_Source\PSoC4/UART_1.c ****                 pinsInBuf                                |= UART_1_SS3_PIN_MASK;
 501:.\Generated_Source\PSoC4/UART_1.c ****             #endif /* (UART_1_SS2_PIN) */
 502:.\Generated_Source\PSoC4/UART_1.c **** 
 503:.\Generated_Source\PSoC4/UART_1.c ****                 /* Disable input buffers */
 504:.\Generated_Source\PSoC4/UART_1.c ****             #if(UART_1_MOSI_SCL_RX_PIN)
 505:.\Generated_Source\PSoC4/UART_1.c ****                 pinsInBuf |= UART_1_MOSI_SCL_RX_PIN_MASK;
 506:.\Generated_Source\PSoC4/UART_1.c ****             #endif /* (UART_1_MOSI_SCL_RX_PIN) */
 507:.\Generated_Source\PSoC4/UART_1.c **** 
 508:.\Generated_Source\PSoC4/UART_1.c ****              #if(UART_1_MOSI_SCL_RX_WAKE_PIN)
 509:.\Generated_Source\PSoC4/UART_1.c ****                 pinsInBuf |= UART_1_MOSI_SCL_RX_WAKE_PIN_MASK;
 510:.\Generated_Source\PSoC4/UART_1.c ****             #endif /* (UART_1_MOSI_SCL_RX_WAKE_PIN) */
 511:.\Generated_Source\PSoC4/UART_1.c **** 
 512:.\Generated_Source\PSoC4/UART_1.c ****             #if(UART_1_SCLK_PIN)
 513:.\Generated_Source\PSoC4/UART_1.c ****                 pinsInBuf |= UART_1_SCLK_PIN_MASK;
 514:.\Generated_Source\PSoC4/UART_1.c ****             #endif /* (UART_1_SCLK_PIN) */
 515:.\Generated_Source\PSoC4/UART_1.c ****             }
 516:.\Generated_Source\PSoC4/UART_1.c ****         }
 517:.\Generated_Source\PSoC4/UART_1.c ****         else /* UART */
 518:.\Generated_Source\PSoC4/UART_1.c ****         {
 519:.\Generated_Source\PSoC4/UART_1.c ****             if(UART_1_UART_MODE_SMARTCARD == subMode)
 520:.\Generated_Source\PSoC4/UART_1.c ****             {
 521:.\Generated_Source\PSoC4/UART_1.c ****                 /* SmartCard */
 522:.\Generated_Source\PSoC4/UART_1.c ****                 hsiomSel[UART_1_MISO_SDA_TX_PIN_INDEX] = UART_1_HSIOM_UART_SEL;
 523:.\Generated_Source\PSoC4/UART_1.c ****                 pinsDm  [UART_1_MISO_SDA_TX_PIN_INDEX] = UART_1_PIN_DM_OD_LO;
 524:.\Generated_Source\PSoC4/UART_1.c ****             }
 525:.\Generated_Source\PSoC4/UART_1.c ****             else /* Standard or IrDA */
 526:.\Generated_Source\PSoC4/UART_1.c ****             {
 527:.\Generated_Source\PSoC4/UART_1.c ****                 if(0u != (UART_1_UART_RX_PIN_ENABLE & uartEnableMask))
 528:.\Generated_Source\PSoC4/UART_1.c ****                 {
 529:.\Generated_Source\PSoC4/UART_1.c ****                     hsiomSel[UART_1_MOSI_SCL_RX_PIN_INDEX] = UART_1_HSIOM_UART_SEL;
 530:.\Generated_Source\PSoC4/UART_1.c ****                     pinsDm  [UART_1_MOSI_SCL_RX_PIN_INDEX] = UART_1_PIN_DM_DIG_HIZ;
 531:.\Generated_Source\PSoC4/UART_1.c ****                 }
 532:.\Generated_Source\PSoC4/UART_1.c **** 
 533:.\Generated_Source\PSoC4/UART_1.c ****                 if(0u != (UART_1_UART_TX_PIN_ENABLE & uartEnableMask))
 534:.\Generated_Source\PSoC4/UART_1.c ****                 {
 535:.\Generated_Source\PSoC4/UART_1.c ****                     hsiomSel[UART_1_MISO_SDA_TX_PIN_INDEX] = UART_1_HSIOM_UART_SEL;
 536:.\Generated_Source\PSoC4/UART_1.c ****                     pinsDm  [UART_1_MISO_SDA_TX_PIN_INDEX] = UART_1_PIN_DM_STRONG;
 537:.\Generated_Source\PSoC4/UART_1.c **** 
 538:.\Generated_Source\PSoC4/UART_1.c ****                 #if(UART_1_MISO_SDA_TX_PIN)
 539:.\Generated_Source\PSoC4/UART_1.c ****                      pinsInBuf |= UART_1_MISO_SDA_TX_PIN_MASK;
 540:.\Generated_Source\PSoC4/UART_1.c ****                 #endif /* (UART_1_MISO_SDA_TX_PIN_PIN) */
 541:.\Generated_Source\PSoC4/UART_1.c ****                 }
 542:.\Generated_Source\PSoC4/UART_1.c **** 
 543:.\Generated_Source\PSoC4/UART_1.c ****             #if !(UART_1_CY_SCBIP_V0 || UART_1_CY_SCBIP_V1)
 544:.\Generated_Source\PSoC4/UART_1.c ****                 if(UART_1_UART_MODE_STD == subMode)
 545:.\Generated_Source\PSoC4/UART_1.c ****                 {
 546:.\Generated_Source\PSoC4/UART_1.c ****                     if(0u != (UART_1_UART_CTS_PIN_ENABLE & uartEnableMask))
 547:.\Generated_Source\PSoC4/UART_1.c ****                     {
 548:.\Generated_Source\PSoC4/UART_1.c ****                         /* CTS input is multiplexed with SCLK */
 549:.\Generated_Source\PSoC4/UART_1.c ****                         hsiomSel[UART_1_SCLK_PIN_INDEX] = UART_1_HSIOM_UART_SEL;
 550:.\Generated_Source\PSoC4/UART_1.c ****                         pinsDm  [UART_1_SCLK_PIN_INDEX] = UART_1_PIN_DM_DIG_HIZ;
 551:.\Generated_Source\PSoC4/UART_1.c ****                     }
 552:.\Generated_Source\PSoC4/UART_1.c **** 
 553:.\Generated_Source\PSoC4/UART_1.c ****                     if(0u != (UART_1_UART_RTS_PIN_ENABLE & uartEnableMask))
 554:.\Generated_Source\PSoC4/UART_1.c ****                     {
 555:.\Generated_Source\PSoC4/UART_1.c ****                         /* RTS output is multiplexed with SS0 */
ARM GAS  C:\Users\Clayton\AppData\Local\Temp\ccV6CXNe.s 			page 17


 556:.\Generated_Source\PSoC4/UART_1.c ****                         hsiomSel[UART_1_SS0_PIN_INDEX] = UART_1_HSIOM_UART_SEL;
 557:.\Generated_Source\PSoC4/UART_1.c ****                         pinsDm  [UART_1_SS0_PIN_INDEX] = UART_1_PIN_DM_STRONG;
 558:.\Generated_Source\PSoC4/UART_1.c **** 
 559:.\Generated_Source\PSoC4/UART_1.c ****                     #if(UART_1_SS0_PIN)
 560:.\Generated_Source\PSoC4/UART_1.c ****                         /* Disable input buffer */
 561:.\Generated_Source\PSoC4/UART_1.c ****                         pinsInBuf |= UART_1_SS0_PIN_MASK;
 562:.\Generated_Source\PSoC4/UART_1.c ****                     #endif /* (UART_1_SS0_PIN) */
 563:.\Generated_Source\PSoC4/UART_1.c ****                     }
 564:.\Generated_Source\PSoC4/UART_1.c ****                 }
 565:.\Generated_Source\PSoC4/UART_1.c ****             #endif /* !(UART_1_CY_SCBIP_V0 || UART_1_CY_SCBIP_V1) */
 566:.\Generated_Source\PSoC4/UART_1.c ****             }
 567:.\Generated_Source\PSoC4/UART_1.c ****         }
 568:.\Generated_Source\PSoC4/UART_1.c ****     #endif /* (!UART_1_CY_SCBIP_V1) */
 569:.\Generated_Source\PSoC4/UART_1.c **** 
 570:.\Generated_Source\PSoC4/UART_1.c ****     /* Configure pins: set HSIOM, DM and InputBufEnable */
 571:.\Generated_Source\PSoC4/UART_1.c ****     /* Note: the DR register settings do not effect the pin output if HSIOM is other than GPIO */
 572:.\Generated_Source\PSoC4/UART_1.c **** 
 573:.\Generated_Source\PSoC4/UART_1.c ****     #if(UART_1_MOSI_SCL_RX_PIN)
 574:.\Generated_Source\PSoC4/UART_1.c ****         UART_1_SET_HSIOM_SEL(UART_1_MOSI_SCL_RX_HSIOM_REG,
 575:.\Generated_Source\PSoC4/UART_1.c ****                                        UART_1_MOSI_SCL_RX_HSIOM_MASK,
 576:.\Generated_Source\PSoC4/UART_1.c ****                                        UART_1_MOSI_SCL_RX_HSIOM_POS,
 577:.\Generated_Source\PSoC4/UART_1.c ****                                        hsiomSel[UART_1_MOSI_SCL_RX_PIN_INDEX]);
 578:.\Generated_Source\PSoC4/UART_1.c **** 
 579:.\Generated_Source\PSoC4/UART_1.c ****         UART_1_spi_mosi_i2c_scl_uart_rx_SetDriveMode((uint8) pinsDm[UART_1_MOSI_SCL_RX_PIN_INDEX]);
 580:.\Generated_Source\PSoC4/UART_1.c **** 
 581:.\Generated_Source\PSoC4/UART_1.c ****     #if (!UART_1_CY_SCBIP_V1)
 582:.\Generated_Source\PSoC4/UART_1.c ****         UART_1_SET_INP_DIS(UART_1_spi_mosi_i2c_scl_uart_rx_INP_DIS,
 583:.\Generated_Source\PSoC4/UART_1.c ****                                      UART_1_spi_mosi_i2c_scl_uart_rx_MASK,
 584:.\Generated_Source\PSoC4/UART_1.c ****                                      (0u != (pinsInBuf & UART_1_MOSI_SCL_RX_PIN_MASK)));
 585:.\Generated_Source\PSoC4/UART_1.c ****     #endif /* (!UART_1_CY_SCBIP_V1) */
 586:.\Generated_Source\PSoC4/UART_1.c ****     #endif /* (UART_1_MOSI_SCL_RX_PIN) */
 587:.\Generated_Source\PSoC4/UART_1.c **** 
 588:.\Generated_Source\PSoC4/UART_1.c ****     #if(UART_1_MOSI_SCL_RX_WAKE_PIN)
 589:.\Generated_Source\PSoC4/UART_1.c ****         UART_1_SET_HSIOM_SEL(UART_1_MOSI_SCL_RX_WAKE_HSIOM_REG,
 590:.\Generated_Source\PSoC4/UART_1.c ****                                        UART_1_MOSI_SCL_RX_WAKE_HSIOM_MASK,
 591:.\Generated_Source\PSoC4/UART_1.c ****                                        UART_1_MOSI_SCL_RX_WAKE_HSIOM_POS,
 592:.\Generated_Source\PSoC4/UART_1.c ****                                        hsiomSel[UART_1_MOSI_SCL_RX_WAKE_PIN_INDEX]);
 593:.\Generated_Source\PSoC4/UART_1.c **** 
 594:.\Generated_Source\PSoC4/UART_1.c ****         UART_1_spi_mosi_i2c_scl_uart_rx_wake_SetDriveMode((uint8)
 595:.\Generated_Source\PSoC4/UART_1.c ****                                                                pinsDm[UART_1_MOSI_SCL_RX_WAKE_PIN_I
 596:.\Generated_Source\PSoC4/UART_1.c **** 
 597:.\Generated_Source\PSoC4/UART_1.c ****         UART_1_SET_INP_DIS(UART_1_spi_mosi_i2c_scl_uart_rx_wake_INP_DIS,
 598:.\Generated_Source\PSoC4/UART_1.c ****                                      UART_1_spi_mosi_i2c_scl_uart_rx_wake_MASK,
 599:.\Generated_Source\PSoC4/UART_1.c ****                                      (0u != (pinsInBuf & UART_1_MOSI_SCL_RX_WAKE_PIN_MASK)));
 600:.\Generated_Source\PSoC4/UART_1.c **** 
 601:.\Generated_Source\PSoC4/UART_1.c ****          /* Set interrupt on falling edge */
 602:.\Generated_Source\PSoC4/UART_1.c ****         UART_1_SET_INCFG_TYPE(UART_1_MOSI_SCL_RX_WAKE_INTCFG_REG,
 603:.\Generated_Source\PSoC4/UART_1.c ****                                         UART_1_MOSI_SCL_RX_WAKE_INTCFG_TYPE_MASK,
 604:.\Generated_Source\PSoC4/UART_1.c ****                                         UART_1_MOSI_SCL_RX_WAKE_INTCFG_TYPE_POS,
 605:.\Generated_Source\PSoC4/UART_1.c ****                                         UART_1_INTCFG_TYPE_FALLING_EDGE);
 606:.\Generated_Source\PSoC4/UART_1.c ****     #endif /* (UART_1_MOSI_SCL_RX_WAKE_PIN) */
 607:.\Generated_Source\PSoC4/UART_1.c **** 
 608:.\Generated_Source\PSoC4/UART_1.c ****     #if(UART_1_MISO_SDA_TX_PIN)
 609:.\Generated_Source\PSoC4/UART_1.c ****         UART_1_SET_HSIOM_SEL(UART_1_MISO_SDA_TX_HSIOM_REG,
 610:.\Generated_Source\PSoC4/UART_1.c ****                                        UART_1_MISO_SDA_TX_HSIOM_MASK,
 611:.\Generated_Source\PSoC4/UART_1.c ****                                        UART_1_MISO_SDA_TX_HSIOM_POS,
 612:.\Generated_Source\PSoC4/UART_1.c ****                                        hsiomSel[UART_1_MISO_SDA_TX_PIN_INDEX]);
ARM GAS  C:\Users\Clayton\AppData\Local\Temp\ccV6CXNe.s 			page 18


 613:.\Generated_Source\PSoC4/UART_1.c **** 
 614:.\Generated_Source\PSoC4/UART_1.c ****         UART_1_spi_miso_i2c_sda_uart_tx_SetDriveMode((uint8) pinsDm[UART_1_MISO_SDA_TX_PIN_INDEX]);
 615:.\Generated_Source\PSoC4/UART_1.c **** 
 616:.\Generated_Source\PSoC4/UART_1.c ****     #if (!UART_1_CY_SCBIP_V1)
 617:.\Generated_Source\PSoC4/UART_1.c ****         UART_1_SET_INP_DIS(UART_1_spi_miso_i2c_sda_uart_tx_INP_DIS,
 618:.\Generated_Source\PSoC4/UART_1.c ****                                      UART_1_spi_miso_i2c_sda_uart_tx_MASK,
 619:.\Generated_Source\PSoC4/UART_1.c ****                                     (0u != (pinsInBuf & UART_1_MISO_SDA_TX_PIN_MASK)));
 620:.\Generated_Source\PSoC4/UART_1.c ****     #endif /* (!UART_1_CY_SCBIP_V1) */
 621:.\Generated_Source\PSoC4/UART_1.c ****     #endif /* (UART_1_MOSI_SCL_RX_PIN) */
 622:.\Generated_Source\PSoC4/UART_1.c **** 
 623:.\Generated_Source\PSoC4/UART_1.c ****     #if(UART_1_SCLK_PIN)
 624:.\Generated_Source\PSoC4/UART_1.c ****         UART_1_SET_HSIOM_SEL(UART_1_SCLK_HSIOM_REG, UART_1_SCLK_HSIOM_MASK,
 625:.\Generated_Source\PSoC4/UART_1.c ****                                        UART_1_SCLK_HSIOM_POS, hsiomSel[UART_1_SCLK_PIN_INDEX]);
 626:.\Generated_Source\PSoC4/UART_1.c **** 
 627:.\Generated_Source\PSoC4/UART_1.c ****         UART_1_spi_sclk_SetDriveMode((uint8) pinsDm[UART_1_SCLK_PIN_INDEX]);
 628:.\Generated_Source\PSoC4/UART_1.c **** 
 629:.\Generated_Source\PSoC4/UART_1.c ****         UART_1_SET_INP_DIS(UART_1_spi_sclk_INP_DIS,
 630:.\Generated_Source\PSoC4/UART_1.c ****                                      UART_1_spi_sclk_MASK,
 631:.\Generated_Source\PSoC4/UART_1.c ****                                      (0u != (pinsInBuf & UART_1_SCLK_PIN_MASK)));
 632:.\Generated_Source\PSoC4/UART_1.c ****     #endif /* (UART_1_SCLK_PIN) */
 633:.\Generated_Source\PSoC4/UART_1.c **** 
 634:.\Generated_Source\PSoC4/UART_1.c ****     #if(UART_1_SS0_PIN)
 635:.\Generated_Source\PSoC4/UART_1.c ****         UART_1_SET_HSIOM_SEL(UART_1_SS0_HSIOM_REG, UART_1_SS0_HSIOM_MASK,
 636:.\Generated_Source\PSoC4/UART_1.c ****                                        UART_1_SS0_HSIOM_POS, hsiomSel[UART_1_SS0_PIN_INDEX]);
 637:.\Generated_Source\PSoC4/UART_1.c **** 
 638:.\Generated_Source\PSoC4/UART_1.c ****         UART_1_spi_ss0_SetDriveMode((uint8) pinsDm[UART_1_SS0_PIN_INDEX]);
 639:.\Generated_Source\PSoC4/UART_1.c **** 
 640:.\Generated_Source\PSoC4/UART_1.c ****         UART_1_SET_INP_DIS(UART_1_spi_ss0_INP_DIS,
 641:.\Generated_Source\PSoC4/UART_1.c ****                                      UART_1_spi_ss0_MASK,
 642:.\Generated_Source\PSoC4/UART_1.c ****                                      (0u != (pinsInBuf & UART_1_SS0_PIN_MASK)));
 643:.\Generated_Source\PSoC4/UART_1.c ****     #endif /* (UART_1_SS1_PIN) */
 644:.\Generated_Source\PSoC4/UART_1.c **** 
 645:.\Generated_Source\PSoC4/UART_1.c ****     #if(UART_1_SS1_PIN)
 646:.\Generated_Source\PSoC4/UART_1.c ****         UART_1_SET_HSIOM_SEL(UART_1_SS1_HSIOM_REG, UART_1_SS1_HSIOM_MASK,
 647:.\Generated_Source\PSoC4/UART_1.c ****                                        UART_1_SS1_HSIOM_POS, hsiomSel[UART_1_SS1_PIN_INDEX]);
 648:.\Generated_Source\PSoC4/UART_1.c **** 
 649:.\Generated_Source\PSoC4/UART_1.c ****         UART_1_spi_ss1_SetDriveMode((uint8) pinsDm[UART_1_SS1_PIN_INDEX]);
 650:.\Generated_Source\PSoC4/UART_1.c **** 
 651:.\Generated_Source\PSoC4/UART_1.c ****         UART_1_SET_INP_DIS(UART_1_spi_ss1_INP_DIS,
 652:.\Generated_Source\PSoC4/UART_1.c ****                                      UART_1_spi_ss1_MASK,
 653:.\Generated_Source\PSoC4/UART_1.c ****                                      (0u != (pinsInBuf & UART_1_SS1_PIN_MASK)));
 654:.\Generated_Source\PSoC4/UART_1.c ****     #endif /* (UART_1_SS1_PIN) */
 655:.\Generated_Source\PSoC4/UART_1.c **** 
 656:.\Generated_Source\PSoC4/UART_1.c ****     #if(UART_1_SS2_PIN)
 657:.\Generated_Source\PSoC4/UART_1.c ****         UART_1_SET_HSIOM_SEL(UART_1_SS2_HSIOM_REG, UART_1_SS2_HSIOM_MASK,
 658:.\Generated_Source\PSoC4/UART_1.c ****                                        UART_1_SS2_HSIOM_POS, hsiomSel[UART_1_SS2_PIN_INDEX]);
 659:.\Generated_Source\PSoC4/UART_1.c **** 
 660:.\Generated_Source\PSoC4/UART_1.c ****         UART_1_spi_ss2_SetDriveMode((uint8) pinsDm[UART_1_SS2_PIN_INDEX]);
 661:.\Generated_Source\PSoC4/UART_1.c **** 
 662:.\Generated_Source\PSoC4/UART_1.c ****         UART_1_SET_INP_DIS(UART_1_spi_ss2_INP_DIS,
 663:.\Generated_Source\PSoC4/UART_1.c ****                                      UART_1_spi_ss2_MASK,
 664:.\Generated_Source\PSoC4/UART_1.c ****                                      (0u != (pinsInBuf & UART_1_SS2_PIN_MASK)));
 665:.\Generated_Source\PSoC4/UART_1.c ****     #endif /* (UART_1_SS2_PIN) */
 666:.\Generated_Source\PSoC4/UART_1.c **** 
 667:.\Generated_Source\PSoC4/UART_1.c ****     #if(UART_1_SS3_PIN)
 668:.\Generated_Source\PSoC4/UART_1.c ****         UART_1_SET_HSIOM_SEL(UART_1_SS3_HSIOM_REG,  UART_1_SS3_HSIOM_MASK,
 669:.\Generated_Source\PSoC4/UART_1.c ****                                        UART_1_SS3_HSIOM_POS, hsiomSel[UART_1_SS3_PIN_INDEX]);
ARM GAS  C:\Users\Clayton\AppData\Local\Temp\ccV6CXNe.s 			page 19


 670:.\Generated_Source\PSoC4/UART_1.c **** 
 671:.\Generated_Source\PSoC4/UART_1.c ****         UART_1_spi_ss3_SetDriveMode((uint8) pinsDm[UART_1_SS3_PIN_INDEX]);
 672:.\Generated_Source\PSoC4/UART_1.c **** 
 673:.\Generated_Source\PSoC4/UART_1.c ****         UART_1_SET_INP_DIS(UART_1_spi_ss3_INP_DIS,
 674:.\Generated_Source\PSoC4/UART_1.c ****                                      UART_1_spi_ss3_MASK,
 675:.\Generated_Source\PSoC4/UART_1.c ****                                      (0u != (pinsInBuf & UART_1_SS3_PIN_MASK)));
 676:.\Generated_Source\PSoC4/UART_1.c ****     #endif /* (UART_1_SS3_PIN) */
 677:.\Generated_Source\PSoC4/UART_1.c ****     }
 678:.\Generated_Source\PSoC4/UART_1.c **** 
 679:.\Generated_Source\PSoC4/UART_1.c **** #endif /* (UART_1_SCB_MODE_UNCONFIG_CONST_CFG) */
 680:.\Generated_Source\PSoC4/UART_1.c **** 
 681:.\Generated_Source\PSoC4/UART_1.c **** 
 682:.\Generated_Source\PSoC4/UART_1.c **** #if (UART_1_CY_SCBIP_V0 || UART_1_CY_SCBIP_V1)
 683:.\Generated_Source\PSoC4/UART_1.c ****     /*******************************************************************************
 684:.\Generated_Source\PSoC4/UART_1.c ****     * Function Name: UART_1_I2CSlaveNackGeneration
 685:.\Generated_Source\PSoC4/UART_1.c ****     ********************************************************************************
 686:.\Generated_Source\PSoC4/UART_1.c ****     *
 687:.\Generated_Source\PSoC4/UART_1.c ****     * Summary:
 688:.\Generated_Source\PSoC4/UART_1.c ****     *  Sets command to generate NACK to the address or data.
 689:.\Generated_Source\PSoC4/UART_1.c ****     *
 690:.\Generated_Source\PSoC4/UART_1.c ****     * Parameters:
 691:.\Generated_Source\PSoC4/UART_1.c ****     *  None
 692:.\Generated_Source\PSoC4/UART_1.c ****     *
 693:.\Generated_Source\PSoC4/UART_1.c ****     * Return:
 694:.\Generated_Source\PSoC4/UART_1.c ****     *  None
 695:.\Generated_Source\PSoC4/UART_1.c ****     *
 696:.\Generated_Source\PSoC4/UART_1.c ****     *******************************************************************************/
 697:.\Generated_Source\PSoC4/UART_1.c ****     void UART_1_I2CSlaveNackGeneration(void)
 698:.\Generated_Source\PSoC4/UART_1.c ****     {
 358              		.loc 1 698 0
 359              		.cfi_startproc
 360 0000 80B5     		push	{r7, lr}
 361              		.cfi_def_cfa_offset 8
 362              		.cfi_offset 7, -8
 363              		.cfi_offset 14, -4
 364 0002 00AF     		add	r7, sp, #0
 365              		.cfi_def_cfa_register 7
 699:.\Generated_Source\PSoC4/UART_1.c ****         /* Check for EC_AM toggle condition: EC_AM and clock stretching for address are enabled */
 700:.\Generated_Source\PSoC4/UART_1.c ****         if ((0u != (UART_1_CTRL_REG & UART_1_CTRL_EC_AM_MODE)) &&
 366              		.loc 1 700 0
 367 0004 0E4B     		ldr	r3, .L25
 368 0006 1A68     		ldr	r2, [r3]
 369 0008 8023     		mov	r3, #128
 370 000a 5B00     		lsl	r3, r3, #1
 371 000c 1340     		and	r3, r2
 372 000e 12D0     		beq	.L24
 701:.\Generated_Source\PSoC4/UART_1.c ****             (0u == (UART_1_I2C_CTRL_REG & UART_1_I2C_CTRL_S_NOT_READY_ADDR_NACK)))
 373              		.loc 1 701 0 discriminator 1
 374 0010 0C4B     		ldr	r3, .L25+4
 375 0012 1A68     		ldr	r2, [r3]
 376 0014 8023     		mov	r3, #128
 377 0016 DB01     		lsl	r3, r3, #7
 378 0018 1340     		and	r3, r2
 700:.\Generated_Source\PSoC4/UART_1.c ****         if ((0u != (UART_1_CTRL_REG & UART_1_CTRL_EC_AM_MODE)) &&
 379              		.loc 1 700 0 discriminator 1
 380 001a 0CD1     		bne	.L24
 702:.\Generated_Source\PSoC4/UART_1.c ****         {
ARM GAS  C:\Users\Clayton\AppData\Local\Temp\ccV6CXNe.s 			page 20


 703:.\Generated_Source\PSoC4/UART_1.c ****             /* Toggle EC_AM before NACK generation */
 704:.\Generated_Source\PSoC4/UART_1.c ****             UART_1_CTRL_REG &= ~UART_1_CTRL_EC_AM_MODE;
 381              		.loc 1 704 0
 382 001c 084B     		ldr	r3, .L25
 383 001e 084A     		ldr	r2, .L25
 384 0020 1168     		ldr	r1, [r2]
 385 0022 094A     		ldr	r2, .L25+8
 386 0024 0A40     		and	r2, r1
 387 0026 1A60     		str	r2, [r3]
 705:.\Generated_Source\PSoC4/UART_1.c ****             UART_1_CTRL_REG |=  UART_1_CTRL_EC_AM_MODE;
 388              		.loc 1 705 0
 389 0028 054B     		ldr	r3, .L25
 390 002a 054A     		ldr	r2, .L25
 391 002c 1268     		ldr	r2, [r2]
 392 002e 8021     		mov	r1, #128
 393 0030 4900     		lsl	r1, r1, #1
 394 0032 0A43     		orr	r2, r1
 395 0034 1A60     		str	r2, [r3]
 396              	.L24:
 706:.\Generated_Source\PSoC4/UART_1.c ****         }
 707:.\Generated_Source\PSoC4/UART_1.c **** 
 708:.\Generated_Source\PSoC4/UART_1.c ****         UART_1_I2C_SLAVE_CMD_REG = UART_1_I2C_SLAVE_CMD_S_NACK;
 397              		.loc 1 708 0
 398 0036 054B     		ldr	r3, .L25+12
 399 0038 0222     		mov	r2, #2
 400 003a 1A60     		str	r2, [r3]
 709:.\Generated_Source\PSoC4/UART_1.c ****     }
 401              		.loc 1 709 0
 402 003c BD46     		mov	sp, r7
 403              		@ sp needed
 404 003e 80BD     		pop	{r7, pc}
 405              	.L26:
 406              		.align	2
 407              	.L25:
 408 0040 00000640 		.word	1074135040
 409 0044 60000640 		.word	1074135136
 410 0048 FFFEFFFF 		.word	-257
 411 004c 6C000640 		.word	1074135148
 412              		.cfi_endproc
 413              	.LFE9:
 414              		.size	UART_1_I2CSlaveNackGeneration, .-UART_1_I2CSlaveNackGeneration
 415              		.text
 416              	.Letext0:
 417              		.file 2 ".\\Generated_Source\\PSoC4/cytypes.h"