ARM GAS  C:\Users\Clayton\AppData\Local\Temp\ccogg0Sf.s 			page 1


   1              		.cpu cortex-m0
   2              		.fpu softvfp
   3              		.eabi_attribute 20, 1
   4              		.eabi_attribute 21, 1
   5              		.eabi_attribute 23, 3
   6              		.eabi_attribute 24, 1
   7              		.eabi_attribute 25, 1
   8              		.eabi_attribute 26, 1
   9              		.eabi_attribute 30, 6
  10              		.eabi_attribute 34, 0
  11              		.eabi_attribute 18, 4
  12              		.code	16
  13              		.file	"wiznet_parse.c"
  14              		.text
  15              	.Ltext0:
  16              		.cfi_sections	.debug_frame
  17              		.global	ROVERLINK_MSG_LEN_ARRAY
  18              		.section	.rodata
  19              		.align	2
  20              		.type	ROVERLINK_MSG_LEN_ARRAY, %object
  21              		.size	ROVERLINK_MSG_LEN_ARRAY, 20
  22              	ROVERLINK_MSG_LEN_ARRAY:
  23 0000 0D       		.byte	13
  24 0001 0D       		.byte	13
  25 0002 09       		.byte	9
  26 0003 00       		.byte	0
  27 0004 1A       		.byte	26
  28 0005 12       		.byte	18
  29 0006 00       		.byte	0
  30 0007 10       		.byte	16
  31 0008 04       		.byte	4
  32 0009 07       		.byte	7
  33 000a 0E       		.byte	14
  34 000b 04       		.byte	4
  35 000c 01       		.byte	1
  36 000d 10       		.byte	16
  37 000e 10       		.byte	16
  38 000f 10       		.byte	16
  39 0010 01       		.byte	1
  40 0011 06       		.byte	6
  41 0012 02       		.byte	2
  42 0013 01       		.byte	1
  43              		.global	ROVERLINK_WRITE
  44              		.type	ROVERLINK_WRITE, %object
  45              		.size	ROVERLINK_WRITE, 1
  46              	ROVERLINK_WRITE:
  47 0014 C0       		.byte	-64
  48              		.global	ROVERLINK_REQUEST
  49              		.type	ROVERLINK_REQUEST, %object
  50              		.size	ROVERLINK_REQUEST, 1
  51              	ROVERLINK_REQUEST:
  52 0015 40       		.byte	64
  53              		.global	ROVERLINK_RESPONSE
  54              		.type	ROVERLINK_RESPONSE, %object
  55              		.size	ROVERLINK_RESPONSE, 1
  56              	ROVERLINK_RESPONSE:
  57 0016 00       		.space	1
ARM GAS  C:\Users\Clayton\AppData\Local\Temp\ccogg0Sf.s 			page 2


  58 0017 00       		.bss
  59              		.align	2
  60              	sys_health:
  61 0000 00000000 		.space	16
  61      00000000 
  61      00000000 
  61      00000000 
  62              		.align	2
  63              	rover_status:
  64 0010 00000000 		.space	16
  64      00000000 
  64      00000000 
  64      00000000 
  65              		.align	2
  66              	arm_status:
  67 0020 00000000 		.space	10
  67      00000000 
  67      0000
  68 002a 0000     		.align	2
  69              	gps:
  70 002c 00000000 		.space	28
  70      00000000 
  70      00000000 
  70      00000000 
  70      00000000 
  71              		.align	2
  72              	imu:
  73 0048 00000000 		.space	18
  73      00000000 
  73      00000000 
  73      00000000 
  73      0000
  74 005a 0000     		.align	2
  75              	lrs:
  76 005c 00000000 		.space	16
  76      00000000 
  76      00000000 
  76      00000000 
  77              		.align	2
  78              	drive:
  79 006c 00000000 		.space	4
  80              		.align	2
  81              	video:
  82 0070 00000000 		.space	8
  82      00000000 
  83              		.align	2
  84              	arm:
  85 0078 00000000 		.space	14
  85      00000000 
  85      00000000 
  85      0000
  86 0086 0000     		.align	2
  87              	ishaama:
  88 0088 00000000 		.space	4
  89              		.align	2
  90              	liferay:
  91 008c 00       		.space	1
ARM GAS  C:\Users\Clayton\AppData\Local\Temp\ccogg0Sf.s 			page 3


  92 008d 000000   		.align	2
  93              	custom_debug_1:
  94 0090 00000000 		.space	16
  94      00000000 
  94      00000000 
  94      00000000 
  95              		.align	2
  96              	custom_debug_2:
  97 00a0 00000000 		.space	16
  97      00000000 
  97      00000000 
  97      00000000 
  98              		.align	2
  99              	custom_debug_3:
 100 00b0 00000000 		.space	16
 100      00000000 
 100      00000000 
 100      00000000 
 101              		.align	2
 102              	ping:
 103 00c0 00000000 		.space	8
 103      00000000 
 104              		.align	2
 105              	telemetry_config:
 106 00c8 00000000 		.space	6
 106      0000
 107 00ce 0000     		.align	2
 108              	req_fields_once:
 109 00d0 0000     		.space	2
 110 00d2 0000     		.align	2
 111              	broadcast:
 112 00d4 00       		.space	1
 113              		.global	RX
 114 00d5 000000   		.data
 115              		.align	2
 116              		.type	RX, %object
 117              		.size	RX, 16
 118              	RX:
 119 0000 00       		.byte	0
 120 0001 01       		.byte	1
 121 0002 0C       		.byte	12
 122 0003 08       		.byte	8
 123 0004 00       		.byte	0
 124 0005 00       		.byte	0
 125 0006 00       		.byte	0
 126 0007 04       		.byte	4
 127 0008 00       		.byte	0
 128 0009 03       		.byte	3
 129 000a 0E       		.byte	14
 130 000b 08       		.byte	8
 131 000c 00       		.byte	0
 132 000d 00       		.byte	0
 133 000e 00       		.byte	0
 134 000f 00       		.byte	0
 135              		.section	.text.wiznet_parse,"ax",%progbits
 136              		.align	2
 137              		.global	wiznet_parse
ARM GAS  C:\Users\Clayton\AppData\Local\Temp\ccogg0Sf.s 			page 4


 138              		.code	16
 139              		.thumb_func
 140              		.type	wiznet_parse, %function
 141              	wiznet_parse:
 142              	.LFB0:
 143              		.file 1 ".\\wiznet_parse.c"
   1:.\wiznet_parse.c **** /*
   2:.\wiznet_parse.c ****  * wiznet_parse.c
   3:.\wiznet_parse.c ****  *
   4:.\wiznet_parse.c ****  *  Created on: Jan 31, 2015
   5:.\wiznet_parse.c ****  *      Author: cramsted
   6:.\wiznet_parse.c ****  */
   7:.\wiznet_parse.c **** #include "wiznet_parse.h"
   8:.\wiznet_parse.c **** 
   9:.\wiznet_parse.c **** //This variable needs to be implemented in the main code base. 
  10:.\wiznet_parse.c **** //It should be the variable that the recieved wiznet data is copied to when RX goes high
  11:.\wiznet_parse.c **** volatile uint8_t RX[16] = {0x0, 0x1, 0xC, 0x8, 0x0, 0x0, 0x0, 0x4, 0x0, 0x3, 0xE, 0x8, 0x0, 0x0, 0x
  12:.\wiznet_parse.c **** 						// 0	1	 2	  3    4    5    6    7    8    9    10   11   12   13   14   15
  13:.\wiznet_parse.c **** 
  14:.\wiznet_parse.c **** //parses incoming packets
  15:.\wiznet_parse.c **** void wiznet_parse(ToDoList* todo){
 144              		.loc 1 15 0
 145              		.cfi_startproc
 146 0000 80B5     		push	{r7, lr}
 147              		.cfi_def_cfa_offset 8
 148              		.cfi_offset 7, -8
 149              		.cfi_offset 14, -4
 150 0002 82B0     		sub	sp, sp, #8
 151              		.cfi_def_cfa_offset 16
 152 0004 00AF     		add	r7, sp, #0
 153              		.cfi_def_cfa_register 7
 154 0006 7860     		str	r0, [r7, #4]
  16:.\wiznet_parse.c **** 	//printf("wiznet_parse is running");		used for debugging
  17:.\wiznet_parse.c **** 	todo->leftWheels = 	(RX[8]<< 8) | RX[9];
 155              		.loc 1 17 0
 156 0008 1B4B     		ldr	r3, .L2
 157 000a 1B7A     		ldrb	r3, [r3, #8]
 158 000c DBB2     		uxtb	r3, r3
 159 000e 1B02     		lsl	r3, r3, #8
 160 0010 9AB2     		uxth	r2, r3
 161 0012 194B     		ldr	r3, .L2
 162 0014 5B7A     		ldrb	r3, [r3, #9]
 163 0016 DBB2     		uxtb	r3, r3
 164 0018 1343     		orr	r3, r2
 165 001a 9BB2     		uxth	r3, r3
 166 001c 9AB2     		uxth	r2, r3
 167 001e 7B68     		ldr	r3, [r7, #4]
 168 0020 1A80     		strh	r2, [r3]
  18:.\wiznet_parse.c **** 	todo->rightWheels =  (RX[10]<<8) | RX[11];
 169              		.loc 1 18 0
 170 0022 154B     		ldr	r3, .L2
 171 0024 9B7A     		ldrb	r3, [r3, #10]
 172 0026 DBB2     		uxtb	r3, r3
 173 0028 1B02     		lsl	r3, r3, #8
 174 002a 9AB2     		uxth	r2, r3
 175 002c 124B     		ldr	r3, .L2
 176 002e DB7A     		ldrb	r3, [r3, #11]
ARM GAS  C:\Users\Clayton\AppData\Local\Temp\ccogg0Sf.s 			page 5


 177 0030 DBB2     		uxtb	r3, r3
 178 0032 1343     		orr	r3, r2
 179 0034 9BB2     		uxth	r3, r3
 180 0036 9AB2     		uxth	r2, r3
 181 0038 7B68     		ldr	r3, [r7, #4]
 182 003a 5A80     		strh	r2, [r3, #2]
  19:.\wiznet_parse.c **** 	todo->gimbalPan = 	(RX[12]<<8) | RX[13];
 183              		.loc 1 19 0
 184 003c 0E4B     		ldr	r3, .L2
 185 003e 1B7B     		ldrb	r3, [r3, #12]
 186 0040 DBB2     		uxtb	r3, r3
 187 0042 1B02     		lsl	r3, r3, #8
 188 0044 9AB2     		uxth	r2, r3
 189 0046 0C4B     		ldr	r3, .L2
 190 0048 5B7B     		ldrb	r3, [r3, #13]
 191 004a DBB2     		uxtb	r3, r3
 192 004c 1343     		orr	r3, r2
 193 004e 9BB2     		uxth	r3, r3
 194 0050 9AB2     		uxth	r2, r3
 195 0052 7B68     		ldr	r3, [r7, #4]
 196 0054 9A80     		strh	r2, [r3, #4]
  20:.\wiznet_parse.c **** 	todo->gimbalTilt = 	(RX[14]<<8) | RX[15];
 197              		.loc 1 20 0
 198 0056 084B     		ldr	r3, .L2
 199 0058 9B7B     		ldrb	r3, [r3, #14]
 200 005a DBB2     		uxtb	r3, r3
 201 005c 1B02     		lsl	r3, r3, #8
 202 005e 9AB2     		uxth	r2, r3
 203 0060 054B     		ldr	r3, .L2
 204 0062 DB7B     		ldrb	r3, [r3, #15]
 205 0064 DBB2     		uxtb	r3, r3
 206 0066 1343     		orr	r3, r2
 207 0068 9BB2     		uxth	r3, r3
 208 006a 9AB2     		uxth	r2, r3
 209 006c 7B68     		ldr	r3, [r7, #4]
 210 006e DA80     		strh	r2, [r3, #6]
  21:.\wiznet_parse.c **** 	//printf("wiznet_parse is finished");
  22:.\wiznet_parse.c **** }
 211              		.loc 1 22 0
 212 0070 BD46     		mov	sp, r7
 213 0072 02B0     		add	sp, sp, #8
 214              		@ sp needed
 215 0074 80BD     		pop	{r7, pc}
 216              	.L3:
 217 0076 C046     		.align	2
 218              	.L2:
 219 0078 00000000 		.word	RX
 220              		.cfi_endproc
 221              	.LFE0:
 222              		.size	wiznet_parse, .-wiznet_parse
 223              		.section	.text.send_report,"ax",%progbits
 224              		.align	2
 225              		.global	send_report
 226              		.code	16
 227              		.thumb_func
 228              		.type	send_report, %function
 229              	send_report:
ARM GAS  C:\Users\Clayton\AppData\Local\Temp\ccogg0Sf.s 			page 6


 230              	.LFB1:
  23:.\wiznet_parse.c **** 
  24:.\wiznet_parse.c **** //stores all system status reports and values into a large struct.
  25:.\wiznet_parse.c **** //packages the struct and sends it to the wiznet
  26:.\wiznet_parse.c **** void send_report(Report* report){//may not need to pass the report struct in since it is in the .h
 231              		.loc 1 26 0
 232              		.cfi_startproc
 233 0000 80B5     		push	{r7, lr}
 234              		.cfi_def_cfa_offset 8
 235              		.cfi_offset 7, -8
 236              		.cfi_offset 14, -4
 237 0002 82B0     		sub	sp, sp, #8
 238              		.cfi_def_cfa_offset 16
 239 0004 00AF     		add	r7, sp, #0
 240              		.cfi_def_cfa_register 7
 241 0006 7860     		str	r0, [r7, #4]
  27:.\wiznet_parse.c **** 	//need to double check that I've passed the correct parameters in. 	 
  28:.\wiznet_parse.c **** 	roverlinkSendFrame(report, sizeof(report));
 242              		.loc 1 28 0
 243 0008 7B68     		ldr	r3, [r7, #4]
 244 000a 181C     		mov	r0, r3
 245 000c 0421     		mov	r1, #4
 246 000e FFF7FEFF 		bl	roverlinkSendFrame
  29:.\wiznet_parse.c **** }
 247              		.loc 1 29 0
 248 0012 BD46     		mov	sp, r7
 249 0014 02B0     		add	sp, sp, #8
 250              		@ sp needed
 251 0016 80BD     		pop	{r7, pc}
 252              		.cfi_endproc
 253              	.LFE1:
 254              		.size	send_report, .-send_report
 255              		.section	.text.report_init,"ax",%progbits
 256              		.align	2
 257              		.global	report_init
 258              		.code	16
 259              		.thumb_func
 260              		.type	report_init, %function
 261              	report_init:
 262              	.LFB2:
  30:.\wiznet_parse.c **** 
  31:.\wiznet_parse.c **** void report_init(Report* report){
 263              		.loc 1 31 0
 264              		.cfi_startproc
 265 0000 80B5     		push	{r7, lr}
 266              		.cfi_def_cfa_offset 8
 267              		.cfi_offset 7, -8
 268              		.cfi_offset 14, -4
 269 0002 82B0     		sub	sp, sp, #8
 270              		.cfi_def_cfa_offset 16
 271 0004 00AF     		add	r7, sp, #0
 272              		.cfi_def_cfa_register 7
 273 0006 7860     		str	r0, [r7, #4]
  32:.\wiznet_parse.c **** //system_health
  33:.\wiznet_parse.c **** 	report->sys_health.systemTimestamp = 0x00;//uint32_t
 274              		.loc 1 33 0
 275 0008 7B68     		ldr	r3, [r7, #4]
ARM GAS  C:\Users\Clayton\AppData\Local\Temp\ccogg0Sf.s 			page 7


 276 000a 0022     		mov	r2, #0
 277 000c 1A60     		str	r2, [r3]
  34:.\wiznet_parse.c **** 	report->sys_health.systemTimestamp = 0x00; //uint8_t
 278              		.loc 1 34 0
 279 000e 7B68     		ldr	r3, [r7, #4]
 280 0010 0022     		mov	r2, #0
 281 0012 1A60     		str	r2, [r3]
  35:.\wiznet_parse.c **** 	report->sys_health.cpuLoad = 0x00;//uint16_t
 282              		.loc 1 35 0
 283 0014 7B68     		ldr	r3, [r7, #4]
 284 0016 0022     		mov	r2, #0
 285 0018 DA80     		strh	r2, [r3, #6]
  36:.\wiznet_parse.c **** 	report->sys_health.busErrors = 0x00;//uint16_t
 286              		.loc 1 36 0
 287 001a 7B68     		ldr	r3, [r7, #4]
 288 001c 0022     		mov	r2, #0
 289 001e 1A81     		strh	r2, [r3, #8]
  37:.\wiznet_parse.c **** 	report->sys_health.ethernetErrors = 0x00;//uint16_t
 290              		.loc 1 37 0
 291 0020 7B68     		ldr	r3, [r7, #4]
 292 0022 0022     		mov	r2, #0
 293 0024 5A81     		strh	r2, [r3, #10]
  38:.\wiznet_parse.c **** 	report->sys_health.someOtherMetric = 0x00;//uint16_t
 294              		.loc 1 38 0
 295 0026 7B68     		ldr	r3, [r7, #4]
 296 0028 0022     		mov	r2, #0
 297 002a 9A81     		strh	r2, [r3, #12]
  39:.\wiznet_parse.c **** //rover_status init
  40:.\wiznet_parse.c **** 	report->rover_status.systemState = 0x00; //uint8_t
 298              		.loc 1 40 0
 299 002c 7B68     		ldr	r3, [r7, #4]
 300 002e 0022     		mov	r2, #0
 301 0030 1A74     		strb	r2, [r3, #16]
  41:.\wiznet_parse.c **** 	report->rover_status.roverVoltage = 0x00;//uint16_t
 302              		.loc 1 41 0
 303 0032 7B68     		ldr	r3, [r7, #4]
 304 0034 0022     		mov	r2, #0
 305 0036 5A82     		strh	r2, [r3, #18]
  42:.\wiznet_parse.c **** 	report->rover_status.roverCurrent = -0x7D0; //int16_t
 306              		.loc 1 42 0
 307 0038 7B68     		ldr	r3, [r7, #4]
 308 003a 624A     		ldr	r2, .L6
 309 003c 9A82     		strh	r2, [r3, #20]
  43:.\wiznet_parse.c **** 	report->rover_status.mAhCounter = 0x00; //int32_t
 310              		.loc 1 43 0
 311 003e 7B68     		ldr	r3, [r7, #4]
 312 0040 0022     		mov	r2, #0
 313 0042 9A61     		str	r2, [r3, #24]
  44:.\wiznet_parse.c **** 	report->rover_status.ubntLinkInteg = 0x00; //uint16_t
 314              		.loc 1 44 0
 315 0044 7B68     		ldr	r3, [r7, #4]
 316 0046 0022     		mov	r2, #0
 317 0048 9A83     		strh	r2, [r3, #28]
  45:.\wiznet_parse.c **** 	report->rover_status.dragonLinkRSSI = 0x00; //uint16_t
 318              		.loc 1 45 0
 319 004a 7B68     		ldr	r3, [r7, #4]
 320 004c 0022     		mov	r2, #0
ARM GAS  C:\Users\Clayton\AppData\Local\Temp\ccogg0Sf.s 			page 8


 321 004e DA83     		strh	r2, [r3, #30]
  46:.\wiznet_parse.c **** //arm_status
  47:.\wiznet_parse.c **** 	report->arm_status.systemState  = 0x00; //uint8_t
 322              		.loc 1 47 0
 323 0050 7A68     		ldr	r2, [r7, #4]
 324 0052 2023     		mov	r3, #32
 325 0054 0021     		mov	r1, #0
 326 0056 D154     		strb	r1, [r2, r3]
  48:.\wiznet_parse.c **** 	report->arm_status.dynamixelErrors = 0x00; //uint16_t
 327              		.loc 1 48 0
 328 0058 7B68     		ldr	r3, [r7, #4]
 329 005a 0022     		mov	r2, #0
 330 005c 5A84     		strh	r2, [r3, #34]
  49:.\wiznet_parse.c **** 	report->arm_status.pid1_error = -0x7D0; //uint16_t
 331              		.loc 1 49 0
 332 005e 7B68     		ldr	r3, [r7, #4]
 333 0060 584A     		ldr	r2, .L6
 334 0062 9A84     		strh	r2, [r3, #36]
  50:.\wiznet_parse.c **** 	report->arm_status.pid2_error = -0x7D0; //uint16_t
 335              		.loc 1 50 0
 336 0064 7B68     		ldr	r3, [r7, #4]
 337 0066 574A     		ldr	r2, .L6
 338 0068 DA84     		strh	r2, [r3, #38]
  51:.\wiznet_parse.c **** 	report->arm_status.pid3_error = -0x7D0; //uint16_t
 339              		.loc 1 51 0
 340 006a 7B68     		ldr	r3, [r7, #4]
 341 006c 554A     		ldr	r2, .L6
 342 006e 1A85     		strh	r2, [r3, #40]
  52:.\wiznet_parse.c **** //reserved_1
  53:.\wiznet_parse.c **** //gps
  54:.\wiznet_parse.c **** 	report->gps.systemTimestamp = 0x00; //uint32_t
 343              		.loc 1 54 0
 344 0070 7B68     		ldr	r3, [r7, #4]
 345 0072 0022     		mov	r2, #0
 346 0074 DA62     		str	r2, [r3, #44]
  55:.\wiznet_parse.c **** 	report->gps.lat = -0x35A4E8FF; //int32_t
 347              		.loc 1 55 0
 348 0076 7B68     		ldr	r3, [r7, #4]
 349 0078 534A     		ldr	r2, .L6+4
 350 007a 1A63     		str	r2, [r3, #48]
  56:.\wiznet_parse.c **** 	report->gps.lon = -0x6B49D1FF; //int32_t
 351              		.loc 1 56 0
 352 007c 7B68     		ldr	r3, [r7, #4]
 353 007e 534A     		ldr	r2, .L6+8
 354 0080 5A63     		str	r2, [r3, #52]
  57:.\wiznet_parse.c **** 	report->gps.alt = -0x989680; //int32_t
 355              		.loc 1 57 0
 356 0082 7B68     		ldr	r3, [r7, #4]
 357 0084 524A     		ldr	r2, .L6+12
 358 0086 9A63     		str	r2, [r3, #56]
  58:.\wiznet_parse.c **** 	report->gps.hdop = 0x00; //uint16_t
 359              		.loc 1 58 0
 360 0088 7B68     		ldr	r3, [r7, #4]
 361 008a 0022     		mov	r2, #0
 362 008c 9A87     		strh	r2, [r3, #60]
  59:.\wiznet_parse.c **** 	report->gps.vdop = 0x00; //uint16_t
 363              		.loc 1 59 0
ARM GAS  C:\Users\Clayton\AppData\Local\Temp\ccogg0Sf.s 			page 9


 364 008e 7B68     		ldr	r3, [r7, #4]
 365 0090 0022     		mov	r2, #0
 366 0092 DA87     		strh	r2, [r3, #62]
  60:.\wiznet_parse.c **** 	report->gps.vel = 0x00; //uint16_t
 367              		.loc 1 60 0
 368 0094 7A68     		ldr	r2, [r7, #4]
 369 0096 4023     		mov	r3, #64
 370 0098 0021     		mov	r1, #0
 371 009a D152     		strh	r1, [r2, r3]
  61:.\wiznet_parse.c **** 	report->gps.course = 0x00; //uint16_t
 372              		.loc 1 61 0
 373 009c 7A68     		ldr	r2, [r7, #4]
 374 009e 4223     		mov	r3, #66
 375 00a0 0021     		mov	r1, #0
 376 00a2 D152     		strh	r1, [r2, r3]
  62:.\wiznet_parse.c **** 	report->gps.fix_type = 0x00; //uint8_t
 377              		.loc 1 62 0
 378 00a4 7A68     		ldr	r2, [r7, #4]
 379 00a6 4423     		mov	r3, #68
 380 00a8 0021     		mov	r1, #0
 381 00aa D154     		strb	r1, [r2, r3]
  63:.\wiznet_parse.c **** 	report->gps.sats = 0x00; //uint8_t
 382              		.loc 1 63 0
 383 00ac 7A68     		ldr	r2, [r7, #4]
 384 00ae 4523     		mov	r3, #69
 385 00b0 0021     		mov	r1, #0
 386 00b2 D154     		strb	r1, [r2, r3]
  64:.\wiznet_parse.c **** //IMU
  65:.\wiznet_parse.c **** 	report->imu.xacc = 0x00; //int16_t
 387              		.loc 1 65 0
 388 00b4 7A68     		ldr	r2, [r7, #4]
 389 00b6 4823     		mov	r3, #72
 390 00b8 0021     		mov	r1, #0
 391 00ba D152     		strh	r1, [r2, r3]
  66:.\wiznet_parse.c **** 	report->imu.yacc = 0x00; //int16_t
 392              		.loc 1 66 0
 393 00bc 7A68     		ldr	r2, [r7, #4]
 394 00be 4A23     		mov	r3, #74
 395 00c0 0021     		mov	r1, #0
 396 00c2 D152     		strh	r1, [r2, r3]
  67:.\wiznet_parse.c **** 	report->imu.zacc = 0x00; //int16_t
 397              		.loc 1 67 0
 398 00c4 7A68     		ldr	r2, [r7, #4]
 399 00c6 4C23     		mov	r3, #76
 400 00c8 0021     		mov	r1, #0
 401 00ca D152     		strh	r1, [r2, r3]
  68:.\wiznet_parse.c **** 	report->imu.xgyro = 0x00; //int16_t
 402              		.loc 1 68 0
 403 00cc 7A68     		ldr	r2, [r7, #4]
 404 00ce 4E23     		mov	r3, #78
 405 00d0 0021     		mov	r1, #0
 406 00d2 D152     		strh	r1, [r2, r3]
  69:.\wiznet_parse.c **** 	report->imu.ygyro = 0x00; //int16_t
 407              		.loc 1 69 0
 408 00d4 7A68     		ldr	r2, [r7, #4]
 409 00d6 5023     		mov	r3, #80
 410 00d8 0021     		mov	r1, #0
ARM GAS  C:\Users\Clayton\AppData\Local\Temp\ccogg0Sf.s 			page 10


 411 00da D152     		strh	r1, [r2, r3]
  70:.\wiznet_parse.c **** 	report->imu.zgyro = 0x00; //int16_t
 412              		.loc 1 70 0
 413 00dc 7A68     		ldr	r2, [r7, #4]
 414 00de 5223     		mov	r3, #82
 415 00e0 0021     		mov	r1, #0
 416 00e2 D152     		strh	r1, [r2, r3]
  71:.\wiznet_parse.c **** 	report->imu.xmag = 0x00; //int16_t
 417              		.loc 1 71 0
 418 00e4 7A68     		ldr	r2, [r7, #4]
 419 00e6 5423     		mov	r3, #84
 420 00e8 0021     		mov	r1, #0
 421 00ea D152     		strh	r1, [r2, r3]
  72:.\wiznet_parse.c **** 	report->imu.ymag = 0x00; //int16_t
 422              		.loc 1 72 0
 423 00ec 7A68     		ldr	r2, [r7, #4]
 424 00ee 5623     		mov	r3, #86
 425 00f0 0021     		mov	r1, #0
 426 00f2 D152     		strh	r1, [r2, r3]
  73:.\wiznet_parse.c **** 	report->imu.zmag = 0x00; //int16_t
 427              		.loc 1 73 0
 428 00f4 7A68     		ldr	r2, [r7, #4]
 429 00f6 5823     		mov	r3, #88
 430 00f8 0021     		mov	r1, #0
 431 00fa D152     		strh	r1, [r2, r3]
  74:.\wiznet_parse.c **** //reserved_2
  75:.\wiznet_parse.c **** //LRS 
  76:.\wiznet_parse.c ****  	report->lrs.ppmCh1 = 0x5DC; //uint16_t
 432              		.loc 1 76 0
 433 00fc 7A68     		ldr	r2, [r7, #4]
 434 00fe 5A23     		mov	r3, #90
 435 0100 3449     		ldr	r1, .L6+16
 436 0102 D152     		strh	r1, [r2, r3]
  77:.\wiznet_parse.c ****  	report->lrs.ppmCh2 = 0x5DC; //uint16_t
 437              		.loc 1 77 0
 438 0104 7A68     		ldr	r2, [r7, #4]
 439 0106 5C23     		mov	r3, #92
 440 0108 3249     		ldr	r1, .L6+16
 441 010a D152     		strh	r1, [r2, r3]
  78:.\wiznet_parse.c ****  	report->lrs.ppmCh3 = 0x5DC; //uint16_t
 442              		.loc 1 78 0
 443 010c 7A68     		ldr	r2, [r7, #4]
 444 010e 5E23     		mov	r3, #94
 445 0110 3049     		ldr	r1, .L6+16
 446 0112 D152     		strh	r1, [r2, r3]
  79:.\wiznet_parse.c ****  	report->lrs.ppmCh4 = 0x5DC; //uint16_t
 447              		.loc 1 79 0
 448 0114 7A68     		ldr	r2, [r7, #4]
 449 0116 6023     		mov	r3, #96
 450 0118 2E49     		ldr	r1, .L6+16
 451 011a D152     		strh	r1, [r2, r3]
  80:.\wiznet_parse.c ****  	report->lrs.ppmCh5 = 0x5DC; //uint16_t
 452              		.loc 1 80 0
 453 011c 7A68     		ldr	r2, [r7, #4]
 454 011e 6223     		mov	r3, #98
 455 0120 2C49     		ldr	r1, .L6+16
 456 0122 D152     		strh	r1, [r2, r3]
ARM GAS  C:\Users\Clayton\AppData\Local\Temp\ccogg0Sf.s 			page 11


  81:.\wiznet_parse.c ****  	report->lrs.ppmCh6 = 0x5DC; //uint16_t
 457              		.loc 1 81 0
 458 0124 7A68     		ldr	r2, [r7, #4]
 459 0126 6423     		mov	r3, #100
 460 0128 2A49     		ldr	r1, .L6+16
 461 012a D152     		strh	r1, [r2, r3]
  82:.\wiznet_parse.c ****  	report->lrs.ppmCh7 = 0x5DC; //uint16_t
 462              		.loc 1 82 0
 463 012c 7A68     		ldr	r2, [r7, #4]
 464 012e 6623     		mov	r3, #102
 465 0130 2849     		ldr	r1, .L6+16
 466 0132 D152     		strh	r1, [r2, r3]
  83:.\wiznet_parse.c ****  	report->lrs.ppmCh8 = 0x5DC; //uint16_t
 467              		.loc 1 83 0
 468 0134 7A68     		ldr	r2, [r7, #4]
 469 0136 6823     		mov	r3, #104
 470 0138 2649     		ldr	r1, .L6+16
 471 013a D152     		strh	r1, [r2, r3]
  84:.\wiznet_parse.c ****  //DRIVE
  85:.\wiznet_parse.c ****  	report->drive.driveFwd = 0x00; //in16_t
 472              		.loc 1 85 0
 473 013c 7A68     		ldr	r2, [r7, #4]
 474 013e 6A23     		mov	r3, #106
 475 0140 0021     		mov	r1, #0
 476 0142 D152     		strh	r1, [r2, r3]
  86:.\wiznet_parse.c ****  	report->drive.driveTurn = 0x00; //int16_t
 477              		.loc 1 86 0
 478 0144 7A68     		ldr	r2, [r7, #4]
 479 0146 6C23     		mov	r3, #108
 480 0148 0021     		mov	r1, #0
 481 014a D152     		strh	r1, [r2, r3]
  87:.\wiznet_parse.c ****  //VIDEO
  88:.\wiznet_parse.c ****  	report->video.gimbalPan = 0x00; //int16_t
 482              		.loc 1 88 0
 483 014c 7A68     		ldr	r2, [r7, #4]
 484 014e 6E23     		mov	r3, #110
 485 0150 0021     		mov	r1, #0
 486 0152 D152     		strh	r1, [r2, r3]
  89:.\wiznet_parse.c ****  	report->video.gimbalTilt = 0x00; // int16_t
 487              		.loc 1 89 0
 488 0154 7A68     		ldr	r2, [r7, #4]
 489 0156 7023     		mov	r3, #112
 490 0158 0021     		mov	r1, #0
 491 015a D152     		strh	r1, [r2, r3]
  90:.\wiznet_parse.c ****  	report->video.gimbalZoom = 0x00; //uint16_t
 492              		.loc 1 90 0
 493 015c 7A68     		ldr	r2, [r7, #4]
 494 015e 7223     		mov	r3, #114
 495 0160 0021     		mov	r1, #0
 496 0162 D152     		strh	r1, [r2, r3]
  91:.\wiznet_parse.c ****  	report->video.camSelect = 0x00; //int8_t
 497              		.loc 1 91 0
 498 0164 7A68     		ldr	r2, [r7, #4]
 499 0166 7423     		mov	r3, #116
 500 0168 0021     		mov	r1, #0
 501 016a D154     		strb	r1, [r2, r3]
  92:.\wiznet_parse.c ****  //ARM
ARM GAS  C:\Users\Clayton\AppData\Local\Temp\ccogg0Sf.s 			page 12


  93:.\wiznet_parse.c ****  	report->arm.baseAzimuth = 0x00; //int16_t
 502              		.loc 1 93 0
 503 016c 7A68     		ldr	r2, [r7, #4]
 504 016e 7623     		mov	r3, #118
 505 0170 0021     		mov	r1, #0
 506 0172 D152     		strh	r1, [r2, r3]
  94:.\wiznet_parse.c ****  	report->arm.shoulder = 0x00; //int16_t
 507              		.loc 1 94 0
 508 0174 7A68     		ldr	r2, [r7, #4]
 509 0176 7823     		mov	r3, #120
 510 0178 0021     		mov	r1, #0
 511 017a D152     		strh	r1, [r2, r3]
  95:.\wiznet_parse.c ****  	report->arm.elbow = 0x00; //int16_t
 512              		.loc 1 95 0
 513 017c 7A68     		ldr	r2, [r7, #4]
 514 017e 7A23     		mov	r3, #122
 515 0180 0021     		mov	r1, #0
 516 0182 D152     		strh	r1, [r2, r3]
  96:.\wiznet_parse.c ****  	report->arm.wristTilt = 0x00; //int16_t
 517              		.loc 1 96 0
 518 0184 7A68     		ldr	r2, [r7, #4]
 519 0186 7C23     		mov	r3, #124
 520 0188 0021     		mov	r1, #0
 521 018a D152     		strh	r1, [r2, r3]
  97:.\wiznet_parse.c ****  	report->arm.wristRotate = 0x00; //int16_t
 522              		.loc 1 97 0
 523 018c 7A68     		ldr	r2, [r7, #4]
 524 018e 7E23     		mov	r3, #126
 525 0190 0021     		mov	r1, #0
 526 0192 D152     		strh	r1, [r2, r3]
  98:.\wiznet_parse.c ****  	report->arm.effectorA = 0x00; //int16_t
 527              		.loc 1 98 0
 528 0194 7A68     		ldr	r2, [r7, #4]
 529 0196 8023     		mov	r3, #128
 530 0198 0021     		mov	r1, #0
 531 019a D152     		strh	r1, [r2, r3]
  99:.\wiznet_parse.c ****  	report->arm.effectorB = 0x00; //int16_t
 532              		.loc 1 99 0
 533 019c 7A68     		ldr	r2, [r7, #4]
 534 019e 8223     		mov	r3, #130
 535 01a0 0021     		mov	r1, #0
 536 01a2 D152     		strh	r1, [r2, r3]
 100:.\wiznet_parse.c **** //ISHAAMA
 101:.\wiznet_parse.c ****  	report->ishaama.hygrometer = 0x00; //uint16-t
 537              		.loc 1 101 0
 538 01a4 7A68     		ldr	r2, [r7, #4]
 539 01a6 8423     		mov	r3, #132
 540 01a8 0021     		mov	r1, #0
 541 01aa D152     		strh	r1, [r2, r3]
 102:.\wiznet_parse.c ****  	report->ishaama.phMeter = 0x00; //uint16_t
 542              		.loc 1 102 0
 543 01ac 7A68     		ldr	r2, [r7, #4]
 544 01ae 8623     		mov	r3, #134
 545 01b0 0021     		mov	r1, #0
 546 01b2 D152     		strh	r1, [r2, r3]
 103:.\wiznet_parse.c ****  //LIFERAY
 104:.\wiznet_parse.c ****  	report->liferay.laserDutyCycle = 0x00; //uint8_t
ARM GAS  C:\Users\Clayton\AppData\Local\Temp\ccogg0Sf.s 			page 13


 547              		.loc 1 104 0
 548 01b4 7A68     		ldr	r2, [r7, #4]
 549 01b6 8823     		mov	r3, #136
 550 01b8 0021     		mov	r1, #0
 551 01ba D154     		strb	r1, [r2, r3]
 105:.\wiznet_parse.c ****  //custom_debug_1
 106:.\wiznet_parse.c ****  //custom_debug_2
 107:.\wiznet_parse.c ****  //custom_debug_3
 108:.\wiznet_parse.c **** }...
 552              		.loc 1 108 0
 553 01bc BD46     		mov	sp, r7
 554 01be 02B0     		add	sp, sp, #8
 555              		@ sp needed
 556 01c0 80BD     		pop	{r7, pc}
 557              	.L7:
 558 01c2 C046     		.align	2
 559              	.L6:
 560 01c4 30F8FFFF 		.word	-2000
 561 01c8 01175BCA 		.word	-899999999
 562 01cc 012EB694 		.word	-1799999999
 563 01d0 806967FF 		.word	-10000000
 564 01d4 DC050000 		.word	1500
 565              		.cfi_endproc
 566              	.LFE2:
 567              		.size	report_init, .-report_init
 568              		.text
 569              	.Letext0:
 570              		.file 2 "c:\\program files (x86)\\cypress\\psoc creator\\3.1\\psoc creator\\import\\gnu_cs\\arm\\4
 571              		.file 3 "c:\\program files (x86)\\cypress\\psoc creator\\3.1\\psoc creator\\import\\gnu_cs\\arm\\4
 572              		.file 4 ".\\roverlink.h"
 573              		.file 5 ".\\wiznet_parse.h"