ARM GAS  C:\Users\JEFFRE~1\AppData\Local\Temp\ccOe5dcU.s 			page 1


   1              		.cpu cortex-m0
   2              		.fpu softvfp
   3              		.eabi_attribute 20, 1
   4              		.eabi_attribute 21, 1
   5              		.eabi_attribute 23, 3
   6              		.eabi_attribute 24, 1
   7              		.eabi_attribute 25, 1
   8              		.eabi_attribute 26, 1
   9              		.eabi_attribute 30, 6
  10              		.eabi_attribute 34, 0
  11              		.eabi_attribute 18, 4
  12              		.code	16
  13              		.file	"main.c"
  14              		.text
  15              	.Ltext0:
  16              		.cfi_sections	.debug_frame
  17              		.comm	gpsIncoming,80,4
  18              		.global	currentPos
  19              		.data
  20              		.align	2
  21              		.type	currentPos, %object
  22              		.size	currentPos, 4
  23              	currentPos:
  24 0000 DC050000 		.word	1500
  25              		.global	tick
  26              		.type	tick, %object
  27              		.size	tick, 1
  28              	tick:
  29 0004 01       		.byte	1
  30 0005 000000   		.section	.rodata
  31              		.align	2
  32              		.type	INCREMENT_AMMOUNT, %object
  33              		.size	INCREMENT_AMMOUNT, 4
  34              	INCREMENT_AMMOUNT:
  35 0000 14000000 		.word	20
  36              		.comm	sch,1104,4
  37              		.section	.text.putdata,"ax",%progbits
  38              		.align	2
  39              		.global	putdata
  40              		.code	16
  41              		.thumb_func
  42              		.type	putdata, %function
  43              	putdata:
  44              	.LFB33:
  45              		.file 1 ".\\main.c"
   1:.\main.c      **** /*
   2:.\main.c      ****     BYU Mars Rover Main Board Scheduler Alpha (v1.0)
   3:.\main.c      ****     Designed by: Jeffrey Nybo
   4:.\main.c      ****     
   5:.\main.c      ****     Description:
   6:.\main.c      ****         This is a basic Scheduler intended for use on the main board of the BYU 2015
   7:.\main.c      ****     University Rover Challenge Rover. The Scheduler consists of a basic 4 stage 
   8:.\main.c      ****     mechanism: read, update, report, wait. Read, reads the top item in the incomming
   9:.\main.c      ****     commands array. Update updates the actuators. Report, creates the report. Wait simply
  10:.\main.c      ****     is a wait state to be used when there is nothing in the IncommingCommands array.
  11:.\main.c      ****     
  12:.\main.c      ****         Three structures are used in this implementation: IncommingCommands array, ToDoList and Rep
ARM GAS  C:\Users\JEFFRE~1\AppData\Local\Temp\ccOe5dcU.s 			page 2


  13:.\main.c      ****     The IncommingCommands array stores all of the incomming commands from the Wiznet (or in test ca
  14:.\main.c      ****     from the computer via uart). The ToDoList is where all current to be executed commands are stor
  15:.\main.c      ****     The report is a structure that maintains all of the information that will be sent back to the 
  16:.\main.c      ****     source (computer or wiznet).
  17:.\main.c      ****     
  18:.\main.c      ****     
  19:.\main.c      ****     
  20:.\main.c      ****     
  21:.\main.c      **** */
  22:.\main.c      **** /*========================================
  23:.\main.c      ****  *
  24:.\main.c      ****  * Copyright BRIGHAM YOUNG UNIVERSITY, 2015
  25:.\main.c      ****  * All Rights Reserved
  26:.\main.c      ****  * UNPUBLISHED, LICENSED SOFTWARE.
  27:.\main.c      ****  *
  28:.\main.c      ****  * CONFIDENTIAL AND PROPRIETARY INFORMATION
  29:.\main.c      ****  * WHICH IS THE PROPERTY OF BRIGHAM YOUNG UNIVERSITY.
  30:.\main.c      ****  *
  31:.\main.c      ****  * ========================================
  32:.\main.c      **** */
  33:.\main.c      **** #include <project.h>
  34:.\main.c      **** #include <stdbool.h>
  35:.\main.c      **** #include <string.h>
  36:.\main.c      **** 
  37:.\main.c      **** #include "Scheduler.h"
  38:.\main.c      **** 
  39:.\main.c      **** /* Local vars */
  40:.\main.c      **** uint32 currentPos = 1500;
  41:.\main.c      **** volatile bool tick = true;
  42:.\main.c      **** static const uint32 INCREMENT_AMMOUNT = 20;
  43:.\main.c      **** Scheduler sch;
  44:.\main.c      **** 
  45:.\main.c      **** void putdata(void* p, char c)
  46:.\main.c      **** {
  46              		.loc 1 46 0
  47              		.cfi_startproc
  48 0000 80B5     		push	{r7, lr}
  49              	.LCFI0:
  50              		.cfi_def_cfa_offset 8
  51              		.cfi_offset 7, -8
  52              		.cfi_offset 14, -4
  53 0002 82B0     		sub	sp, sp, #8
  54              	.LCFI1:
  55              		.cfi_def_cfa_offset 16
  56 0004 00AF     		add	r7, sp, #0
  57              	.LCFI2:
  58              		.cfi_def_cfa_register 7
  59 0006 7860     		str	r0, [r7, #4]
  60 0008 0A1C     		mov	r2, r1
  61 000a FB1C     		add	r3, r7, #3
  62 000c 1A70     		strb	r2, [r3]
  47:.\main.c      ****     if(c == '\n')
  63              		.loc 1 47 0
  64 000e FB1C     		add	r3, r7, #3
  65 0010 1B78     		ldrb	r3, [r3]
  66 0012 0A2B     		cmp	r3, #10
  67 0014 02D1     		bne	.L2
ARM GAS  C:\Users\JEFFRE~1\AppData\Local\Temp\ccOe5dcU.s 			page 3


  48:.\main.c      ****     {
  49:.\main.c      ****      UART_1_UartPutChar('\r');   
  68              		.loc 1 49 0
  69 0016 0D20     		mov	r0, #13
  70 0018 FFF7FEFF 		bl	UART_1_SpiUartWriteTxData
  71              	.L2:
  50:.\main.c      ****     }
  51:.\main.c      ****     
  52:.\main.c      ****  UART_1_UartPutChar(c);
  72              		.loc 1 52 0
  73 001c FB1C     		add	r3, r7, #3
  74 001e 1B78     		ldrb	r3, [r3]
  75 0020 181C     		mov	r0, r3
  76 0022 FFF7FEFF 		bl	UART_1_SpiUartWriteTxData
  53:.\main.c      **** }
  77              		.loc 1 53 0
  78 0026 BD46     		mov	sp, r7
  79 0028 02B0     		add	sp, sp, #8
  80              		@ sp needed for prologue
  81 002a 80BD     		pop	{r7, pc}
  82              		.cfi_endproc
  83              	.LFE33:
  84              		.size	putdata, .-putdata
  85              		.section	.text.incrementPos,"ax",%progbits
  86              		.align	2
  87              		.global	incrementPos
  88              		.code	16
  89              		.thumb_func
  90              		.type	incrementPos, %function
  91              	incrementPos:
  92              	.LFB34:
  54:.\main.c      **** 
  55:.\main.c      **** uint32 incrementPos(uint32* pos)
  56:.\main.c      **** {
  93              		.loc 1 56 0
  94              		.cfi_startproc
  95 0000 80B5     		push	{r7, lr}
  96              	.LCFI3:
  97              		.cfi_def_cfa_offset 8
  98              		.cfi_offset 7, -8
  99              		.cfi_offset 14, -4
 100 0002 82B0     		sub	sp, sp, #8
 101              	.LCFI4:
 102              		.cfi_def_cfa_offset 16
 103 0004 00AF     		add	r7, sp, #0
 104              	.LCFI5:
 105              		.cfi_def_cfa_register 7
 106 0006 7860     		str	r0, [r7, #4]
  57:.\main.c      ****     if(*pos > 2000)
 107              		.loc 1 57 0
 108 0008 7B68     		ldr	r3, [r7, #4]
 109 000a 1A68     		ldr	r2, [r3]
 110 000c FA23     		mov	r3, #250
 111 000e DB00     		lsl	r3, r3, #3
 112 0010 9A42     		cmp	r2, r3
 113 0012 04D9     		bls	.L4
  58:.\main.c      ****     {
ARM GAS  C:\Users\JEFFRE~1\AppData\Local\Temp\ccOe5dcU.s 			page 4


  59:.\main.c      ****         *pos = 2000;
 114              		.loc 1 59 0
 115 0014 7B68     		ldr	r3, [r7, #4]
 116 0016 FA22     		mov	r2, #250
 117 0018 D200     		lsl	r2, r2, #3
 118 001a 1A60     		str	r2, [r3]
 119 001c 10E0     		b	.L5
 120              	.L4:
  60:.\main.c      ****     }
  61:.\main.c      ****     else if(*pos < 1000)
 121              		.loc 1 61 0
 122 001e 7B68     		ldr	r3, [r7, #4]
 123 0020 1A68     		ldr	r2, [r3]
 124 0022 0A4B     		ldr	r3, .L8
 125 0024 9A42     		cmp	r2, r3
 126 0026 04D8     		bhi	.L6
  62:.\main.c      ****     {
  63:.\main.c      ****      *pos = 1000;   
 127              		.loc 1 63 0
 128 0028 7B68     		ldr	r3, [r7, #4]
 129 002a FA22     		mov	r2, #250
 130 002c 9200     		lsl	r2, r2, #2
 131 002e 1A60     		str	r2, [r3]
 132 0030 06E0     		b	.L5
 133              	.L6:
  64:.\main.c      ****     }
  65:.\main.c      ****     else
  66:.\main.c      ****     {
  67:.\main.c      ****      *pos = *pos + INCREMENT_AMMOUNT;  
 134              		.loc 1 67 0
 135 0032 7B68     		ldr	r3, [r7, #4]
 136 0034 1A68     		ldr	r2, [r3]
 137 0036 064B     		ldr	r3, .L8+4
 138 0038 1B68     		ldr	r3, [r3]
 139 003a D218     		add	r2, r2, r3
 140 003c 7B68     		ldr	r3, [r7, #4]
 141 003e 1A60     		str	r2, [r3]
 142              	.L5:
  68:.\main.c      ****     }
  69:.\main.c      ****     
  70:.\main.c      ****     return *pos;
 143              		.loc 1 70 0
 144 0040 7B68     		ldr	r3, [r7, #4]
 145 0042 1B68     		ldr	r3, [r3]
  71:.\main.c      **** }
 146              		.loc 1 71 0
 147 0044 181C     		mov	r0, r3
 148 0046 BD46     		mov	sp, r7
 149 0048 02B0     		add	sp, sp, #8
 150              		@ sp needed for prologue
 151 004a 80BD     		pop	{r7, pc}
 152              	.L9:
 153              		.align	2
 154              	.L8:
 155 004c E7030000 		.word	999
 156 0050 00000000 		.word	INCREMENT_AMMOUNT
 157              		.cfi_endproc
ARM GAS  C:\Users\JEFFRE~1\AppData\Local\Temp\ccOe5dcU.s 			page 5


 158              	.LFE34:
 159              		.size	incrementPos, .-incrementPos
 160              		.section	.text.decrementPos,"ax",%progbits
 161              		.align	2
 162              		.global	decrementPos
 163              		.code	16
 164              		.thumb_func
 165              		.type	decrementPos, %function
 166              	decrementPos:
 167              	.LFB35:
  72:.\main.c      **** 
  73:.\main.c      **** uint32 decrementPos(uint32* pos)
  74:.\main.c      **** {
 168              		.loc 1 74 0
 169              		.cfi_startproc
 170 0000 80B5     		push	{r7, lr}
 171              	.LCFI6:
 172              		.cfi_def_cfa_offset 8
 173              		.cfi_offset 7, -8
 174              		.cfi_offset 14, -4
 175 0002 82B0     		sub	sp, sp, #8
 176              	.LCFI7:
 177              		.cfi_def_cfa_offset 16
 178 0004 00AF     		add	r7, sp, #0
 179              	.LCFI8:
 180              		.cfi_def_cfa_register 7
 181 0006 7860     		str	r0, [r7, #4]
  75:.\main.c      ****      if(*pos > 2000)
 182              		.loc 1 75 0
 183 0008 7B68     		ldr	r3, [r7, #4]
 184 000a 1A68     		ldr	r2, [r3]
 185 000c FA23     		mov	r3, #250
 186 000e DB00     		lsl	r3, r3, #3
 187 0010 9A42     		cmp	r2, r3
 188 0012 04D9     		bls	.L11
  76:.\main.c      ****     {
  77:.\main.c      ****         *pos = 2000;
 189              		.loc 1 77 0
 190 0014 7B68     		ldr	r3, [r7, #4]
 191 0016 FA22     		mov	r2, #250
 192 0018 D200     		lsl	r2, r2, #3
 193 001a 1A60     		str	r2, [r3]
 194 001c 10E0     		b	.L12
 195              	.L11:
  78:.\main.c      ****     }
  79:.\main.c      ****     else if(*pos < 1000)
 196              		.loc 1 79 0
 197 001e 7B68     		ldr	r3, [r7, #4]
 198 0020 1A68     		ldr	r2, [r3]
 199 0022 0A4B     		ldr	r3, .L15
 200 0024 9A42     		cmp	r2, r3
 201 0026 04D8     		bhi	.L13
  80:.\main.c      ****     {
  81:.\main.c      ****      *pos = 1000;   
 202              		.loc 1 81 0
 203 0028 7B68     		ldr	r3, [r7, #4]
 204 002a FA22     		mov	r2, #250
ARM GAS  C:\Users\JEFFRE~1\AppData\Local\Temp\ccOe5dcU.s 			page 6


 205 002c 9200     		lsl	r2, r2, #2
 206 002e 1A60     		str	r2, [r3]
 207 0030 06E0     		b	.L12
 208              	.L13:
  82:.\main.c      ****     }
  83:.\main.c      ****     else
  84:.\main.c      ****     {
  85:.\main.c      ****      *pos = *pos - INCREMENT_AMMOUNT;  
 209              		.loc 1 85 0
 210 0032 7B68     		ldr	r3, [r7, #4]
 211 0034 1A68     		ldr	r2, [r3]
 212 0036 064B     		ldr	r3, .L15+4
 213 0038 1B68     		ldr	r3, [r3]
 214 003a D21A     		sub	r2, r2, r3
 215 003c 7B68     		ldr	r3, [r7, #4]
 216 003e 1A60     		str	r2, [r3]
 217              	.L12:
  86:.\main.c      ****     }
  87:.\main.c      ****     
  88:.\main.c      ****     return *pos;
 218              		.loc 1 88 0
 219 0040 7B68     		ldr	r3, [r7, #4]
 220 0042 1B68     		ldr	r3, [r3]
  89:.\main.c      **** }
 221              		.loc 1 89 0
 222 0044 181C     		mov	r0, r3
 223 0046 BD46     		mov	sp, r7
 224 0048 02B0     		add	sp, sp, #8
 225              		@ sp needed for prologue
 226 004a 80BD     		pop	{r7, pc}
 227              	.L16:
 228              		.align	2
 229              	.L15:
 230 004c E7030000 		.word	999
 231 0050 00000000 		.word	INCREMENT_AMMOUNT
 232              		.cfi_endproc
 233              	.LFE35:
 234              		.size	decrementPos, .-decrementPos
 235              		.section	.text.myISR,"ax",%progbits
 236              		.align	2
 237              		.global	myISR
 238              		.code	16
 239              		.thumb_func
 240              		.type	myISR, %function
 241              	myISR:
 242              	.LFB36:
  90:.\main.c      **** 
  91:.\main.c      **** CY_ISR(myISR)
  92:.\main.c      **** {
 243              		.loc 1 92 0
 244              		.cfi_startproc
 245 0000 80B5     		push	{r7, lr}
 246              	.LCFI9:
 247              		.cfi_def_cfa_offset 8
 248              		.cfi_offset 7, -8
 249              		.cfi_offset 14, -4
 250 0002 82B0     		sub	sp, sp, #8
ARM GAS  C:\Users\JEFFRE~1\AppData\Local\Temp\ccOe5dcU.s 			page 7


 251              	.LCFI10:
 252              		.cfi_def_cfa_offset 16
 253 0004 00AF     		add	r7, sp, #0
 254              	.LCFI11:
 255              		.cfi_def_cfa_register 7
  93:.\main.c      ****     uint32 intr = (uint32) Timer_GetInterruptSourceMasked();
 256              		.loc 1 93 0
 257 0006 FFF7FEFF 		bl	Timer_GetInterruptSourceMasked
 258 000a 031C     		mov	r3, r0
 259 000c 7B60     		str	r3, [r7, #4]
  94:.\main.c      ****     
  95:.\main.c      ****     /* Insert interrupt code here */
  96:.\main.c      ****     
  97:.\main.c      ****     
  98:.\main.c      ****     Timer_ClearInterrupt(intr);
 260              		.loc 1 98 0
 261 000e 7B68     		ldr	r3, [r7, #4]
 262 0010 181C     		mov	r0, r3
 263 0012 FFF7FEFF 		bl	Timer_ClearInterrupt
  99:.\main.c      **** }
 264              		.loc 1 99 0
 265 0016 BD46     		mov	sp, r7
 266 0018 02B0     		add	sp, sp, #8
 267              		@ sp needed for prologue
 268 001a 80BD     		pop	{r7, pc}
 269              		.cfi_endproc
 270              	.LFE36:
 271              		.size	myISR, .-myISR
 272              		.section	.text.uartISR,"ax",%progbits
 273              		.align	2
 274              		.global	uartISR
 275              		.code	16
 276              		.thumb_func
 277              		.type	uartISR, %function
 278              	uartISR:
 279              	.LFB37:
 100:.\main.c      **** 
 101:.\main.c      **** /* UART Keyboard Command Module Interrupt Service Routine (KCMISR) */
 102:.\main.c      **** 
 103:.\main.c      **** CY_ISR(uartISR)
 104:.\main.c      **** {
 280              		.loc 1 104 0
 281              		.cfi_startproc
 282 0000 80B5     		push	{r7, lr}
 283              	.LCFI12:
 284              		.cfi_def_cfa_offset 8
 285              		.cfi_offset 7, -8
 286              		.cfi_offset 14, -4
 287 0002 00AF     		add	r7, sp, #0
 288              	.LCFI13:
 289              		.cfi_def_cfa_register 7
 105:.\main.c      **** //    uint32 intre = (uint32) UART_1_GetRxInterruptSourceMasked();
 106:.\main.c      **** //    uint32 getChar = (uint32) UART_1_UartGetChar();
 107:.\main.c      **** //    printf("Btn");
 108:.\main.c      **** //    /* Insert interrupt code here */
 109:.\main.c      **** //    switch(getChar)
 110:.\main.c      **** //    {
ARM GAS  C:\Users\JEFFRE~1\AppData\Local\Temp\ccOe5dcU.s 			page 8


 111:.\main.c      **** //        case 'a':
 112:.\main.c      **** //        currentPos = 1920;
 113:.\main.c      **** //        P_WriteCompare(1920);
 114:.\main.c      **** //        break;
 115:.\main.c      **** //        
 116:.\main.c      **** //        case 'd':
 117:.\main.c      **** //        currentPos = 920;
 118:.\main.c      **** //        SignalGenerator_WriteCompare(920);
 119:.\main.c      **** //        break;
 120:.\main.c      **** //        
 121:.\main.c      **** //        case 'w':
 122:.\main.c      **** //        currentPos = 1420;
 123:.\main.c      **** //        P_WriteCompare(1420);
 124:.\main.c      **** //        break;
 125:.\main.c      **** //        
 126:.\main.c      **** //        case 'q':
 127:.\main.c      **** //        currentPos = 1670;
 128:.\main.c      **** //        P_WriteCompare(1670);
 129:.\main.c      **** //        break;
 130:.\main.c      **** //        
 131:.\main.c      **** //        case 'e':
 132:.\main.c      **** //        currentPos = 1170;
 133:.\main.c      **** //        P_WriteCompare(1170);
 134:.\main.c      **** //        break;
 135:.\main.c      **** //        
 136:.\main.c      **** //        
 137:.\main.c      **** //        
 138:.\main.c      **** //        case ',':
 139:.\main.c      **** //        P_WriteCompare(incrementPos(&currentPos));
 140:.\main.c      **** //        break;
 141:.\main.c      **** //        
 142:.\main.c      **** //        case '.':
 143:.\main.c      **** //        P_WriteCompare(decrementPos(&currentPos));
 144:.\main.c      **** //        break;
 145:.\main.c      **** //    }
 146:.\main.c      **** //    
 147:.\main.c      **** //    UART_1_ClearRxInterruptSource(intre);
 148:.\main.c      **** }
 290              		.loc 1 148 0
 291 0004 BD46     		mov	sp, r7
 292              		@ sp needed for prologue
 293 0006 80BD     		pop	{r7, pc}
 294              		.cfi_endproc
 295              	.LFE37:
 296              		.size	uartISR, .-uartISR
 297              		.section	.text.Servo_isr,"ax",%progbits
 298              		.align	2
 299              		.global	Servo_isr
 300              		.code	16
 301              		.thumb_func
 302              		.type	Servo_isr, %function
 303              	Servo_isr:
 304              	.LFB38:
 149:.\main.c      **** 
 150:.\main.c      **** 
 151:.\main.c      **** CY_ISR(Servo_isr)
 152:.\main.c      **** {
ARM GAS  C:\Users\JEFFRE~1\AppData\Local\Temp\ccOe5dcU.s 			page 9


 305              		.loc 1 152 0
 306              		.cfi_startproc
 307 0000 80B5     		push	{r7, lr}
 308              	.LCFI14:
 309              		.cfi_def_cfa_offset 8
 310              		.cfi_offset 7, -8
 311              		.cfi_offset 14, -4
 312 0002 00AF     		add	r7, sp, #0
 313              	.LCFI15:
 314              		.cfi_def_cfa_register 7
 153:.\main.c      ****         switch(SignalSel_Read())
 315              		.loc 1 153 0
 316 0004 FFF7FEFF 		bl	SignalSel_Read
 317 0008 031C     		mov	r3, r0
 318 000a 012B     		cmp	r3, #1
 319 000c 16D0     		beq	.L22
 320 000e 02DC     		bgt	.L25
 321 0010 002B     		cmp	r3, #0
 322 0012 05D0     		beq	.L21
 323 0014 39E0     		b	.L20
 324              	.L25:
 325 0016 022B     		cmp	r3, #2
 326 0018 1DD0     		beq	.L23
 327 001a 032B     		cmp	r3, #3
 328 001c 28D0     		beq	.L24
 329 001e 34E0     		b	.L20
 330              	.L21:
 154:.\main.c      ****         {
 155:.\main.c      ****             
 156:.\main.c      ****             case 0:
 157:.\main.c      ****             SignalGenerator_WriteCompare(sch.PWMCurrentValues[0]);
 331              		.loc 1 157 0
 332 0020 1E4A     		ldr	r2, .L27
 333 0022 8923     		mov	r3, #137
 334 0024 DB00     		lsl	r3, r3, #3
 335 0026 D35A     		ldrh	r3, [r2, r3]
 336 0028 181C     		mov	r0, r3
 337 002a FFF7FEFF 		bl	SignalGenerator_WriteCompare
 158:.\main.c      ****             InputValue_Write(1);
 338              		.loc 1 158 0
 339 002e 0120     		mov	r0, #1
 340 0030 FFF7FEFF 		bl	InputValue_Write
 159:.\main.c      ****             SignalSel_Write(1);  
 341              		.loc 1 159 0
 342 0034 0120     		mov	r0, #1
 343 0036 FFF7FEFF 		bl	SignalSel_Write
 160:.\main.c      ****             break;
 344              		.loc 1 160 0
 345 003a 2DE0     		b	.L19
 346              	.L22:
 161:.\main.c      ****             
 162:.\main.c      ****             case 1:
 163:.\main.c      ****             SignalGenerator_WriteCompare(sch.PWMCurrentValues[1]);
 347              		.loc 1 163 0
 348 003c 174A     		ldr	r2, .L27
 349 003e 184B     		ldr	r3, .L27+4
 350 0040 D35A     		ldrh	r3, [r2, r3]
ARM GAS  C:\Users\JEFFRE~1\AppData\Local\Temp\ccOe5dcU.s 			page 10


 351 0042 181C     		mov	r0, r3
 352 0044 FFF7FEFF 		bl	SignalGenerator_WriteCompare
 164:.\main.c      ****             InputValue_Write(1);
 353              		.loc 1 164 0
 354 0048 0120     		mov	r0, #1
 355 004a FFF7FEFF 		bl	InputValue_Write
 165:.\main.c      ****             SignalSel_Write(2);
 356              		.loc 1 165 0
 357 004e 0220     		mov	r0, #2
 358 0050 FFF7FEFF 		bl	SignalSel_Write
 166:.\main.c      ****             break;
 359              		.loc 1 166 0
 360 0054 20E0     		b	.L19
 361              	.L23:
 167:.\main.c      ****             
 168:.\main.c      ****             case 2:
 169:.\main.c      ****             SignalGenerator_WriteCompare(sch.PWMCurrentValues[2]);
 362              		.loc 1 169 0
 363 0056 114A     		ldr	r2, .L27
 364 0058 124B     		ldr	r3, .L27+8
 365 005a D35A     		ldrh	r3, [r2, r3]
 366 005c 181C     		mov	r0, r3
 367 005e FFF7FEFF 		bl	SignalGenerator_WriteCompare
 170:.\main.c      ****             InputValue_Write(1);
 368              		.loc 1 170 0
 369 0062 0120     		mov	r0, #1
 370 0064 FFF7FEFF 		bl	InputValue_Write
 171:.\main.c      ****             SignalSel_Write(3);
 371              		.loc 1 171 0
 372 0068 0320     		mov	r0, #3
 373 006a FFF7FEFF 		bl	SignalSel_Write
 172:.\main.c      ****             break;
 374              		.loc 1 172 0
 375 006e 13E0     		b	.L19
 376              	.L24:
 173:.\main.c      ****             
 174:.\main.c      ****             case 3:
 175:.\main.c      ****             SignalGenerator_WriteCompare(sch.PWMCurrentValues[3]);
 377              		.loc 1 175 0
 378 0070 0A4A     		ldr	r2, .L27
 379 0072 0D4B     		ldr	r3, .L27+12
 380 0074 D35A     		ldrh	r3, [r2, r3]
 381 0076 181C     		mov	r0, r3
 382 0078 FFF7FEFF 		bl	SignalGenerator_WriteCompare
 176:.\main.c      ****             InputValue_Write(1);
 383              		.loc 1 176 0
 384 007c 0120     		mov	r0, #1
 385 007e FFF7FEFF 		bl	InputValue_Write
 177:.\main.c      ****             SignalSel_Write(0);
 386              		.loc 1 177 0
 387 0082 0020     		mov	r0, #0
 388 0084 FFF7FEFF 		bl	SignalSel_Write
 178:.\main.c      ****             break;
 389              		.loc 1 178 0
 390 0088 06E0     		b	.L19
 391              	.L20:
 179:.\main.c      ****             
ARM GAS  C:\Users\JEFFRE~1\AppData\Local\Temp\ccOe5dcU.s 			page 11


 180:.\main.c      ****             default:
 181:.\main.c      ****             InputValue_Write(0);
 392              		.loc 1 181 0
 393 008a 0020     		mov	r0, #0
 394 008c FFF7FEFF 		bl	InputValue_Write
 182:.\main.c      ****             SignalSel_Write(0);
 395              		.loc 1 182 0
 396 0090 0020     		mov	r0, #0
 397 0092 FFF7FEFF 		bl	SignalSel_Write
 183:.\main.c      ****             break;
 398              		.loc 1 183 0
 399 0096 C046     		mov	r8, r8
 400              	.L19:
 184:.\main.c      ****         
 185:.\main.c      ****         
 186:.\main.c      ****     }
 187:.\main.c      **** }
 401              		.loc 1 187 0
 402 0098 BD46     		mov	sp, r7
 403              		@ sp needed for prologue
 404 009a 80BD     		pop	{r7, pc}
 405              	.L28:
 406              		.align	2
 407              	.L27:
 408 009c 00000000 		.word	sch
 409 00a0 4A040000 		.word	1098
 410 00a4 4C040000 		.word	1100
 411 00a8 4E040000 		.word	1102
 412              		.cfi_endproc
 413              	.LFE38:
 414              		.size	Servo_isr, .-Servo_isr
 415              		.section	.rodata
 416              		.align	2
 417              	.LC7:
 418 0004 7469636B 		.ascii	"tick TRUE \012\015\000"
 418      20545255 
 418      45200A0D 
 418      00
 419 0011 000000   		.align	2
 420              	.LC9:
 421 0014 72756E6E 		.ascii	"runningTick \012\015\000"
 421      696E6754 
 421      69636B20 
 421      0A0D00
 422 0023 00       		.section	.text.main,"ax",%progbits
 423              		.align	2
 424              		.global	main
 425              		.code	16
 426              		.thumb_func
 427              		.type	main, %function
 428              	main:
 429              	.LFB39:
 188:.\main.c      **** 
 189:.\main.c      **** 
 190:.\main.c      **** int main()
 191:.\main.c      **** {
 430              		.loc 1 191 0
ARM GAS  C:\Users\JEFFRE~1\AppData\Local\Temp\ccOe5dcU.s 			page 12


 431              		.cfi_startproc
 432 0000 80B5     		push	{r7, lr}
 433              	.LCFI16:
 434              		.cfi_def_cfa_offset 8
 435              		.cfi_offset 7, -8
 436              		.cfi_offset 14, -4
 437 0002 00AF     		add	r7, sp, #0
 438              	.LCFI17:
 439              		.cfi_def_cfa_register 7
 192:.\main.c      ****     /* Place your initialization/startup code here (e.g. MyInst_Start()) */
 193:.\main.c      ****     init_printf(NULL, putdata);
 440              		.loc 1 193 0
 441 0004 174B     		ldr	r3, .L33
 442 0006 0020     		mov	r0, #0
 443 0008 191C     		mov	r1, r3
 444 000a FFF7FEFF 		bl	init_printf
 194:.\main.c      ****     Timer_Start();
 445              		.loc 1 194 0
 446 000e FFF7FEFF 		bl	Timer_Start
 195:.\main.c      ****     UART_1_Start();
 447              		.loc 1 195 0
 448 0012 FFF7FEFF 		bl	UART_1_Start
 196:.\main.c      ****     isr_StartEx(myISR);
 449              		.loc 1 196 0
 450 0016 144B     		ldr	r3, .L33+4
 451 0018 181C     		mov	r0, r3
 452 001a FFF7FEFF 		bl	isr_StartEx
 197:.\main.c      ****     ISRUART_StartEx(uartISR);
 453              		.loc 1 197 0
 454 001e 134B     		ldr	r3, .L33+8
 455 0020 181C     		mov	r0, r3
 456 0022 FFF7FEFF 		bl	ISRUART_StartEx
 198:.\main.c      ****     //SignalSel_Start();
 199:.\main.c      ****     //P_Start();
 200:.\main.c      ****     CyDelay(5000);
 457              		.loc 1 200 0
 458 0026 124B     		ldr	r3, .L33+12
 459 0028 181C     		mov	r0, r3
 460 002a FFF7FEFF 		bl	CyDelay
 201:.\main.c      ****     isr_StartEx(myISR);
 461              		.loc 1 201 0
 462 002e 0E4B     		ldr	r3, .L33+4
 463 0030 181C     		mov	r0, r3
 464 0032 FFF7FEFF 		bl	isr_StartEx
 202:.\main.c      ****     
 203:.\main.c      ****      CyGlobalIntEnable;  /* Uncomment this line to enable global interrupts. */
 465              		.loc 1 203 0
 466              	@ 203 ".\main.c" 1
 467 0036 62B6     		CPSIE   i
 468              	@ 0 "" 2
 204:.\main.c      ****     
 205:.\main.c      ****    
 206:.\main.c      ****    
 207:.\main.c      ****     tick = false;
 469              		.loc 1 207 0
 470              		.code	16
 471 0038 0E4B     		ldr	r3, .L33+16
ARM GAS  C:\Users\JEFFRE~1\AppData\Local\Temp\ccOe5dcU.s 			page 13


 472 003a 0022     		mov	r2, #0
 473 003c 1A70     		strb	r2, [r3]
 474 003e 00E0     		b	.L31
 475              	.L32:
 208:.\main.c      ****    // breatheState = init;
 209:.\main.c      ****     for(;;)
 210:.\main.c      ****     {
 211:.\main.c      ****         /* Place your application code here. */
 212:.\main.c      ****         //printf("Hello World \n\r");
 213:.\main.c      ****         //CyDelay(50);
 214:.\main.c      ****        
 215:.\main.c      ****         
 216:.\main.c      ****         if(tick == true)
 217:.\main.c      ****         {
 218:.\main.c      ****         printf("tick TRUE \n\r");
 219:.\main.c      ****         
 220:.\main.c      ****         printf("runningTick \n\r");
 221:.\main.c      ****        // breatheTickFunction();
 222:.\main.c      ****         
 223:.\main.c      ****         tick = false;
 224:.\main.c      ****         
 225:.\main.c      ****         }
 226:.\main.c      ****         //Tasks to perform
 227:.\main.c      ****         //read input State Machine
 228:.\main.c      ****         //Ouptuts State Machine
 229:.\main.c      ****     }
 476              		.loc 1 229 0
 477 0040 C046     		mov	r8, r8
 478              	.L31:
 216:.\main.c      ****         if(tick == true)
 479              		.loc 1 216 0
 480 0042 0C4B     		ldr	r3, .L33+16
 481 0044 1B78     		ldrb	r3, [r3]
 482 0046 DBB2     		uxtb	r3, r3
 483 0048 002B     		cmp	r3, #0
 484 004a F9D0     		beq	.L32
 218:.\main.c      ****         printf("tick TRUE \n\r");
 485              		.loc 1 218 0
 486 004c 0A4B     		ldr	r3, .L33+20
 487 004e 181C     		mov	r0, r3
 488 0050 FFF7FEFF 		bl	tfp_printf
 220:.\main.c      ****         printf("runningTick \n\r");
 489              		.loc 1 220 0
 490 0054 094B     		ldr	r3, .L33+24
 491 0056 181C     		mov	r0, r3
 492 0058 FFF7FEFF 		bl	tfp_printf
 223:.\main.c      ****         tick = false;
 493              		.loc 1 223 0
 494 005c 054B     		ldr	r3, .L33+16
 495 005e 0022     		mov	r2, #0
 496 0060 1A70     		strb	r2, [r3]
 497              		.loc 1 229 0
 498 0062 EDE7     		b	.L32
 499              	.L34:
 500              		.align	2
 501              	.L33:
 502 0064 00000000 		.word	putdata
ARM GAS  C:\Users\JEFFRE~1\AppData\Local\Temp\ccOe5dcU.s 			page 14


 503 0068 00000000 		.word	myISR
 504 006c 00000000 		.word	uartISR
 505 0070 88130000 		.word	5000
 506 0074 00000000 		.word	tick
 507 0078 04000000 		.word	.LC7
 508 007c 14000000 		.word	.LC9
 509              		.cfi_endproc
 510              	.LFE39:
 511              		.size	main, .-main
 512              		.text
 513              	.Letext0:
 514              		.file 2 "./Generated_Source/PSoC4/cytypes.h"
 515              		.file 3 ".\\Scheduler.h"