ARM GAS  C:\Users\JEFFRE~1\AppData\Local\Temp\ccQyZ0We.s 			page 1


   1              		.cpu cortex-m0
   2              		.fpu softvfp
   3              		.eabi_attribute 20, 1
   4              		.eabi_attribute 21, 1
   5              		.eabi_attribute 23, 3
   6              		.eabi_attribute 24, 1
   7              		.eabi_attribute 25, 1
   8              		.eabi_attribute 26, 1
   9              		.eabi_attribute 30, 6
  10              		.eabi_attribute 34, 0
  11              		.eabi_attribute 18, 4
  12              		.code	16
  13              		.file	"Scheduler.c"
  14              		.text
  15              	.Ltext0:
  16              		.cfi_sections	.debug_frame
  17              		.comm	gpsIncoming,80,4
  18              		.section	.text.initTodoList,"ax",%progbits
  19              		.align	2
  20              		.global	initTodoList
  21              		.code	16
  22              		.thumb_func
  23              		.type	initTodoList, %function
  24              	initTodoList:
  25              	.LFB33:
  26              		.file 1 ".\\Scheduler.c"
   1:.\Scheduler.c **** /* ========================================
   2:.\Scheduler.c ****  *
   3:.\Scheduler.c ****  * Copyright YOUR COMPANY, THE YEAR
   4:.\Scheduler.c ****  * All Rights Reserved
   5:.\Scheduler.c ****  * UNPUBLISHED, LICENSED SOFTWARE.
   6:.\Scheduler.c ****  *
   7:.\Scheduler.c ****  * CONFIDENTIAL AND PROPRIETARY INFORMATION
   8:.\Scheduler.c ****  * WHICH IS THE PROPERTY OF your company.
   9:.\Scheduler.c ****  *
  10:.\Scheduler.c ****  * ========================================
  11:.\Scheduler.c **** */
  12:.\Scheduler.c **** #include "Scheduler.h"
  13:.\Scheduler.c **** 
  14:.\Scheduler.c **** void initTodoList(ToDoList* todo)
  15:.\Scheduler.c **** {
  27              		.loc 1 15 0
  28              		.cfi_startproc
  29 0000 80B5     		push	{r7, lr}
  30              	.LCFI0:
  31              		.cfi_def_cfa_offset 8
  32              		.cfi_offset 7, -8
  33              		.cfi_offset 14, -4
  34 0002 82B0     		sub	sp, sp, #8
  35              	.LCFI1:
  36              		.cfi_def_cfa_offset 16
  37 0004 00AF     		add	r7, sp, #0
  38              	.LCFI2:
  39              		.cfi_def_cfa_register 7
  40 0006 7860     		str	r0, [r7, #4]
  16:.\Scheduler.c ****     todo->gimbalPan = 0;
  41              		.loc 1 16 0
ARM GAS  C:\Users\JEFFRE~1\AppData\Local\Temp\ccQyZ0We.s 			page 2


  42 0008 7B68     		ldr	r3, [r7, #4]
  43 000a 0022     		mov	r2, #0
  44 000c 9A80     		strh	r2, [r3, #4]
  17:.\Scheduler.c ****     todo->gimbalTilt = 0;
  45              		.loc 1 17 0
  46 000e 7B68     		ldr	r3, [r7, #4]
  47 0010 0022     		mov	r2, #0
  48 0012 DA80     		strh	r2, [r3, #6]
  18:.\Scheduler.c ****     todo->leftWheels = 0;
  49              		.loc 1 18 0
  50 0014 7B68     		ldr	r3, [r7, #4]
  51 0016 0022     		mov	r2, #0
  52 0018 1A80     		strh	r2, [r3]
  19:.\Scheduler.c ****     todo->rightWheels = 0;
  53              		.loc 1 19 0
  54 001a 7B68     		ldr	r3, [r7, #4]
  55 001c 0022     		mov	r2, #0
  56 001e 5A80     		strh	r2, [r3, #2]
  20:.\Scheduler.c **** }
  57              		.loc 1 20 0
  58 0020 BD46     		mov	sp, r7
  59 0022 02B0     		add	sp, sp, #8
  60              		@ sp needed for prologue
  61 0024 80BD     		pop	{r7, pc}
  62              		.cfi_endproc
  63              	.LFE33:
  64              		.size	initTodoList, .-initTodoList
  65 0026 C046     		.section	.text.initReport,"ax",%progbits
  66              		.align	2
  67              		.global	initReport
  68              		.code	16
  69              		.thumb_func
  70              		.type	initReport, %function
  71              	initReport:
  72              	.LFB34:
  21:.\Scheduler.c **** 
  22:.\Scheduler.c **** void initReport(Report* report)
  23:.\Scheduler.c **** {
  73              		.loc 1 23 0
  74              		.cfi_startproc
  75 0000 80B5     		push	{r7, lr}
  76              	.LCFI3:
  77              		.cfi_def_cfa_offset 8
  78              		.cfi_offset 7, -8
  79              		.cfi_offset 14, -4
  80 0002 82B0     		sub	sp, sp, #8
  81              	.LCFI4:
  82              		.cfi_def_cfa_offset 16
  83 0004 00AF     		add	r7, sp, #0
  84              	.LCFI5:
  85              		.cfi_def_cfa_register 7
  86 0006 7860     		str	r0, [r7, #4]
  24:.\Scheduler.c ****     report->gimbalPan = 0;
  87              		.loc 1 24 0
  88 0008 7B68     		ldr	r3, [r7, #4]
  89 000a 0022     		mov	r2, #0
  90 000c 9A80     		strh	r2, [r3, #4]
ARM GAS  C:\Users\JEFFRE~1\AppData\Local\Temp\ccQyZ0We.s 			page 3


  25:.\Scheduler.c ****     report->gimbalTilt = 0;
  91              		.loc 1 25 0
  92 000e 7B68     		ldr	r3, [r7, #4]
  93 0010 0022     		mov	r2, #0
  94 0012 DA80     		strh	r2, [r3, #6]
  26:.\Scheduler.c ****     memset(report->gpsData, 0, CHAR_ARRAY_MAX_SIZE);
  95              		.loc 1 26 0
  96 0014 7B68     		ldr	r3, [r7, #4]
  97 0016 0833     		add	r3, r3, #8
  98 0018 181C     		mov	r0, r3
  99 001a 0021     		mov	r1, #0
 100 001c 5022     		mov	r2, #80
 101 001e FFF7FEFF 		bl	memset
  27:.\Scheduler.c ****     report->leftWheels = 0;
 102              		.loc 1 27 0
 103 0022 7B68     		ldr	r3, [r7, #4]
 104 0024 0022     		mov	r2, #0
 105 0026 1A80     		strh	r2, [r3]
  28:.\Scheduler.c ****     report->rightWheels = 0;
 106              		.loc 1 28 0
 107 0028 7B68     		ldr	r3, [r7, #4]
 108 002a 0022     		mov	r2, #0
 109 002c 5A80     		strh	r2, [r3, #2]
  29:.\Scheduler.c **** }
 110              		.loc 1 29 0
 111 002e BD46     		mov	sp, r7
 112 0030 02B0     		add	sp, sp, #8
 113              		@ sp needed for prologue
 114 0032 80BD     		pop	{r7, pc}
 115              		.cfi_endproc
 116              	.LFE34:
 117              		.size	initReport, .-initReport
 118              		.comm	taskSchedulerState,1,1
 119              		.section	.text.taskScheduler,"ax",%progbits
 120              		.align	2
 121              		.global	taskScheduler
 122              		.code	16
 123              		.thumb_func
 124              		.type	taskScheduler, %function
 125              	taskScheduler:
 126              	.LFB35:
  30:.\Scheduler.c **** 
  31:.\Scheduler.c **** enum taskSchedulerStates {init_taskScheduler, read, update, report, wait} taskSchedulerState;
  32:.\Scheduler.c **** 
  33:.\Scheduler.c **** void taskScheduler()
  34:.\Scheduler.c **** {
 127              		.loc 1 34 0
 128              		.cfi_startproc
 129 0000 80B5     		push	{r7, lr}
 130              	.LCFI6:
 131              		.cfi_def_cfa_offset 8
 132              		.cfi_offset 7, -8
 133              		.cfi_offset 14, -4
 134 0002 00AF     		add	r7, sp, #0
 135              	.LCFI7:
 136              		.cfi_def_cfa_register 7
  35:.\Scheduler.c ****     //State Actions
ARM GAS  C:\Users\JEFFRE~1\AppData\Local\Temp\ccQyZ0We.s 			page 4


  36:.\Scheduler.c ****     switch (taskSchedulerState) 
 137              		.loc 1 36 0
 138 0004 0C4B     		ldr	r3, .L20
 139 0006 1B78     		ldrb	r3, [r3]
 140 0008 042B     		cmp	r3, #4
 141 000a 05D8     		bhi	.L4
 142 000c 9A00     		lsl	r2, r3, #2
 143 000e 0B4B     		ldr	r3, .L20+4
 144 0010 D318     		add	r3, r2, r3
 145 0012 1B68     		ldr	r3, [r3]
 146 0014 9F46     		mov	pc, r3
 147              		.section	.rodata
 148              		.align	2
 149              	.L10:
 150 0000 16000000 		.word	.L18
 151 0004 16000000 		.word	.L18
 152 0008 16000000 		.word	.L18
 153 000c 16000000 		.word	.L18
 154 0010 16000000 		.word	.L18
 155              		.section	.text.taskScheduler
 156              	.L18:
  37:.\Scheduler.c ****     {
  38:.\Scheduler.c ****         case init_taskScheduler:
  39:.\Scheduler.c ****             
  40:.\Scheduler.c ****         break;
  41:.\Scheduler.c ****         case read:
  42:.\Scheduler.c ****         //Take top Package off of Wiznet Buffer
  43:.\Scheduler.c ****         //Open it up
  44:.\Scheduler.c ****         //Parse and save all pieces of data into ToDo list struct
  45:.\Scheduler.c ****         break;
  46:.\Scheduler.c ****         case update:
  47:.\Scheduler.c ****         //Write var to pwm components
  48:.\Scheduler.c ****         //Switch camera
  49:.\Scheduler.c ****         break;
  50:.\Scheduler.c ****         case report:
  51:.\Scheduler.c ****         
  52:.\Scheduler.c ****         break;
  53:.\Scheduler.c ****         case wait:
  54:.\Scheduler.c ****         
  55:.\Scheduler.c ****         break;
 157              		.loc 1 55 0
 158 0016 C046     		mov	r8, r8
 159              	.L4:
  56:.\Scheduler.c ****     }    
  57:.\Scheduler.c ****        
  58:.\Scheduler.c ****     //Transitions
  59:.\Scheduler.c ****     switch(taskSchedulerState)
 160              		.loc 1 59 0
 161 0018 074B     		ldr	r3, .L20
 162 001a 1B78     		ldrb	r3, [r3]
 163 001c 042B     		cmp	r3, #4
 164 001e 09D8     		bhi	.L3
 165 0020 9A00     		lsl	r2, r3, #2
 166 0022 074B     		ldr	r3, .L20+8
 167 0024 D318     		add	r3, r2, r3
 168 0026 1B68     		ldr	r3, [r3]
 169 0028 9F46     		mov	pc, r3
ARM GAS  C:\Users\JEFFRE~1\AppData\Local\Temp\ccQyZ0We.s 			page 5


 170              		.section	.rodata
 171              		.align	2
 172              	.L17:
 173 0014 2A000000 		.word	.L12
 174 0018 32000000 		.word	.L19
 175 001c 32000000 		.word	.L19
 176 0020 32000000 		.word	.L19
 177 0024 32000000 		.word	.L19
 178              		.section	.text.taskScheduler
 179              	.L12:
  60:.\Scheduler.c ****     {
  61:.\Scheduler.c ****         case init_taskScheduler:
  62:.\Scheduler.c ****             taskSchedulerState = wait;
 180              		.loc 1 62 0
 181 002a 034B     		ldr	r3, .L20
 182 002c 0422     		mov	r2, #4
 183 002e 1A70     		strb	r2, [r3]
  63:.\Scheduler.c ****         break;
 184              		.loc 1 63 0
 185 0030 00E0     		b	.L3
 186              	.L19:
  64:.\Scheduler.c ****         case read:
  65:.\Scheduler.c ****         
  66:.\Scheduler.c ****         break;
  67:.\Scheduler.c ****         case update:
  68:.\Scheduler.c ****         
  69:.\Scheduler.c ****         break;
  70:.\Scheduler.c ****         case report:
  71:.\Scheduler.c ****         
  72:.\Scheduler.c ****         break;
  73:.\Scheduler.c ****         case wait:
  74:.\Scheduler.c ****             
  75:.\Scheduler.c ****         break;
 187              		.loc 1 75 0
 188 0032 C046     		mov	r8, r8
 189              	.L3:
  76:.\Scheduler.c ****         
  77:.\Scheduler.c ****     }
  78:.\Scheduler.c ****     
  79:.\Scheduler.c **** }
 190              		.loc 1 79 0
 191 0034 BD46     		mov	sp, r7
 192              		@ sp needed for prologue
 193 0036 80BD     		pop	{r7, pc}
 194              	.L21:
 195              		.align	2
 196              	.L20:
 197 0038 00000000 		.word	taskSchedulerState
 198 003c 00000000 		.word	.L10
 199 0040 14000000 		.word	.L17
 200              		.cfi_endproc
 201              	.LFE35:
 202              		.size	taskScheduler, .-taskScheduler
 203              		.text
 204              	.Letext0:
 205              		.file 2 ".\\Scheduler.h"
 206              		.file 3 "./Generated_Source/PSoC4/cytypes.h"
ARM GAS  C:\Users\JEFFRE~1\AppData\Local\Temp\ccQyZ0We.s 			page 6

