ARM GAS  C:\Users\JEFFRE~1\AppData\Local\Temp\ccRImAiW.s 			page 1


   1              		.cpu cortex-m0
   2              		.fpu softvfp
   3              		.eabi_attribute 20, 1
   4              		.eabi_attribute 21, 1
   5              		.eabi_attribute 23, 3
   6              		.eabi_attribute 24, 1
   7              		.eabi_attribute 25, 1
   8              		.eabi_attribute 26, 1
   9              		.eabi_attribute 30, 6
  10              		.eabi_attribute 34, 0
  11              		.eabi_attribute 18, 4
  12              		.code	16
  13              		.file	"SignalGenerator.c"
  14              		.text
  15              	.Ltext0:
  16              		.cfi_sections	.debug_frame
  17              		.global	SignalGenerator_initVar
  18              		.bss
  19              		.type	SignalGenerator_initVar, %object
  20              		.size	SignalGenerator_initVar, 1
  21              	SignalGenerator_initVar:
  22 0000 00       		.space	1
  23              		.section	.text.SignalGenerator_Init,"ax",%progbits
  24              		.align	2
  25              		.global	SignalGenerator_Init
  26              		.code	16
  27              		.thumb_func
  28              		.type	SignalGenerator_Init, %function
  29              	SignalGenerator_Init:
  30              	.LFB0:
  31              		.file 1 ".\\Generated_Source\\PSoC4\\SignalGenerator.c"
   1:.\Generated_Source\PSoC4/SignalGenerator.c **** /*******************************************************************************
   2:.\Generated_Source\PSoC4/SignalGenerator.c **** * File Name: SignalGenerator.c
   3:.\Generated_Source\PSoC4/SignalGenerator.c **** * Version 1.10
   4:.\Generated_Source\PSoC4/SignalGenerator.c **** *
   5:.\Generated_Source\PSoC4/SignalGenerator.c **** * Description:
   6:.\Generated_Source\PSoC4/SignalGenerator.c **** *  This file provides the source code to the API for the SignalGenerator
   7:.\Generated_Source\PSoC4/SignalGenerator.c **** *  component
   8:.\Generated_Source\PSoC4/SignalGenerator.c **** *
   9:.\Generated_Source\PSoC4/SignalGenerator.c **** * Note:
  10:.\Generated_Source\PSoC4/SignalGenerator.c **** *  None
  11:.\Generated_Source\PSoC4/SignalGenerator.c **** *
  12:.\Generated_Source\PSoC4/SignalGenerator.c **** ********************************************************************************
  13:.\Generated_Source\PSoC4/SignalGenerator.c **** * Copyright 2013-2014, Cypress Semiconductor Corporation.  All rights reserved.
  14:.\Generated_Source\PSoC4/SignalGenerator.c **** * You may use this file only in accordance with the license, terms, conditions,
  15:.\Generated_Source\PSoC4/SignalGenerator.c **** * disclaimers, and limitations in the end user license agreement accompanying
  16:.\Generated_Source\PSoC4/SignalGenerator.c **** * the software package with which this file was provided.
  17:.\Generated_Source\PSoC4/SignalGenerator.c **** *******************************************************************************/
  18:.\Generated_Source\PSoC4/SignalGenerator.c **** 
  19:.\Generated_Source\PSoC4/SignalGenerator.c **** #include "SignalGenerator.h"
  20:.\Generated_Source\PSoC4/SignalGenerator.c **** #include "CyLib.h"
  21:.\Generated_Source\PSoC4/SignalGenerator.c **** 
  22:.\Generated_Source\PSoC4/SignalGenerator.c **** uint8 SignalGenerator_initVar = 0u;
  23:.\Generated_Source\PSoC4/SignalGenerator.c **** 
  24:.\Generated_Source\PSoC4/SignalGenerator.c **** 
  25:.\Generated_Source\PSoC4/SignalGenerator.c **** /*******************************************************************************
  26:.\Generated_Source\PSoC4/SignalGenerator.c **** * Function Name: SignalGenerator_Init
ARM GAS  C:\Users\JEFFRE~1\AppData\Local\Temp\ccRImAiW.s 			page 2


  27:.\Generated_Source\PSoC4/SignalGenerator.c **** ********************************************************************************
  28:.\Generated_Source\PSoC4/SignalGenerator.c **** *
  29:.\Generated_Source\PSoC4/SignalGenerator.c **** * Summary:
  30:.\Generated_Source\PSoC4/SignalGenerator.c **** *  Initialize/Restore default SignalGenerator configuration.
  31:.\Generated_Source\PSoC4/SignalGenerator.c **** *
  32:.\Generated_Source\PSoC4/SignalGenerator.c **** * Parameters:
  33:.\Generated_Source\PSoC4/SignalGenerator.c **** *  None
  34:.\Generated_Source\PSoC4/SignalGenerator.c **** *
  35:.\Generated_Source\PSoC4/SignalGenerator.c **** * Return:
  36:.\Generated_Source\PSoC4/SignalGenerator.c **** *  None
  37:.\Generated_Source\PSoC4/SignalGenerator.c **** *
  38:.\Generated_Source\PSoC4/SignalGenerator.c **** *******************************************************************************/
  39:.\Generated_Source\PSoC4/SignalGenerator.c **** void SignalGenerator_Init(void)
  40:.\Generated_Source\PSoC4/SignalGenerator.c **** {
  32              		.loc 1 40 0
  33              		.cfi_startproc
  34 0000 80B5     		push	{r7, lr}
  35              	.LCFI0:
  36              		.cfi_def_cfa_offset 8
  37              		.cfi_offset 7, -8
  38              		.cfi_offset 14, -4
  39 0002 00AF     		add	r7, sp, #0
  40              	.LCFI1:
  41              		.cfi_def_cfa_register 7
  41:.\Generated_Source\PSoC4/SignalGenerator.c **** 
  42:.\Generated_Source\PSoC4/SignalGenerator.c ****     /* Set values from customizer to CTRL */
  43:.\Generated_Source\PSoC4/SignalGenerator.c ****     #if (SignalGenerator__QUAD == SignalGenerator_CONFIG)
  44:.\Generated_Source\PSoC4/SignalGenerator.c ****         SignalGenerator_CONTROL_REG =
  45:.\Generated_Source\PSoC4/SignalGenerator.c ****         (((uint32)(SignalGenerator_QUAD_ENCODING_MODES     << SignalGenerator_QUAD_MODE_SHIFT))    
  46:.\Generated_Source\PSoC4/SignalGenerator.c ****          ((uint32)(SignalGenerator_CONFIG                  << SignalGenerator_MODE_SHIFT)));
  47:.\Generated_Source\PSoC4/SignalGenerator.c ****     #endif  /* (SignalGenerator__QUAD == SignalGenerator_CONFIG) */
  48:.\Generated_Source\PSoC4/SignalGenerator.c **** 
  49:.\Generated_Source\PSoC4/SignalGenerator.c ****     #if (SignalGenerator__PWM_SEL == SignalGenerator_CONFIG)
  50:.\Generated_Source\PSoC4/SignalGenerator.c ****         SignalGenerator_CONTROL_REG =
  51:.\Generated_Source\PSoC4/SignalGenerator.c ****         (((uint32)(SignalGenerator_PWM_STOP_EVENT          << SignalGenerator_PWM_STOP_KILL_SHIFT))
  52:.\Generated_Source\PSoC4/SignalGenerator.c ****          ((uint32)(SignalGenerator_PWM_OUT_INVERT          << SignalGenerator_INV_OUT_SHIFT))      
  53:.\Generated_Source\PSoC4/SignalGenerator.c ****          ((uint32)(SignalGenerator_PWM_OUT_N_INVERT        << SignalGenerator_INV_COMPL_OUT_SHIFT))
  54:.\Generated_Source\PSoC4/SignalGenerator.c ****          ((uint32)(SignalGenerator_PWM_MODE                << SignalGenerator_MODE_SHIFT)));
  55:.\Generated_Source\PSoC4/SignalGenerator.c **** 
  56:.\Generated_Source\PSoC4/SignalGenerator.c ****         #if (SignalGenerator__PWM_PR == SignalGenerator_PWM_MODE)
  57:.\Generated_Source\PSoC4/SignalGenerator.c ****             SignalGenerator_CONTROL_REG |=
  58:.\Generated_Source\PSoC4/SignalGenerator.c ****             ((uint32)(SignalGenerator_PWM_RUN_MODE         << SignalGenerator_ONESHOT_SHIFT));
  59:.\Generated_Source\PSoC4/SignalGenerator.c **** 
  60:.\Generated_Source\PSoC4/SignalGenerator.c ****             SignalGenerator_WriteCounter(SignalGenerator_PWM_PR_INIT_VALUE);
  61:.\Generated_Source\PSoC4/SignalGenerator.c ****         #else
  62:.\Generated_Source\PSoC4/SignalGenerator.c ****             SignalGenerator_CONTROL_REG |=
  63:.\Generated_Source\PSoC4/SignalGenerator.c ****             (((uint32)(SignalGenerator_PWM_ALIGN           << SignalGenerator_UPDOWN_SHIFT))       
  64:.\Generated_Source\PSoC4/SignalGenerator.c ****              ((uint32)(SignalGenerator_PWM_KILL_EVENT      << SignalGenerator_PWM_SYNC_KILL_SHIFT))
  65:.\Generated_Source\PSoC4/SignalGenerator.c ****         #endif  /* (SignalGenerator__PWM_PR == SignalGenerator_PWM_MODE) */
  66:.\Generated_Source\PSoC4/SignalGenerator.c **** 
  67:.\Generated_Source\PSoC4/SignalGenerator.c ****         #if (SignalGenerator__PWM_DT == SignalGenerator_PWM_MODE)
  68:.\Generated_Source\PSoC4/SignalGenerator.c ****             SignalGenerator_CONTROL_REG |=
  69:.\Generated_Source\PSoC4/SignalGenerator.c ****             ((uint32)(SignalGenerator_PWM_DEAD_TIME_CYCLE  << SignalGenerator_PRESCALER_SHIFT));
  70:.\Generated_Source\PSoC4/SignalGenerator.c ****         #endif  /* (SignalGenerator__PWM_DT == SignalGenerator_PWM_MODE) */
  71:.\Generated_Source\PSoC4/SignalGenerator.c **** 
  72:.\Generated_Source\PSoC4/SignalGenerator.c ****         #if (SignalGenerator__PWM == SignalGenerator_PWM_MODE)
  73:.\Generated_Source\PSoC4/SignalGenerator.c ****             SignalGenerator_CONTROL_REG |=
ARM GAS  C:\Users\JEFFRE~1\AppData\Local\Temp\ccRImAiW.s 			page 3


  74:.\Generated_Source\PSoC4/SignalGenerator.c ****             ((uint32)SignalGenerator_PWM_PRESCALER         << SignalGenerator_PRESCALER_SHIFT);
  75:.\Generated_Source\PSoC4/SignalGenerator.c ****         #endif  /* (SignalGenerator__PWM == SignalGenerator_PWM_MODE) */
  76:.\Generated_Source\PSoC4/SignalGenerator.c ****     #endif  /* (SignalGenerator__PWM_SEL == SignalGenerator_CONFIG) */
  77:.\Generated_Source\PSoC4/SignalGenerator.c **** 
  78:.\Generated_Source\PSoC4/SignalGenerator.c ****     #if (SignalGenerator__TIMER == SignalGenerator_CONFIG)
  79:.\Generated_Source\PSoC4/SignalGenerator.c ****         SignalGenerator_CONTROL_REG =
  42              		.loc 1 79 0
  43 0004 094B     		ldr	r3, .L2
  44 0006 0022     		mov	r2, #0
  45 0008 1A60     		str	r2, [r3]
  80:.\Generated_Source\PSoC4/SignalGenerator.c ****         (((uint32)(SignalGenerator_TC_PRESCALER            << SignalGenerator_PRESCALER_SHIFT))   |
  81:.\Generated_Source\PSoC4/SignalGenerator.c ****          ((uint32)(SignalGenerator_TC_COUNTER_MODE         << SignalGenerator_UPDOWN_SHIFT))      |
  82:.\Generated_Source\PSoC4/SignalGenerator.c ****          ((uint32)(SignalGenerator_TC_RUN_MODE             << SignalGenerator_ONESHOT_SHIFT))     |
  83:.\Generated_Source\PSoC4/SignalGenerator.c ****          ((uint32)(SignalGenerator_TC_COMP_CAP_MODE        << SignalGenerator_MODE_SHIFT)));
  84:.\Generated_Source\PSoC4/SignalGenerator.c ****     #endif  /* (SignalGenerator__TIMER == SignalGenerator_CONFIG) */
  85:.\Generated_Source\PSoC4/SignalGenerator.c **** 
  86:.\Generated_Source\PSoC4/SignalGenerator.c ****     /* Set values from customizer to CTRL1 */
  87:.\Generated_Source\PSoC4/SignalGenerator.c ****     #if (SignalGenerator__QUAD == SignalGenerator_CONFIG)
  88:.\Generated_Source\PSoC4/SignalGenerator.c ****         SignalGenerator_TRIG_CONTROL1_REG  =
  89:.\Generated_Source\PSoC4/SignalGenerator.c ****         (((uint32)(SignalGenerator_QUAD_PHIA_SIGNAL_MODE   << SignalGenerator_COUNT_SHIFT))       |
  90:.\Generated_Source\PSoC4/SignalGenerator.c ****          ((uint32)(SignalGenerator_QUAD_INDEX_SIGNAL_MODE  << SignalGenerator_RELOAD_SHIFT))      |
  91:.\Generated_Source\PSoC4/SignalGenerator.c ****          ((uint32)(SignalGenerator_QUAD_STOP_SIGNAL_MODE   << SignalGenerator_STOP_SHIFT))        |
  92:.\Generated_Source\PSoC4/SignalGenerator.c ****          ((uint32)(SignalGenerator_QUAD_PHIB_SIGNAL_MODE   << SignalGenerator_START_SHIFT)));
  93:.\Generated_Source\PSoC4/SignalGenerator.c ****     #endif  /* (SignalGenerator__QUAD == SignalGenerator_CONFIG) */
  94:.\Generated_Source\PSoC4/SignalGenerator.c **** 
  95:.\Generated_Source\PSoC4/SignalGenerator.c ****     #if (SignalGenerator__PWM_SEL == SignalGenerator_CONFIG)
  96:.\Generated_Source\PSoC4/SignalGenerator.c ****         SignalGenerator_TRIG_CONTROL1_REG  =
  97:.\Generated_Source\PSoC4/SignalGenerator.c ****         (((uint32)(SignalGenerator_PWM_SWITCH_SIGNAL_MODE  << SignalGenerator_CAPTURE_SHIFT))     |
  98:.\Generated_Source\PSoC4/SignalGenerator.c ****          ((uint32)(SignalGenerator_PWM_COUNT_SIGNAL_MODE   << SignalGenerator_COUNT_SHIFT))       |
  99:.\Generated_Source\PSoC4/SignalGenerator.c ****          ((uint32)(SignalGenerator_PWM_RELOAD_SIGNAL_MODE  << SignalGenerator_RELOAD_SHIFT))      |
 100:.\Generated_Source\PSoC4/SignalGenerator.c ****          ((uint32)(SignalGenerator_PWM_STOP_SIGNAL_MODE    << SignalGenerator_STOP_SHIFT))        |
 101:.\Generated_Source\PSoC4/SignalGenerator.c ****          ((uint32)(SignalGenerator_PWM_START_SIGNAL_MODE   << SignalGenerator_START_SHIFT)));
 102:.\Generated_Source\PSoC4/SignalGenerator.c ****     #endif  /* (SignalGenerator__PWM_SEL == SignalGenerator_CONFIG) */
 103:.\Generated_Source\PSoC4/SignalGenerator.c **** 
 104:.\Generated_Source\PSoC4/SignalGenerator.c ****     #if (SignalGenerator__TIMER == SignalGenerator_CONFIG)
 105:.\Generated_Source\PSoC4/SignalGenerator.c ****         SignalGenerator_TRIG_CONTROL1_REG  =
  46              		.loc 1 105 0
  47 000a 094B     		ldr	r3, .L2+4
  48 000c 0C22     		mov	r2, #12
  49 000e 1A60     		str	r2, [r3]
 106:.\Generated_Source\PSoC4/SignalGenerator.c ****         (((uint32)(SignalGenerator_TC_CAPTURE_SIGNAL_MODE  << SignalGenerator_CAPTURE_SHIFT))     |
 107:.\Generated_Source\PSoC4/SignalGenerator.c ****          ((uint32)(SignalGenerator_TC_COUNT_SIGNAL_MODE    << SignalGenerator_COUNT_SHIFT))       |
 108:.\Generated_Source\PSoC4/SignalGenerator.c ****          ((uint32)(SignalGenerator_TC_RELOAD_SIGNAL_MODE   << SignalGenerator_RELOAD_SHIFT))      |
 109:.\Generated_Source\PSoC4/SignalGenerator.c ****          ((uint32)(SignalGenerator_TC_STOP_SIGNAL_MODE     << SignalGenerator_STOP_SHIFT))        |
 110:.\Generated_Source\PSoC4/SignalGenerator.c ****          ((uint32)(SignalGenerator_TC_START_SIGNAL_MODE    << SignalGenerator_START_SHIFT)));
 111:.\Generated_Source\PSoC4/SignalGenerator.c ****     #endif  /* (SignalGenerator__TIMER == SignalGenerator_CONFIG) */
 112:.\Generated_Source\PSoC4/SignalGenerator.c **** 
 113:.\Generated_Source\PSoC4/SignalGenerator.c ****     /* Set values from customizer to INTR */
 114:.\Generated_Source\PSoC4/SignalGenerator.c ****     #if (SignalGenerator__QUAD == SignalGenerator_CONFIG)
 115:.\Generated_Source\PSoC4/SignalGenerator.c ****         SignalGenerator_SetInterruptMode(SignalGenerator_QUAD_INTERRUPT_MASK);
 116:.\Generated_Source\PSoC4/SignalGenerator.c ****     #endif  /* (SignalGenerator__QUAD == SignalGenerator_CONFIG) */
 117:.\Generated_Source\PSoC4/SignalGenerator.c **** 
 118:.\Generated_Source\PSoC4/SignalGenerator.c ****     #if (SignalGenerator__PWM_SEL == SignalGenerator_CONFIG)
 119:.\Generated_Source\PSoC4/SignalGenerator.c ****         SignalGenerator_SetInterruptMode(SignalGenerator_PWM_INTERRUPT_MASK);
 120:.\Generated_Source\PSoC4/SignalGenerator.c ****     #endif  /* (SignalGenerator__PWM_SEL == SignalGenerator_CONFIG) */
 121:.\Generated_Source\PSoC4/SignalGenerator.c **** 
 122:.\Generated_Source\PSoC4/SignalGenerator.c ****     #if (SignalGenerator__TIMER == SignalGenerator_CONFIG)
ARM GAS  C:\Users\JEFFRE~1\AppData\Local\Temp\ccRImAiW.s 			page 4


 123:.\Generated_Source\PSoC4/SignalGenerator.c ****         SignalGenerator_SetInterruptMode(SignalGenerator_TC_INTERRUPT_MASK);
  50              		.loc 1 123 0
  51 0010 0220     		mov	r0, #2
  52 0012 FFF7FEFF 		bl	SignalGenerator_SetInterruptMode
 124:.\Generated_Source\PSoC4/SignalGenerator.c ****     #endif  /* (SignalGenerator__TIMER == SignalGenerator_CONFIG) */
 125:.\Generated_Source\PSoC4/SignalGenerator.c **** 
 126:.\Generated_Source\PSoC4/SignalGenerator.c ****     /* Set other values from customizer */
 127:.\Generated_Source\PSoC4/SignalGenerator.c ****     #if (SignalGenerator__TIMER == SignalGenerator_CONFIG)
 128:.\Generated_Source\PSoC4/SignalGenerator.c ****         SignalGenerator_WritePeriod(SignalGenerator_TC_PERIOD_VALUE );
  53              		.loc 1 128 0
  54 0016 074B     		ldr	r3, .L2+8
  55 0018 181C     		mov	r0, r3
  56 001a FFF7FEFF 		bl	SignalGenerator_WritePeriod
 129:.\Generated_Source\PSoC4/SignalGenerator.c **** 
 130:.\Generated_Source\PSoC4/SignalGenerator.c ****         #if (SignalGenerator__COUNT_DOWN == SignalGenerator_TC_COUNTER_MODE)
 131:.\Generated_Source\PSoC4/SignalGenerator.c ****             SignalGenerator_WriteCounter(SignalGenerator_TC_PERIOD_VALUE );
 132:.\Generated_Source\PSoC4/SignalGenerator.c ****         #endif  /* (SignalGenerator__COUNT_DOWN == SignalGenerator_TC_COUNTER_MODE) */
 133:.\Generated_Source\PSoC4/SignalGenerator.c **** 
 134:.\Generated_Source\PSoC4/SignalGenerator.c ****         #if (SignalGenerator__COMPARE == SignalGenerator_TC_COMP_CAP_MODE)
 135:.\Generated_Source\PSoC4/SignalGenerator.c ****             SignalGenerator_WriteCompare(SignalGenerator_TC_COMPARE_VALUE);
  57              		.loc 1 135 0
  58 001e 064B     		ldr	r3, .L2+12
  59 0020 181C     		mov	r0, r3
  60 0022 FFF7FEFF 		bl	SignalGenerator_WriteCompare
 136:.\Generated_Source\PSoC4/SignalGenerator.c **** 
 137:.\Generated_Source\PSoC4/SignalGenerator.c ****             #if (1u == SignalGenerator_TC_COMPARE_SWAP)
 138:.\Generated_Source\PSoC4/SignalGenerator.c ****                 SignalGenerator_SetCompareSwap(1u);
 139:.\Generated_Source\PSoC4/SignalGenerator.c ****                 SignalGenerator_WriteCompareBuf(SignalGenerator_TC_COMPARE_BUF_VALUE);
 140:.\Generated_Source\PSoC4/SignalGenerator.c ****             #endif  /* (1u == SignalGenerator_TC_COMPARE_SWAP) */
 141:.\Generated_Source\PSoC4/SignalGenerator.c ****         #endif  /* (SignalGenerator__COMPARE == SignalGenerator_TC_COMP_CAP_MODE) */
 142:.\Generated_Source\PSoC4/SignalGenerator.c ****     #endif  /* (SignalGenerator__TIMER == SignalGenerator_CONFIG) */
 143:.\Generated_Source\PSoC4/SignalGenerator.c **** 
 144:.\Generated_Source\PSoC4/SignalGenerator.c ****     #if (SignalGenerator__PWM_SEL == SignalGenerator_CONFIG)
 145:.\Generated_Source\PSoC4/SignalGenerator.c ****         SignalGenerator_WritePeriod(SignalGenerator_PWM_PERIOD_VALUE );
 146:.\Generated_Source\PSoC4/SignalGenerator.c ****         SignalGenerator_WriteCompare(SignalGenerator_PWM_COMPARE_VALUE);
 147:.\Generated_Source\PSoC4/SignalGenerator.c **** 
 148:.\Generated_Source\PSoC4/SignalGenerator.c ****         #if (1u == SignalGenerator_PWM_COMPARE_SWAP)
 149:.\Generated_Source\PSoC4/SignalGenerator.c ****             SignalGenerator_SetCompareSwap(1u);
 150:.\Generated_Source\PSoC4/SignalGenerator.c ****             SignalGenerator_WriteCompareBuf(SignalGenerator_PWM_COMPARE_BUF_VALUE);
 151:.\Generated_Source\PSoC4/SignalGenerator.c ****         #endif  /* (1u == SignalGenerator_PWM_COMPARE_SWAP) */
 152:.\Generated_Source\PSoC4/SignalGenerator.c **** 
 153:.\Generated_Source\PSoC4/SignalGenerator.c ****         #if (1u == SignalGenerator_PWM_PERIOD_SWAP)
 154:.\Generated_Source\PSoC4/SignalGenerator.c ****             SignalGenerator_SetPeriodSwap(1u);
 155:.\Generated_Source\PSoC4/SignalGenerator.c ****             SignalGenerator_WritePeriodBuf(SignalGenerator_PWM_PERIOD_BUF_VALUE);
 156:.\Generated_Source\PSoC4/SignalGenerator.c ****         #endif  /* (1u == SignalGenerator_PWM_PERIOD_SWAP) */
 157:.\Generated_Source\PSoC4/SignalGenerator.c **** 
 158:.\Generated_Source\PSoC4/SignalGenerator.c ****         /* Set values from customizer to CTRL2 */
 159:.\Generated_Source\PSoC4/SignalGenerator.c ****         #if (SignalGenerator__PWM_PR == SignalGenerator_PWM_MODE)
 160:.\Generated_Source\PSoC4/SignalGenerator.c ****             SignalGenerator_TRIG_CONTROL2_REG =
 161:.\Generated_Source\PSoC4/SignalGenerator.c ****                     (SignalGenerator_CC_MATCH_NO_CHANGE    |
 162:.\Generated_Source\PSoC4/SignalGenerator.c ****                     SignalGenerator_OVERLOW_NO_CHANGE      |
 163:.\Generated_Source\PSoC4/SignalGenerator.c ****                     SignalGenerator_UNDERFLOW_NO_CHANGE);
 164:.\Generated_Source\PSoC4/SignalGenerator.c ****         #else
 165:.\Generated_Source\PSoC4/SignalGenerator.c ****             #if (SignalGenerator__LEFT == SignalGenerator_PWM_ALIGN)
 166:.\Generated_Source\PSoC4/SignalGenerator.c ****                 SignalGenerator_TRIG_CONTROL2_REG = SignalGenerator_PWM_MODE_LEFT;
 167:.\Generated_Source\PSoC4/SignalGenerator.c ****             #endif  /* ( SignalGenerator_PWM_LEFT == SignalGenerator_PWM_ALIGN) */
 168:.\Generated_Source\PSoC4/SignalGenerator.c **** 
ARM GAS  C:\Users\JEFFRE~1\AppData\Local\Temp\ccRImAiW.s 			page 5


 169:.\Generated_Source\PSoC4/SignalGenerator.c ****             #if (SignalGenerator__RIGHT == SignalGenerator_PWM_ALIGN)
 170:.\Generated_Source\PSoC4/SignalGenerator.c ****                 SignalGenerator_WriteCounter(SignalGenerator_PWM_PERIOD_VALUE);
 171:.\Generated_Source\PSoC4/SignalGenerator.c ****                 SignalGenerator_TRIG_CONTROL2_REG = SignalGenerator_PWM_MODE_RIGHT;
 172:.\Generated_Source\PSoC4/SignalGenerator.c ****             #endif  /* ( SignalGenerator_PWM_RIGHT == SignalGenerator_PWM_ALIGN) */
 173:.\Generated_Source\PSoC4/SignalGenerator.c **** 
 174:.\Generated_Source\PSoC4/SignalGenerator.c ****             #if (SignalGenerator__CENTER == SignalGenerator_PWM_ALIGN)
 175:.\Generated_Source\PSoC4/SignalGenerator.c ****                 SignalGenerator_TRIG_CONTROL2_REG = SignalGenerator_PWM_MODE_CENTER;
 176:.\Generated_Source\PSoC4/SignalGenerator.c ****             #endif  /* ( SignalGenerator_PWM_CENTER == SignalGenerator_PWM_ALIGN) */
 177:.\Generated_Source\PSoC4/SignalGenerator.c **** 
 178:.\Generated_Source\PSoC4/SignalGenerator.c ****             #if (SignalGenerator__ASYMMETRIC == SignalGenerator_PWM_ALIGN)
 179:.\Generated_Source\PSoC4/SignalGenerator.c ****                 SignalGenerator_TRIG_CONTROL2_REG = SignalGenerator_PWM_MODE_ASYM;
 180:.\Generated_Source\PSoC4/SignalGenerator.c ****             #endif  /* (SignalGenerator__ASYMMETRIC == SignalGenerator_PWM_ALIGN) */
 181:.\Generated_Source\PSoC4/SignalGenerator.c ****         #endif  /* (SignalGenerator__PWM_PR == SignalGenerator_PWM_MODE) */
 182:.\Generated_Source\PSoC4/SignalGenerator.c ****     #endif  /* (SignalGenerator__PWM_SEL == SignalGenerator_CONFIG) */
 183:.\Generated_Source\PSoC4/SignalGenerator.c **** }
  61              		.loc 1 183 0
  62 0026 BD46     		mov	sp, r7
  63              		@ sp needed for prologue
  64 0028 80BD     		pop	{r7, pc}
  65              	.L3:
  66 002a C046     		.align	2
  67              	.L2:
  68 002c 40010540 		.word	1074069824
  69 0030 64010540 		.word	1074069860
  70 0034 204E0000 		.word	20000
  71 0038 DC050000 		.word	1500
  72              		.cfi_endproc
  73              	.LFE0:
  74              		.size	SignalGenerator_Init, .-SignalGenerator_Init
  75              		.section	.text.SignalGenerator_Enable,"ax",%progbits
  76              		.align	2
  77              		.global	SignalGenerator_Enable
  78              		.code	16
  79              		.thumb_func
  80              		.type	SignalGenerator_Enable, %function
  81              	SignalGenerator_Enable:
  82              	.LFB1:
 184:.\Generated_Source\PSoC4/SignalGenerator.c **** 
 185:.\Generated_Source\PSoC4/SignalGenerator.c **** 
 186:.\Generated_Source\PSoC4/SignalGenerator.c **** /*******************************************************************************
 187:.\Generated_Source\PSoC4/SignalGenerator.c **** * Function Name: SignalGenerator_Enable
 188:.\Generated_Source\PSoC4/SignalGenerator.c **** ********************************************************************************
 189:.\Generated_Source\PSoC4/SignalGenerator.c **** *
 190:.\Generated_Source\PSoC4/SignalGenerator.c **** * Summary:
 191:.\Generated_Source\PSoC4/SignalGenerator.c **** *  Enables the SignalGenerator.
 192:.\Generated_Source\PSoC4/SignalGenerator.c **** *
 193:.\Generated_Source\PSoC4/SignalGenerator.c **** * Parameters:
 194:.\Generated_Source\PSoC4/SignalGenerator.c **** *  None
 195:.\Generated_Source\PSoC4/SignalGenerator.c **** *
 196:.\Generated_Source\PSoC4/SignalGenerator.c **** * Return:
 197:.\Generated_Source\PSoC4/SignalGenerator.c **** *  None
 198:.\Generated_Source\PSoC4/SignalGenerator.c **** *
 199:.\Generated_Source\PSoC4/SignalGenerator.c **** *******************************************************************************/
 200:.\Generated_Source\PSoC4/SignalGenerator.c **** void SignalGenerator_Enable(void)
 201:.\Generated_Source\PSoC4/SignalGenerator.c **** {
  83              		.loc 1 201 0
  84              		.cfi_startproc
ARM GAS  C:\Users\JEFFRE~1\AppData\Local\Temp\ccRImAiW.s 			page 6


  85 0000 90B5     		push	{r4, r7, lr}
  86              	.LCFI2:
  87              		.cfi_def_cfa_offset 12
  88              		.cfi_offset 4, -12
  89              		.cfi_offset 7, -8
  90              		.cfi_offset 14, -4
  91 0002 83B0     		sub	sp, sp, #12
  92              	.LCFI3:
  93              		.cfi_def_cfa_offset 24
  94 0004 00AF     		add	r7, sp, #0
  95              	.LCFI4:
  96              		.cfi_def_cfa_register 7
 202:.\Generated_Source\PSoC4/SignalGenerator.c ****     uint8 enableInterrupts;
 203:.\Generated_Source\PSoC4/SignalGenerator.c **** 
 204:.\Generated_Source\PSoC4/SignalGenerator.c ****     enableInterrupts = CyEnterCriticalSection();
  97              		.loc 1 204 0
  98 0006 FC1D     		add	r4, r7, #7
  99 0008 FFF7FEFF 		bl	CyEnterCriticalSection
 100 000c 031C     		mov	r3, r0
 101 000e 2370     		strb	r3, [r4]
 205:.\Generated_Source\PSoC4/SignalGenerator.c ****     SignalGenerator_BLOCK_CONTROL_REG |= SignalGenerator_MASK;
 102              		.loc 1 205 0
 103 0010 084B     		ldr	r3, .L5
 104 0012 084A     		ldr	r2, .L5
 105 0014 1268     		ldr	r2, [r2]
 106 0016 0221     		mov	r1, #2
 107 0018 0A43     		orr	r2, r1
 108 001a 1A60     		str	r2, [r3]
 206:.\Generated_Source\PSoC4/SignalGenerator.c ****     CyExitCriticalSection(enableInterrupts);
 109              		.loc 1 206 0
 110 001c FB1D     		add	r3, r7, #7
 111 001e 1B78     		ldrb	r3, [r3]
 112 0020 181C     		mov	r0, r3
 113 0022 FFF7FEFF 		bl	CyExitCriticalSection
 207:.\Generated_Source\PSoC4/SignalGenerator.c **** 
 208:.\Generated_Source\PSoC4/SignalGenerator.c ****     /* Start Timer or PWM if start input is absent */
 209:.\Generated_Source\PSoC4/SignalGenerator.c ****     #if (SignalGenerator__PWM_SEL == SignalGenerator_CONFIG)
 210:.\Generated_Source\PSoC4/SignalGenerator.c ****         #if (0u == SignalGenerator_PWM_START_SIGNAL_PRESENT)
 211:.\Generated_Source\PSoC4/SignalGenerator.c ****             SignalGenerator_TriggerCommand(SignalGenerator_MASK, SignalGenerator_CMD_START);
 212:.\Generated_Source\PSoC4/SignalGenerator.c ****         #endif /* (0u == SignalGenerator_PWM_START_SIGNAL_PRESENT) */
 213:.\Generated_Source\PSoC4/SignalGenerator.c ****     #endif /* (SignalGenerator__PWM_SEL == SignalGenerator_CONFIG) */
 214:.\Generated_Source\PSoC4/SignalGenerator.c **** 
 215:.\Generated_Source\PSoC4/SignalGenerator.c ****     #if (SignalGenerator__TIMER == SignalGenerator_CONFIG)
 216:.\Generated_Source\PSoC4/SignalGenerator.c ****         #if (0u == SignalGenerator_TC_START_SIGNAL_PRESENT)
 217:.\Generated_Source\PSoC4/SignalGenerator.c ****             SignalGenerator_TriggerCommand(SignalGenerator_MASK, SignalGenerator_CMD_START);
 114              		.loc 1 217 0
 115 0026 0220     		mov	r0, #2
 116 0028 1821     		mov	r1, #24
 117 002a FFF7FEFF 		bl	SignalGenerator_TriggerCommand
 218:.\Generated_Source\PSoC4/SignalGenerator.c ****         #endif /* (0u == SignalGenerator_TC_START_SIGNAL_PRESENT) */
 219:.\Generated_Source\PSoC4/SignalGenerator.c ****     #endif /* (SignalGenerator__TIMER == SignalGenerator_CONFIG) */
 220:.\Generated_Source\PSoC4/SignalGenerator.c **** }
 118              		.loc 1 220 0
 119 002e BD46     		mov	sp, r7
 120 0030 03B0     		add	sp, sp, #12
 121              		@ sp needed for prologue
 122 0032 90BD     		pop	{r4, r7, pc}
ARM GAS  C:\Users\JEFFRE~1\AppData\Local\Temp\ccRImAiW.s 			page 7


 123              	.L6:
 124              		.align	2
 125              	.L5:
 126 0034 00000540 		.word	1074069504
 127              		.cfi_endproc
 128              	.LFE1:
 129              		.size	SignalGenerator_Enable, .-SignalGenerator_Enable
 130              		.section	.text.SignalGenerator_Start,"ax",%progbits
 131              		.align	2
 132              		.global	SignalGenerator_Start
 133              		.code	16
 134              		.thumb_func
 135              		.type	SignalGenerator_Start, %function
 136              	SignalGenerator_Start:
 137              	.LFB2:
 221:.\Generated_Source\PSoC4/SignalGenerator.c **** 
 222:.\Generated_Source\PSoC4/SignalGenerator.c **** 
 223:.\Generated_Source\PSoC4/SignalGenerator.c **** /*******************************************************************************
 224:.\Generated_Source\PSoC4/SignalGenerator.c **** * Function Name: SignalGenerator_Start
 225:.\Generated_Source\PSoC4/SignalGenerator.c **** ********************************************************************************
 226:.\Generated_Source\PSoC4/SignalGenerator.c **** *
 227:.\Generated_Source\PSoC4/SignalGenerator.c **** * Summary:
 228:.\Generated_Source\PSoC4/SignalGenerator.c **** *  Initializes the SignalGenerator with default customizer
 229:.\Generated_Source\PSoC4/SignalGenerator.c **** *  values when called the first time and enables the SignalGenerator.
 230:.\Generated_Source\PSoC4/SignalGenerator.c **** *  For subsequent calls the configuration is left unchanged and the component is
 231:.\Generated_Source\PSoC4/SignalGenerator.c **** *  just enabled.
 232:.\Generated_Source\PSoC4/SignalGenerator.c **** *
 233:.\Generated_Source\PSoC4/SignalGenerator.c **** * Parameters:
 234:.\Generated_Source\PSoC4/SignalGenerator.c **** *  None
 235:.\Generated_Source\PSoC4/SignalGenerator.c **** *
 236:.\Generated_Source\PSoC4/SignalGenerator.c **** * Return:
 237:.\Generated_Source\PSoC4/SignalGenerator.c **** *  None
 238:.\Generated_Source\PSoC4/SignalGenerator.c **** *
 239:.\Generated_Source\PSoC4/SignalGenerator.c **** * Global variables:
 240:.\Generated_Source\PSoC4/SignalGenerator.c **** *  SignalGenerator_initVar: global variable is used to indicate initial
 241:.\Generated_Source\PSoC4/SignalGenerator.c **** *  configuration of this component.  The variable is initialized to zero and set
 242:.\Generated_Source\PSoC4/SignalGenerator.c **** *  to 1 the first time SignalGenerator_Start() is called. This allows
 243:.\Generated_Source\PSoC4/SignalGenerator.c **** *  enabling/disabling a component without re-initialization in all subsequent
 244:.\Generated_Source\PSoC4/SignalGenerator.c **** *  calls to the SignalGenerator_Start() routine.
 245:.\Generated_Source\PSoC4/SignalGenerator.c **** *
 246:.\Generated_Source\PSoC4/SignalGenerator.c **** *******************************************************************************/
 247:.\Generated_Source\PSoC4/SignalGenerator.c **** void SignalGenerator_Start(void)
 248:.\Generated_Source\PSoC4/SignalGenerator.c **** {
 138              		.loc 1 248 0
 139              		.cfi_startproc
 140 0000 80B5     		push	{r7, lr}
 141              	.LCFI5:
 142              		.cfi_def_cfa_offset 8
 143              		.cfi_offset 7, -8
 144              		.cfi_offset 14, -4
 145 0002 00AF     		add	r7, sp, #0
 146              	.LCFI6:
 147              		.cfi_def_cfa_register 7
 249:.\Generated_Source\PSoC4/SignalGenerator.c ****     if (0u == SignalGenerator_initVar)
 148              		.loc 1 249 0
 149 0004 064B     		ldr	r3, .L9
 150 0006 1B78     		ldrb	r3, [r3]
ARM GAS  C:\Users\JEFFRE~1\AppData\Local\Temp\ccRImAiW.s 			page 8


 151 0008 002B     		cmp	r3, #0
 152 000a 04D1     		bne	.L8
 250:.\Generated_Source\PSoC4/SignalGenerator.c ****     {
 251:.\Generated_Source\PSoC4/SignalGenerator.c ****         SignalGenerator_Init();
 153              		.loc 1 251 0
 154 000c FFF7FEFF 		bl	SignalGenerator_Init
 252:.\Generated_Source\PSoC4/SignalGenerator.c ****         SignalGenerator_initVar = 1u;
 155              		.loc 1 252 0
 156 0010 034B     		ldr	r3, .L9
 157 0012 0122     		mov	r2, #1
 158 0014 1A70     		strb	r2, [r3]
 159              	.L8:
 253:.\Generated_Source\PSoC4/SignalGenerator.c ****     }
 254:.\Generated_Source\PSoC4/SignalGenerator.c **** 
 255:.\Generated_Source\PSoC4/SignalGenerator.c ****     SignalGenerator_Enable();
 160              		.loc 1 255 0
 161 0016 FFF7FEFF 		bl	SignalGenerator_Enable
 256:.\Generated_Source\PSoC4/SignalGenerator.c **** }
 162              		.loc 1 256 0
 163 001a BD46     		mov	sp, r7
 164              		@ sp needed for prologue
 165 001c 80BD     		pop	{r7, pc}
 166              	.L10:
 167 001e C046     		.align	2
 168              	.L9:
 169 0020 00000000 		.word	SignalGenerator_initVar
 170              		.cfi_endproc
 171              	.LFE2:
 172              		.size	SignalGenerator_Start, .-SignalGenerator_Start
 173              		.section	.text.SignalGenerator_Stop,"ax",%progbits
 174              		.align	2
 175              		.global	SignalGenerator_Stop
 176              		.code	16
 177              		.thumb_func
 178              		.type	SignalGenerator_Stop, %function
 179              	SignalGenerator_Stop:
 180              	.LFB3:
 257:.\Generated_Source\PSoC4/SignalGenerator.c **** 
 258:.\Generated_Source\PSoC4/SignalGenerator.c **** 
 259:.\Generated_Source\PSoC4/SignalGenerator.c **** /*******************************************************************************
 260:.\Generated_Source\PSoC4/SignalGenerator.c **** * Function Name: SignalGenerator_Stop
 261:.\Generated_Source\PSoC4/SignalGenerator.c **** ********************************************************************************
 262:.\Generated_Source\PSoC4/SignalGenerator.c **** *
 263:.\Generated_Source\PSoC4/SignalGenerator.c **** * Summary:
 264:.\Generated_Source\PSoC4/SignalGenerator.c **** *  Disables the SignalGenerator.
 265:.\Generated_Source\PSoC4/SignalGenerator.c **** *
 266:.\Generated_Source\PSoC4/SignalGenerator.c **** * Parameters:
 267:.\Generated_Source\PSoC4/SignalGenerator.c **** *  None
 268:.\Generated_Source\PSoC4/SignalGenerator.c **** *
 269:.\Generated_Source\PSoC4/SignalGenerator.c **** * Return:
 270:.\Generated_Source\PSoC4/SignalGenerator.c **** *  None
 271:.\Generated_Source\PSoC4/SignalGenerator.c **** *
 272:.\Generated_Source\PSoC4/SignalGenerator.c **** *******************************************************************************/
 273:.\Generated_Source\PSoC4/SignalGenerator.c **** void SignalGenerator_Stop(void)
 274:.\Generated_Source\PSoC4/SignalGenerator.c **** {
 181              		.loc 1 274 0
 182              		.cfi_startproc
ARM GAS  C:\Users\JEFFRE~1\AppData\Local\Temp\ccRImAiW.s 			page 9


 183 0000 90B5     		push	{r4, r7, lr}
 184              	.LCFI7:
 185              		.cfi_def_cfa_offset 12
 186              		.cfi_offset 4, -12
 187              		.cfi_offset 7, -8
 188              		.cfi_offset 14, -4
 189 0002 83B0     		sub	sp, sp, #12
 190              	.LCFI8:
 191              		.cfi_def_cfa_offset 24
 192 0004 00AF     		add	r7, sp, #0
 193              	.LCFI9:
 194              		.cfi_def_cfa_register 7
 275:.\Generated_Source\PSoC4/SignalGenerator.c ****     uint8 enableInterrupts;
 276:.\Generated_Source\PSoC4/SignalGenerator.c **** 
 277:.\Generated_Source\PSoC4/SignalGenerator.c ****     enableInterrupts = CyEnterCriticalSection();
 195              		.loc 1 277 0
 196 0006 FC1D     		add	r4, r7, #7
 197 0008 FFF7FEFF 		bl	CyEnterCriticalSection
 198 000c 031C     		mov	r3, r0
 199 000e 2370     		strb	r3, [r4]
 278:.\Generated_Source\PSoC4/SignalGenerator.c **** 
 279:.\Generated_Source\PSoC4/SignalGenerator.c ****     SignalGenerator_BLOCK_CONTROL_REG &= (uint32)~SignalGenerator_MASK;
 200              		.loc 1 279 0
 201 0010 064B     		ldr	r3, .L12
 202 0012 064A     		ldr	r2, .L12
 203 0014 1268     		ldr	r2, [r2]
 204 0016 0221     		mov	r1, #2
 205 0018 8A43     		bic	r2, r1
 206 001a 1A60     		str	r2, [r3]
 280:.\Generated_Source\PSoC4/SignalGenerator.c **** 
 281:.\Generated_Source\PSoC4/SignalGenerator.c ****     CyExitCriticalSection(enableInterrupts);
 207              		.loc 1 281 0
 208 001c FB1D     		add	r3, r7, #7
 209 001e 1B78     		ldrb	r3, [r3]
 210 0020 181C     		mov	r0, r3
 211 0022 FFF7FEFF 		bl	CyExitCriticalSection
 282:.\Generated_Source\PSoC4/SignalGenerator.c **** }
 212              		.loc 1 282 0
 213 0026 BD46     		mov	sp, r7
 214 0028 03B0     		add	sp, sp, #12
 215              		@ sp needed for prologue
 216 002a 90BD     		pop	{r4, r7, pc}
 217              	.L13:
 218              		.align	2
 219              	.L12:
 220 002c 00000540 		.word	1074069504
 221              		.cfi_endproc
 222              	.LFE3:
 223              		.size	SignalGenerator_Stop, .-SignalGenerator_Stop
 224              		.section	.text.SignalGenerator_SetMode,"ax",%progbits
 225              		.align	2
 226              		.global	SignalGenerator_SetMode
 227              		.code	16
 228              		.thumb_func
 229              		.type	SignalGenerator_SetMode, %function
 230              	SignalGenerator_SetMode:
 231              	.LFB4:
ARM GAS  C:\Users\JEFFRE~1\AppData\Local\Temp\ccRImAiW.s 			page 10


 283:.\Generated_Source\PSoC4/SignalGenerator.c **** 
 284:.\Generated_Source\PSoC4/SignalGenerator.c **** 
 285:.\Generated_Source\PSoC4/SignalGenerator.c **** /*******************************************************************************
 286:.\Generated_Source\PSoC4/SignalGenerator.c **** * Function Name: SignalGenerator_SetMode
 287:.\Generated_Source\PSoC4/SignalGenerator.c **** ********************************************************************************
 288:.\Generated_Source\PSoC4/SignalGenerator.c **** *
 289:.\Generated_Source\PSoC4/SignalGenerator.c **** * Summary:
 290:.\Generated_Source\PSoC4/SignalGenerator.c **** *  Sets the operation mode of the SignalGenerator. This function is used when
 291:.\Generated_Source\PSoC4/SignalGenerator.c **** *  configured as a generic SignalGenerator and the actual mode of operation is
 292:.\Generated_Source\PSoC4/SignalGenerator.c **** *  set at runtime. The mode must be set while the component is disabled.
 293:.\Generated_Source\PSoC4/SignalGenerator.c **** *
 294:.\Generated_Source\PSoC4/SignalGenerator.c **** * Parameters:
 295:.\Generated_Source\PSoC4/SignalGenerator.c **** *  mode: Mode for the SignalGenerator to operate in
 296:.\Generated_Source\PSoC4/SignalGenerator.c **** *   Values:
 297:.\Generated_Source\PSoC4/SignalGenerator.c **** *   - SignalGenerator_MODE_TIMER_COMPARE - Timer / Counter with
 298:.\Generated_Source\PSoC4/SignalGenerator.c **** *                                                 compare capability
 299:.\Generated_Source\PSoC4/SignalGenerator.c **** *         - SignalGenerator_MODE_TIMER_CAPTURE - Timer / Counter with
 300:.\Generated_Source\PSoC4/SignalGenerator.c **** *                                                 capture capability
 301:.\Generated_Source\PSoC4/SignalGenerator.c **** *         - SignalGenerator_MODE_QUAD - Quadrature decoder
 302:.\Generated_Source\PSoC4/SignalGenerator.c **** *         - SignalGenerator_MODE_PWM - PWM
 303:.\Generated_Source\PSoC4/SignalGenerator.c **** *         - SignalGenerator_MODE_PWM_DT - PWM with dead time
 304:.\Generated_Source\PSoC4/SignalGenerator.c **** *         - SignalGenerator_MODE_PWM_PR - PWM with pseudo random capability
 305:.\Generated_Source\PSoC4/SignalGenerator.c **** *
 306:.\Generated_Source\PSoC4/SignalGenerator.c **** * Return:
 307:.\Generated_Source\PSoC4/SignalGenerator.c **** *  None
 308:.\Generated_Source\PSoC4/SignalGenerator.c **** *
 309:.\Generated_Source\PSoC4/SignalGenerator.c **** *******************************************************************************/
 310:.\Generated_Source\PSoC4/SignalGenerator.c **** void SignalGenerator_SetMode(uint32 mode)
 311:.\Generated_Source\PSoC4/SignalGenerator.c **** {
 232              		.loc 1 311 0
 233              		.cfi_startproc
 234 0000 90B5     		push	{r4, r7, lr}
 235              	.LCFI10:
 236              		.cfi_def_cfa_offset 12
 237              		.cfi_offset 4, -12
 238              		.cfi_offset 7, -8
 239              		.cfi_offset 14, -4
 240 0002 85B0     		sub	sp, sp, #20
 241              	.LCFI11:
 242              		.cfi_def_cfa_offset 32
 243 0004 00AF     		add	r7, sp, #0
 244              	.LCFI12:
 245              		.cfi_def_cfa_register 7
 246 0006 7860     		str	r0, [r7, #4]
 312:.\Generated_Source\PSoC4/SignalGenerator.c ****     uint8 enableInterrupts;
 313:.\Generated_Source\PSoC4/SignalGenerator.c **** 
 314:.\Generated_Source\PSoC4/SignalGenerator.c ****     enableInterrupts = CyEnterCriticalSection();
 247              		.loc 1 314 0
 248 0008 3C1C     		mov	r4, r7
 249 000a 0F34     		add	r4, r4, #15
 250 000c FFF7FEFF 		bl	CyEnterCriticalSection
 251 0010 031C     		mov	r3, r0
 252 0012 2370     		strb	r3, [r4]
 315:.\Generated_Source\PSoC4/SignalGenerator.c **** 
 316:.\Generated_Source\PSoC4/SignalGenerator.c ****     SignalGenerator_CONTROL_REG &= (uint32)~SignalGenerator_MODE_MASK;
 253              		.loc 1 316 0
 254 0014 0A4B     		ldr	r3, .L15
ARM GAS  C:\Users\JEFFRE~1\AppData\Local\Temp\ccRImAiW.s 			page 11


 255 0016 0A4A     		ldr	r2, .L15
 256 0018 1168     		ldr	r1, [r2]
 257 001a 0A4A     		ldr	r2, .L15+4
 258 001c 0A40     		and	r2, r1
 259 001e 1A60     		str	r2, [r3]
 317:.\Generated_Source\PSoC4/SignalGenerator.c ****     SignalGenerator_CONTROL_REG |= mode;
 260              		.loc 1 317 0
 261 0020 074B     		ldr	r3, .L15
 262 0022 074A     		ldr	r2, .L15
 263 0024 1168     		ldr	r1, [r2]
 264 0026 7A68     		ldr	r2, [r7, #4]
 265 0028 0A43     		orr	r2, r1
 266 002a 1A60     		str	r2, [r3]
 318:.\Generated_Source\PSoC4/SignalGenerator.c **** 
 319:.\Generated_Source\PSoC4/SignalGenerator.c ****     CyExitCriticalSection(enableInterrupts);
 267              		.loc 1 319 0
 268 002c 3B1C     		mov	r3, r7
 269 002e 0F33     		add	r3, r3, #15
 270 0030 1B78     		ldrb	r3, [r3]
 271 0032 181C     		mov	r0, r3
 272 0034 FFF7FEFF 		bl	CyExitCriticalSection
 320:.\Generated_Source\PSoC4/SignalGenerator.c **** }
 273              		.loc 1 320 0
 274 0038 BD46     		mov	sp, r7
 275 003a 05B0     		add	sp, sp, #20
 276              		@ sp needed for prologue
 277 003c 90BD     		pop	{r4, r7, pc}
 278              	.L16:
 279 003e C046     		.align	2
 280              	.L15:
 281 0040 40010540 		.word	1074069824
 282 0044 FFFFFFF8 		.word	-117440513
 283              		.cfi_endproc
 284              	.LFE4:
 285              		.size	SignalGenerator_SetMode, .-SignalGenerator_SetMode
 286              		.section	.text.SignalGenerator_SetQDMode,"ax",%progbits
 287              		.align	2
 288              		.global	SignalGenerator_SetQDMode
 289              		.code	16
 290              		.thumb_func
 291              		.type	SignalGenerator_SetQDMode, %function
 292              	SignalGenerator_SetQDMode:
 293              	.LFB5:
 321:.\Generated_Source\PSoC4/SignalGenerator.c **** 
 322:.\Generated_Source\PSoC4/SignalGenerator.c **** 
 323:.\Generated_Source\PSoC4/SignalGenerator.c **** /*******************************************************************************
 324:.\Generated_Source\PSoC4/SignalGenerator.c **** * Function Name: SignalGenerator_SetQDMode
 325:.\Generated_Source\PSoC4/SignalGenerator.c **** ********************************************************************************
 326:.\Generated_Source\PSoC4/SignalGenerator.c **** *
 327:.\Generated_Source\PSoC4/SignalGenerator.c **** * Summary:
 328:.\Generated_Source\PSoC4/SignalGenerator.c **** *  Sets the the Quadrature Decoder to one of the 3 supported modes.
 329:.\Generated_Source\PSoC4/SignalGenerator.c **** *  Its functionality is only applicable to Quadrature Decoder operation.
 330:.\Generated_Source\PSoC4/SignalGenerator.c **** *
 331:.\Generated_Source\PSoC4/SignalGenerator.c **** * Parameters:
 332:.\Generated_Source\PSoC4/SignalGenerator.c **** *  qdMode: Quadrature Decoder mode
 333:.\Generated_Source\PSoC4/SignalGenerator.c **** *   Values:
 334:.\Generated_Source\PSoC4/SignalGenerator.c **** *         - SignalGenerator_MODE_X1 - Counts on phi 1 rising
ARM GAS  C:\Users\JEFFRE~1\AppData\Local\Temp\ccRImAiW.s 			page 12


 335:.\Generated_Source\PSoC4/SignalGenerator.c **** *         - SignalGenerator_MODE_X2 - Counts on both edges of phi1 (2x faster)
 336:.\Generated_Source\PSoC4/SignalGenerator.c **** *         - SignalGenerator_MODE_X4 - Counts on both edges of phi1 and phi2
 337:.\Generated_Source\PSoC4/SignalGenerator.c **** *                                        (4x faster)
 338:.\Generated_Source\PSoC4/SignalGenerator.c **** *
 339:.\Generated_Source\PSoC4/SignalGenerator.c **** * Return:
 340:.\Generated_Source\PSoC4/SignalGenerator.c **** *  None
 341:.\Generated_Source\PSoC4/SignalGenerator.c **** *
 342:.\Generated_Source\PSoC4/SignalGenerator.c **** *******************************************************************************/
 343:.\Generated_Source\PSoC4/SignalGenerator.c **** void SignalGenerator_SetQDMode(uint32 qdMode)
 344:.\Generated_Source\PSoC4/SignalGenerator.c **** {
 294              		.loc 1 344 0
 295              		.cfi_startproc
 296 0000 90B5     		push	{r4, r7, lr}
 297              	.LCFI13:
 298              		.cfi_def_cfa_offset 12
 299              		.cfi_offset 4, -12
 300              		.cfi_offset 7, -8
 301              		.cfi_offset 14, -4
 302 0002 85B0     		sub	sp, sp, #20
 303              	.LCFI14:
 304              		.cfi_def_cfa_offset 32
 305 0004 00AF     		add	r7, sp, #0
 306              	.LCFI15:
 307              		.cfi_def_cfa_register 7
 308 0006 7860     		str	r0, [r7, #4]
 345:.\Generated_Source\PSoC4/SignalGenerator.c ****     uint8 enableInterrupts;
 346:.\Generated_Source\PSoC4/SignalGenerator.c **** 
 347:.\Generated_Source\PSoC4/SignalGenerator.c ****     enableInterrupts = CyEnterCriticalSection();
 309              		.loc 1 347 0
 310 0008 3C1C     		mov	r4, r7
 311 000a 0F34     		add	r4, r4, #15
 312 000c FFF7FEFF 		bl	CyEnterCriticalSection
 313 0010 031C     		mov	r3, r0
 314 0012 2370     		strb	r3, [r4]
 348:.\Generated_Source\PSoC4/SignalGenerator.c **** 
 349:.\Generated_Source\PSoC4/SignalGenerator.c ****     SignalGenerator_CONTROL_REG &= (uint32)~SignalGenerator_QUAD_MODE_MASK;
 315              		.loc 1 349 0
 316 0014 0A4B     		ldr	r3, .L18
 317 0016 0A4A     		ldr	r2, .L18
 318 0018 1168     		ldr	r1, [r2]
 319 001a 0A4A     		ldr	r2, .L18+4
 320 001c 0A40     		and	r2, r1
 321 001e 1A60     		str	r2, [r3]
 350:.\Generated_Source\PSoC4/SignalGenerator.c ****     SignalGenerator_CONTROL_REG |= qdMode;
 322              		.loc 1 350 0
 323 0020 074B     		ldr	r3, .L18
 324 0022 074A     		ldr	r2, .L18
 325 0024 1168     		ldr	r1, [r2]
 326 0026 7A68     		ldr	r2, [r7, #4]
 327 0028 0A43     		orr	r2, r1
 328 002a 1A60     		str	r2, [r3]
 351:.\Generated_Source\PSoC4/SignalGenerator.c **** 
 352:.\Generated_Source\PSoC4/SignalGenerator.c ****     CyExitCriticalSection(enableInterrupts);
 329              		.loc 1 352 0
 330 002c 3B1C     		mov	r3, r7
 331 002e 0F33     		add	r3, r3, #15
 332 0030 1B78     		ldrb	r3, [r3]
ARM GAS  C:\Users\JEFFRE~1\AppData\Local\Temp\ccRImAiW.s 			page 13


 333 0032 181C     		mov	r0, r3
 334 0034 FFF7FEFF 		bl	CyExitCriticalSection
 353:.\Generated_Source\PSoC4/SignalGenerator.c **** }
 335              		.loc 1 353 0
 336 0038 BD46     		mov	sp, r7
 337 003a 05B0     		add	sp, sp, #20
 338              		@ sp needed for prologue
 339 003c 90BD     		pop	{r4, r7, pc}
 340              	.L19:
 341 003e C046     		.align	2
 342              	.L18:
 343 0040 40010540 		.word	1074069824
 344 0044 FFFF8FFF 		.word	-7340033
 345              		.cfi_endproc
 346              	.LFE5:
 347              		.size	SignalGenerator_SetQDMode, .-SignalGenerator_SetQDMode
 348              		.section	.text.SignalGenerator_SetPrescaler,"ax",%progbits
 349              		.align	2
 350              		.global	SignalGenerator_SetPrescaler
 351              		.code	16
 352              		.thumb_func
 353              		.type	SignalGenerator_SetPrescaler, %function
 354              	SignalGenerator_SetPrescaler:
 355              	.LFB6:
 354:.\Generated_Source\PSoC4/SignalGenerator.c **** 
 355:.\Generated_Source\PSoC4/SignalGenerator.c **** 
 356:.\Generated_Source\PSoC4/SignalGenerator.c **** /*******************************************************************************
 357:.\Generated_Source\PSoC4/SignalGenerator.c **** * Function Name: SignalGenerator_SetPrescaler
 358:.\Generated_Source\PSoC4/SignalGenerator.c **** ********************************************************************************
 359:.\Generated_Source\PSoC4/SignalGenerator.c **** *
 360:.\Generated_Source\PSoC4/SignalGenerator.c **** * Summary:
 361:.\Generated_Source\PSoC4/SignalGenerator.c **** *  Sets the prescaler value that is applied to the clock input.  Not applicable
 362:.\Generated_Source\PSoC4/SignalGenerator.c **** *  to a PWM with the dead time mode or Quadrature Decoder mode.
 363:.\Generated_Source\PSoC4/SignalGenerator.c **** *
 364:.\Generated_Source\PSoC4/SignalGenerator.c **** * Parameters:
 365:.\Generated_Source\PSoC4/SignalGenerator.c **** *  prescaler: Prescaler divider value
 366:.\Generated_Source\PSoC4/SignalGenerator.c **** *   Values:
 367:.\Generated_Source\PSoC4/SignalGenerator.c **** *         - SignalGenerator_PRESCALE_DIVBY1    - Divide by 1 (no prescaling)
 368:.\Generated_Source\PSoC4/SignalGenerator.c **** *         - SignalGenerator_PRESCALE_DIVBY2    - Divide by 2
 369:.\Generated_Source\PSoC4/SignalGenerator.c **** *         - SignalGenerator_PRESCALE_DIVBY4    - Divide by 4
 370:.\Generated_Source\PSoC4/SignalGenerator.c **** *         - SignalGenerator_PRESCALE_DIVBY8    - Divide by 8
 371:.\Generated_Source\PSoC4/SignalGenerator.c **** *         - SignalGenerator_PRESCALE_DIVBY16   - Divide by 16
 372:.\Generated_Source\PSoC4/SignalGenerator.c **** *         - SignalGenerator_PRESCALE_DIVBY32   - Divide by 32
 373:.\Generated_Source\PSoC4/SignalGenerator.c **** *         - SignalGenerator_PRESCALE_DIVBY64   - Divide by 64
 374:.\Generated_Source\PSoC4/SignalGenerator.c **** *         - SignalGenerator_PRESCALE_DIVBY128  - Divide by 128
 375:.\Generated_Source\PSoC4/SignalGenerator.c **** *
 376:.\Generated_Source\PSoC4/SignalGenerator.c **** * Return:
 377:.\Generated_Source\PSoC4/SignalGenerator.c **** *  None
 378:.\Generated_Source\PSoC4/SignalGenerator.c **** *
 379:.\Generated_Source\PSoC4/SignalGenerator.c **** *******************************************************************************/
 380:.\Generated_Source\PSoC4/SignalGenerator.c **** void SignalGenerator_SetPrescaler(uint32 prescaler)
 381:.\Generated_Source\PSoC4/SignalGenerator.c **** {
 356              		.loc 1 381 0
 357              		.cfi_startproc
 358 0000 90B5     		push	{r4, r7, lr}
 359              	.LCFI16:
 360              		.cfi_def_cfa_offset 12
ARM GAS  C:\Users\JEFFRE~1\AppData\Local\Temp\ccRImAiW.s 			page 14


 361              		.cfi_offset 4, -12
 362              		.cfi_offset 7, -8
 363              		.cfi_offset 14, -4
 364 0002 85B0     		sub	sp, sp, #20
 365              	.LCFI17:
 366              		.cfi_def_cfa_offset 32
 367 0004 00AF     		add	r7, sp, #0
 368              	.LCFI18:
 369              		.cfi_def_cfa_register 7
 370 0006 7860     		str	r0, [r7, #4]
 382:.\Generated_Source\PSoC4/SignalGenerator.c ****     uint8 enableInterrupts;
 383:.\Generated_Source\PSoC4/SignalGenerator.c **** 
 384:.\Generated_Source\PSoC4/SignalGenerator.c ****     enableInterrupts = CyEnterCriticalSection();
 371              		.loc 1 384 0
 372 0008 3C1C     		mov	r4, r7
 373 000a 0F34     		add	r4, r4, #15
 374 000c FFF7FEFF 		bl	CyEnterCriticalSection
 375 0010 031C     		mov	r3, r0
 376 0012 2370     		strb	r3, [r4]
 385:.\Generated_Source\PSoC4/SignalGenerator.c **** 
 386:.\Generated_Source\PSoC4/SignalGenerator.c ****     SignalGenerator_CONTROL_REG &= (uint32)~SignalGenerator_PRESCALER_MASK;
 377              		.loc 1 386 0
 378 0014 0A4B     		ldr	r3, .L21
 379 0016 0A4A     		ldr	r2, .L21
 380 0018 1168     		ldr	r1, [r2]
 381 001a 0A4A     		ldr	r2, .L21+4
 382 001c 0A40     		and	r2, r1
 383 001e 1A60     		str	r2, [r3]
 387:.\Generated_Source\PSoC4/SignalGenerator.c ****     SignalGenerator_CONTROL_REG |= prescaler;
 384              		.loc 1 387 0
 385 0020 074B     		ldr	r3, .L21
 386 0022 074A     		ldr	r2, .L21
 387 0024 1168     		ldr	r1, [r2]
 388 0026 7A68     		ldr	r2, [r7, #4]
 389 0028 0A43     		orr	r2, r1
 390 002a 1A60     		str	r2, [r3]
 388:.\Generated_Source\PSoC4/SignalGenerator.c **** 
 389:.\Generated_Source\PSoC4/SignalGenerator.c ****     CyExitCriticalSection(enableInterrupts);
 391              		.loc 1 389 0
 392 002c 3B1C     		mov	r3, r7
 393 002e 0F33     		add	r3, r3, #15
 394 0030 1B78     		ldrb	r3, [r3]
 395 0032 181C     		mov	r0, r3
 396 0034 FFF7FEFF 		bl	CyExitCriticalSection
 390:.\Generated_Source\PSoC4/SignalGenerator.c **** }
 397              		.loc 1 390 0
 398 0038 BD46     		mov	sp, r7
 399 003a 05B0     		add	sp, sp, #20
 400              		@ sp needed for prologue
 401 003c 90BD     		pop	{r4, r7, pc}
 402              	.L22:
 403 003e C046     		.align	2
 404              	.L21:
 405 0040 40010540 		.word	1074069824
 406 0044 FF00FFFF 		.word	-65281
 407              		.cfi_endproc
 408              	.LFE6:
ARM GAS  C:\Users\JEFFRE~1\AppData\Local\Temp\ccRImAiW.s 			page 15


 409              		.size	SignalGenerator_SetPrescaler, .-SignalGenerator_SetPrescaler
 410              		.section	.text.SignalGenerator_SetOneShot,"ax",%progbits
 411              		.align	2
 412              		.global	SignalGenerator_SetOneShot
 413              		.code	16
 414              		.thumb_func
 415              		.type	SignalGenerator_SetOneShot, %function
 416              	SignalGenerator_SetOneShot:
 417              	.LFB7:
 391:.\Generated_Source\PSoC4/SignalGenerator.c **** 
 392:.\Generated_Source\PSoC4/SignalGenerator.c **** 
 393:.\Generated_Source\PSoC4/SignalGenerator.c **** /*******************************************************************************
 394:.\Generated_Source\PSoC4/SignalGenerator.c **** * Function Name: SignalGenerator_SetOneShot
 395:.\Generated_Source\PSoC4/SignalGenerator.c **** ********************************************************************************
 396:.\Generated_Source\PSoC4/SignalGenerator.c **** *
 397:.\Generated_Source\PSoC4/SignalGenerator.c **** * Summary:
 398:.\Generated_Source\PSoC4/SignalGenerator.c **** *  Writes the register that controls whether the SignalGenerator runs
 399:.\Generated_Source\PSoC4/SignalGenerator.c **** *  continuously or stops when terminal count is reached.  By default the
 400:.\Generated_Source\PSoC4/SignalGenerator.c **** *  SignalGenerator operates in the continuous mode.
 401:.\Generated_Source\PSoC4/SignalGenerator.c **** *
 402:.\Generated_Source\PSoC4/SignalGenerator.c **** * Parameters:
 403:.\Generated_Source\PSoC4/SignalGenerator.c **** *  oneShotEnable
 404:.\Generated_Source\PSoC4/SignalGenerator.c **** *   Values:
 405:.\Generated_Source\PSoC4/SignalGenerator.c **** *     - 0 - Continuous
 406:.\Generated_Source\PSoC4/SignalGenerator.c **** *     - 1 - Enable One Shot
 407:.\Generated_Source\PSoC4/SignalGenerator.c **** *
 408:.\Generated_Source\PSoC4/SignalGenerator.c **** * Return:
 409:.\Generated_Source\PSoC4/SignalGenerator.c **** *  None
 410:.\Generated_Source\PSoC4/SignalGenerator.c **** *
 411:.\Generated_Source\PSoC4/SignalGenerator.c **** *******************************************************************************/
 412:.\Generated_Source\PSoC4/SignalGenerator.c **** void SignalGenerator_SetOneShot(uint32 oneShotEnable)
 413:.\Generated_Source\PSoC4/SignalGenerator.c **** {
 418              		.loc 1 413 0
 419              		.cfi_startproc
 420 0000 90B5     		push	{r4, r7, lr}
 421              	.LCFI19:
 422              		.cfi_def_cfa_offset 12
 423              		.cfi_offset 4, -12
 424              		.cfi_offset 7, -8
 425              		.cfi_offset 14, -4
 426 0002 85B0     		sub	sp, sp, #20
 427              	.LCFI20:
 428              		.cfi_def_cfa_offset 32
 429 0004 00AF     		add	r7, sp, #0
 430              	.LCFI21:
 431              		.cfi_def_cfa_register 7
 432 0006 7860     		str	r0, [r7, #4]
 414:.\Generated_Source\PSoC4/SignalGenerator.c ****     uint8 enableInterrupts;
 415:.\Generated_Source\PSoC4/SignalGenerator.c **** 
 416:.\Generated_Source\PSoC4/SignalGenerator.c ****     enableInterrupts = CyEnterCriticalSection();
 433              		.loc 1 416 0
 434 0008 3C1C     		mov	r4, r7
 435 000a 0F34     		add	r4, r4, #15
 436 000c FFF7FEFF 		bl	CyEnterCriticalSection
 437 0010 031C     		mov	r3, r0
 438 0012 2370     		strb	r3, [r4]
 417:.\Generated_Source\PSoC4/SignalGenerator.c **** 
ARM GAS  C:\Users\JEFFRE~1\AppData\Local\Temp\ccRImAiW.s 			page 16


 418:.\Generated_Source\PSoC4/SignalGenerator.c ****     SignalGenerator_CONTROL_REG &= (uint32)~SignalGenerator_ONESHOT_MASK;
 439              		.loc 1 418 0
 440 0014 0B4B     		ldr	r3, .L24
 441 0016 0B4A     		ldr	r2, .L24
 442 0018 1168     		ldr	r1, [r2]
 443 001a 0B4A     		ldr	r2, .L24+4
 444 001c 0A40     		and	r2, r1
 445 001e 1A60     		str	r2, [r3]
 419:.\Generated_Source\PSoC4/SignalGenerator.c ****     SignalGenerator_CONTROL_REG |= ((uint32)((oneShotEnable & SignalGenerator_1BIT_MASK) <<
 446              		.loc 1 419 0
 447 0020 084B     		ldr	r3, .L24
 448 0022 084A     		ldr	r2, .L24
 449 0024 1168     		ldr	r1, [r2]
 450 0026 7868     		ldr	r0, [r7, #4]
 451 0028 0122     		mov	r2, #1
 452 002a 0240     		and	r2, r0
 453 002c 9204     		lsl	r2, r2, #18
 454 002e 0A43     		orr	r2, r1
 455 0030 1A60     		str	r2, [r3]
 420:.\Generated_Source\PSoC4/SignalGenerator.c ****                                                                SignalGenerator_ONESHOT_SHIFT));
 421:.\Generated_Source\PSoC4/SignalGenerator.c **** 
 422:.\Generated_Source\PSoC4/SignalGenerator.c ****     CyExitCriticalSection(enableInterrupts);
 456              		.loc 1 422 0
 457 0032 3B1C     		mov	r3, r7
 458 0034 0F33     		add	r3, r3, #15
 459 0036 1B78     		ldrb	r3, [r3]
 460 0038 181C     		mov	r0, r3
 461 003a FFF7FEFF 		bl	CyExitCriticalSection
 423:.\Generated_Source\PSoC4/SignalGenerator.c **** }
 462              		.loc 1 423 0
 463 003e BD46     		mov	sp, r7
 464 0040 05B0     		add	sp, sp, #20
 465              		@ sp needed for prologue
 466 0042 90BD     		pop	{r4, r7, pc}
 467              	.L25:
 468              		.align	2
 469              	.L24:
 470 0044 40010540 		.word	1074069824
 471 0048 FFFFFBFF 		.word	-262145
 472              		.cfi_endproc
 473              	.LFE7:
 474              		.size	SignalGenerator_SetOneShot, .-SignalGenerator_SetOneShot
 475              		.section	.text.SignalGenerator_SetPWMMode,"ax",%progbits
 476              		.align	2
 477              		.global	SignalGenerator_SetPWMMode
 478              		.code	16
 479              		.thumb_func
 480              		.type	SignalGenerator_SetPWMMode, %function
 481              	SignalGenerator_SetPWMMode:
 482              	.LFB8:
 424:.\Generated_Source\PSoC4/SignalGenerator.c **** 
 425:.\Generated_Source\PSoC4/SignalGenerator.c **** 
 426:.\Generated_Source\PSoC4/SignalGenerator.c **** /*******************************************************************************
 427:.\Generated_Source\PSoC4/SignalGenerator.c **** * Function Name: SignalGenerator_SetPWMMode
 428:.\Generated_Source\PSoC4/SignalGenerator.c **** ********************************************************************************
 429:.\Generated_Source\PSoC4/SignalGenerator.c **** *
 430:.\Generated_Source\PSoC4/SignalGenerator.c **** * Summary:
ARM GAS  C:\Users\JEFFRE~1\AppData\Local\Temp\ccRImAiW.s 			page 17


 431:.\Generated_Source\PSoC4/SignalGenerator.c **** *  Writes the control register that determines what mode of operation the PWM
 432:.\Generated_Source\PSoC4/SignalGenerator.c **** *  output lines are driven in.  There is a setting for what to do on a
 433:.\Generated_Source\PSoC4/SignalGenerator.c **** *  comparison match (CC_MATCH), on an overflow (OVERFLOW) and on an underflow
 434:.\Generated_Source\PSoC4/SignalGenerator.c **** *  (UNDERFLOW).  The value for each of the three must be ORed together to form
 435:.\Generated_Source\PSoC4/SignalGenerator.c **** *  the mode.
 436:.\Generated_Source\PSoC4/SignalGenerator.c **** *
 437:.\Generated_Source\PSoC4/SignalGenerator.c **** * Parameters:
 438:.\Generated_Source\PSoC4/SignalGenerator.c **** *  modeMask: A combination of three mode settings.  Mask must include a value
 439:.\Generated_Source\PSoC4/SignalGenerator.c **** *  for each of the three or use one of the preconfigured PWM settings.
 440:.\Generated_Source\PSoC4/SignalGenerator.c **** *   Values:
 441:.\Generated_Source\PSoC4/SignalGenerator.c **** *     - CC_MATCH_SET        - Set on comparison match
 442:.\Generated_Source\PSoC4/SignalGenerator.c **** *     - CC_MATCH_CLEAR      - Clear on comparison match
 443:.\Generated_Source\PSoC4/SignalGenerator.c **** *     - CC_MATCH_INVERT     - Invert on comparison match
 444:.\Generated_Source\PSoC4/SignalGenerator.c **** *     - CC_MATCH_NO_CHANGE  - No change on comparison match
 445:.\Generated_Source\PSoC4/SignalGenerator.c **** *     - OVERLOW_SET         - Set on overflow
 446:.\Generated_Source\PSoC4/SignalGenerator.c **** *     - OVERLOW_CLEAR       - Clear on  overflow
 447:.\Generated_Source\PSoC4/SignalGenerator.c **** *     - OVERLOW_INVERT      - Invert on overflow
 448:.\Generated_Source\PSoC4/SignalGenerator.c **** *     - OVERLOW_NO_CHANGE   - No change on overflow
 449:.\Generated_Source\PSoC4/SignalGenerator.c **** *     - UNDERFLOW_SET       - Set on underflow
 450:.\Generated_Source\PSoC4/SignalGenerator.c **** *     - UNDERFLOW_CLEAR     - Clear on underflow
 451:.\Generated_Source\PSoC4/SignalGenerator.c **** *     - UNDERFLOW_INVERT    - Invert on underflow
 452:.\Generated_Source\PSoC4/SignalGenerator.c **** *     - UNDERFLOW_NO_CHANGE - No change on underflow
 453:.\Generated_Source\PSoC4/SignalGenerator.c **** *     - PWM_MODE_LEFT       - Setting for left aligned PWM.  Should be combined
 454:.\Generated_Source\PSoC4/SignalGenerator.c **** *                             with up counting mode
 455:.\Generated_Source\PSoC4/SignalGenerator.c **** *     - PWM_MODE_RIGHT      - Setting for right aligned PWM.  Should be combined
 456:.\Generated_Source\PSoC4/SignalGenerator.c **** *                             with down counting mode
 457:.\Generated_Source\PSoC4/SignalGenerator.c **** *     - PWM_MODE_CENTER     - Setting for center aligned PWM.  Should be
 458:.\Generated_Source\PSoC4/SignalGenerator.c **** *                             combined with up/down 0 mode
 459:.\Generated_Source\PSoC4/SignalGenerator.c **** *     - PWM_MODE_ASYM       - Setting for asymmetric PWM.  Should be combined
 460:.\Generated_Source\PSoC4/SignalGenerator.c **** *                             with up/down 1 mode
 461:.\Generated_Source\PSoC4/SignalGenerator.c **** *
 462:.\Generated_Source\PSoC4/SignalGenerator.c **** * Return:
 463:.\Generated_Source\PSoC4/SignalGenerator.c **** *  None
 464:.\Generated_Source\PSoC4/SignalGenerator.c **** *
 465:.\Generated_Source\PSoC4/SignalGenerator.c **** *******************************************************************************/
 466:.\Generated_Source\PSoC4/SignalGenerator.c **** void SignalGenerator_SetPWMMode(uint32 modeMask)
 467:.\Generated_Source\PSoC4/SignalGenerator.c **** {
 483              		.loc 1 467 0
 484              		.cfi_startproc
 485 0000 80B5     		push	{r7, lr}
 486              	.LCFI22:
 487              		.cfi_def_cfa_offset 8
 488              		.cfi_offset 7, -8
 489              		.cfi_offset 14, -4
 490 0002 82B0     		sub	sp, sp, #8
 491              	.LCFI23:
 492              		.cfi_def_cfa_offset 16
 493 0004 00AF     		add	r7, sp, #0
 494              	.LCFI24:
 495              		.cfi_def_cfa_register 7
 496 0006 7860     		str	r0, [r7, #4]
 468:.\Generated_Source\PSoC4/SignalGenerator.c ****     SignalGenerator_TRIG_CONTROL2_REG = (modeMask & SignalGenerator_6BIT_MASK);
 497              		.loc 1 468 0
 498 0008 034B     		ldr	r3, .L27
 499 000a 7968     		ldr	r1, [r7, #4]
 500 000c 3F22     		mov	r2, #63
 501 000e 0A40     		and	r2, r1
ARM GAS  C:\Users\JEFFRE~1\AppData\Local\Temp\ccRImAiW.s 			page 18


 502 0010 1A60     		str	r2, [r3]
 469:.\Generated_Source\PSoC4/SignalGenerator.c **** }
 503              		.loc 1 469 0
 504 0012 BD46     		mov	sp, r7
 505 0014 02B0     		add	sp, sp, #8
 506              		@ sp needed for prologue
 507 0016 80BD     		pop	{r7, pc}
 508              	.L28:
 509              		.align	2
 510              	.L27:
 511 0018 68010540 		.word	1074069864
 512              		.cfi_endproc
 513              	.LFE8:
 514              		.size	SignalGenerator_SetPWMMode, .-SignalGenerator_SetPWMMode
 515              		.section	.text.SignalGenerator_SetPWMSyncKill,"ax",%progbits
 516              		.align	2
 517              		.global	SignalGenerator_SetPWMSyncKill
 518              		.code	16
 519              		.thumb_func
 520              		.type	SignalGenerator_SetPWMSyncKill, %function
 521              	SignalGenerator_SetPWMSyncKill:
 522              	.LFB9:
 470:.\Generated_Source\PSoC4/SignalGenerator.c **** 
 471:.\Generated_Source\PSoC4/SignalGenerator.c **** 
 472:.\Generated_Source\PSoC4/SignalGenerator.c **** 
 473:.\Generated_Source\PSoC4/SignalGenerator.c **** /*******************************************************************************
 474:.\Generated_Source\PSoC4/SignalGenerator.c **** * Function Name: SignalGenerator_SetPWMSyncKill
 475:.\Generated_Source\PSoC4/SignalGenerator.c **** ********************************************************************************
 476:.\Generated_Source\PSoC4/SignalGenerator.c **** *
 477:.\Generated_Source\PSoC4/SignalGenerator.c **** * Summary:
 478:.\Generated_Source\PSoC4/SignalGenerator.c **** *  Writes the register that controls whether the PWM kill signal (stop input)
 479:.\Generated_Source\PSoC4/SignalGenerator.c **** *  causes asynchronous or synchronous kill operation.  By default the kill
 480:.\Generated_Source\PSoC4/SignalGenerator.c **** *  operation is asynchronous.  This functionality is only applicable to the PWM
 481:.\Generated_Source\PSoC4/SignalGenerator.c **** *  and PWM with dead time modes.
 482:.\Generated_Source\PSoC4/SignalGenerator.c **** *
 483:.\Generated_Source\PSoC4/SignalGenerator.c **** *  For Synchronous mode the kill signal disables both the line and line_n
 484:.\Generated_Source\PSoC4/SignalGenerator.c **** *  signals until the next terminal count.
 485:.\Generated_Source\PSoC4/SignalGenerator.c **** *
 486:.\Generated_Source\PSoC4/SignalGenerator.c **** *  For Asynchronous mode the kill signal disables both the line and line_n
 487:.\Generated_Source\PSoC4/SignalGenerator.c **** *  signals when the kill signal is present.  This mode should only be used
 488:.\Generated_Source\PSoC4/SignalGenerator.c **** *  when the kill signal (stop input) is configured in the pass through mode
 489:.\Generated_Source\PSoC4/SignalGenerator.c **** *  (Level sensitive signal).
 490:.\Generated_Source\PSoC4/SignalGenerator.c **** 
 491:.\Generated_Source\PSoC4/SignalGenerator.c **** *
 492:.\Generated_Source\PSoC4/SignalGenerator.c **** * Parameters:
 493:.\Generated_Source\PSoC4/SignalGenerator.c **** *  syncKillEnable
 494:.\Generated_Source\PSoC4/SignalGenerator.c **** *   Values:
 495:.\Generated_Source\PSoC4/SignalGenerator.c **** *     - 0 - Asynchronous
 496:.\Generated_Source\PSoC4/SignalGenerator.c **** *     - 1 - Synchronous
 497:.\Generated_Source\PSoC4/SignalGenerator.c **** *
 498:.\Generated_Source\PSoC4/SignalGenerator.c **** * Return:
 499:.\Generated_Source\PSoC4/SignalGenerator.c **** *  None
 500:.\Generated_Source\PSoC4/SignalGenerator.c **** *
 501:.\Generated_Source\PSoC4/SignalGenerator.c **** *******************************************************************************/
 502:.\Generated_Source\PSoC4/SignalGenerator.c **** void SignalGenerator_SetPWMSyncKill(uint32 syncKillEnable)
 503:.\Generated_Source\PSoC4/SignalGenerator.c **** {
 523              		.loc 1 503 0
ARM GAS  C:\Users\JEFFRE~1\AppData\Local\Temp\ccRImAiW.s 			page 19


 524              		.cfi_startproc
 525 0000 90B5     		push	{r4, r7, lr}
 526              	.LCFI25:
 527              		.cfi_def_cfa_offset 12
 528              		.cfi_offset 4, -12
 529              		.cfi_offset 7, -8
 530              		.cfi_offset 14, -4
 531 0002 85B0     		sub	sp, sp, #20
 532              	.LCFI26:
 533              		.cfi_def_cfa_offset 32
 534 0004 00AF     		add	r7, sp, #0
 535              	.LCFI27:
 536              		.cfi_def_cfa_register 7
 537 0006 7860     		str	r0, [r7, #4]
 504:.\Generated_Source\PSoC4/SignalGenerator.c ****     uint8 enableInterrupts;
 505:.\Generated_Source\PSoC4/SignalGenerator.c **** 
 506:.\Generated_Source\PSoC4/SignalGenerator.c ****     enableInterrupts = CyEnterCriticalSection();
 538              		.loc 1 506 0
 539 0008 3C1C     		mov	r4, r7
 540 000a 0F34     		add	r4, r4, #15
 541 000c FFF7FEFF 		bl	CyEnterCriticalSection
 542 0010 031C     		mov	r3, r0
 543 0012 2370     		strb	r3, [r4]
 507:.\Generated_Source\PSoC4/SignalGenerator.c **** 
 508:.\Generated_Source\PSoC4/SignalGenerator.c ****     SignalGenerator_CONTROL_REG &= (uint32)~SignalGenerator_PWM_SYNC_KILL_MASK;
 544              		.loc 1 508 0
 545 0014 0B4B     		ldr	r3, .L30
 546 0016 0B4A     		ldr	r2, .L30
 547 0018 1268     		ldr	r2, [r2]
 548 001a 0421     		mov	r1, #4
 549 001c 8A43     		bic	r2, r1
 550 001e 1A60     		str	r2, [r3]
 509:.\Generated_Source\PSoC4/SignalGenerator.c ****     SignalGenerator_CONTROL_REG |= ((uint32)((syncKillEnable & SignalGenerator_1BIT_MASK)  <<
 551              		.loc 1 509 0
 552 0020 084B     		ldr	r3, .L30
 553 0022 084A     		ldr	r2, .L30
 554 0024 1168     		ldr	r1, [r2]
 555 0026 7868     		ldr	r0, [r7, #4]
 556 0028 0122     		mov	r2, #1
 557 002a 0240     		and	r2, r0
 558 002c 9200     		lsl	r2, r2, #2
 559 002e 0A43     		orr	r2, r1
 560 0030 1A60     		str	r2, [r3]
 510:.\Generated_Source\PSoC4/SignalGenerator.c ****                                                SignalGenerator_PWM_SYNC_KILL_SHIFT));
 511:.\Generated_Source\PSoC4/SignalGenerator.c **** 
 512:.\Generated_Source\PSoC4/SignalGenerator.c ****     CyExitCriticalSection(enableInterrupts);
 561              		.loc 1 512 0
 562 0032 3B1C     		mov	r3, r7
 563 0034 0F33     		add	r3, r3, #15
 564 0036 1B78     		ldrb	r3, [r3]
 565 0038 181C     		mov	r0, r3
 566 003a FFF7FEFF 		bl	CyExitCriticalSection
 513:.\Generated_Source\PSoC4/SignalGenerator.c **** }
 567              		.loc 1 513 0
 568 003e BD46     		mov	sp, r7
 569 0040 05B0     		add	sp, sp, #20
 570              		@ sp needed for prologue
ARM GAS  C:\Users\JEFFRE~1\AppData\Local\Temp\ccRImAiW.s 			page 20


 571 0042 90BD     		pop	{r4, r7, pc}
 572              	.L31:
 573              		.align	2
 574              	.L30:
 575 0044 40010540 		.word	1074069824
 576              		.cfi_endproc
 577              	.LFE9:
 578              		.size	SignalGenerator_SetPWMSyncKill, .-SignalGenerator_SetPWMSyncKill
 579              		.section	.text.SignalGenerator_SetPWMStopOnKill,"ax",%progbits
 580              		.align	2
 581              		.global	SignalGenerator_SetPWMStopOnKill
 582              		.code	16
 583              		.thumb_func
 584              		.type	SignalGenerator_SetPWMStopOnKill, %function
 585              	SignalGenerator_SetPWMStopOnKill:
 586              	.LFB10:
 514:.\Generated_Source\PSoC4/SignalGenerator.c **** 
 515:.\Generated_Source\PSoC4/SignalGenerator.c **** 
 516:.\Generated_Source\PSoC4/SignalGenerator.c **** /*******************************************************************************
 517:.\Generated_Source\PSoC4/SignalGenerator.c **** * Function Name: SignalGenerator_SetPWMStopOnKill
 518:.\Generated_Source\PSoC4/SignalGenerator.c **** ********************************************************************************
 519:.\Generated_Source\PSoC4/SignalGenerator.c **** *
 520:.\Generated_Source\PSoC4/SignalGenerator.c **** * Summary:
 521:.\Generated_Source\PSoC4/SignalGenerator.c **** *  Writes the register that controls whether the PWM kill signal (stop input)
 522:.\Generated_Source\PSoC4/SignalGenerator.c **** *  causes the PWM counter to stop.  By default the kill operation does not stop
 523:.\Generated_Source\PSoC4/SignalGenerator.c **** *  the counter.  This functionality is only applicable to the three PWM modes.
 524:.\Generated_Source\PSoC4/SignalGenerator.c **** *
 525:.\Generated_Source\PSoC4/SignalGenerator.c **** *
 526:.\Generated_Source\PSoC4/SignalGenerator.c **** * Parameters:
 527:.\Generated_Source\PSoC4/SignalGenerator.c **** *  stopOnKillEnable
 528:.\Generated_Source\PSoC4/SignalGenerator.c **** *   Values:
 529:.\Generated_Source\PSoC4/SignalGenerator.c **** *     - 0 - Don't stop
 530:.\Generated_Source\PSoC4/SignalGenerator.c **** *     - 1 - Stop
 531:.\Generated_Source\PSoC4/SignalGenerator.c **** *
 532:.\Generated_Source\PSoC4/SignalGenerator.c **** * Return:
 533:.\Generated_Source\PSoC4/SignalGenerator.c **** *  None
 534:.\Generated_Source\PSoC4/SignalGenerator.c **** *
 535:.\Generated_Source\PSoC4/SignalGenerator.c **** *******************************************************************************/
 536:.\Generated_Source\PSoC4/SignalGenerator.c **** void SignalGenerator_SetPWMStopOnKill(uint32 stopOnKillEnable)
 537:.\Generated_Source\PSoC4/SignalGenerator.c **** {
 587              		.loc 1 537 0
 588              		.cfi_startproc
 589 0000 90B5     		push	{r4, r7, lr}
 590              	.LCFI28:
 591              		.cfi_def_cfa_offset 12
 592              		.cfi_offset 4, -12
 593              		.cfi_offset 7, -8
 594              		.cfi_offset 14, -4
 595 0002 85B0     		sub	sp, sp, #20
 596              	.LCFI29:
 597              		.cfi_def_cfa_offset 32
 598 0004 00AF     		add	r7, sp, #0
 599              	.LCFI30:
 600              		.cfi_def_cfa_register 7
 601 0006 7860     		str	r0, [r7, #4]
 538:.\Generated_Source\PSoC4/SignalGenerator.c ****     uint8 enableInterrupts;
 539:.\Generated_Source\PSoC4/SignalGenerator.c **** 
ARM GAS  C:\Users\JEFFRE~1\AppData\Local\Temp\ccRImAiW.s 			page 21


 540:.\Generated_Source\PSoC4/SignalGenerator.c ****     enableInterrupts = CyEnterCriticalSection();
 602              		.loc 1 540 0
 603 0008 3C1C     		mov	r4, r7
 604 000a 0F34     		add	r4, r4, #15
 605 000c FFF7FEFF 		bl	CyEnterCriticalSection
 606 0010 031C     		mov	r3, r0
 607 0012 2370     		strb	r3, [r4]
 541:.\Generated_Source\PSoC4/SignalGenerator.c **** 
 542:.\Generated_Source\PSoC4/SignalGenerator.c ****     SignalGenerator_CONTROL_REG &= (uint32)~SignalGenerator_PWM_STOP_KILL_MASK;
 608              		.loc 1 542 0
 609 0014 0B4B     		ldr	r3, .L33
 610 0016 0B4A     		ldr	r2, .L33
 611 0018 1268     		ldr	r2, [r2]
 612 001a 0821     		mov	r1, #8
 613 001c 8A43     		bic	r2, r1
 614 001e 1A60     		str	r2, [r3]
 543:.\Generated_Source\PSoC4/SignalGenerator.c ****     SignalGenerator_CONTROL_REG |= ((uint32)((stopOnKillEnable & SignalGenerator_1BIT_MASK)  <<
 615              		.loc 1 543 0
 616 0020 084B     		ldr	r3, .L33
 617 0022 084A     		ldr	r2, .L33
 618 0024 1168     		ldr	r1, [r2]
 619 0026 7868     		ldr	r0, [r7, #4]
 620 0028 0122     		mov	r2, #1
 621 002a 0240     		and	r2, r0
 622 002c D200     		lsl	r2, r2, #3
 623 002e 0A43     		orr	r2, r1
 624 0030 1A60     		str	r2, [r3]
 544:.\Generated_Source\PSoC4/SignalGenerator.c ****                                                          SignalGenerator_PWM_STOP_KILL_SHIFT));
 545:.\Generated_Source\PSoC4/SignalGenerator.c **** 
 546:.\Generated_Source\PSoC4/SignalGenerator.c ****     CyExitCriticalSection(enableInterrupts);
 625              		.loc 1 546 0
 626 0032 3B1C     		mov	r3, r7
 627 0034 0F33     		add	r3, r3, #15
 628 0036 1B78     		ldrb	r3, [r3]
 629 0038 181C     		mov	r0, r3
 630 003a FFF7FEFF 		bl	CyExitCriticalSection
 547:.\Generated_Source\PSoC4/SignalGenerator.c **** }
 631              		.loc 1 547 0
 632 003e BD46     		mov	sp, r7
 633 0040 05B0     		add	sp, sp, #20
 634              		@ sp needed for prologue
 635 0042 90BD     		pop	{r4, r7, pc}
 636              	.L34:
 637              		.align	2
 638              	.L33:
 639 0044 40010540 		.word	1074069824
 640              		.cfi_endproc
 641              	.LFE10:
 642              		.size	SignalGenerator_SetPWMStopOnKill, .-SignalGenerator_SetPWMStopOnKill
 643              		.section	.text.SignalGenerator_SetPWMDeadTime,"ax",%progbits
 644              		.align	2
 645              		.global	SignalGenerator_SetPWMDeadTime
 646              		.code	16
 647              		.thumb_func
 648              		.type	SignalGenerator_SetPWMDeadTime, %function
 649              	SignalGenerator_SetPWMDeadTime:
 650              	.LFB11:
ARM GAS  C:\Users\JEFFRE~1\AppData\Local\Temp\ccRImAiW.s 			page 22


 548:.\Generated_Source\PSoC4/SignalGenerator.c **** 
 549:.\Generated_Source\PSoC4/SignalGenerator.c **** 
 550:.\Generated_Source\PSoC4/SignalGenerator.c **** /*******************************************************************************
 551:.\Generated_Source\PSoC4/SignalGenerator.c **** * Function Name: SignalGenerator_SetPWMDeadTime
 552:.\Generated_Source\PSoC4/SignalGenerator.c **** ********************************************************************************
 553:.\Generated_Source\PSoC4/SignalGenerator.c **** *
 554:.\Generated_Source\PSoC4/SignalGenerator.c **** * Summary:
 555:.\Generated_Source\PSoC4/SignalGenerator.c **** *  Writes the dead time control value.  This value delays the rising edge of
 556:.\Generated_Source\PSoC4/SignalGenerator.c **** *  both the line and line_n signals the designated number of cycles resulting
 557:.\Generated_Source\PSoC4/SignalGenerator.c **** *  in both signals being inactive for that many cycles.  This functionality is
 558:.\Generated_Source\PSoC4/SignalGenerator.c **** *  only applicable to the PWM in the dead time mode.
 559:.\Generated_Source\PSoC4/SignalGenerator.c **** 
 560:.\Generated_Source\PSoC4/SignalGenerator.c **** *
 561:.\Generated_Source\PSoC4/SignalGenerator.c **** * Parameters:
 562:.\Generated_Source\PSoC4/SignalGenerator.c **** *  Dead time to insert
 563:.\Generated_Source\PSoC4/SignalGenerator.c **** *   Values: 0 to 255
 564:.\Generated_Source\PSoC4/SignalGenerator.c **** *
 565:.\Generated_Source\PSoC4/SignalGenerator.c **** * Return:
 566:.\Generated_Source\PSoC4/SignalGenerator.c **** *  None
 567:.\Generated_Source\PSoC4/SignalGenerator.c **** *
 568:.\Generated_Source\PSoC4/SignalGenerator.c **** *******************************************************************************/
 569:.\Generated_Source\PSoC4/SignalGenerator.c **** void SignalGenerator_SetPWMDeadTime(uint32 deadTime)
 570:.\Generated_Source\PSoC4/SignalGenerator.c **** {
 651              		.loc 1 570 0
 652              		.cfi_startproc
 653 0000 90B5     		push	{r4, r7, lr}
 654              	.LCFI31:
 655              		.cfi_def_cfa_offset 12
 656              		.cfi_offset 4, -12
 657              		.cfi_offset 7, -8
 658              		.cfi_offset 14, -4
 659 0002 85B0     		sub	sp, sp, #20
 660              	.LCFI32:
 661              		.cfi_def_cfa_offset 32
 662 0004 00AF     		add	r7, sp, #0
 663              	.LCFI33:
 664              		.cfi_def_cfa_register 7
 665 0006 7860     		str	r0, [r7, #4]
 571:.\Generated_Source\PSoC4/SignalGenerator.c ****     uint8 enableInterrupts;
 572:.\Generated_Source\PSoC4/SignalGenerator.c **** 
 573:.\Generated_Source\PSoC4/SignalGenerator.c ****     enableInterrupts = CyEnterCriticalSection();
 666              		.loc 1 573 0
 667 0008 3C1C     		mov	r4, r7
 668 000a 0F34     		add	r4, r4, #15
 669 000c FFF7FEFF 		bl	CyEnterCriticalSection
 670 0010 031C     		mov	r3, r0
 671 0012 2370     		strb	r3, [r4]
 574:.\Generated_Source\PSoC4/SignalGenerator.c **** 
 575:.\Generated_Source\PSoC4/SignalGenerator.c ****     SignalGenerator_CONTROL_REG &= (uint32)~SignalGenerator_PRESCALER_MASK;
 672              		.loc 1 575 0
 673 0014 0B4B     		ldr	r3, .L36
 674 0016 0B4A     		ldr	r2, .L36
 675 0018 1168     		ldr	r1, [r2]
 676 001a 0B4A     		ldr	r2, .L36+4
 677 001c 0A40     		and	r2, r1
 678 001e 1A60     		str	r2, [r3]
 576:.\Generated_Source\PSoC4/SignalGenerator.c ****     SignalGenerator_CONTROL_REG |= ((uint32)((deadTime & SignalGenerator_8BIT_MASK) <<
ARM GAS  C:\Users\JEFFRE~1\AppData\Local\Temp\ccRImAiW.s 			page 23


 679              		.loc 1 576 0
 680 0020 084B     		ldr	r3, .L36
 681 0022 084A     		ldr	r2, .L36
 682 0024 1168     		ldr	r1, [r2]
 683 0026 7A68     		ldr	r2, [r7, #4]
 684 0028 1202     		lsl	r2, r2, #8
 685 002a 1204     		lsl	r2, r2, #16
 686 002c 120C     		lsr	r2, r2, #16
 687 002e 0A43     		orr	r2, r1
 688 0030 1A60     		str	r2, [r3]
 577:.\Generated_Source\PSoC4/SignalGenerator.c ****                                                           SignalGenerator_PRESCALER_SHIFT));
 578:.\Generated_Source\PSoC4/SignalGenerator.c **** 
 579:.\Generated_Source\PSoC4/SignalGenerator.c ****     CyExitCriticalSection(enableInterrupts);
 689              		.loc 1 579 0
 690 0032 3B1C     		mov	r3, r7
 691 0034 0F33     		add	r3, r3, #15
 692 0036 1B78     		ldrb	r3, [r3]
 693 0038 181C     		mov	r0, r3
 694 003a FFF7FEFF 		bl	CyExitCriticalSection
 580:.\Generated_Source\PSoC4/SignalGenerator.c **** }
 695              		.loc 1 580 0
 696 003e BD46     		mov	sp, r7
 697 0040 05B0     		add	sp, sp, #20
 698              		@ sp needed for prologue
 699 0042 90BD     		pop	{r4, r7, pc}
 700              	.L37:
 701              		.align	2
 702              	.L36:
 703 0044 40010540 		.word	1074069824
 704 0048 FF00FFFF 		.word	-65281
 705              		.cfi_endproc
 706              	.LFE11:
 707              		.size	SignalGenerator_SetPWMDeadTime, .-SignalGenerator_SetPWMDeadTime
 708              		.section	.text.SignalGenerator_SetPWMInvert,"ax",%progbits
 709              		.align	2
 710              		.global	SignalGenerator_SetPWMInvert
 711              		.code	16
 712              		.thumb_func
 713              		.type	SignalGenerator_SetPWMInvert, %function
 714              	SignalGenerator_SetPWMInvert:
 715              	.LFB12:
 581:.\Generated_Source\PSoC4/SignalGenerator.c **** 
 582:.\Generated_Source\PSoC4/SignalGenerator.c **** 
 583:.\Generated_Source\PSoC4/SignalGenerator.c **** /*******************************************************************************
 584:.\Generated_Source\PSoC4/SignalGenerator.c **** * Function Name: SignalGenerator_SetPWMInvert
 585:.\Generated_Source\PSoC4/SignalGenerator.c **** ********************************************************************************
 586:.\Generated_Source\PSoC4/SignalGenerator.c **** *
 587:.\Generated_Source\PSoC4/SignalGenerator.c **** * Summary:
 588:.\Generated_Source\PSoC4/SignalGenerator.c **** *  Writes the bits that control whether the line and line_n outputs are
 589:.\Generated_Source\PSoC4/SignalGenerator.c **** *  inverted from their normal output values.  This functionality is only
 590:.\Generated_Source\PSoC4/SignalGenerator.c **** *  applicable to the three PWM modes.
 591:.\Generated_Source\PSoC4/SignalGenerator.c **** *
 592:.\Generated_Source\PSoC4/SignalGenerator.c **** * Parameters:
 593:.\Generated_Source\PSoC4/SignalGenerator.c **** *  mask: Mask of outputs to invert.
 594:.\Generated_Source\PSoC4/SignalGenerator.c **** *   Values:
 595:.\Generated_Source\PSoC4/SignalGenerator.c **** *         - SignalGenerator_INVERT_LINE   - Inverts the line output
 596:.\Generated_Source\PSoC4/SignalGenerator.c **** *         - SignalGenerator_INVERT_LINE_N - Inverts the line_n output
ARM GAS  C:\Users\JEFFRE~1\AppData\Local\Temp\ccRImAiW.s 			page 24


 597:.\Generated_Source\PSoC4/SignalGenerator.c **** *
 598:.\Generated_Source\PSoC4/SignalGenerator.c **** * Return:
 599:.\Generated_Source\PSoC4/SignalGenerator.c **** *  None
 600:.\Generated_Source\PSoC4/SignalGenerator.c **** *
 601:.\Generated_Source\PSoC4/SignalGenerator.c **** *******************************************************************************/
 602:.\Generated_Source\PSoC4/SignalGenerator.c **** void SignalGenerator_SetPWMInvert(uint32 mask)
 603:.\Generated_Source\PSoC4/SignalGenerator.c **** {
 716              		.loc 1 603 0
 717              		.cfi_startproc
 718 0000 90B5     		push	{r4, r7, lr}
 719              	.LCFI34:
 720              		.cfi_def_cfa_offset 12
 721              		.cfi_offset 4, -12
 722              		.cfi_offset 7, -8
 723              		.cfi_offset 14, -4
 724 0002 85B0     		sub	sp, sp, #20
 725              	.LCFI35:
 726              		.cfi_def_cfa_offset 32
 727 0004 00AF     		add	r7, sp, #0
 728              	.LCFI36:
 729              		.cfi_def_cfa_register 7
 730 0006 7860     		str	r0, [r7, #4]
 604:.\Generated_Source\PSoC4/SignalGenerator.c ****     uint8 enableInterrupts;
 605:.\Generated_Source\PSoC4/SignalGenerator.c **** 
 606:.\Generated_Source\PSoC4/SignalGenerator.c ****     enableInterrupts = CyEnterCriticalSection();
 731              		.loc 1 606 0
 732 0008 3C1C     		mov	r4, r7
 733 000a 0F34     		add	r4, r4, #15
 734 000c FFF7FEFF 		bl	CyEnterCriticalSection
 735 0010 031C     		mov	r3, r0
 736 0012 2370     		strb	r3, [r4]
 607:.\Generated_Source\PSoC4/SignalGenerator.c **** 
 608:.\Generated_Source\PSoC4/SignalGenerator.c ****     SignalGenerator_CONTROL_REG &= (uint32)~SignalGenerator_INV_OUT_MASK;
 737              		.loc 1 608 0
 738 0014 0A4B     		ldr	r3, .L39
 739 0016 0A4A     		ldr	r2, .L39
 740 0018 1168     		ldr	r1, [r2]
 741 001a 0A4A     		ldr	r2, .L39+4
 742 001c 0A40     		and	r2, r1
 743 001e 1A60     		str	r2, [r3]
 609:.\Generated_Source\PSoC4/SignalGenerator.c ****     SignalGenerator_CONTROL_REG |= mask;
 744              		.loc 1 609 0
 745 0020 074B     		ldr	r3, .L39
 746 0022 074A     		ldr	r2, .L39
 747 0024 1168     		ldr	r1, [r2]
 748 0026 7A68     		ldr	r2, [r7, #4]
 749 0028 0A43     		orr	r2, r1
 750 002a 1A60     		str	r2, [r3]
 610:.\Generated_Source\PSoC4/SignalGenerator.c **** 
 611:.\Generated_Source\PSoC4/SignalGenerator.c ****     CyExitCriticalSection(enableInterrupts);
 751              		.loc 1 611 0
 752 002c 3B1C     		mov	r3, r7
 753 002e 0F33     		add	r3, r3, #15
 754 0030 1B78     		ldrb	r3, [r3]
 755 0032 181C     		mov	r0, r3
 756 0034 FFF7FEFF 		bl	CyExitCriticalSection
 612:.\Generated_Source\PSoC4/SignalGenerator.c **** }
ARM GAS  C:\Users\JEFFRE~1\AppData\Local\Temp\ccRImAiW.s 			page 25


 757              		.loc 1 612 0
 758 0038 BD46     		mov	sp, r7
 759 003a 05B0     		add	sp, sp, #20
 760              		@ sp needed for prologue
 761 003c 90BD     		pop	{r4, r7, pc}
 762              	.L40:
 763 003e C046     		.align	2
 764              	.L39:
 765 0040 40010540 		.word	1074069824
 766 0044 FFFFCFFF 		.word	-3145729
 767              		.cfi_endproc
 768              	.LFE12:
 769              		.size	SignalGenerator_SetPWMInvert, .-SignalGenerator_SetPWMInvert
 770              		.section	.text.SignalGenerator_WriteCounter,"ax",%progbits
 771              		.align	2
 772              		.global	SignalGenerator_WriteCounter
 773              		.code	16
 774              		.thumb_func
 775              		.type	SignalGenerator_WriteCounter, %function
 776              	SignalGenerator_WriteCounter:
 777              	.LFB13:
 613:.\Generated_Source\PSoC4/SignalGenerator.c **** 
 614:.\Generated_Source\PSoC4/SignalGenerator.c **** 
 615:.\Generated_Source\PSoC4/SignalGenerator.c **** 
 616:.\Generated_Source\PSoC4/SignalGenerator.c **** /*******************************************************************************
 617:.\Generated_Source\PSoC4/SignalGenerator.c **** * Function Name: SignalGenerator_WriteCounter
 618:.\Generated_Source\PSoC4/SignalGenerator.c **** ********************************************************************************
 619:.\Generated_Source\PSoC4/SignalGenerator.c **** *
 620:.\Generated_Source\PSoC4/SignalGenerator.c **** * Summary:
 621:.\Generated_Source\PSoC4/SignalGenerator.c **** *  Writes a new 16bit counter value directly into the counter register, thus
 622:.\Generated_Source\PSoC4/SignalGenerator.c **** *  setting the counter (not the period) to the value written. It is not
 623:.\Generated_Source\PSoC4/SignalGenerator.c **** *  advised to write to this field when the counter is running.
 624:.\Generated_Source\PSoC4/SignalGenerator.c **** *
 625:.\Generated_Source\PSoC4/SignalGenerator.c **** * Parameters:
 626:.\Generated_Source\PSoC4/SignalGenerator.c **** *  count: value to write
 627:.\Generated_Source\PSoC4/SignalGenerator.c **** *
 628:.\Generated_Source\PSoC4/SignalGenerator.c **** * Return:
 629:.\Generated_Source\PSoC4/SignalGenerator.c **** *  None
 630:.\Generated_Source\PSoC4/SignalGenerator.c **** *
 631:.\Generated_Source\PSoC4/SignalGenerator.c **** *******************************************************************************/
 632:.\Generated_Source\PSoC4/SignalGenerator.c **** void SignalGenerator_WriteCounter(uint32 count)
 633:.\Generated_Source\PSoC4/SignalGenerator.c **** {
 778              		.loc 1 633 0
 779              		.cfi_startproc
 780 0000 80B5     		push	{r7, lr}
 781              	.LCFI37:
 782              		.cfi_def_cfa_offset 8
 783              		.cfi_offset 7, -8
 784              		.cfi_offset 14, -4
 785 0002 82B0     		sub	sp, sp, #8
 786              	.LCFI38:
 787              		.cfi_def_cfa_offset 16
 788 0004 00AF     		add	r7, sp, #0
 789              	.LCFI39:
 790              		.cfi_def_cfa_register 7
 791 0006 7860     		str	r0, [r7, #4]
 634:.\Generated_Source\PSoC4/SignalGenerator.c ****     SignalGenerator_COUNTER_REG = (count & SignalGenerator_16BIT_MASK);
ARM GAS  C:\Users\JEFFRE~1\AppData\Local\Temp\ccRImAiW.s 			page 26


 792              		.loc 1 634 0
 793 0008 034B     		ldr	r3, .L42
 794 000a 7A68     		ldr	r2, [r7, #4]
 795 000c 1204     		lsl	r2, r2, #16
 796 000e 120C     		lsr	r2, r2, #16
 797 0010 1A60     		str	r2, [r3]
 635:.\Generated_Source\PSoC4/SignalGenerator.c **** }
 798              		.loc 1 635 0
 799 0012 BD46     		mov	sp, r7
 800 0014 02B0     		add	sp, sp, #8
 801              		@ sp needed for prologue
 802 0016 80BD     		pop	{r7, pc}
 803              	.L43:
 804              		.align	2
 805              	.L42:
 806 0018 48010540 		.word	1074069832
 807              		.cfi_endproc
 808              	.LFE13:
 809              		.size	SignalGenerator_WriteCounter, .-SignalGenerator_WriteCounter
 810              		.section	.text.SignalGenerator_ReadCounter,"ax",%progbits
 811              		.align	2
 812              		.global	SignalGenerator_ReadCounter
 813              		.code	16
 814              		.thumb_func
 815              		.type	SignalGenerator_ReadCounter, %function
 816              	SignalGenerator_ReadCounter:
 817              	.LFB14:
 636:.\Generated_Source\PSoC4/SignalGenerator.c **** 
 637:.\Generated_Source\PSoC4/SignalGenerator.c **** 
 638:.\Generated_Source\PSoC4/SignalGenerator.c **** /*******************************************************************************
 639:.\Generated_Source\PSoC4/SignalGenerator.c **** * Function Name: SignalGenerator_ReadCounter
 640:.\Generated_Source\PSoC4/SignalGenerator.c **** ********************************************************************************
 641:.\Generated_Source\PSoC4/SignalGenerator.c **** *
 642:.\Generated_Source\PSoC4/SignalGenerator.c **** * Summary:
 643:.\Generated_Source\PSoC4/SignalGenerator.c **** *  Reads the current counter value.
 644:.\Generated_Source\PSoC4/SignalGenerator.c **** *
 645:.\Generated_Source\PSoC4/SignalGenerator.c **** * Parameters:
 646:.\Generated_Source\PSoC4/SignalGenerator.c **** *  None
 647:.\Generated_Source\PSoC4/SignalGenerator.c **** *
 648:.\Generated_Source\PSoC4/SignalGenerator.c **** * Return:
 649:.\Generated_Source\PSoC4/SignalGenerator.c **** *  Current counter value
 650:.\Generated_Source\PSoC4/SignalGenerator.c **** *
 651:.\Generated_Source\PSoC4/SignalGenerator.c **** *******************************************************************************/
 652:.\Generated_Source\PSoC4/SignalGenerator.c **** uint32 SignalGenerator_ReadCounter(void)
 653:.\Generated_Source\PSoC4/SignalGenerator.c **** {
 818              		.loc 1 653 0
 819              		.cfi_startproc
 820 0000 80B5     		push	{r7, lr}
 821              	.LCFI40:
 822              		.cfi_def_cfa_offset 8
 823              		.cfi_offset 7, -8
 824              		.cfi_offset 14, -4
 825 0002 00AF     		add	r7, sp, #0
 826              	.LCFI41:
 827              		.cfi_def_cfa_register 7
 654:.\Generated_Source\PSoC4/SignalGenerator.c ****     return (SignalGenerator_COUNTER_REG & SignalGenerator_16BIT_MASK);
 828              		.loc 1 654 0
ARM GAS  C:\Users\JEFFRE~1\AppData\Local\Temp\ccRImAiW.s 			page 27


 829 0004 034B     		ldr	r3, .L46
 830 0006 1B68     		ldr	r3, [r3]
 831 0008 1B04     		lsl	r3, r3, #16
 832 000a 1B0C     		lsr	r3, r3, #16
 655:.\Generated_Source\PSoC4/SignalGenerator.c **** }
 833              		.loc 1 655 0
 834 000c 181C     		mov	r0, r3
 835 000e BD46     		mov	sp, r7
 836              		@ sp needed for prologue
 837 0010 80BD     		pop	{r7, pc}
 838              	.L47:
 839 0012 C046     		.align	2
 840              	.L46:
 841 0014 48010540 		.word	1074069832
 842              		.cfi_endproc
 843              	.LFE14:
 844              		.size	SignalGenerator_ReadCounter, .-SignalGenerator_ReadCounter
 845              		.section	.text.SignalGenerator_SetCounterMode,"ax",%progbits
 846              		.align	2
 847              		.global	SignalGenerator_SetCounterMode
 848              		.code	16
 849              		.thumb_func
 850              		.type	SignalGenerator_SetCounterMode, %function
 851              	SignalGenerator_SetCounterMode:
 852              	.LFB15:
 656:.\Generated_Source\PSoC4/SignalGenerator.c **** 
 657:.\Generated_Source\PSoC4/SignalGenerator.c **** 
 658:.\Generated_Source\PSoC4/SignalGenerator.c **** /*******************************************************************************
 659:.\Generated_Source\PSoC4/SignalGenerator.c **** * Function Name: SignalGenerator_SetCounterMode
 660:.\Generated_Source\PSoC4/SignalGenerator.c **** ********************************************************************************
 661:.\Generated_Source\PSoC4/SignalGenerator.c **** *
 662:.\Generated_Source\PSoC4/SignalGenerator.c **** * Summary:
 663:.\Generated_Source\PSoC4/SignalGenerator.c **** *  Sets the counter mode.  Applicable to all modes except Quadrature Decoder
 664:.\Generated_Source\PSoC4/SignalGenerator.c **** *  and the PWM with a pseudo random output.
 665:.\Generated_Source\PSoC4/SignalGenerator.c **** *
 666:.\Generated_Source\PSoC4/SignalGenerator.c **** * Parameters:
 667:.\Generated_Source\PSoC4/SignalGenerator.c **** *  counterMode: Enumerated counter type values
 668:.\Generated_Source\PSoC4/SignalGenerator.c **** *   Values:
 669:.\Generated_Source\PSoC4/SignalGenerator.c **** *     - SignalGenerator_COUNT_UP       - Counts up
 670:.\Generated_Source\PSoC4/SignalGenerator.c **** *     - SignalGenerator_COUNT_DOWN     - Counts down
 671:.\Generated_Source\PSoC4/SignalGenerator.c **** *     - SignalGenerator_COUNT_UPDOWN0  - Counts up and down. Terminal count
 672:.\Generated_Source\PSoC4/SignalGenerator.c **** *                                         generated when counter reaches 0
 673:.\Generated_Source\PSoC4/SignalGenerator.c **** *     - SignalGenerator_COUNT_UPDOWN1  - Counts up and down. Terminal count
 674:.\Generated_Source\PSoC4/SignalGenerator.c **** *                                         generated both when counter reaches 0
 675:.\Generated_Source\PSoC4/SignalGenerator.c **** *                                         and period
 676:.\Generated_Source\PSoC4/SignalGenerator.c **** *
 677:.\Generated_Source\PSoC4/SignalGenerator.c **** * Return:
 678:.\Generated_Source\PSoC4/SignalGenerator.c **** *  None
 679:.\Generated_Source\PSoC4/SignalGenerator.c **** *
 680:.\Generated_Source\PSoC4/SignalGenerator.c **** *******************************************************************************/
 681:.\Generated_Source\PSoC4/SignalGenerator.c **** void SignalGenerator_SetCounterMode(uint32 counterMode)
 682:.\Generated_Source\PSoC4/SignalGenerator.c **** {
 853              		.loc 1 682 0
 854              		.cfi_startproc
 855 0000 90B5     		push	{r4, r7, lr}
 856              	.LCFI42:
 857              		.cfi_def_cfa_offset 12
ARM GAS  C:\Users\JEFFRE~1\AppData\Local\Temp\ccRImAiW.s 			page 28


 858              		.cfi_offset 4, -12
 859              		.cfi_offset 7, -8
 860              		.cfi_offset 14, -4
 861 0002 85B0     		sub	sp, sp, #20
 862              	.LCFI43:
 863              		.cfi_def_cfa_offset 32
 864 0004 00AF     		add	r7, sp, #0
 865              	.LCFI44:
 866              		.cfi_def_cfa_register 7
 867 0006 7860     		str	r0, [r7, #4]
 683:.\Generated_Source\PSoC4/SignalGenerator.c ****     uint8 enableInterrupts;
 684:.\Generated_Source\PSoC4/SignalGenerator.c **** 
 685:.\Generated_Source\PSoC4/SignalGenerator.c ****     enableInterrupts = CyEnterCriticalSection();
 868              		.loc 1 685 0
 869 0008 3C1C     		mov	r4, r7
 870 000a 0F34     		add	r4, r4, #15
 871 000c FFF7FEFF 		bl	CyEnterCriticalSection
 872 0010 031C     		mov	r3, r0
 873 0012 2370     		strb	r3, [r4]
 686:.\Generated_Source\PSoC4/SignalGenerator.c **** 
 687:.\Generated_Source\PSoC4/SignalGenerator.c ****     SignalGenerator_CONTROL_REG &= (uint32)~SignalGenerator_UPDOWN_MASK;
 874              		.loc 1 687 0
 875 0014 0A4B     		ldr	r3, .L49
 876 0016 0A4A     		ldr	r2, .L49
 877 0018 1168     		ldr	r1, [r2]
 878 001a 0A4A     		ldr	r2, .L49+4
 879 001c 0A40     		and	r2, r1
 880 001e 1A60     		str	r2, [r3]
 688:.\Generated_Source\PSoC4/SignalGenerator.c ****     SignalGenerator_CONTROL_REG |= counterMode;
 881              		.loc 1 688 0
 882 0020 074B     		ldr	r3, .L49
 883 0022 074A     		ldr	r2, .L49
 884 0024 1168     		ldr	r1, [r2]
 885 0026 7A68     		ldr	r2, [r7, #4]
 886 0028 0A43     		orr	r2, r1
 887 002a 1A60     		str	r2, [r3]
 689:.\Generated_Source\PSoC4/SignalGenerator.c **** 
 690:.\Generated_Source\PSoC4/SignalGenerator.c ****     CyExitCriticalSection(enableInterrupts);
 888              		.loc 1 690 0
 889 002c 3B1C     		mov	r3, r7
 890 002e 0F33     		add	r3, r3, #15
 891 0030 1B78     		ldrb	r3, [r3]
 892 0032 181C     		mov	r0, r3
 893 0034 FFF7FEFF 		bl	CyExitCriticalSection
 691:.\Generated_Source\PSoC4/SignalGenerator.c **** }
 894              		.loc 1 691 0
 895 0038 BD46     		mov	sp, r7
 896 003a 05B0     		add	sp, sp, #20
 897              		@ sp needed for prologue
 898 003c 90BD     		pop	{r4, r7, pc}
 899              	.L50:
 900 003e C046     		.align	2
 901              	.L49:
 902 0040 40010540 		.word	1074069824
 903 0044 FFFFFCFF 		.word	-196609
 904              		.cfi_endproc
 905              	.LFE15:
ARM GAS  C:\Users\JEFFRE~1\AppData\Local\Temp\ccRImAiW.s 			page 29


 906              		.size	SignalGenerator_SetCounterMode, .-SignalGenerator_SetCounterMode
 907              		.section	.text.SignalGenerator_WritePeriod,"ax",%progbits
 908              		.align	2
 909              		.global	SignalGenerator_WritePeriod
 910              		.code	16
 911              		.thumb_func
 912              		.type	SignalGenerator_WritePeriod, %function
 913              	SignalGenerator_WritePeriod:
 914              	.LFB16:
 692:.\Generated_Source\PSoC4/SignalGenerator.c **** 
 693:.\Generated_Source\PSoC4/SignalGenerator.c **** 
 694:.\Generated_Source\PSoC4/SignalGenerator.c **** /*******************************************************************************
 695:.\Generated_Source\PSoC4/SignalGenerator.c **** * Function Name: SignalGenerator_WritePeriod
 696:.\Generated_Source\PSoC4/SignalGenerator.c **** ********************************************************************************
 697:.\Generated_Source\PSoC4/SignalGenerator.c **** *
 698:.\Generated_Source\PSoC4/SignalGenerator.c **** * Summary:
 699:.\Generated_Source\PSoC4/SignalGenerator.c **** *  Writes the 16 bit period register with the new period value.
 700:.\Generated_Source\PSoC4/SignalGenerator.c **** *  To cause the counter to count for N cycles this register should be written
 701:.\Generated_Source\PSoC4/SignalGenerator.c **** *  with N-1 (counts from 0 to period inclusive).
 702:.\Generated_Source\PSoC4/SignalGenerator.c **** *
 703:.\Generated_Source\PSoC4/SignalGenerator.c **** * Parameters:
 704:.\Generated_Source\PSoC4/SignalGenerator.c **** *  period: Period value
 705:.\Generated_Source\PSoC4/SignalGenerator.c **** *
 706:.\Generated_Source\PSoC4/SignalGenerator.c **** * Return:
 707:.\Generated_Source\PSoC4/SignalGenerator.c **** *  None
 708:.\Generated_Source\PSoC4/SignalGenerator.c **** *
 709:.\Generated_Source\PSoC4/SignalGenerator.c **** *******************************************************************************/
 710:.\Generated_Source\PSoC4/SignalGenerator.c **** void SignalGenerator_WritePeriod(uint32 period)
 711:.\Generated_Source\PSoC4/SignalGenerator.c **** {
 915              		.loc 1 711 0
 916              		.cfi_startproc
 917 0000 80B5     		push	{r7, lr}
 918              	.LCFI45:
 919              		.cfi_def_cfa_offset 8
 920              		.cfi_offset 7, -8
 921              		.cfi_offset 14, -4
 922 0002 82B0     		sub	sp, sp, #8
 923              	.LCFI46:
 924              		.cfi_def_cfa_offset 16
 925 0004 00AF     		add	r7, sp, #0
 926              	.LCFI47:
 927              		.cfi_def_cfa_register 7
 928 0006 7860     		str	r0, [r7, #4]
 712:.\Generated_Source\PSoC4/SignalGenerator.c ****     SignalGenerator_PERIOD_REG = (period & SignalGenerator_16BIT_MASK);
 929              		.loc 1 712 0
 930 0008 034B     		ldr	r3, .L52
 931 000a 7A68     		ldr	r2, [r7, #4]
 932 000c 1204     		lsl	r2, r2, #16
 933 000e 120C     		lsr	r2, r2, #16
 934 0010 1A60     		str	r2, [r3]
 713:.\Generated_Source\PSoC4/SignalGenerator.c **** }
 935              		.loc 1 713 0
 936 0012 BD46     		mov	sp, r7
 937 0014 02B0     		add	sp, sp, #8
 938              		@ sp needed for prologue
 939 0016 80BD     		pop	{r7, pc}
 940              	.L53:
ARM GAS  C:\Users\JEFFRE~1\AppData\Local\Temp\ccRImAiW.s 			page 30


 941              		.align	2
 942              	.L52:
 943 0018 54010540 		.word	1074069844
 944              		.cfi_endproc
 945              	.LFE16:
 946              		.size	SignalGenerator_WritePeriod, .-SignalGenerator_WritePeriod
 947              		.section	.text.SignalGenerator_ReadPeriod,"ax",%progbits
 948              		.align	2
 949              		.global	SignalGenerator_ReadPeriod
 950              		.code	16
 951              		.thumb_func
 952              		.type	SignalGenerator_ReadPeriod, %function
 953              	SignalGenerator_ReadPeriod:
 954              	.LFB17:
 714:.\Generated_Source\PSoC4/SignalGenerator.c **** 
 715:.\Generated_Source\PSoC4/SignalGenerator.c **** 
 716:.\Generated_Source\PSoC4/SignalGenerator.c **** /*******************************************************************************
 717:.\Generated_Source\PSoC4/SignalGenerator.c **** * Function Name: SignalGenerator_ReadPeriod
 718:.\Generated_Source\PSoC4/SignalGenerator.c **** ********************************************************************************
 719:.\Generated_Source\PSoC4/SignalGenerator.c **** *
 720:.\Generated_Source\PSoC4/SignalGenerator.c **** * Summary:
 721:.\Generated_Source\PSoC4/SignalGenerator.c **** *  Reads the 16 bit period register.
 722:.\Generated_Source\PSoC4/SignalGenerator.c **** *
 723:.\Generated_Source\PSoC4/SignalGenerator.c **** * Parameters:
 724:.\Generated_Source\PSoC4/SignalGenerator.c **** *  None
 725:.\Generated_Source\PSoC4/SignalGenerator.c **** *
 726:.\Generated_Source\PSoC4/SignalGenerator.c **** * Return:
 727:.\Generated_Source\PSoC4/SignalGenerator.c **** *  Period value
 728:.\Generated_Source\PSoC4/SignalGenerator.c **** *
 729:.\Generated_Source\PSoC4/SignalGenerator.c **** *******************************************************************************/
 730:.\Generated_Source\PSoC4/SignalGenerator.c **** uint32 SignalGenerator_ReadPeriod(void)
 731:.\Generated_Source\PSoC4/SignalGenerator.c **** {
 955              		.loc 1 731 0
 956              		.cfi_startproc
 957 0000 80B5     		push	{r7, lr}
 958              	.LCFI48:
 959              		.cfi_def_cfa_offset 8
 960              		.cfi_offset 7, -8
 961              		.cfi_offset 14, -4
 962 0002 00AF     		add	r7, sp, #0
 963              	.LCFI49:
 964              		.cfi_def_cfa_register 7
 732:.\Generated_Source\PSoC4/SignalGenerator.c ****     return (SignalGenerator_PERIOD_REG & SignalGenerator_16BIT_MASK);
 965              		.loc 1 732 0
 966 0004 034B     		ldr	r3, .L56
 967 0006 1B68     		ldr	r3, [r3]
 968 0008 1B04     		lsl	r3, r3, #16
 969 000a 1B0C     		lsr	r3, r3, #16
 733:.\Generated_Source\PSoC4/SignalGenerator.c **** }
 970              		.loc 1 733 0
 971 000c 181C     		mov	r0, r3
 972 000e BD46     		mov	sp, r7
 973              		@ sp needed for prologue
 974 0010 80BD     		pop	{r7, pc}
 975              	.L57:
 976 0012 C046     		.align	2
 977              	.L56:
ARM GAS  C:\Users\JEFFRE~1\AppData\Local\Temp\ccRImAiW.s 			page 31


 978 0014 54010540 		.word	1074069844
 979              		.cfi_endproc
 980              	.LFE17:
 981              		.size	SignalGenerator_ReadPeriod, .-SignalGenerator_ReadPeriod
 982              		.section	.text.SignalGenerator_SetCompareSwap,"ax",%progbits
 983              		.align	2
 984              		.global	SignalGenerator_SetCompareSwap
 985              		.code	16
 986              		.thumb_func
 987              		.type	SignalGenerator_SetCompareSwap, %function
 988              	SignalGenerator_SetCompareSwap:
 989              	.LFB18:
 734:.\Generated_Source\PSoC4/SignalGenerator.c **** 
 735:.\Generated_Source\PSoC4/SignalGenerator.c **** 
 736:.\Generated_Source\PSoC4/SignalGenerator.c **** /*******************************************************************************
 737:.\Generated_Source\PSoC4/SignalGenerator.c **** * Function Name: SignalGenerator_SetCompareSwap
 738:.\Generated_Source\PSoC4/SignalGenerator.c **** ********************************************************************************
 739:.\Generated_Source\PSoC4/SignalGenerator.c **** *
 740:.\Generated_Source\PSoC4/SignalGenerator.c **** * Summary:
 741:.\Generated_Source\PSoC4/SignalGenerator.c **** *  Writes the register that controls whether the compare registers are
 742:.\Generated_Source\PSoC4/SignalGenerator.c **** *  swapped. When enabled in the Timer/Counter mode(without capture) the swap
 743:.\Generated_Source\PSoC4/SignalGenerator.c **** *  occurs at a TC event. In the PWM mode the swap occurs at the next TC event
 744:.\Generated_Source\PSoC4/SignalGenerator.c **** *  following a hardware switch event.
 745:.\Generated_Source\PSoC4/SignalGenerator.c **** *
 746:.\Generated_Source\PSoC4/SignalGenerator.c **** * Parameters:
 747:.\Generated_Source\PSoC4/SignalGenerator.c **** *  swapEnable
 748:.\Generated_Source\PSoC4/SignalGenerator.c **** *   Values:
 749:.\Generated_Source\PSoC4/SignalGenerator.c **** *     - 0 - Disable swap
 750:.\Generated_Source\PSoC4/SignalGenerator.c **** *     - 1 - Enable swap
 751:.\Generated_Source\PSoC4/SignalGenerator.c **** *
 752:.\Generated_Source\PSoC4/SignalGenerator.c **** * Return:
 753:.\Generated_Source\PSoC4/SignalGenerator.c **** *  None
 754:.\Generated_Source\PSoC4/SignalGenerator.c **** *
 755:.\Generated_Source\PSoC4/SignalGenerator.c **** *******************************************************************************/
 756:.\Generated_Source\PSoC4/SignalGenerator.c **** void SignalGenerator_SetCompareSwap(uint32 swapEnable)
 757:.\Generated_Source\PSoC4/SignalGenerator.c **** {
 990              		.loc 1 757 0
 991              		.cfi_startproc
 992 0000 90B5     		push	{r4, r7, lr}
 993              	.LCFI50:
 994              		.cfi_def_cfa_offset 12
 995              		.cfi_offset 4, -12
 996              		.cfi_offset 7, -8
 997              		.cfi_offset 14, -4
 998 0002 85B0     		sub	sp, sp, #20
 999              	.LCFI51:
 1000              		.cfi_def_cfa_offset 32
 1001 0004 00AF     		add	r7, sp, #0
 1002              	.LCFI52:
 1003              		.cfi_def_cfa_register 7
 1004 0006 7860     		str	r0, [r7, #4]
 758:.\Generated_Source\PSoC4/SignalGenerator.c ****     uint8 enableInterrupts;
 759:.\Generated_Source\PSoC4/SignalGenerator.c **** 
 760:.\Generated_Source\PSoC4/SignalGenerator.c ****     enableInterrupts = CyEnterCriticalSection();
 1005              		.loc 1 760 0
 1006 0008 3C1C     		mov	r4, r7
 1007 000a 0F34     		add	r4, r4, #15
ARM GAS  C:\Users\JEFFRE~1\AppData\Local\Temp\ccRImAiW.s 			page 32


 1008 000c FFF7FEFF 		bl	CyEnterCriticalSection
 1009 0010 031C     		mov	r3, r0
 1010 0012 2370     		strb	r3, [r4]
 761:.\Generated_Source\PSoC4/SignalGenerator.c **** 
 762:.\Generated_Source\PSoC4/SignalGenerator.c ****     SignalGenerator_CONTROL_REG &= (uint32)~SignalGenerator_RELOAD_CC_MASK;
 1011              		.loc 1 762 0
 1012 0014 0B4B     		ldr	r3, .L59
 1013 0016 0B4A     		ldr	r2, .L59
 1014 0018 1268     		ldr	r2, [r2]
 1015 001a 0121     		mov	r1, #1
 1016 001c 8A43     		bic	r2, r1
 1017 001e 1A60     		str	r2, [r3]
 763:.\Generated_Source\PSoC4/SignalGenerator.c ****     SignalGenerator_CONTROL_REG |= (swapEnable & SignalGenerator_1BIT_MASK);
 1018              		.loc 1 763 0
 1019 0020 084B     		ldr	r3, .L59
 1020 0022 084A     		ldr	r2, .L59
 1021 0024 1168     		ldr	r1, [r2]
 1022 0026 7868     		ldr	r0, [r7, #4]
 1023 0028 0122     		mov	r2, #1
 1024 002a 0240     		and	r2, r0
 1025 002c 0A43     		orr	r2, r1
 1026 002e 1A60     		str	r2, [r3]
 764:.\Generated_Source\PSoC4/SignalGenerator.c **** 
 765:.\Generated_Source\PSoC4/SignalGenerator.c ****     CyExitCriticalSection(enableInterrupts);
 1027              		.loc 1 765 0
 1028 0030 3B1C     		mov	r3, r7
 1029 0032 0F33     		add	r3, r3, #15
 1030 0034 1B78     		ldrb	r3, [r3]
 1031 0036 181C     		mov	r0, r3
 1032 0038 FFF7FEFF 		bl	CyExitCriticalSection
 766:.\Generated_Source\PSoC4/SignalGenerator.c **** }
 1033              		.loc 1 766 0
 1034 003c BD46     		mov	sp, r7
 1035 003e 05B0     		add	sp, sp, #20
 1036              		@ sp needed for prologue
 1037 0040 90BD     		pop	{r4, r7, pc}
 1038              	.L60:
 1039 0042 C046     		.align	2
 1040              	.L59:
 1041 0044 40010540 		.word	1074069824
 1042              		.cfi_endproc
 1043              	.LFE18:
 1044              		.size	SignalGenerator_SetCompareSwap, .-SignalGenerator_SetCompareSwap
 1045              		.section	.text.SignalGenerator_WritePeriodBuf,"ax",%progbits
 1046              		.align	2
 1047              		.global	SignalGenerator_WritePeriodBuf
 1048              		.code	16
 1049              		.thumb_func
 1050              		.type	SignalGenerator_WritePeriodBuf, %function
 1051              	SignalGenerator_WritePeriodBuf:
 1052              	.LFB19:
 767:.\Generated_Source\PSoC4/SignalGenerator.c **** 
 768:.\Generated_Source\PSoC4/SignalGenerator.c **** 
 769:.\Generated_Source\PSoC4/SignalGenerator.c **** /*******************************************************************************
 770:.\Generated_Source\PSoC4/SignalGenerator.c **** * Function Name: SignalGenerator_WritePeriodBuf
 771:.\Generated_Source\PSoC4/SignalGenerator.c **** ********************************************************************************
 772:.\Generated_Source\PSoC4/SignalGenerator.c **** *
ARM GAS  C:\Users\JEFFRE~1\AppData\Local\Temp\ccRImAiW.s 			page 33


 773:.\Generated_Source\PSoC4/SignalGenerator.c **** * Summary:
 774:.\Generated_Source\PSoC4/SignalGenerator.c **** *  Writes the 16 bit period buf register with the new period value.
 775:.\Generated_Source\PSoC4/SignalGenerator.c **** *
 776:.\Generated_Source\PSoC4/SignalGenerator.c **** * Parameters:
 777:.\Generated_Source\PSoC4/SignalGenerator.c **** *  periodBuf: Period value
 778:.\Generated_Source\PSoC4/SignalGenerator.c **** *
 779:.\Generated_Source\PSoC4/SignalGenerator.c **** * Return:
 780:.\Generated_Source\PSoC4/SignalGenerator.c **** *  None
 781:.\Generated_Source\PSoC4/SignalGenerator.c **** *
 782:.\Generated_Source\PSoC4/SignalGenerator.c **** *******************************************************************************/
 783:.\Generated_Source\PSoC4/SignalGenerator.c **** void SignalGenerator_WritePeriodBuf(uint32 periodBuf)
 784:.\Generated_Source\PSoC4/SignalGenerator.c **** {
 1053              		.loc 1 784 0
 1054              		.cfi_startproc
 1055 0000 80B5     		push	{r7, lr}
 1056              	.LCFI53:
 1057              		.cfi_def_cfa_offset 8
 1058              		.cfi_offset 7, -8
 1059              		.cfi_offset 14, -4
 1060 0002 82B0     		sub	sp, sp, #8
 1061              	.LCFI54:
 1062              		.cfi_def_cfa_offset 16
 1063 0004 00AF     		add	r7, sp, #0
 1064              	.LCFI55:
 1065              		.cfi_def_cfa_register 7
 1066 0006 7860     		str	r0, [r7, #4]
 785:.\Generated_Source\PSoC4/SignalGenerator.c ****     SignalGenerator_PERIOD_BUF_REG = (periodBuf & SignalGenerator_16BIT_MASK);
 1067              		.loc 1 785 0
 1068 0008 034B     		ldr	r3, .L62
 1069 000a 7A68     		ldr	r2, [r7, #4]
 1070 000c 1204     		lsl	r2, r2, #16
 1071 000e 120C     		lsr	r2, r2, #16
 1072 0010 1A60     		str	r2, [r3]
 786:.\Generated_Source\PSoC4/SignalGenerator.c **** }
 1073              		.loc 1 786 0
 1074 0012 BD46     		mov	sp, r7
 1075 0014 02B0     		add	sp, sp, #8
 1076              		@ sp needed for prologue
 1077 0016 80BD     		pop	{r7, pc}
 1078              	.L63:
 1079              		.align	2
 1080              	.L62:
 1081 0018 58010540 		.word	1074069848
 1082              		.cfi_endproc
 1083              	.LFE19:
 1084              		.size	SignalGenerator_WritePeriodBuf, .-SignalGenerator_WritePeriodBuf
 1085              		.section	.text.SignalGenerator_ReadPeriodBuf,"ax",%progbits
 1086              		.align	2
 1087              		.global	SignalGenerator_ReadPeriodBuf
 1088              		.code	16
 1089              		.thumb_func
 1090              		.type	SignalGenerator_ReadPeriodBuf, %function
 1091              	SignalGenerator_ReadPeriodBuf:
 1092              	.LFB20:
 787:.\Generated_Source\PSoC4/SignalGenerator.c **** 
 788:.\Generated_Source\PSoC4/SignalGenerator.c **** 
 789:.\Generated_Source\PSoC4/SignalGenerator.c **** /*******************************************************************************
ARM GAS  C:\Users\JEFFRE~1\AppData\Local\Temp\ccRImAiW.s 			page 34


 790:.\Generated_Source\PSoC4/SignalGenerator.c **** * Function Name: SignalGenerator_ReadPeriodBuf
 791:.\Generated_Source\PSoC4/SignalGenerator.c **** ********************************************************************************
 792:.\Generated_Source\PSoC4/SignalGenerator.c **** *
 793:.\Generated_Source\PSoC4/SignalGenerator.c **** * Summary:
 794:.\Generated_Source\PSoC4/SignalGenerator.c **** *  Reads the 16 bit period buf register.
 795:.\Generated_Source\PSoC4/SignalGenerator.c **** *
 796:.\Generated_Source\PSoC4/SignalGenerator.c **** * Parameters:
 797:.\Generated_Source\PSoC4/SignalGenerator.c **** *  None
 798:.\Generated_Source\PSoC4/SignalGenerator.c **** *
 799:.\Generated_Source\PSoC4/SignalGenerator.c **** * Return:
 800:.\Generated_Source\PSoC4/SignalGenerator.c **** *  Period value
 801:.\Generated_Source\PSoC4/SignalGenerator.c **** *
 802:.\Generated_Source\PSoC4/SignalGenerator.c **** *******************************************************************************/
 803:.\Generated_Source\PSoC4/SignalGenerator.c **** uint32 SignalGenerator_ReadPeriodBuf(void)
 804:.\Generated_Source\PSoC4/SignalGenerator.c **** {
 1093              		.loc 1 804 0
 1094              		.cfi_startproc
 1095 0000 80B5     		push	{r7, lr}
 1096              	.LCFI56:
 1097              		.cfi_def_cfa_offset 8
 1098              		.cfi_offset 7, -8
 1099              		.cfi_offset 14, -4
 1100 0002 00AF     		add	r7, sp, #0
 1101              	.LCFI57:
 1102              		.cfi_def_cfa_register 7
 805:.\Generated_Source\PSoC4/SignalGenerator.c ****     return (SignalGenerator_PERIOD_BUF_REG & SignalGenerator_16BIT_MASK);
 1103              		.loc 1 805 0
 1104 0004 034B     		ldr	r3, .L66
 1105 0006 1B68     		ldr	r3, [r3]
 1106 0008 1B04     		lsl	r3, r3, #16
 1107 000a 1B0C     		lsr	r3, r3, #16
 806:.\Generated_Source\PSoC4/SignalGenerator.c **** }
 1108              		.loc 1 806 0
 1109 000c 181C     		mov	r0, r3
 1110 000e BD46     		mov	sp, r7
 1111              		@ sp needed for prologue
 1112 0010 80BD     		pop	{r7, pc}
 1113              	.L67:
 1114 0012 C046     		.align	2
 1115              	.L66:
 1116 0014 58010540 		.word	1074069848
 1117              		.cfi_endproc
 1118              	.LFE20:
 1119              		.size	SignalGenerator_ReadPeriodBuf, .-SignalGenerator_ReadPeriodBuf
 1120              		.section	.text.SignalGenerator_SetPeriodSwap,"ax",%progbits
 1121              		.align	2
 1122              		.global	SignalGenerator_SetPeriodSwap
 1123              		.code	16
 1124              		.thumb_func
 1125              		.type	SignalGenerator_SetPeriodSwap, %function
 1126              	SignalGenerator_SetPeriodSwap:
 1127              	.LFB21:
 807:.\Generated_Source\PSoC4/SignalGenerator.c **** 
 808:.\Generated_Source\PSoC4/SignalGenerator.c **** 
 809:.\Generated_Source\PSoC4/SignalGenerator.c **** /*******************************************************************************
 810:.\Generated_Source\PSoC4/SignalGenerator.c **** * Function Name: SignalGenerator_SetPeriodSwap
 811:.\Generated_Source\PSoC4/SignalGenerator.c **** ********************************************************************************
ARM GAS  C:\Users\JEFFRE~1\AppData\Local\Temp\ccRImAiW.s 			page 35


 812:.\Generated_Source\PSoC4/SignalGenerator.c **** *
 813:.\Generated_Source\PSoC4/SignalGenerator.c **** * Summary:
 814:.\Generated_Source\PSoC4/SignalGenerator.c **** *  Writes the register that controls whether the period registers are
 815:.\Generated_Source\PSoC4/SignalGenerator.c **** *  swapped. When enabled in Timer/Counter mode the swap occurs at a TC event.
 816:.\Generated_Source\PSoC4/SignalGenerator.c **** *  In the PWM mode the swap occurs at the next TC event following a hardware
 817:.\Generated_Source\PSoC4/SignalGenerator.c **** *  switch event.
 818:.\Generated_Source\PSoC4/SignalGenerator.c **** *
 819:.\Generated_Source\PSoC4/SignalGenerator.c **** * Parameters:
 820:.\Generated_Source\PSoC4/SignalGenerator.c **** *  swapEnable
 821:.\Generated_Source\PSoC4/SignalGenerator.c **** *   Values:
 822:.\Generated_Source\PSoC4/SignalGenerator.c **** *     - 0 - Disable swap
 823:.\Generated_Source\PSoC4/SignalGenerator.c **** *     - 1 - Enable swap
 824:.\Generated_Source\PSoC4/SignalGenerator.c **** *
 825:.\Generated_Source\PSoC4/SignalGenerator.c **** * Return:
 826:.\Generated_Source\PSoC4/SignalGenerator.c **** *  None
 827:.\Generated_Source\PSoC4/SignalGenerator.c **** *
 828:.\Generated_Source\PSoC4/SignalGenerator.c **** *******************************************************************************/
 829:.\Generated_Source\PSoC4/SignalGenerator.c **** void SignalGenerator_SetPeriodSwap(uint32 swapEnable)
 830:.\Generated_Source\PSoC4/SignalGenerator.c **** {
 1128              		.loc 1 830 0
 1129              		.cfi_startproc
 1130 0000 90B5     		push	{r4, r7, lr}
 1131              	.LCFI58:
 1132              		.cfi_def_cfa_offset 12
 1133              		.cfi_offset 4, -12
 1134              		.cfi_offset 7, -8
 1135              		.cfi_offset 14, -4
 1136 0002 85B0     		sub	sp, sp, #20
 1137              	.LCFI59:
 1138              		.cfi_def_cfa_offset 32
 1139 0004 00AF     		add	r7, sp, #0
 1140              	.LCFI60:
 1141              		.cfi_def_cfa_register 7
 1142 0006 7860     		str	r0, [r7, #4]
 831:.\Generated_Source\PSoC4/SignalGenerator.c ****     uint8 enableInterrupts;
 832:.\Generated_Source\PSoC4/SignalGenerator.c **** 
 833:.\Generated_Source\PSoC4/SignalGenerator.c ****     enableInterrupts = CyEnterCriticalSection();
 1143              		.loc 1 833 0
 1144 0008 3C1C     		mov	r4, r7
 1145 000a 0F34     		add	r4, r4, #15
 1146 000c FFF7FEFF 		bl	CyEnterCriticalSection
 1147 0010 031C     		mov	r3, r0
 1148 0012 2370     		strb	r3, [r4]
 834:.\Generated_Source\PSoC4/SignalGenerator.c **** 
 835:.\Generated_Source\PSoC4/SignalGenerator.c ****     SignalGenerator_CONTROL_REG &= (uint32)~SignalGenerator_RELOAD_PERIOD_MASK;
 1149              		.loc 1 835 0
 1150 0014 0B4B     		ldr	r3, .L69
 1151 0016 0B4A     		ldr	r2, .L69
 1152 0018 1268     		ldr	r2, [r2]
 1153 001a 0221     		mov	r1, #2
 1154 001c 8A43     		bic	r2, r1
 1155 001e 1A60     		str	r2, [r3]
 836:.\Generated_Source\PSoC4/SignalGenerator.c ****     SignalGenerator_CONTROL_REG |= ((uint32)((swapEnable & SignalGenerator_1BIT_MASK) <<
 1156              		.loc 1 836 0
 1157 0020 084B     		ldr	r3, .L69
 1158 0022 084A     		ldr	r2, .L69
 1159 0024 1168     		ldr	r1, [r2]
ARM GAS  C:\Users\JEFFRE~1\AppData\Local\Temp\ccRImAiW.s 			page 36


 1160 0026 7868     		ldr	r0, [r7, #4]
 1161 0028 0122     		mov	r2, #1
 1162 002a 0240     		and	r2, r0
 1163 002c 5200     		lsl	r2, r2, #1
 1164 002e 0A43     		orr	r2, r1
 1165 0030 1A60     		str	r2, [r3]
 837:.\Generated_Source\PSoC4/SignalGenerator.c ****                                                             SignalGenerator_RELOAD_PERIOD_SHIFT));
 838:.\Generated_Source\PSoC4/SignalGenerator.c **** 
 839:.\Generated_Source\PSoC4/SignalGenerator.c ****     CyExitCriticalSection(enableInterrupts);
 1166              		.loc 1 839 0
 1167 0032 3B1C     		mov	r3, r7
 1168 0034 0F33     		add	r3, r3, #15
 1169 0036 1B78     		ldrb	r3, [r3]
 1170 0038 181C     		mov	r0, r3
 1171 003a FFF7FEFF 		bl	CyExitCriticalSection
 840:.\Generated_Source\PSoC4/SignalGenerator.c **** }
 1172              		.loc 1 840 0
 1173 003e BD46     		mov	sp, r7
 1174 0040 05B0     		add	sp, sp, #20
 1175              		@ sp needed for prologue
 1176 0042 90BD     		pop	{r4, r7, pc}
 1177              	.L70:
 1178              		.align	2
 1179              	.L69:
 1180 0044 40010540 		.word	1074069824
 1181              		.cfi_endproc
 1182              	.LFE21:
 1183              		.size	SignalGenerator_SetPeriodSwap, .-SignalGenerator_SetPeriodSwap
 1184              		.section	.text.SignalGenerator_WriteCompare,"ax",%progbits
 1185              		.align	2
 1186              		.global	SignalGenerator_WriteCompare
 1187              		.code	16
 1188              		.thumb_func
 1189              		.type	SignalGenerator_WriteCompare, %function
 1190              	SignalGenerator_WriteCompare:
 1191              	.LFB22:
 841:.\Generated_Source\PSoC4/SignalGenerator.c **** 
 842:.\Generated_Source\PSoC4/SignalGenerator.c **** 
 843:.\Generated_Source\PSoC4/SignalGenerator.c **** /*******************************************************************************
 844:.\Generated_Source\PSoC4/SignalGenerator.c **** * Function Name: SignalGenerator_WriteCompare
 845:.\Generated_Source\PSoC4/SignalGenerator.c **** ********************************************************************************
 846:.\Generated_Source\PSoC4/SignalGenerator.c **** *
 847:.\Generated_Source\PSoC4/SignalGenerator.c **** * Summary:
 848:.\Generated_Source\PSoC4/SignalGenerator.c **** *  Writes the 16 bit compare register with the new compare value. Not
 849:.\Generated_Source\PSoC4/SignalGenerator.c **** *  applicable for Timer/Counter with Capture or in Quadrature Decoder modes.
 850:.\Generated_Source\PSoC4/SignalGenerator.c **** *
 851:.\Generated_Source\PSoC4/SignalGenerator.c **** * Parameters:
 852:.\Generated_Source\PSoC4/SignalGenerator.c **** *  compare: Compare value
 853:.\Generated_Source\PSoC4/SignalGenerator.c **** *
 854:.\Generated_Source\PSoC4/SignalGenerator.c **** * Return:
 855:.\Generated_Source\PSoC4/SignalGenerator.c **** *  None
 856:.\Generated_Source\PSoC4/SignalGenerator.c **** *
 857:.\Generated_Source\PSoC4/SignalGenerator.c **** *******************************************************************************/
 858:.\Generated_Source\PSoC4/SignalGenerator.c **** void SignalGenerator_WriteCompare(uint32 compare)
 859:.\Generated_Source\PSoC4/SignalGenerator.c **** {
 1192              		.loc 1 859 0
 1193              		.cfi_startproc
ARM GAS  C:\Users\JEFFRE~1\AppData\Local\Temp\ccRImAiW.s 			page 37


 1194 0000 80B5     		push	{r7, lr}
 1195              	.LCFI61:
 1196              		.cfi_def_cfa_offset 8
 1197              		.cfi_offset 7, -8
 1198              		.cfi_offset 14, -4
 1199 0002 82B0     		sub	sp, sp, #8
 1200              	.LCFI62:
 1201              		.cfi_def_cfa_offset 16
 1202 0004 00AF     		add	r7, sp, #0
 1203              	.LCFI63:
 1204              		.cfi_def_cfa_register 7
 1205 0006 7860     		str	r0, [r7, #4]
 860:.\Generated_Source\PSoC4/SignalGenerator.c ****     #if (SignalGenerator_CY_TCPWM_V2)
 861:.\Generated_Source\PSoC4/SignalGenerator.c ****         uint32 currentMode;
 862:.\Generated_Source\PSoC4/SignalGenerator.c ****     #endif /* (SignalGenerator_CY_TCPWM_V2) */
 863:.\Generated_Source\PSoC4/SignalGenerator.c **** 
 864:.\Generated_Source\PSoC4/SignalGenerator.c ****     #if (SignalGenerator_CY_TCPWM_V2)
 865:.\Generated_Source\PSoC4/SignalGenerator.c ****         currentMode = ((SignalGenerator_CONTROL_REG & SignalGenerator_UPDOWN_MASK) >> SignalGenerat
 866:.\Generated_Source\PSoC4/SignalGenerator.c **** 
 867:.\Generated_Source\PSoC4/SignalGenerator.c ****         if (SignalGenerator__COUNT_DOWN == currentMode)
 868:.\Generated_Source\PSoC4/SignalGenerator.c ****         {
 869:.\Generated_Source\PSoC4/SignalGenerator.c ****             SignalGenerator_COMP_CAP_REG = ((compare + 1u) & SignalGenerator_16BIT_MASK);
 870:.\Generated_Source\PSoC4/SignalGenerator.c ****         }
 871:.\Generated_Source\PSoC4/SignalGenerator.c ****         else if (SignalGenerator__COUNT_UP == currentMode)
 872:.\Generated_Source\PSoC4/SignalGenerator.c ****         {
 873:.\Generated_Source\PSoC4/SignalGenerator.c ****             SignalGenerator_COMP_CAP_REG = ((compare - 1u) & SignalGenerator_16BIT_MASK);
 874:.\Generated_Source\PSoC4/SignalGenerator.c ****         }
 875:.\Generated_Source\PSoC4/SignalGenerator.c ****         else
 876:.\Generated_Source\PSoC4/SignalGenerator.c ****         {
 877:.\Generated_Source\PSoC4/SignalGenerator.c ****             SignalGenerator_COMP_CAP_REG = (compare & SignalGenerator_16BIT_MASK);
 878:.\Generated_Source\PSoC4/SignalGenerator.c ****         }
 879:.\Generated_Source\PSoC4/SignalGenerator.c ****     #else
 880:.\Generated_Source\PSoC4/SignalGenerator.c ****         SignalGenerator_COMP_CAP_REG = (compare & SignalGenerator_16BIT_MASK);
 1206              		.loc 1 880 0
 1207 0008 034B     		ldr	r3, .L72
 1208 000a 7A68     		ldr	r2, [r7, #4]
 1209 000c 1204     		lsl	r2, r2, #16
 1210 000e 120C     		lsr	r2, r2, #16
 1211 0010 1A60     		str	r2, [r3]
 881:.\Generated_Source\PSoC4/SignalGenerator.c ****     #endif /* (SignalGenerator_CY_TCPWM_V2) */
 882:.\Generated_Source\PSoC4/SignalGenerator.c **** }
 1212              		.loc 1 882 0
 1213 0012 BD46     		mov	sp, r7
 1214 0014 02B0     		add	sp, sp, #8
 1215              		@ sp needed for prologue
 1216 0016 80BD     		pop	{r7, pc}
 1217              	.L73:
 1218              		.align	2
 1219              	.L72:
 1220 0018 4C010540 		.word	1074069836
 1221              		.cfi_endproc
 1222              	.LFE22:
 1223              		.size	SignalGenerator_WriteCompare, .-SignalGenerator_WriteCompare
 1224              		.section	.text.SignalGenerator_ReadCompare,"ax",%progbits
 1225              		.align	2
 1226              		.global	SignalGenerator_ReadCompare
 1227              		.code	16
ARM GAS  C:\Users\JEFFRE~1\AppData\Local\Temp\ccRImAiW.s 			page 38


 1228              		.thumb_func
 1229              		.type	SignalGenerator_ReadCompare, %function
 1230              	SignalGenerator_ReadCompare:
 1231              	.LFB23:
 883:.\Generated_Source\PSoC4/SignalGenerator.c **** 
 884:.\Generated_Source\PSoC4/SignalGenerator.c **** 
 885:.\Generated_Source\PSoC4/SignalGenerator.c **** /*******************************************************************************
 886:.\Generated_Source\PSoC4/SignalGenerator.c **** * Function Name: SignalGenerator_ReadCompare
 887:.\Generated_Source\PSoC4/SignalGenerator.c **** ********************************************************************************
 888:.\Generated_Source\PSoC4/SignalGenerator.c **** *
 889:.\Generated_Source\PSoC4/SignalGenerator.c **** * Summary:
 890:.\Generated_Source\PSoC4/SignalGenerator.c **** *  Reads the compare register. Not applicable for Timer/Counter with Capture
 891:.\Generated_Source\PSoC4/SignalGenerator.c **** *  or in Quadrature Decoder modes.
 892:.\Generated_Source\PSoC4/SignalGenerator.c **** *
 893:.\Generated_Source\PSoC4/SignalGenerator.c **** * Parameters:
 894:.\Generated_Source\PSoC4/SignalGenerator.c **** *  None
 895:.\Generated_Source\PSoC4/SignalGenerator.c **** *
 896:.\Generated_Source\PSoC4/SignalGenerator.c **** * Return:
 897:.\Generated_Source\PSoC4/SignalGenerator.c **** *  Compare value
 898:.\Generated_Source\PSoC4/SignalGenerator.c **** *
 899:.\Generated_Source\PSoC4/SignalGenerator.c **** *******************************************************************************/
 900:.\Generated_Source\PSoC4/SignalGenerator.c **** uint32 SignalGenerator_ReadCompare(void)
 901:.\Generated_Source\PSoC4/SignalGenerator.c **** {
 1232              		.loc 1 901 0
 1233              		.cfi_startproc
 1234 0000 80B5     		push	{r7, lr}
 1235              	.LCFI64:
 1236              		.cfi_def_cfa_offset 8
 1237              		.cfi_offset 7, -8
 1238              		.cfi_offset 14, -4
 1239 0002 00AF     		add	r7, sp, #0
 1240              	.LCFI65:
 1241              		.cfi_def_cfa_register 7
 902:.\Generated_Source\PSoC4/SignalGenerator.c ****     #if (SignalGenerator_CY_TCPWM_V2)
 903:.\Generated_Source\PSoC4/SignalGenerator.c ****         uint32 currentMode;
 904:.\Generated_Source\PSoC4/SignalGenerator.c ****         uint32 regVal;
 905:.\Generated_Source\PSoC4/SignalGenerator.c ****     #endif /* (SignalGenerator_CY_TCPWM_V2) */
 906:.\Generated_Source\PSoC4/SignalGenerator.c **** 
 907:.\Generated_Source\PSoC4/SignalGenerator.c ****     #if (SignalGenerator_CY_TCPWM_V2)
 908:.\Generated_Source\PSoC4/SignalGenerator.c ****         currentMode = ((SignalGenerator_CONTROL_REG & SignalGenerator_UPDOWN_MASK) >> SignalGenerat
 909:.\Generated_Source\PSoC4/SignalGenerator.c **** 
 910:.\Generated_Source\PSoC4/SignalGenerator.c ****         if (SignalGenerator__COUNT_DOWN == currentMode)
 911:.\Generated_Source\PSoC4/SignalGenerator.c ****         {
 912:.\Generated_Source\PSoC4/SignalGenerator.c ****             regVal = ((SignalGenerator_COMP_CAP_REG - 1u) & SignalGenerator_16BIT_MASK);
 913:.\Generated_Source\PSoC4/SignalGenerator.c ****         }
 914:.\Generated_Source\PSoC4/SignalGenerator.c ****         else if (SignalGenerator__COUNT_UP == currentMode)
 915:.\Generated_Source\PSoC4/SignalGenerator.c ****         {
 916:.\Generated_Source\PSoC4/SignalGenerator.c ****             regVal = ((SignalGenerator_COMP_CAP_REG + 1u) & SignalGenerator_16BIT_MASK);
 917:.\Generated_Source\PSoC4/SignalGenerator.c ****         }
 918:.\Generated_Source\PSoC4/SignalGenerator.c ****         else
 919:.\Generated_Source\PSoC4/SignalGenerator.c ****         {
 920:.\Generated_Source\PSoC4/SignalGenerator.c ****             regVal = (SignalGenerator_COMP_CAP_REG & SignalGenerator_16BIT_MASK);
 921:.\Generated_Source\PSoC4/SignalGenerator.c ****         }
 922:.\Generated_Source\PSoC4/SignalGenerator.c ****         return (regVal);
 923:.\Generated_Source\PSoC4/SignalGenerator.c ****     #else
 924:.\Generated_Source\PSoC4/SignalGenerator.c ****         return (SignalGenerator_COMP_CAP_REG & SignalGenerator_16BIT_MASK);
 1242              		.loc 1 924 0
ARM GAS  C:\Users\JEFFRE~1\AppData\Local\Temp\ccRImAiW.s 			page 39


 1243 0004 034B     		ldr	r3, .L76
 1244 0006 1B68     		ldr	r3, [r3]
 1245 0008 1B04     		lsl	r3, r3, #16
 1246 000a 1B0C     		lsr	r3, r3, #16
 925:.\Generated_Source\PSoC4/SignalGenerator.c ****     #endif /* (SignalGenerator_CY_TCPWM_V2) */
 926:.\Generated_Source\PSoC4/SignalGenerator.c **** }
 1247              		.loc 1 926 0
 1248 000c 181C     		mov	r0, r3
 1249 000e BD46     		mov	sp, r7
 1250              		@ sp needed for prologue
 1251 0010 80BD     		pop	{r7, pc}
 1252              	.L77:
 1253 0012 C046     		.align	2
 1254              	.L76:
 1255 0014 4C010540 		.word	1074069836
 1256              		.cfi_endproc
 1257              	.LFE23:
 1258              		.size	SignalGenerator_ReadCompare, .-SignalGenerator_ReadCompare
 1259              		.section	.text.SignalGenerator_WriteCompareBuf,"ax",%progbits
 1260              		.align	2
 1261              		.global	SignalGenerator_WriteCompareBuf
 1262              		.code	16
 1263              		.thumb_func
 1264              		.type	SignalGenerator_WriteCompareBuf, %function
 1265              	SignalGenerator_WriteCompareBuf:
 1266              	.LFB24:
 927:.\Generated_Source\PSoC4/SignalGenerator.c **** 
 928:.\Generated_Source\PSoC4/SignalGenerator.c **** 
 929:.\Generated_Source\PSoC4/SignalGenerator.c **** /*******************************************************************************
 930:.\Generated_Source\PSoC4/SignalGenerator.c **** * Function Name: SignalGenerator_WriteCompareBuf
 931:.\Generated_Source\PSoC4/SignalGenerator.c **** ********************************************************************************
 932:.\Generated_Source\PSoC4/SignalGenerator.c **** *
 933:.\Generated_Source\PSoC4/SignalGenerator.c **** * Summary:
 934:.\Generated_Source\PSoC4/SignalGenerator.c **** *  Writes the 16 bit compare buffer register with the new compare value. Not
 935:.\Generated_Source\PSoC4/SignalGenerator.c **** *  applicable for Timer/Counter with Capture or in Quadrature Decoder modes.
 936:.\Generated_Source\PSoC4/SignalGenerator.c **** *
 937:.\Generated_Source\PSoC4/SignalGenerator.c **** * Parameters:
 938:.\Generated_Source\PSoC4/SignalGenerator.c **** *  compareBuf: Compare value
 939:.\Generated_Source\PSoC4/SignalGenerator.c **** *
 940:.\Generated_Source\PSoC4/SignalGenerator.c **** * Return:
 941:.\Generated_Source\PSoC4/SignalGenerator.c **** *  None
 942:.\Generated_Source\PSoC4/SignalGenerator.c **** *
 943:.\Generated_Source\PSoC4/SignalGenerator.c **** *******************************************************************************/
 944:.\Generated_Source\PSoC4/SignalGenerator.c **** void SignalGenerator_WriteCompareBuf(uint32 compareBuf)
 945:.\Generated_Source\PSoC4/SignalGenerator.c **** {
 1267              		.loc 1 945 0
 1268              		.cfi_startproc
 1269 0000 80B5     		push	{r7, lr}
 1270              	.LCFI66:
 1271              		.cfi_def_cfa_offset 8
 1272              		.cfi_offset 7, -8
 1273              		.cfi_offset 14, -4
 1274 0002 82B0     		sub	sp, sp, #8
 1275              	.LCFI67:
 1276              		.cfi_def_cfa_offset 16
 1277 0004 00AF     		add	r7, sp, #0
 1278              	.LCFI68:
ARM GAS  C:\Users\JEFFRE~1\AppData\Local\Temp\ccRImAiW.s 			page 40


 1279              		.cfi_def_cfa_register 7
 1280 0006 7860     		str	r0, [r7, #4]
 946:.\Generated_Source\PSoC4/SignalGenerator.c ****     #if (SignalGenerator_CY_TCPWM_V2)
 947:.\Generated_Source\PSoC4/SignalGenerator.c ****         uint32 currentMode;
 948:.\Generated_Source\PSoC4/SignalGenerator.c ****     #endif /* (SignalGenerator_CY_TCPWM_V2) */
 949:.\Generated_Source\PSoC4/SignalGenerator.c **** 
 950:.\Generated_Source\PSoC4/SignalGenerator.c ****     #if (SignalGenerator_CY_TCPWM_V2)
 951:.\Generated_Source\PSoC4/SignalGenerator.c ****         currentMode = ((SignalGenerator_CONTROL_REG & SignalGenerator_UPDOWN_MASK) >> SignalGenerat
 952:.\Generated_Source\PSoC4/SignalGenerator.c **** 
 953:.\Generated_Source\PSoC4/SignalGenerator.c ****         if (SignalGenerator__COUNT_DOWN == currentMode)
 954:.\Generated_Source\PSoC4/SignalGenerator.c ****         {
 955:.\Generated_Source\PSoC4/SignalGenerator.c ****             SignalGenerator_COMP_CAP_BUF_REG = ((compareBuf + 1u) & SignalGenerator_16BIT_MASK);
 956:.\Generated_Source\PSoC4/SignalGenerator.c ****         }
 957:.\Generated_Source\PSoC4/SignalGenerator.c ****         else if (SignalGenerator__COUNT_UP == currentMode)
 958:.\Generated_Source\PSoC4/SignalGenerator.c ****         {
 959:.\Generated_Source\PSoC4/SignalGenerator.c ****             SignalGenerator_COMP_CAP_BUF_REG = ((compareBuf - 1u) & SignalGenerator_16BIT_MASK);
 960:.\Generated_Source\PSoC4/SignalGenerator.c ****         }
 961:.\Generated_Source\PSoC4/SignalGenerator.c ****         else
 962:.\Generated_Source\PSoC4/SignalGenerator.c ****         {
 963:.\Generated_Source\PSoC4/SignalGenerator.c ****             SignalGenerator_COMP_CAP_BUF_REG = (compareBuf & SignalGenerator_16BIT_MASK);
 964:.\Generated_Source\PSoC4/SignalGenerator.c ****         }
 965:.\Generated_Source\PSoC4/SignalGenerator.c ****     #else
 966:.\Generated_Source\PSoC4/SignalGenerator.c ****         SignalGenerator_COMP_CAP_BUF_REG = (compareBuf & SignalGenerator_16BIT_MASK);
 1281              		.loc 1 966 0
 1282 0008 034B     		ldr	r3, .L79
 1283 000a 7A68     		ldr	r2, [r7, #4]
 1284 000c 1204     		lsl	r2, r2, #16
 1285 000e 120C     		lsr	r2, r2, #16
 1286 0010 1A60     		str	r2, [r3]
 967:.\Generated_Source\PSoC4/SignalGenerator.c ****     #endif /* (SignalGenerator_CY_TCPWM_V2) */
 968:.\Generated_Source\PSoC4/SignalGenerator.c **** }
 1287              		.loc 1 968 0
 1288 0012 BD46     		mov	sp, r7
 1289 0014 02B0     		add	sp, sp, #8
 1290              		@ sp needed for prologue
 1291 0016 80BD     		pop	{r7, pc}
 1292              	.L80:
 1293              		.align	2
 1294              	.L79:
 1295 0018 50010540 		.word	1074069840
 1296              		.cfi_endproc
 1297              	.LFE24:
 1298              		.size	SignalGenerator_WriteCompareBuf, .-SignalGenerator_WriteCompareBuf
 1299              		.section	.text.SignalGenerator_ReadCompareBuf,"ax",%progbits
 1300              		.align	2
 1301              		.global	SignalGenerator_ReadCompareBuf
 1302              		.code	16
 1303              		.thumb_func
 1304              		.type	SignalGenerator_ReadCompareBuf, %function
 1305              	SignalGenerator_ReadCompareBuf:
 1306              	.LFB25:
 969:.\Generated_Source\PSoC4/SignalGenerator.c **** 
 970:.\Generated_Source\PSoC4/SignalGenerator.c **** 
 971:.\Generated_Source\PSoC4/SignalGenerator.c **** /*******************************************************************************
 972:.\Generated_Source\PSoC4/SignalGenerator.c **** * Function Name: SignalGenerator_ReadCompareBuf
 973:.\Generated_Source\PSoC4/SignalGenerator.c **** ********************************************************************************
 974:.\Generated_Source\PSoC4/SignalGenerator.c **** *
ARM GAS  C:\Users\JEFFRE~1\AppData\Local\Temp\ccRImAiW.s 			page 41


 975:.\Generated_Source\PSoC4/SignalGenerator.c **** * Summary:
 976:.\Generated_Source\PSoC4/SignalGenerator.c **** *  Reads the compare buffer register. Not applicable for Timer/Counter with
 977:.\Generated_Source\PSoC4/SignalGenerator.c **** *  Capture or in Quadrature Decoder modes.
 978:.\Generated_Source\PSoC4/SignalGenerator.c **** *
 979:.\Generated_Source\PSoC4/SignalGenerator.c **** * Parameters:
 980:.\Generated_Source\PSoC4/SignalGenerator.c **** *  None
 981:.\Generated_Source\PSoC4/SignalGenerator.c **** *
 982:.\Generated_Source\PSoC4/SignalGenerator.c **** * Return:
 983:.\Generated_Source\PSoC4/SignalGenerator.c **** *  Compare buffer value
 984:.\Generated_Source\PSoC4/SignalGenerator.c **** *
 985:.\Generated_Source\PSoC4/SignalGenerator.c **** *******************************************************************************/
 986:.\Generated_Source\PSoC4/SignalGenerator.c **** uint32 SignalGenerator_ReadCompareBuf(void)
 987:.\Generated_Source\PSoC4/SignalGenerator.c **** {
 1307              		.loc 1 987 0
 1308              		.cfi_startproc
 1309 0000 80B5     		push	{r7, lr}
 1310              	.LCFI69:
 1311              		.cfi_def_cfa_offset 8
 1312              		.cfi_offset 7, -8
 1313              		.cfi_offset 14, -4
 1314 0002 00AF     		add	r7, sp, #0
 1315              	.LCFI70:
 1316              		.cfi_def_cfa_register 7
 988:.\Generated_Source\PSoC4/SignalGenerator.c ****     #if (SignalGenerator_CY_TCPWM_V2)
 989:.\Generated_Source\PSoC4/SignalGenerator.c ****         uint32 currentMode;
 990:.\Generated_Source\PSoC4/SignalGenerator.c ****         uint32 regVal;
 991:.\Generated_Source\PSoC4/SignalGenerator.c ****     #endif /* (SignalGenerator_CY_TCPWM_V2) */
 992:.\Generated_Source\PSoC4/SignalGenerator.c **** 
 993:.\Generated_Source\PSoC4/SignalGenerator.c ****     #if (SignalGenerator_CY_TCPWM_V2)
 994:.\Generated_Source\PSoC4/SignalGenerator.c ****         currentMode = ((SignalGenerator_CONTROL_REG & SignalGenerator_UPDOWN_MASK) >> SignalGenerat
 995:.\Generated_Source\PSoC4/SignalGenerator.c **** 
 996:.\Generated_Source\PSoC4/SignalGenerator.c ****         if (SignalGenerator__COUNT_DOWN == currentMode)
 997:.\Generated_Source\PSoC4/SignalGenerator.c ****         {
 998:.\Generated_Source\PSoC4/SignalGenerator.c ****             regVal = ((SignalGenerator_COMP_CAP_BUF_REG - 1u) & SignalGenerator_16BIT_MASK);
 999:.\Generated_Source\PSoC4/SignalGenerator.c ****         }
1000:.\Generated_Source\PSoC4/SignalGenerator.c ****         else if (SignalGenerator__COUNT_UP == currentMode)
1001:.\Generated_Source\PSoC4/SignalGenerator.c ****         {
1002:.\Generated_Source\PSoC4/SignalGenerator.c ****             regVal = ((SignalGenerator_COMP_CAP_BUF_REG + 1u) & SignalGenerator_16BIT_MASK);
1003:.\Generated_Source\PSoC4/SignalGenerator.c ****         }
1004:.\Generated_Source\PSoC4/SignalGenerator.c ****         else
1005:.\Generated_Source\PSoC4/SignalGenerator.c ****         {
1006:.\Generated_Source\PSoC4/SignalGenerator.c ****             regVal = (SignalGenerator_COMP_CAP_BUF_REG & SignalGenerator_16BIT_MASK);
1007:.\Generated_Source\PSoC4/SignalGenerator.c ****         }
1008:.\Generated_Source\PSoC4/SignalGenerator.c ****         return (regVal);
1009:.\Generated_Source\PSoC4/SignalGenerator.c ****     #else
1010:.\Generated_Source\PSoC4/SignalGenerator.c ****         return (SignalGenerator_COMP_CAP_BUF_REG & SignalGenerator_16BIT_MASK);
 1317              		.loc 1 1010 0
 1318 0004 034B     		ldr	r3, .L83
 1319 0006 1B68     		ldr	r3, [r3]
 1320 0008 1B04     		lsl	r3, r3, #16
 1321 000a 1B0C     		lsr	r3, r3, #16
1011:.\Generated_Source\PSoC4/SignalGenerator.c ****     #endif /* (SignalGenerator_CY_TCPWM_V2) */
1012:.\Generated_Source\PSoC4/SignalGenerator.c **** }
 1322              		.loc 1 1012 0
 1323 000c 181C     		mov	r0, r3
 1324 000e BD46     		mov	sp, r7
 1325              		@ sp needed for prologue
ARM GAS  C:\Users\JEFFRE~1\AppData\Local\Temp\ccRImAiW.s 			page 42


 1326 0010 80BD     		pop	{r7, pc}
 1327              	.L84:
 1328 0012 C046     		.align	2
 1329              	.L83:
 1330 0014 50010540 		.word	1074069840
 1331              		.cfi_endproc
 1332              	.LFE25:
 1333              		.size	SignalGenerator_ReadCompareBuf, .-SignalGenerator_ReadCompareBuf
 1334              		.section	.text.SignalGenerator_ReadCapture,"ax",%progbits
 1335              		.align	2
 1336              		.global	SignalGenerator_ReadCapture
 1337              		.code	16
 1338              		.thumb_func
 1339              		.type	SignalGenerator_ReadCapture, %function
 1340              	SignalGenerator_ReadCapture:
 1341              	.LFB26:
1013:.\Generated_Source\PSoC4/SignalGenerator.c **** 
1014:.\Generated_Source\PSoC4/SignalGenerator.c **** 
1015:.\Generated_Source\PSoC4/SignalGenerator.c **** /*******************************************************************************
1016:.\Generated_Source\PSoC4/SignalGenerator.c **** * Function Name: SignalGenerator_ReadCapture
1017:.\Generated_Source\PSoC4/SignalGenerator.c **** ********************************************************************************
1018:.\Generated_Source\PSoC4/SignalGenerator.c **** *
1019:.\Generated_Source\PSoC4/SignalGenerator.c **** * Summary:
1020:.\Generated_Source\PSoC4/SignalGenerator.c **** *  Reads the captured counter value. This API is applicable only for
1021:.\Generated_Source\PSoC4/SignalGenerator.c **** *  Timer/Counter with the capture mode and Quadrature Decoder modes.
1022:.\Generated_Source\PSoC4/SignalGenerator.c **** *
1023:.\Generated_Source\PSoC4/SignalGenerator.c **** * Parameters:
1024:.\Generated_Source\PSoC4/SignalGenerator.c **** *  None
1025:.\Generated_Source\PSoC4/SignalGenerator.c **** *
1026:.\Generated_Source\PSoC4/SignalGenerator.c **** * Return:
1027:.\Generated_Source\PSoC4/SignalGenerator.c **** *  Capture value
1028:.\Generated_Source\PSoC4/SignalGenerator.c **** *
1029:.\Generated_Source\PSoC4/SignalGenerator.c **** *******************************************************************************/
1030:.\Generated_Source\PSoC4/SignalGenerator.c **** uint32 SignalGenerator_ReadCapture(void)
1031:.\Generated_Source\PSoC4/SignalGenerator.c **** {
 1342              		.loc 1 1031 0
 1343              		.cfi_startproc
 1344 0000 80B5     		push	{r7, lr}
 1345              	.LCFI71:
 1346              		.cfi_def_cfa_offset 8
 1347              		.cfi_offset 7, -8
 1348              		.cfi_offset 14, -4
 1349 0002 00AF     		add	r7, sp, #0
 1350              	.LCFI72:
 1351              		.cfi_def_cfa_register 7
1032:.\Generated_Source\PSoC4/SignalGenerator.c ****     return (SignalGenerator_COMP_CAP_REG & SignalGenerator_16BIT_MASK);
 1352              		.loc 1 1032 0
 1353 0004 034B     		ldr	r3, .L87
 1354 0006 1B68     		ldr	r3, [r3]
 1355 0008 1B04     		lsl	r3, r3, #16
 1356 000a 1B0C     		lsr	r3, r3, #16
1033:.\Generated_Source\PSoC4/SignalGenerator.c **** }
 1357              		.loc 1 1033 0
 1358 000c 181C     		mov	r0, r3
 1359 000e BD46     		mov	sp, r7
 1360              		@ sp needed for prologue
 1361 0010 80BD     		pop	{r7, pc}
ARM GAS  C:\Users\JEFFRE~1\AppData\Local\Temp\ccRImAiW.s 			page 43


 1362              	.L88:
 1363 0012 C046     		.align	2
 1364              	.L87:
 1365 0014 4C010540 		.word	1074069836
 1366              		.cfi_endproc
 1367              	.LFE26:
 1368              		.size	SignalGenerator_ReadCapture, .-SignalGenerator_ReadCapture
 1369              		.section	.text.SignalGenerator_ReadCaptureBuf,"ax",%progbits
 1370              		.align	2
 1371              		.global	SignalGenerator_ReadCaptureBuf
 1372              		.code	16
 1373              		.thumb_func
 1374              		.type	SignalGenerator_ReadCaptureBuf, %function
 1375              	SignalGenerator_ReadCaptureBuf:
 1376              	.LFB27:
1034:.\Generated_Source\PSoC4/SignalGenerator.c **** 
1035:.\Generated_Source\PSoC4/SignalGenerator.c **** 
1036:.\Generated_Source\PSoC4/SignalGenerator.c **** /*******************************************************************************
1037:.\Generated_Source\PSoC4/SignalGenerator.c **** * Function Name: SignalGenerator_ReadCaptureBuf
1038:.\Generated_Source\PSoC4/SignalGenerator.c **** ********************************************************************************
1039:.\Generated_Source\PSoC4/SignalGenerator.c **** *
1040:.\Generated_Source\PSoC4/SignalGenerator.c **** * Summary:
1041:.\Generated_Source\PSoC4/SignalGenerator.c **** *  Reads the capture buffer register. This API is applicable only for
1042:.\Generated_Source\PSoC4/SignalGenerator.c **** *  Timer/Counter with the capture mode and Quadrature Decoder modes.
1043:.\Generated_Source\PSoC4/SignalGenerator.c **** *
1044:.\Generated_Source\PSoC4/SignalGenerator.c **** * Parameters:
1045:.\Generated_Source\PSoC4/SignalGenerator.c **** *  None
1046:.\Generated_Source\PSoC4/SignalGenerator.c **** *
1047:.\Generated_Source\PSoC4/SignalGenerator.c **** * Return:
1048:.\Generated_Source\PSoC4/SignalGenerator.c **** *  Capture buffer value
1049:.\Generated_Source\PSoC4/SignalGenerator.c **** *
1050:.\Generated_Source\PSoC4/SignalGenerator.c **** *******************************************************************************/
1051:.\Generated_Source\PSoC4/SignalGenerator.c **** uint32 SignalGenerator_ReadCaptureBuf(void)
1052:.\Generated_Source\PSoC4/SignalGenerator.c **** {
 1377              		.loc 1 1052 0
 1378              		.cfi_startproc
 1379 0000 80B5     		push	{r7, lr}
 1380              	.LCFI73:
 1381              		.cfi_def_cfa_offset 8
 1382              		.cfi_offset 7, -8
 1383              		.cfi_offset 14, -4
 1384 0002 00AF     		add	r7, sp, #0
 1385              	.LCFI74:
 1386              		.cfi_def_cfa_register 7
1053:.\Generated_Source\PSoC4/SignalGenerator.c ****     return (SignalGenerator_COMP_CAP_BUF_REG & SignalGenerator_16BIT_MASK);
 1387              		.loc 1 1053 0
 1388 0004 034B     		ldr	r3, .L91
 1389 0006 1B68     		ldr	r3, [r3]
 1390 0008 1B04     		lsl	r3, r3, #16
 1391 000a 1B0C     		lsr	r3, r3, #16
1054:.\Generated_Source\PSoC4/SignalGenerator.c **** }
 1392              		.loc 1 1054 0
 1393 000c 181C     		mov	r0, r3
 1394 000e BD46     		mov	sp, r7
 1395              		@ sp needed for prologue
 1396 0010 80BD     		pop	{r7, pc}
 1397              	.L92:
ARM GAS  C:\Users\JEFFRE~1\AppData\Local\Temp\ccRImAiW.s 			page 44


 1398 0012 C046     		.align	2
 1399              	.L91:
 1400 0014 50010540 		.word	1074069840
 1401              		.cfi_endproc
 1402              	.LFE27:
 1403              		.size	SignalGenerator_ReadCaptureBuf, .-SignalGenerator_ReadCaptureBuf
 1404              		.section	.text.SignalGenerator_SetCaptureMode,"ax",%progbits
 1405              		.align	2
 1406              		.global	SignalGenerator_SetCaptureMode
 1407              		.code	16
 1408              		.thumb_func
 1409              		.type	SignalGenerator_SetCaptureMode, %function
 1410              	SignalGenerator_SetCaptureMode:
 1411              	.LFB28:
1055:.\Generated_Source\PSoC4/SignalGenerator.c **** 
1056:.\Generated_Source\PSoC4/SignalGenerator.c **** 
1057:.\Generated_Source\PSoC4/SignalGenerator.c **** /*******************************************************************************
1058:.\Generated_Source\PSoC4/SignalGenerator.c **** * Function Name: SignalGenerator_SetCaptureMode
1059:.\Generated_Source\PSoC4/SignalGenerator.c **** ********************************************************************************
1060:.\Generated_Source\PSoC4/SignalGenerator.c **** *
1061:.\Generated_Source\PSoC4/SignalGenerator.c **** * Summary:
1062:.\Generated_Source\PSoC4/SignalGenerator.c **** *  Sets the capture trigger mode. For PWM mode this is the switch input.
1063:.\Generated_Source\PSoC4/SignalGenerator.c **** *  This input is not applicable to the Timer/Counter without Capture and
1064:.\Generated_Source\PSoC4/SignalGenerator.c **** *  Quadrature Decoder modes.
1065:.\Generated_Source\PSoC4/SignalGenerator.c **** *
1066:.\Generated_Source\PSoC4/SignalGenerator.c **** * Parameters:
1067:.\Generated_Source\PSoC4/SignalGenerator.c **** *  triggerMode: Enumerated trigger mode value
1068:.\Generated_Source\PSoC4/SignalGenerator.c **** *   Values:
1069:.\Generated_Source\PSoC4/SignalGenerator.c **** *     - SignalGenerator_TRIG_LEVEL     - Level
1070:.\Generated_Source\PSoC4/SignalGenerator.c **** *     - SignalGenerator_TRIG_RISING    - Rising edge
1071:.\Generated_Source\PSoC4/SignalGenerator.c **** *     - SignalGenerator_TRIG_FALLING   - Falling edge
1072:.\Generated_Source\PSoC4/SignalGenerator.c **** *     - SignalGenerator_TRIG_BOTH      - Both rising and falling edge
1073:.\Generated_Source\PSoC4/SignalGenerator.c **** *
1074:.\Generated_Source\PSoC4/SignalGenerator.c **** * Return:
1075:.\Generated_Source\PSoC4/SignalGenerator.c **** *  None
1076:.\Generated_Source\PSoC4/SignalGenerator.c **** *
1077:.\Generated_Source\PSoC4/SignalGenerator.c **** *******************************************************************************/
1078:.\Generated_Source\PSoC4/SignalGenerator.c **** void SignalGenerator_SetCaptureMode(uint32 triggerMode)
1079:.\Generated_Source\PSoC4/SignalGenerator.c **** {
 1412              		.loc 1 1079 0
 1413              		.cfi_startproc
 1414 0000 90B5     		push	{r4, r7, lr}
 1415              	.LCFI75:
 1416              		.cfi_def_cfa_offset 12
 1417              		.cfi_offset 4, -12
 1418              		.cfi_offset 7, -8
 1419              		.cfi_offset 14, -4
 1420 0002 85B0     		sub	sp, sp, #20
 1421              	.LCFI76:
 1422              		.cfi_def_cfa_offset 32
 1423 0004 00AF     		add	r7, sp, #0
 1424              	.LCFI77:
 1425              		.cfi_def_cfa_register 7
 1426 0006 7860     		str	r0, [r7, #4]
1080:.\Generated_Source\PSoC4/SignalGenerator.c ****     uint8 enableInterrupts;
1081:.\Generated_Source\PSoC4/SignalGenerator.c **** 
1082:.\Generated_Source\PSoC4/SignalGenerator.c ****     enableInterrupts = CyEnterCriticalSection();
ARM GAS  C:\Users\JEFFRE~1\AppData\Local\Temp\ccRImAiW.s 			page 45


 1427              		.loc 1 1082 0
 1428 0008 3C1C     		mov	r4, r7
 1429 000a 0F34     		add	r4, r4, #15
 1430 000c FFF7FEFF 		bl	CyEnterCriticalSection
 1431 0010 031C     		mov	r3, r0
 1432 0012 2370     		strb	r3, [r4]
1083:.\Generated_Source\PSoC4/SignalGenerator.c **** 
1084:.\Generated_Source\PSoC4/SignalGenerator.c ****     SignalGenerator_TRIG_CONTROL1_REG &= (uint32)~SignalGenerator_CAPTURE_MASK;
 1433              		.loc 1 1084 0
 1434 0014 0A4B     		ldr	r3, .L94
 1435 0016 0A4A     		ldr	r2, .L94
 1436 0018 1268     		ldr	r2, [r2]
 1437 001a 0321     		mov	r1, #3
 1438 001c 8A43     		bic	r2, r1
 1439 001e 1A60     		str	r2, [r3]
1085:.\Generated_Source\PSoC4/SignalGenerator.c ****     SignalGenerator_TRIG_CONTROL1_REG |= triggerMode;
 1440              		.loc 1 1085 0
 1441 0020 074B     		ldr	r3, .L94
 1442 0022 074A     		ldr	r2, .L94
 1443 0024 1168     		ldr	r1, [r2]
 1444 0026 7A68     		ldr	r2, [r7, #4]
 1445 0028 0A43     		orr	r2, r1
 1446 002a 1A60     		str	r2, [r3]
1086:.\Generated_Source\PSoC4/SignalGenerator.c **** 
1087:.\Generated_Source\PSoC4/SignalGenerator.c ****     CyExitCriticalSection(enableInterrupts);
 1447              		.loc 1 1087 0
 1448 002c 3B1C     		mov	r3, r7
 1449 002e 0F33     		add	r3, r3, #15
 1450 0030 1B78     		ldrb	r3, [r3]
 1451 0032 181C     		mov	r0, r3
 1452 0034 FFF7FEFF 		bl	CyExitCriticalSection
1088:.\Generated_Source\PSoC4/SignalGenerator.c **** }
 1453              		.loc 1 1088 0
 1454 0038 BD46     		mov	sp, r7
 1455 003a 05B0     		add	sp, sp, #20
 1456              		@ sp needed for prologue
 1457 003c 90BD     		pop	{r4, r7, pc}
 1458              	.L95:
 1459 003e C046     		.align	2
 1460              	.L94:
 1461 0040 64010540 		.word	1074069860
 1462              		.cfi_endproc
 1463              	.LFE28:
 1464              		.size	SignalGenerator_SetCaptureMode, .-SignalGenerator_SetCaptureMode
 1465              		.section	.text.SignalGenerator_SetReloadMode,"ax",%progbits
 1466              		.align	2
 1467              		.global	SignalGenerator_SetReloadMode
 1468              		.code	16
 1469              		.thumb_func
 1470              		.type	SignalGenerator_SetReloadMode, %function
 1471              	SignalGenerator_SetReloadMode:
 1472              	.LFB29:
1089:.\Generated_Source\PSoC4/SignalGenerator.c **** 
1090:.\Generated_Source\PSoC4/SignalGenerator.c **** 
1091:.\Generated_Source\PSoC4/SignalGenerator.c **** /*******************************************************************************
1092:.\Generated_Source\PSoC4/SignalGenerator.c **** * Function Name: SignalGenerator_SetReloadMode
1093:.\Generated_Source\PSoC4/SignalGenerator.c **** ********************************************************************************
ARM GAS  C:\Users\JEFFRE~1\AppData\Local\Temp\ccRImAiW.s 			page 46


1094:.\Generated_Source\PSoC4/SignalGenerator.c **** *
1095:.\Generated_Source\PSoC4/SignalGenerator.c **** * Summary:
1096:.\Generated_Source\PSoC4/SignalGenerator.c **** *  Sets the reload trigger mode. For Quadrature Decoder mode this is the index
1097:.\Generated_Source\PSoC4/SignalGenerator.c **** *  input.
1098:.\Generated_Source\PSoC4/SignalGenerator.c **** *
1099:.\Generated_Source\PSoC4/SignalGenerator.c **** * Parameters:
1100:.\Generated_Source\PSoC4/SignalGenerator.c **** *  triggerMode: Enumerated trigger mode value
1101:.\Generated_Source\PSoC4/SignalGenerator.c **** *   Values:
1102:.\Generated_Source\PSoC4/SignalGenerator.c **** *     - SignalGenerator_TRIG_LEVEL     - Level
1103:.\Generated_Source\PSoC4/SignalGenerator.c **** *     - SignalGenerator_TRIG_RISING    - Rising edge
1104:.\Generated_Source\PSoC4/SignalGenerator.c **** *     - SignalGenerator_TRIG_FALLING   - Falling edge
1105:.\Generated_Source\PSoC4/SignalGenerator.c **** *     - SignalGenerator_TRIG_BOTH      - Both rising and falling edge
1106:.\Generated_Source\PSoC4/SignalGenerator.c **** *
1107:.\Generated_Source\PSoC4/SignalGenerator.c **** * Return:
1108:.\Generated_Source\PSoC4/SignalGenerator.c **** *  None
1109:.\Generated_Source\PSoC4/SignalGenerator.c **** *
1110:.\Generated_Source\PSoC4/SignalGenerator.c **** *******************************************************************************/
1111:.\Generated_Source\PSoC4/SignalGenerator.c **** void SignalGenerator_SetReloadMode(uint32 triggerMode)
1112:.\Generated_Source\PSoC4/SignalGenerator.c **** {
 1473              		.loc 1 1112 0
 1474              		.cfi_startproc
 1475 0000 90B5     		push	{r4, r7, lr}
 1476              	.LCFI78:
 1477              		.cfi_def_cfa_offset 12
 1478              		.cfi_offset 4, -12
 1479              		.cfi_offset 7, -8
 1480              		.cfi_offset 14, -4
 1481 0002 85B0     		sub	sp, sp, #20
 1482              	.LCFI79:
 1483              		.cfi_def_cfa_offset 32
 1484 0004 00AF     		add	r7, sp, #0
 1485              	.LCFI80:
 1486              		.cfi_def_cfa_register 7
 1487 0006 7860     		str	r0, [r7, #4]
1113:.\Generated_Source\PSoC4/SignalGenerator.c ****     uint8 enableInterrupts;
1114:.\Generated_Source\PSoC4/SignalGenerator.c **** 
1115:.\Generated_Source\PSoC4/SignalGenerator.c ****     enableInterrupts = CyEnterCriticalSection();
 1488              		.loc 1 1115 0
 1489 0008 3C1C     		mov	r4, r7
 1490 000a 0F34     		add	r4, r4, #15
 1491 000c FFF7FEFF 		bl	CyEnterCriticalSection
 1492 0010 031C     		mov	r3, r0
 1493 0012 2370     		strb	r3, [r4]
1116:.\Generated_Source\PSoC4/SignalGenerator.c **** 
1117:.\Generated_Source\PSoC4/SignalGenerator.c ****     SignalGenerator_TRIG_CONTROL1_REG &= (uint32)~SignalGenerator_RELOAD_MASK;
 1494              		.loc 1 1117 0
 1495 0014 0A4B     		ldr	r3, .L97
 1496 0016 0A4A     		ldr	r2, .L97
 1497 0018 1268     		ldr	r2, [r2]
 1498 001a 3021     		mov	r1, #48
 1499 001c 8A43     		bic	r2, r1
 1500 001e 1A60     		str	r2, [r3]
1118:.\Generated_Source\PSoC4/SignalGenerator.c ****     SignalGenerator_TRIG_CONTROL1_REG |= ((uint32)(triggerMode << SignalGenerator_RELOAD_SHIFT));
 1501              		.loc 1 1118 0
 1502 0020 074B     		ldr	r3, .L97
 1503 0022 074A     		ldr	r2, .L97
 1504 0024 1168     		ldr	r1, [r2]
ARM GAS  C:\Users\JEFFRE~1\AppData\Local\Temp\ccRImAiW.s 			page 47


 1505 0026 7A68     		ldr	r2, [r7, #4]
 1506 0028 1201     		lsl	r2, r2, #4
 1507 002a 0A43     		orr	r2, r1
 1508 002c 1A60     		str	r2, [r3]
1119:.\Generated_Source\PSoC4/SignalGenerator.c **** 
1120:.\Generated_Source\PSoC4/SignalGenerator.c ****     CyExitCriticalSection(enableInterrupts);
 1509              		.loc 1 1120 0
 1510 002e 3B1C     		mov	r3, r7
 1511 0030 0F33     		add	r3, r3, #15
 1512 0032 1B78     		ldrb	r3, [r3]
 1513 0034 181C     		mov	r0, r3
 1514 0036 FFF7FEFF 		bl	CyExitCriticalSection
1121:.\Generated_Source\PSoC4/SignalGenerator.c **** }
 1515              		.loc 1 1121 0
 1516 003a BD46     		mov	sp, r7
 1517 003c 05B0     		add	sp, sp, #20
 1518              		@ sp needed for prologue
 1519 003e 90BD     		pop	{r4, r7, pc}
 1520              	.L98:
 1521              		.align	2
 1522              	.L97:
 1523 0040 64010540 		.word	1074069860
 1524              		.cfi_endproc
 1525              	.LFE29:
 1526              		.size	SignalGenerator_SetReloadMode, .-SignalGenerator_SetReloadMode
 1527              		.section	.text.SignalGenerator_SetStartMode,"ax",%progbits
 1528              		.align	2
 1529              		.global	SignalGenerator_SetStartMode
 1530              		.code	16
 1531              		.thumb_func
 1532              		.type	SignalGenerator_SetStartMode, %function
 1533              	SignalGenerator_SetStartMode:
 1534              	.LFB30:
1122:.\Generated_Source\PSoC4/SignalGenerator.c **** 
1123:.\Generated_Source\PSoC4/SignalGenerator.c **** 
1124:.\Generated_Source\PSoC4/SignalGenerator.c **** /*******************************************************************************
1125:.\Generated_Source\PSoC4/SignalGenerator.c **** * Function Name: SignalGenerator_SetStartMode
1126:.\Generated_Source\PSoC4/SignalGenerator.c **** ********************************************************************************
1127:.\Generated_Source\PSoC4/SignalGenerator.c **** *
1128:.\Generated_Source\PSoC4/SignalGenerator.c **** * Summary:
1129:.\Generated_Source\PSoC4/SignalGenerator.c **** *  Sets the start trigger mode. For Quadrature Decoder mode this is the
1130:.\Generated_Source\PSoC4/SignalGenerator.c **** *  phiB input.
1131:.\Generated_Source\PSoC4/SignalGenerator.c **** *
1132:.\Generated_Source\PSoC4/SignalGenerator.c **** * Parameters:
1133:.\Generated_Source\PSoC4/SignalGenerator.c **** *  triggerMode: Enumerated trigger mode value
1134:.\Generated_Source\PSoC4/SignalGenerator.c **** *   Values:
1135:.\Generated_Source\PSoC4/SignalGenerator.c **** *     - SignalGenerator_TRIG_LEVEL     - Level
1136:.\Generated_Source\PSoC4/SignalGenerator.c **** *     - SignalGenerator_TRIG_RISING    - Rising edge
1137:.\Generated_Source\PSoC4/SignalGenerator.c **** *     - SignalGenerator_TRIG_FALLING   - Falling edge
1138:.\Generated_Source\PSoC4/SignalGenerator.c **** *     - SignalGenerator_TRIG_BOTH      - Both rising and falling edge
1139:.\Generated_Source\PSoC4/SignalGenerator.c **** *
1140:.\Generated_Source\PSoC4/SignalGenerator.c **** * Return:
1141:.\Generated_Source\PSoC4/SignalGenerator.c **** *  None
1142:.\Generated_Source\PSoC4/SignalGenerator.c **** *
1143:.\Generated_Source\PSoC4/SignalGenerator.c **** *******************************************************************************/
1144:.\Generated_Source\PSoC4/SignalGenerator.c **** void SignalGenerator_SetStartMode(uint32 triggerMode)
1145:.\Generated_Source\PSoC4/SignalGenerator.c **** {
ARM GAS  C:\Users\JEFFRE~1\AppData\Local\Temp\ccRImAiW.s 			page 48


 1535              		.loc 1 1145 0
 1536              		.cfi_startproc
 1537 0000 90B5     		push	{r4, r7, lr}
 1538              	.LCFI81:
 1539              		.cfi_def_cfa_offset 12
 1540              		.cfi_offset 4, -12
 1541              		.cfi_offset 7, -8
 1542              		.cfi_offset 14, -4
 1543 0002 85B0     		sub	sp, sp, #20
 1544              	.LCFI82:
 1545              		.cfi_def_cfa_offset 32
 1546 0004 00AF     		add	r7, sp, #0
 1547              	.LCFI83:
 1548              		.cfi_def_cfa_register 7
 1549 0006 7860     		str	r0, [r7, #4]
1146:.\Generated_Source\PSoC4/SignalGenerator.c ****     uint8 enableInterrupts;
1147:.\Generated_Source\PSoC4/SignalGenerator.c **** 
1148:.\Generated_Source\PSoC4/SignalGenerator.c ****     enableInterrupts = CyEnterCriticalSection();
 1550              		.loc 1 1148 0
 1551 0008 3C1C     		mov	r4, r7
 1552 000a 0F34     		add	r4, r4, #15
 1553 000c FFF7FEFF 		bl	CyEnterCriticalSection
 1554 0010 031C     		mov	r3, r0
 1555 0012 2370     		strb	r3, [r4]
1149:.\Generated_Source\PSoC4/SignalGenerator.c **** 
1150:.\Generated_Source\PSoC4/SignalGenerator.c ****     SignalGenerator_TRIG_CONTROL1_REG &= (uint32)~SignalGenerator_START_MASK;
 1556              		.loc 1 1150 0
 1557 0014 0A4B     		ldr	r3, .L100
 1558 0016 0A4A     		ldr	r2, .L100
 1559 0018 1168     		ldr	r1, [r2]
 1560 001a 0A4A     		ldr	r2, .L100+4
 1561 001c 0A40     		and	r2, r1
 1562 001e 1A60     		str	r2, [r3]
1151:.\Generated_Source\PSoC4/SignalGenerator.c ****     SignalGenerator_TRIG_CONTROL1_REG |= ((uint32)(triggerMode << SignalGenerator_START_SHIFT));
 1563              		.loc 1 1151 0
 1564 0020 074B     		ldr	r3, .L100
 1565 0022 074A     		ldr	r2, .L100
 1566 0024 1168     		ldr	r1, [r2]
 1567 0026 7A68     		ldr	r2, [r7, #4]
 1568 0028 1202     		lsl	r2, r2, #8
 1569 002a 0A43     		orr	r2, r1
 1570 002c 1A60     		str	r2, [r3]
1152:.\Generated_Source\PSoC4/SignalGenerator.c **** 
1153:.\Generated_Source\PSoC4/SignalGenerator.c ****     CyExitCriticalSection(enableInterrupts);
 1571              		.loc 1 1153 0
 1572 002e 3B1C     		mov	r3, r7
 1573 0030 0F33     		add	r3, r3, #15
 1574 0032 1B78     		ldrb	r3, [r3]
 1575 0034 181C     		mov	r0, r3
 1576 0036 FFF7FEFF 		bl	CyExitCriticalSection
1154:.\Generated_Source\PSoC4/SignalGenerator.c **** }
 1577              		.loc 1 1154 0
 1578 003a BD46     		mov	sp, r7
 1579 003c 05B0     		add	sp, sp, #20
 1580              		@ sp needed for prologue
 1581 003e 90BD     		pop	{r4, r7, pc}
 1582              	.L101:
ARM GAS  C:\Users\JEFFRE~1\AppData\Local\Temp\ccRImAiW.s 			page 49


 1583              		.align	2
 1584              	.L100:
 1585 0040 64010540 		.word	1074069860
 1586 0044 FFFCFFFF 		.word	-769
 1587              		.cfi_endproc
 1588              	.LFE30:
 1589              		.size	SignalGenerator_SetStartMode, .-SignalGenerator_SetStartMode
 1590              		.section	.text.SignalGenerator_SetStopMode,"ax",%progbits
 1591              		.align	2
 1592              		.global	SignalGenerator_SetStopMode
 1593              		.code	16
 1594              		.thumb_func
 1595              		.type	SignalGenerator_SetStopMode, %function
 1596              	SignalGenerator_SetStopMode:
 1597              	.LFB31:
1155:.\Generated_Source\PSoC4/SignalGenerator.c **** 
1156:.\Generated_Source\PSoC4/SignalGenerator.c **** 
1157:.\Generated_Source\PSoC4/SignalGenerator.c **** /*******************************************************************************
1158:.\Generated_Source\PSoC4/SignalGenerator.c **** * Function Name: SignalGenerator_SetStopMode
1159:.\Generated_Source\PSoC4/SignalGenerator.c **** ********************************************************************************
1160:.\Generated_Source\PSoC4/SignalGenerator.c **** *
1161:.\Generated_Source\PSoC4/SignalGenerator.c **** * Summary:
1162:.\Generated_Source\PSoC4/SignalGenerator.c **** *  Sets the stop trigger mode. For PWM mode this is the kill input.
1163:.\Generated_Source\PSoC4/SignalGenerator.c **** *
1164:.\Generated_Source\PSoC4/SignalGenerator.c **** * Parameters:
1165:.\Generated_Source\PSoC4/SignalGenerator.c **** *  triggerMode: Enumerated trigger mode value
1166:.\Generated_Source\PSoC4/SignalGenerator.c **** *   Values:
1167:.\Generated_Source\PSoC4/SignalGenerator.c **** *     - SignalGenerator_TRIG_LEVEL     - Level
1168:.\Generated_Source\PSoC4/SignalGenerator.c **** *     - SignalGenerator_TRIG_RISING    - Rising edge
1169:.\Generated_Source\PSoC4/SignalGenerator.c **** *     - SignalGenerator_TRIG_FALLING   - Falling edge
1170:.\Generated_Source\PSoC4/SignalGenerator.c **** *     - SignalGenerator_TRIG_BOTH      - Both rising and falling edge
1171:.\Generated_Source\PSoC4/SignalGenerator.c **** *
1172:.\Generated_Source\PSoC4/SignalGenerator.c **** * Return:
1173:.\Generated_Source\PSoC4/SignalGenerator.c **** *  None
1174:.\Generated_Source\PSoC4/SignalGenerator.c **** *
1175:.\Generated_Source\PSoC4/SignalGenerator.c **** *******************************************************************************/
1176:.\Generated_Source\PSoC4/SignalGenerator.c **** void SignalGenerator_SetStopMode(uint32 triggerMode)
1177:.\Generated_Source\PSoC4/SignalGenerator.c **** {
 1598              		.loc 1 1177 0
 1599              		.cfi_startproc
 1600 0000 90B5     		push	{r4, r7, lr}
 1601              	.LCFI84:
 1602              		.cfi_def_cfa_offset 12
 1603              		.cfi_offset 4, -12
 1604              		.cfi_offset 7, -8
 1605              		.cfi_offset 14, -4
 1606 0002 85B0     		sub	sp, sp, #20
 1607              	.LCFI85:
 1608              		.cfi_def_cfa_offset 32
 1609 0004 00AF     		add	r7, sp, #0
 1610              	.LCFI86:
 1611              		.cfi_def_cfa_register 7
 1612 0006 7860     		str	r0, [r7, #4]
1178:.\Generated_Source\PSoC4/SignalGenerator.c ****     uint8 enableInterrupts;
1179:.\Generated_Source\PSoC4/SignalGenerator.c **** 
1180:.\Generated_Source\PSoC4/SignalGenerator.c ****     enableInterrupts = CyEnterCriticalSection();
 1613              		.loc 1 1180 0
ARM GAS  C:\Users\JEFFRE~1\AppData\Local\Temp\ccRImAiW.s 			page 50


 1614 0008 3C1C     		mov	r4, r7
 1615 000a 0F34     		add	r4, r4, #15
 1616 000c FFF7FEFF 		bl	CyEnterCriticalSection
 1617 0010 031C     		mov	r3, r0
 1618 0012 2370     		strb	r3, [r4]
1181:.\Generated_Source\PSoC4/SignalGenerator.c **** 
1182:.\Generated_Source\PSoC4/SignalGenerator.c ****     SignalGenerator_TRIG_CONTROL1_REG &= (uint32)~SignalGenerator_STOP_MASK;
 1619              		.loc 1 1182 0
 1620 0014 0A4B     		ldr	r3, .L103
 1621 0016 0A4A     		ldr	r2, .L103
 1622 0018 1268     		ldr	r2, [r2]
 1623 001a C021     		mov	r1, #192
 1624 001c 8A43     		bic	r2, r1
 1625 001e 1A60     		str	r2, [r3]
1183:.\Generated_Source\PSoC4/SignalGenerator.c ****     SignalGenerator_TRIG_CONTROL1_REG |= ((uint32)(triggerMode << SignalGenerator_STOP_SHIFT));
 1626              		.loc 1 1183 0
 1627 0020 074B     		ldr	r3, .L103
 1628 0022 074A     		ldr	r2, .L103
 1629 0024 1168     		ldr	r1, [r2]
 1630 0026 7A68     		ldr	r2, [r7, #4]
 1631 0028 9201     		lsl	r2, r2, #6
 1632 002a 0A43     		orr	r2, r1
 1633 002c 1A60     		str	r2, [r3]
1184:.\Generated_Source\PSoC4/SignalGenerator.c **** 
1185:.\Generated_Source\PSoC4/SignalGenerator.c ****     CyExitCriticalSection(enableInterrupts);
 1634              		.loc 1 1185 0
 1635 002e 3B1C     		mov	r3, r7
 1636 0030 0F33     		add	r3, r3, #15
 1637 0032 1B78     		ldrb	r3, [r3]
 1638 0034 181C     		mov	r0, r3
 1639 0036 FFF7FEFF 		bl	CyExitCriticalSection
1186:.\Generated_Source\PSoC4/SignalGenerator.c **** }
 1640              		.loc 1 1186 0
 1641 003a BD46     		mov	sp, r7
 1642 003c 05B0     		add	sp, sp, #20
 1643              		@ sp needed for prologue
 1644 003e 90BD     		pop	{r4, r7, pc}
 1645              	.L104:
 1646              		.align	2
 1647              	.L103:
 1648 0040 64010540 		.word	1074069860
 1649              		.cfi_endproc
 1650              	.LFE31:
 1651              		.size	SignalGenerator_SetStopMode, .-SignalGenerator_SetStopMode
 1652              		.section	.text.SignalGenerator_SetCountMode,"ax",%progbits
 1653              		.align	2
 1654              		.global	SignalGenerator_SetCountMode
 1655              		.code	16
 1656              		.thumb_func
 1657              		.type	SignalGenerator_SetCountMode, %function
 1658              	SignalGenerator_SetCountMode:
 1659              	.LFB32:
1187:.\Generated_Source\PSoC4/SignalGenerator.c **** 
1188:.\Generated_Source\PSoC4/SignalGenerator.c **** 
1189:.\Generated_Source\PSoC4/SignalGenerator.c **** /*******************************************************************************
1190:.\Generated_Source\PSoC4/SignalGenerator.c **** * Function Name: SignalGenerator_SetCountMode
1191:.\Generated_Source\PSoC4/SignalGenerator.c **** ********************************************************************************
ARM GAS  C:\Users\JEFFRE~1\AppData\Local\Temp\ccRImAiW.s 			page 51


1192:.\Generated_Source\PSoC4/SignalGenerator.c **** *
1193:.\Generated_Source\PSoC4/SignalGenerator.c **** * Summary:
1194:.\Generated_Source\PSoC4/SignalGenerator.c **** *  Sets the count trigger mode. For Quadrature Decoder mode this is the phiA
1195:.\Generated_Source\PSoC4/SignalGenerator.c **** *  input.
1196:.\Generated_Source\PSoC4/SignalGenerator.c **** *
1197:.\Generated_Source\PSoC4/SignalGenerator.c **** * Parameters:
1198:.\Generated_Source\PSoC4/SignalGenerator.c **** *  triggerMode: Enumerated trigger mode value
1199:.\Generated_Source\PSoC4/SignalGenerator.c **** *   Values:
1200:.\Generated_Source\PSoC4/SignalGenerator.c **** *     - SignalGenerator_TRIG_LEVEL     - Level
1201:.\Generated_Source\PSoC4/SignalGenerator.c **** *     - SignalGenerator_TRIG_RISING    - Rising edge
1202:.\Generated_Source\PSoC4/SignalGenerator.c **** *     - SignalGenerator_TRIG_FALLING   - Falling edge
1203:.\Generated_Source\PSoC4/SignalGenerator.c **** *     - SignalGenerator_TRIG_BOTH      - Both rising and falling edge
1204:.\Generated_Source\PSoC4/SignalGenerator.c **** *
1205:.\Generated_Source\PSoC4/SignalGenerator.c **** * Return:
1206:.\Generated_Source\PSoC4/SignalGenerator.c **** *  None
1207:.\Generated_Source\PSoC4/SignalGenerator.c **** *
1208:.\Generated_Source\PSoC4/SignalGenerator.c **** *******************************************************************************/
1209:.\Generated_Source\PSoC4/SignalGenerator.c **** void SignalGenerator_SetCountMode(uint32 triggerMode)
1210:.\Generated_Source\PSoC4/SignalGenerator.c **** {
 1660              		.loc 1 1210 0
 1661              		.cfi_startproc
 1662 0000 90B5     		push	{r4, r7, lr}
 1663              	.LCFI87:
 1664              		.cfi_def_cfa_offset 12
 1665              		.cfi_offset 4, -12
 1666              		.cfi_offset 7, -8
 1667              		.cfi_offset 14, -4
 1668 0002 85B0     		sub	sp, sp, #20
 1669              	.LCFI88:
 1670              		.cfi_def_cfa_offset 32
 1671 0004 00AF     		add	r7, sp, #0
 1672              	.LCFI89:
 1673              		.cfi_def_cfa_register 7
 1674 0006 7860     		str	r0, [r7, #4]
1211:.\Generated_Source\PSoC4/SignalGenerator.c ****     uint8 enableInterrupts;
1212:.\Generated_Source\PSoC4/SignalGenerator.c **** 
1213:.\Generated_Source\PSoC4/SignalGenerator.c ****     enableInterrupts = CyEnterCriticalSection();
 1675              		.loc 1 1213 0
 1676 0008 3C1C     		mov	r4, r7
 1677 000a 0F34     		add	r4, r4, #15
 1678 000c FFF7FEFF 		bl	CyEnterCriticalSection
 1679 0010 031C     		mov	r3, r0
 1680 0012 2370     		strb	r3, [r4]
1214:.\Generated_Source\PSoC4/SignalGenerator.c **** 
1215:.\Generated_Source\PSoC4/SignalGenerator.c ****     SignalGenerator_TRIG_CONTROL1_REG &= (uint32)~SignalGenerator_COUNT_MASK;
 1681              		.loc 1 1215 0
 1682 0014 0A4B     		ldr	r3, .L106
 1683 0016 0A4A     		ldr	r2, .L106
 1684 0018 1268     		ldr	r2, [r2]
 1685 001a 0C21     		mov	r1, #12
 1686 001c 8A43     		bic	r2, r1
 1687 001e 1A60     		str	r2, [r3]
1216:.\Generated_Source\PSoC4/SignalGenerator.c ****     SignalGenerator_TRIG_CONTROL1_REG |= ((uint32)(triggerMode << SignalGenerator_COUNT_SHIFT));
 1688              		.loc 1 1216 0
 1689 0020 074B     		ldr	r3, .L106
 1690 0022 074A     		ldr	r2, .L106
 1691 0024 1168     		ldr	r1, [r2]
ARM GAS  C:\Users\JEFFRE~1\AppData\Local\Temp\ccRImAiW.s 			page 52


 1692 0026 7A68     		ldr	r2, [r7, #4]
 1693 0028 9200     		lsl	r2, r2, #2
 1694 002a 0A43     		orr	r2, r1
 1695 002c 1A60     		str	r2, [r3]
1217:.\Generated_Source\PSoC4/SignalGenerator.c **** 
1218:.\Generated_Source\PSoC4/SignalGenerator.c ****     CyExitCriticalSection(enableInterrupts);
 1696              		.loc 1 1218 0
 1697 002e 3B1C     		mov	r3, r7
 1698 0030 0F33     		add	r3, r3, #15
 1699 0032 1B78     		ldrb	r3, [r3]
 1700 0034 181C     		mov	r0, r3
 1701 0036 FFF7FEFF 		bl	CyExitCriticalSection
1219:.\Generated_Source\PSoC4/SignalGenerator.c **** }
 1702              		.loc 1 1219 0
 1703 003a BD46     		mov	sp, r7
 1704 003c 05B0     		add	sp, sp, #20
 1705              		@ sp needed for prologue
 1706 003e 90BD     		pop	{r4, r7, pc}
 1707              	.L107:
 1708              		.align	2
 1709              	.L106:
 1710 0040 64010540 		.word	1074069860
 1711              		.cfi_endproc
 1712              	.LFE32:
 1713              		.size	SignalGenerator_SetCountMode, .-SignalGenerator_SetCountMode
 1714              		.section	.text.SignalGenerator_TriggerCommand,"ax",%progbits
 1715              		.align	2
 1716              		.global	SignalGenerator_TriggerCommand
 1717              		.code	16
 1718              		.thumb_func
 1719              		.type	SignalGenerator_TriggerCommand, %function
 1720              	SignalGenerator_TriggerCommand:
 1721              	.LFB33:
1220:.\Generated_Source\PSoC4/SignalGenerator.c **** 
1221:.\Generated_Source\PSoC4/SignalGenerator.c **** 
1222:.\Generated_Source\PSoC4/SignalGenerator.c **** /*******************************************************************************
1223:.\Generated_Source\PSoC4/SignalGenerator.c **** * Function Name: SignalGenerator_TriggerCommand
1224:.\Generated_Source\PSoC4/SignalGenerator.c **** ********************************************************************************
1225:.\Generated_Source\PSoC4/SignalGenerator.c **** *
1226:.\Generated_Source\PSoC4/SignalGenerator.c **** * Summary:
1227:.\Generated_Source\PSoC4/SignalGenerator.c **** *  Triggers the designated command to occur on the designated TCPWM instances.
1228:.\Generated_Source\PSoC4/SignalGenerator.c **** *  The mask can be used to apply this command simultaneously to more than one
1229:.\Generated_Source\PSoC4/SignalGenerator.c **** *  instance.  This allows multiple TCPWM instances to be synchronized.
1230:.\Generated_Source\PSoC4/SignalGenerator.c **** *
1231:.\Generated_Source\PSoC4/SignalGenerator.c **** * Parameters:
1232:.\Generated_Source\PSoC4/SignalGenerator.c **** *  mask: A combination of mask bits for each instance of the TCPWM that the
1233:.\Generated_Source\PSoC4/SignalGenerator.c **** *        command should apply to.  This function from one instance can be used
1234:.\Generated_Source\PSoC4/SignalGenerator.c **** *        to apply the command to any of the instances in the design.
1235:.\Generated_Source\PSoC4/SignalGenerator.c **** *        The mask value for a specific instance is available with the MASK
1236:.\Generated_Source\PSoC4/SignalGenerator.c **** *        define.
1237:.\Generated_Source\PSoC4/SignalGenerator.c **** *  command: Enumerated command values. Capture command only applicable for
1238:.\Generated_Source\PSoC4/SignalGenerator.c **** *           Timer/Counter with Capture and PWM modes.
1239:.\Generated_Source\PSoC4/SignalGenerator.c **** *   Values:
1240:.\Generated_Source\PSoC4/SignalGenerator.c **** *     - SignalGenerator_CMD_CAPTURE    - Trigger Capture command
1241:.\Generated_Source\PSoC4/SignalGenerator.c **** *     - SignalGenerator_CMD_RELOAD     - Trigger Reload command
1242:.\Generated_Source\PSoC4/SignalGenerator.c **** *     - SignalGenerator_CMD_STOP       - Trigger Stop command
1243:.\Generated_Source\PSoC4/SignalGenerator.c **** *     - SignalGenerator_CMD_START      - Trigger Start command
ARM GAS  C:\Users\JEFFRE~1\AppData\Local\Temp\ccRImAiW.s 			page 53


1244:.\Generated_Source\PSoC4/SignalGenerator.c **** *
1245:.\Generated_Source\PSoC4/SignalGenerator.c **** * Return:
1246:.\Generated_Source\PSoC4/SignalGenerator.c **** *  None
1247:.\Generated_Source\PSoC4/SignalGenerator.c **** *
1248:.\Generated_Source\PSoC4/SignalGenerator.c **** *******************************************************************************/
1249:.\Generated_Source\PSoC4/SignalGenerator.c **** void SignalGenerator_TriggerCommand(uint32 mask, uint32 command)
1250:.\Generated_Source\PSoC4/SignalGenerator.c **** {
 1722              		.loc 1 1250 0
 1723              		.cfi_startproc
 1724 0000 90B5     		push	{r4, r7, lr}
 1725              	.LCFI90:
 1726              		.cfi_def_cfa_offset 12
 1727              		.cfi_offset 4, -12
 1728              		.cfi_offset 7, -8
 1729              		.cfi_offset 14, -4
 1730 0002 85B0     		sub	sp, sp, #20
 1731              	.LCFI91:
 1732              		.cfi_def_cfa_offset 32
 1733 0004 00AF     		add	r7, sp, #0
 1734              	.LCFI92:
 1735              		.cfi_def_cfa_register 7
 1736 0006 7860     		str	r0, [r7, #4]
 1737 0008 3960     		str	r1, [r7]
1251:.\Generated_Source\PSoC4/SignalGenerator.c ****     uint8 enableInterrupts;
1252:.\Generated_Source\PSoC4/SignalGenerator.c **** 
1253:.\Generated_Source\PSoC4/SignalGenerator.c ****     enableInterrupts = CyEnterCriticalSection();
 1738              		.loc 1 1253 0
 1739 000a 3C1C     		mov	r4, r7
 1740 000c 0F34     		add	r4, r4, #15
 1741 000e FFF7FEFF 		bl	CyEnterCriticalSection
 1742 0012 031C     		mov	r3, r0
 1743 0014 2370     		strb	r3, [r4]
1254:.\Generated_Source\PSoC4/SignalGenerator.c **** 
1255:.\Generated_Source\PSoC4/SignalGenerator.c ****     SignalGenerator_COMMAND_REG = ((uint32)(mask << command));
 1744              		.loc 1 1255 0
 1745 0016 084B     		ldr	r3, .L109
 1746 0018 3A68     		ldr	r2, [r7]
 1747 001a 7968     		ldr	r1, [r7, #4]
 1748 001c 081C     		mov	r0, r1
 1749 001e 9040     		lsl	r0, r0, r2
 1750 0020 021C     		mov	r2, r0
 1751 0022 1A60     		str	r2, [r3]
1256:.\Generated_Source\PSoC4/SignalGenerator.c **** 
1257:.\Generated_Source\PSoC4/SignalGenerator.c ****     CyExitCriticalSection(enableInterrupts);
 1752              		.loc 1 1257 0
 1753 0024 3B1C     		mov	r3, r7
 1754 0026 0F33     		add	r3, r3, #15
 1755 0028 1B78     		ldrb	r3, [r3]
 1756 002a 181C     		mov	r0, r3
 1757 002c FFF7FEFF 		bl	CyExitCriticalSection
1258:.\Generated_Source\PSoC4/SignalGenerator.c **** }
 1758              		.loc 1 1258 0
 1759 0030 BD46     		mov	sp, r7
 1760 0032 05B0     		add	sp, sp, #20
 1761              		@ sp needed for prologue
 1762 0034 90BD     		pop	{r4, r7, pc}
 1763              	.L110:
ARM GAS  C:\Users\JEFFRE~1\AppData\Local\Temp\ccRImAiW.s 			page 54


 1764 0036 C046     		.align	2
 1765              	.L109:
 1766 0038 08000540 		.word	1074069512
 1767              		.cfi_endproc
 1768              	.LFE33:
 1769              		.size	SignalGenerator_TriggerCommand, .-SignalGenerator_TriggerCommand
 1770              		.section	.text.SignalGenerator_ReadStatus,"ax",%progbits
 1771              		.align	2
 1772              		.global	SignalGenerator_ReadStatus
 1773              		.code	16
 1774              		.thumb_func
 1775              		.type	SignalGenerator_ReadStatus, %function
 1776              	SignalGenerator_ReadStatus:
 1777              	.LFB34:
1259:.\Generated_Source\PSoC4/SignalGenerator.c **** 
1260:.\Generated_Source\PSoC4/SignalGenerator.c **** 
1261:.\Generated_Source\PSoC4/SignalGenerator.c **** /*******************************************************************************
1262:.\Generated_Source\PSoC4/SignalGenerator.c **** * Function Name: SignalGenerator_ReadStatus
1263:.\Generated_Source\PSoC4/SignalGenerator.c **** ********************************************************************************
1264:.\Generated_Source\PSoC4/SignalGenerator.c **** *
1265:.\Generated_Source\PSoC4/SignalGenerator.c **** * Summary:
1266:.\Generated_Source\PSoC4/SignalGenerator.c **** *  Reads the status of the SignalGenerator.
1267:.\Generated_Source\PSoC4/SignalGenerator.c **** *
1268:.\Generated_Source\PSoC4/SignalGenerator.c **** * Parameters:
1269:.\Generated_Source\PSoC4/SignalGenerator.c **** *  None
1270:.\Generated_Source\PSoC4/SignalGenerator.c **** *
1271:.\Generated_Source\PSoC4/SignalGenerator.c **** * Return:
1272:.\Generated_Source\PSoC4/SignalGenerator.c **** *  Status
1273:.\Generated_Source\PSoC4/SignalGenerator.c **** *   Values:
1274:.\Generated_Source\PSoC4/SignalGenerator.c **** *     - SignalGenerator_STATUS_DOWN    - Set if counting down
1275:.\Generated_Source\PSoC4/SignalGenerator.c **** *     - SignalGenerator_STATUS_RUNNING - Set if counter is running
1276:.\Generated_Source\PSoC4/SignalGenerator.c **** *
1277:.\Generated_Source\PSoC4/SignalGenerator.c **** *******************************************************************************/
1278:.\Generated_Source\PSoC4/SignalGenerator.c **** uint32 SignalGenerator_ReadStatus(void)
1279:.\Generated_Source\PSoC4/SignalGenerator.c **** {
 1778              		.loc 1 1279 0
 1779              		.cfi_startproc
 1780 0000 80B5     		push	{r7, lr}
 1781              	.LCFI93:
 1782              		.cfi_def_cfa_offset 8
 1783              		.cfi_offset 7, -8
 1784              		.cfi_offset 14, -4
 1785 0002 00AF     		add	r7, sp, #0
 1786              	.LCFI94:
 1787              		.cfi_def_cfa_register 7
1280:.\Generated_Source\PSoC4/SignalGenerator.c ****     return ((SignalGenerator_STATUS_REG >> SignalGenerator_RUNNING_STATUS_SHIFT) |
 1788              		.loc 1 1280 0
 1789 0004 054B     		ldr	r3, .L113
 1790 0006 1B68     		ldr	r3, [r3]
 1791 0008 9A0F     		lsr	r2, r3, #30
1281:.\Generated_Source\PSoC4/SignalGenerator.c ****             (SignalGenerator_STATUS_REG & SignalGenerator_STATUS_DOWN));
 1792              		.loc 1 1281 0
 1793 000a 044B     		ldr	r3, .L113
 1794 000c 1968     		ldr	r1, [r3]
 1795 000e 0123     		mov	r3, #1
 1796 0010 0B40     		and	r3, r1
1280:.\Generated_Source\PSoC4/SignalGenerator.c ****     return ((SignalGenerator_STATUS_REG >> SignalGenerator_RUNNING_STATUS_SHIFT) |
ARM GAS  C:\Users\JEFFRE~1\AppData\Local\Temp\ccRImAiW.s 			page 55


 1797              		.loc 1 1280 0
 1798 0012 1343     		orr	r3, r2
1282:.\Generated_Source\PSoC4/SignalGenerator.c **** }
 1799              		.loc 1 1282 0
 1800 0014 181C     		mov	r0, r3
 1801 0016 BD46     		mov	sp, r7
 1802              		@ sp needed for prologue
 1803 0018 80BD     		pop	{r7, pc}
 1804              	.L114:
 1805 001a C046     		.align	2
 1806              	.L113:
 1807 001c 44010540 		.word	1074069828
 1808              		.cfi_endproc
 1809              	.LFE34:
 1810              		.size	SignalGenerator_ReadStatus, .-SignalGenerator_ReadStatus
 1811              		.section	.text.SignalGenerator_SetInterruptMode,"ax",%progbits
 1812              		.align	2
 1813              		.global	SignalGenerator_SetInterruptMode
 1814              		.code	16
 1815              		.thumb_func
 1816              		.type	SignalGenerator_SetInterruptMode, %function
 1817              	SignalGenerator_SetInterruptMode:
 1818              	.LFB35:
1283:.\Generated_Source\PSoC4/SignalGenerator.c **** 
1284:.\Generated_Source\PSoC4/SignalGenerator.c **** 
1285:.\Generated_Source\PSoC4/SignalGenerator.c **** /*******************************************************************************
1286:.\Generated_Source\PSoC4/SignalGenerator.c **** * Function Name: SignalGenerator_SetInterruptMode
1287:.\Generated_Source\PSoC4/SignalGenerator.c **** ********************************************************************************
1288:.\Generated_Source\PSoC4/SignalGenerator.c **** *
1289:.\Generated_Source\PSoC4/SignalGenerator.c **** * Summary:
1290:.\Generated_Source\PSoC4/SignalGenerator.c **** *  Sets the interrupt mask to control which interrupt
1291:.\Generated_Source\PSoC4/SignalGenerator.c **** *  requests generate the interrupt signal.
1292:.\Generated_Source\PSoC4/SignalGenerator.c **** *
1293:.\Generated_Source\PSoC4/SignalGenerator.c **** * Parameters:
1294:.\Generated_Source\PSoC4/SignalGenerator.c **** *   interruptMask: Mask of bits to be enabled
1295:.\Generated_Source\PSoC4/SignalGenerator.c **** *   Values:
1296:.\Generated_Source\PSoC4/SignalGenerator.c **** *     - SignalGenerator_INTR_MASK_TC       - Terminal count mask
1297:.\Generated_Source\PSoC4/SignalGenerator.c **** *     - SignalGenerator_INTR_MASK_CC_MATCH - Compare count / capture mask
1298:.\Generated_Source\PSoC4/SignalGenerator.c **** *
1299:.\Generated_Source\PSoC4/SignalGenerator.c **** * Return:
1300:.\Generated_Source\PSoC4/SignalGenerator.c **** *  None
1301:.\Generated_Source\PSoC4/SignalGenerator.c **** *
1302:.\Generated_Source\PSoC4/SignalGenerator.c **** *******************************************************************************/
1303:.\Generated_Source\PSoC4/SignalGenerator.c **** void SignalGenerator_SetInterruptMode(uint32 interruptMask)
1304:.\Generated_Source\PSoC4/SignalGenerator.c **** {
 1819              		.loc 1 1304 0
 1820              		.cfi_startproc
 1821 0000 80B5     		push	{r7, lr}
 1822              	.LCFI95:
 1823              		.cfi_def_cfa_offset 8
 1824              		.cfi_offset 7, -8
 1825              		.cfi_offset 14, -4
 1826 0002 82B0     		sub	sp, sp, #8
 1827              	.LCFI96:
 1828              		.cfi_def_cfa_offset 16
 1829 0004 00AF     		add	r7, sp, #0
 1830              	.LCFI97:
ARM GAS  C:\Users\JEFFRE~1\AppData\Local\Temp\ccRImAiW.s 			page 56


 1831              		.cfi_def_cfa_register 7
 1832 0006 7860     		str	r0, [r7, #4]
1305:.\Generated_Source\PSoC4/SignalGenerator.c ****     SignalGenerator_INTERRUPT_MASK_REG =  interruptMask;
 1833              		.loc 1 1305 0
 1834 0008 024B     		ldr	r3, .L116
 1835 000a 7A68     		ldr	r2, [r7, #4]
 1836 000c 1A60     		str	r2, [r3]
1306:.\Generated_Source\PSoC4/SignalGenerator.c **** }
 1837              		.loc 1 1306 0
 1838 000e BD46     		mov	sp, r7
 1839 0010 02B0     		add	sp, sp, #8
 1840              		@ sp needed for prologue
 1841 0012 80BD     		pop	{r7, pc}
 1842              	.L117:
 1843              		.align	2
 1844              	.L116:
 1845 0014 78010540 		.word	1074069880
 1846              		.cfi_endproc
 1847              	.LFE35:
 1848              		.size	SignalGenerator_SetInterruptMode, .-SignalGenerator_SetInterruptMode
 1849              		.section	.text.SignalGenerator_GetInterruptSourceMasked,"ax",%progbits
 1850              		.align	2
 1851              		.global	SignalGenerator_GetInterruptSourceMasked
 1852              		.code	16
 1853              		.thumb_func
 1854              		.type	SignalGenerator_GetInterruptSourceMasked, %function
 1855              	SignalGenerator_GetInterruptSourceMasked:
 1856              	.LFB36:
1307:.\Generated_Source\PSoC4/SignalGenerator.c **** 
1308:.\Generated_Source\PSoC4/SignalGenerator.c **** 
1309:.\Generated_Source\PSoC4/SignalGenerator.c **** /*******************************************************************************
1310:.\Generated_Source\PSoC4/SignalGenerator.c **** * Function Name: SignalGenerator_GetInterruptSourceMasked
1311:.\Generated_Source\PSoC4/SignalGenerator.c **** ********************************************************************************
1312:.\Generated_Source\PSoC4/SignalGenerator.c **** *
1313:.\Generated_Source\PSoC4/SignalGenerator.c **** * Summary:
1314:.\Generated_Source\PSoC4/SignalGenerator.c **** *  Gets the interrupt requests masked by the interrupt mask.
1315:.\Generated_Source\PSoC4/SignalGenerator.c **** *
1316:.\Generated_Source\PSoC4/SignalGenerator.c **** * Parameters:
1317:.\Generated_Source\PSoC4/SignalGenerator.c **** *   None
1318:.\Generated_Source\PSoC4/SignalGenerator.c **** *
1319:.\Generated_Source\PSoC4/SignalGenerator.c **** * Return:
1320:.\Generated_Source\PSoC4/SignalGenerator.c **** *  Masked interrupt source
1321:.\Generated_Source\PSoC4/SignalGenerator.c **** *   Values:
1322:.\Generated_Source\PSoC4/SignalGenerator.c **** *     - SignalGenerator_INTR_MASK_TC       - Terminal count mask
1323:.\Generated_Source\PSoC4/SignalGenerator.c **** *     - SignalGenerator_INTR_MASK_CC_MATCH - Compare count / capture mask
1324:.\Generated_Source\PSoC4/SignalGenerator.c **** *
1325:.\Generated_Source\PSoC4/SignalGenerator.c **** *******************************************************************************/
1326:.\Generated_Source\PSoC4/SignalGenerator.c **** uint32 SignalGenerator_GetInterruptSourceMasked(void)
1327:.\Generated_Source\PSoC4/SignalGenerator.c **** {
 1857              		.loc 1 1327 0
 1858              		.cfi_startproc
 1859 0000 80B5     		push	{r7, lr}
 1860              	.LCFI98:
 1861              		.cfi_def_cfa_offset 8
 1862              		.cfi_offset 7, -8
 1863              		.cfi_offset 14, -4
 1864 0002 00AF     		add	r7, sp, #0
ARM GAS  C:\Users\JEFFRE~1\AppData\Local\Temp\ccRImAiW.s 			page 57


 1865              	.LCFI99:
 1866              		.cfi_def_cfa_register 7
1328:.\Generated_Source\PSoC4/SignalGenerator.c ****     return (SignalGenerator_INTERRUPT_MASKED_REG);
 1867              		.loc 1 1328 0
 1868 0004 024B     		ldr	r3, .L120
 1869 0006 1B68     		ldr	r3, [r3]
1329:.\Generated_Source\PSoC4/SignalGenerator.c **** }
 1870              		.loc 1 1329 0
 1871 0008 181C     		mov	r0, r3
 1872 000a BD46     		mov	sp, r7
 1873              		@ sp needed for prologue
 1874 000c 80BD     		pop	{r7, pc}
 1875              	.L121:
 1876 000e C046     		.align	2
 1877              	.L120:
 1878 0010 7C010540 		.word	1074069884
 1879              		.cfi_endproc
 1880              	.LFE36:
 1881              		.size	SignalGenerator_GetInterruptSourceMasked, .-SignalGenerator_GetInterruptSourceMasked
 1882              		.section	.text.SignalGenerator_GetInterruptSource,"ax",%progbits
 1883              		.align	2
 1884              		.global	SignalGenerator_GetInterruptSource
 1885              		.code	16
 1886              		.thumb_func
 1887              		.type	SignalGenerator_GetInterruptSource, %function
 1888              	SignalGenerator_GetInterruptSource:
 1889              	.LFB37:
1330:.\Generated_Source\PSoC4/SignalGenerator.c **** 
1331:.\Generated_Source\PSoC4/SignalGenerator.c **** 
1332:.\Generated_Source\PSoC4/SignalGenerator.c **** /*******************************************************************************
1333:.\Generated_Source\PSoC4/SignalGenerator.c **** * Function Name: SignalGenerator_GetInterruptSource
1334:.\Generated_Source\PSoC4/SignalGenerator.c **** ********************************************************************************
1335:.\Generated_Source\PSoC4/SignalGenerator.c **** *
1336:.\Generated_Source\PSoC4/SignalGenerator.c **** * Summary:
1337:.\Generated_Source\PSoC4/SignalGenerator.c **** *  Gets the interrupt requests (without masking).
1338:.\Generated_Source\PSoC4/SignalGenerator.c **** *
1339:.\Generated_Source\PSoC4/SignalGenerator.c **** * Parameters:
1340:.\Generated_Source\PSoC4/SignalGenerator.c **** *  None
1341:.\Generated_Source\PSoC4/SignalGenerator.c **** *
1342:.\Generated_Source\PSoC4/SignalGenerator.c **** * Return:
1343:.\Generated_Source\PSoC4/SignalGenerator.c **** *  Interrupt request value
1344:.\Generated_Source\PSoC4/SignalGenerator.c **** *   Values:
1345:.\Generated_Source\PSoC4/SignalGenerator.c **** *     - SignalGenerator_INTR_MASK_TC       - Terminal count mask
1346:.\Generated_Source\PSoC4/SignalGenerator.c **** *     - SignalGenerator_INTR_MASK_CC_MATCH - Compare count / capture mask
1347:.\Generated_Source\PSoC4/SignalGenerator.c **** *
1348:.\Generated_Source\PSoC4/SignalGenerator.c **** *******************************************************************************/
1349:.\Generated_Source\PSoC4/SignalGenerator.c **** uint32 SignalGenerator_GetInterruptSource(void)
1350:.\Generated_Source\PSoC4/SignalGenerator.c **** {
 1890              		.loc 1 1350 0
 1891              		.cfi_startproc
 1892 0000 80B5     		push	{r7, lr}
 1893              	.LCFI100:
 1894              		.cfi_def_cfa_offset 8
 1895              		.cfi_offset 7, -8
 1896              		.cfi_offset 14, -4
 1897 0002 00AF     		add	r7, sp, #0
 1898              	.LCFI101:
ARM GAS  C:\Users\JEFFRE~1\AppData\Local\Temp\ccRImAiW.s 			page 58


 1899              		.cfi_def_cfa_register 7
1351:.\Generated_Source\PSoC4/SignalGenerator.c ****     return (SignalGenerator_INTERRUPT_REQ_REG);
 1900              		.loc 1 1351 0
 1901 0004 024B     		ldr	r3, .L124
 1902 0006 1B68     		ldr	r3, [r3]
1352:.\Generated_Source\PSoC4/SignalGenerator.c **** }
 1903              		.loc 1 1352 0
 1904 0008 181C     		mov	r0, r3
 1905 000a BD46     		mov	sp, r7
 1906              		@ sp needed for prologue
 1907 000c 80BD     		pop	{r7, pc}
 1908              	.L125:
 1909 000e C046     		.align	2
 1910              	.L124:
 1911 0010 70010540 		.word	1074069872
 1912              		.cfi_endproc
 1913              	.LFE37:
 1914              		.size	SignalGenerator_GetInterruptSource, .-SignalGenerator_GetInterruptSource
 1915              		.section	.text.SignalGenerator_ClearInterrupt,"ax",%progbits
 1916              		.align	2
 1917              		.global	SignalGenerator_ClearInterrupt
 1918              		.code	16
 1919              		.thumb_func
 1920              		.type	SignalGenerator_ClearInterrupt, %function
 1921              	SignalGenerator_ClearInterrupt:
 1922              	.LFB38:
1353:.\Generated_Source\PSoC4/SignalGenerator.c **** 
1354:.\Generated_Source\PSoC4/SignalGenerator.c **** 
1355:.\Generated_Source\PSoC4/SignalGenerator.c **** /*******************************************************************************
1356:.\Generated_Source\PSoC4/SignalGenerator.c **** * Function Name: SignalGenerator_ClearInterrupt
1357:.\Generated_Source\PSoC4/SignalGenerator.c **** ********************************************************************************
1358:.\Generated_Source\PSoC4/SignalGenerator.c **** *
1359:.\Generated_Source\PSoC4/SignalGenerator.c **** * Summary:
1360:.\Generated_Source\PSoC4/SignalGenerator.c **** *  Clears the interrupt request.
1361:.\Generated_Source\PSoC4/SignalGenerator.c **** *
1362:.\Generated_Source\PSoC4/SignalGenerator.c **** * Parameters:
1363:.\Generated_Source\PSoC4/SignalGenerator.c **** *   interruptMask: Mask of interrupts to clear
1364:.\Generated_Source\PSoC4/SignalGenerator.c **** *   Values:
1365:.\Generated_Source\PSoC4/SignalGenerator.c **** *     - SignalGenerator_INTR_MASK_TC       - Terminal count mask
1366:.\Generated_Source\PSoC4/SignalGenerator.c **** *     - SignalGenerator_INTR_MASK_CC_MATCH - Compare count / capture mask
1367:.\Generated_Source\PSoC4/SignalGenerator.c **** *
1368:.\Generated_Source\PSoC4/SignalGenerator.c **** * Return:
1369:.\Generated_Source\PSoC4/SignalGenerator.c **** *  None
1370:.\Generated_Source\PSoC4/SignalGenerator.c **** *
1371:.\Generated_Source\PSoC4/SignalGenerator.c **** *******************************************************************************/
1372:.\Generated_Source\PSoC4/SignalGenerator.c **** void SignalGenerator_ClearInterrupt(uint32 interruptMask)
1373:.\Generated_Source\PSoC4/SignalGenerator.c **** {
 1923              		.loc 1 1373 0
 1924              		.cfi_startproc
 1925 0000 80B5     		push	{r7, lr}
 1926              	.LCFI102:
 1927              		.cfi_def_cfa_offset 8
 1928              		.cfi_offset 7, -8
 1929              		.cfi_offset 14, -4
 1930 0002 82B0     		sub	sp, sp, #8
 1931              	.LCFI103:
 1932              		.cfi_def_cfa_offset 16
ARM GAS  C:\Users\JEFFRE~1\AppData\Local\Temp\ccRImAiW.s 			page 59


 1933 0004 00AF     		add	r7, sp, #0
 1934              	.LCFI104:
 1935              		.cfi_def_cfa_register 7
 1936 0006 7860     		str	r0, [r7, #4]
1374:.\Generated_Source\PSoC4/SignalGenerator.c ****     SignalGenerator_INTERRUPT_REQ_REG = interruptMask;
 1937              		.loc 1 1374 0
 1938 0008 024B     		ldr	r3, .L127
 1939 000a 7A68     		ldr	r2, [r7, #4]
 1940 000c 1A60     		str	r2, [r3]
1375:.\Generated_Source\PSoC4/SignalGenerator.c **** }
 1941              		.loc 1 1375 0
 1942 000e BD46     		mov	sp, r7
 1943 0010 02B0     		add	sp, sp, #8
 1944              		@ sp needed for prologue
 1945 0012 80BD     		pop	{r7, pc}
 1946              	.L128:
 1947              		.align	2
 1948              	.L127:
 1949 0014 70010540 		.word	1074069872
 1950              		.cfi_endproc
 1951              	.LFE38:
 1952              		.size	SignalGenerator_ClearInterrupt, .-SignalGenerator_ClearInterrupt
 1953              		.section	.text.SignalGenerator_SetInterrupt,"ax",%progbits
 1954              		.align	2
 1955              		.global	SignalGenerator_SetInterrupt
 1956              		.code	16
 1957              		.thumb_func
 1958              		.type	SignalGenerator_SetInterrupt, %function
 1959              	SignalGenerator_SetInterrupt:
 1960              	.LFB39:
1376:.\Generated_Source\PSoC4/SignalGenerator.c **** 
1377:.\Generated_Source\PSoC4/SignalGenerator.c **** 
1378:.\Generated_Source\PSoC4/SignalGenerator.c **** /*******************************************************************************
1379:.\Generated_Source\PSoC4/SignalGenerator.c **** * Function Name: SignalGenerator_SetInterrupt
1380:.\Generated_Source\PSoC4/SignalGenerator.c **** ********************************************************************************
1381:.\Generated_Source\PSoC4/SignalGenerator.c **** *
1382:.\Generated_Source\PSoC4/SignalGenerator.c **** * Summary:
1383:.\Generated_Source\PSoC4/SignalGenerator.c **** *  Sets a software interrupt request.
1384:.\Generated_Source\PSoC4/SignalGenerator.c **** *
1385:.\Generated_Source\PSoC4/SignalGenerator.c **** * Parameters:
1386:.\Generated_Source\PSoC4/SignalGenerator.c **** *   interruptMask: Mask of interrupts to set
1387:.\Generated_Source\PSoC4/SignalGenerator.c **** *   Values:
1388:.\Generated_Source\PSoC4/SignalGenerator.c **** *     - SignalGenerator_INTR_MASK_TC       - Terminal count mask
1389:.\Generated_Source\PSoC4/SignalGenerator.c **** *     - SignalGenerator_INTR_MASK_CC_MATCH - Compare count / capture mask
1390:.\Generated_Source\PSoC4/SignalGenerator.c **** *
1391:.\Generated_Source\PSoC4/SignalGenerator.c **** * Return:
1392:.\Generated_Source\PSoC4/SignalGenerator.c **** *  None
1393:.\Generated_Source\PSoC4/SignalGenerator.c **** *
1394:.\Generated_Source\PSoC4/SignalGenerator.c **** *******************************************************************************/
1395:.\Generated_Source\PSoC4/SignalGenerator.c **** void SignalGenerator_SetInterrupt(uint32 interruptMask)
1396:.\Generated_Source\PSoC4/SignalGenerator.c **** {
 1961              		.loc 1 1396 0
 1962              		.cfi_startproc
 1963 0000 80B5     		push	{r7, lr}
 1964              	.LCFI105:
 1965              		.cfi_def_cfa_offset 8
 1966              		.cfi_offset 7, -8
ARM GAS  C:\Users\JEFFRE~1\AppData\Local\Temp\ccRImAiW.s 			page 60


 1967              		.cfi_offset 14, -4
 1968 0002 82B0     		sub	sp, sp, #8
 1969              	.LCFI106:
 1970              		.cfi_def_cfa_offset 16
 1971 0004 00AF     		add	r7, sp, #0
 1972              	.LCFI107:
 1973              		.cfi_def_cfa_register 7
 1974 0006 7860     		str	r0, [r7, #4]
1397:.\Generated_Source\PSoC4/SignalGenerator.c ****     SignalGenerator_INTERRUPT_SET_REG = interruptMask;
 1975              		.loc 1 1397 0
 1976 0008 024B     		ldr	r3, .L130
 1977 000a 7A68     		ldr	r2, [r7, #4]
 1978 000c 1A60     		str	r2, [r3]
1398:.\Generated_Source\PSoC4/SignalGenerator.c **** }
 1979              		.loc 1 1398 0
 1980 000e BD46     		mov	sp, r7
 1981 0010 02B0     		add	sp, sp, #8
 1982              		@ sp needed for prologue
 1983 0012 80BD     		pop	{r7, pc}
 1984              	.L131:
 1985              		.align	2
 1986              	.L130:
 1987 0014 74010540 		.word	1074069876
 1988              		.cfi_endproc
 1989              	.LFE39:
 1990              		.size	SignalGenerator_SetInterrupt, .-SignalGenerator_SetInterrupt
 1991              		.text
 1992              	.Letext0:
 1993              		.file 2 ".\\Generated_Source\\PSoC4\\cytypes.h"