ARM GAS  C:\Users\Jared\AppData\Local\Temp\cctQyRI2.s 			page 1


   1              		.cpu cortex-m0
   2              		.fpu softvfp
   3              		.eabi_attribute 20, 1
   4              		.eabi_attribute 21, 1
   5              		.eabi_attribute 23, 3
   6              		.eabi_attribute 24, 1
   7              		.eabi_attribute 25, 1
   8              		.eabi_attribute 26, 1
   9              		.eabi_attribute 30, 6
  10              		.eabi_attribute 34, 0
  11              		.eabi_attribute 18, 4
  12              		.code	16
  13              		.file	"events.c"
  14              		.text
  15              	.Ltext0:
  16              		.cfi_sections	.debug_frame
  17              		.section	.text.BTN0_EVENT_func,"ax",%progbits
  18              		.align	2
  19              		.global	BTN0_EVENT_func
  20              		.code	16
  21              		.thumb_func
  22              		.type	BTN0_EVENT_func, %function
  23              	BTN0_EVENT_func:
  24              	.LFB33:
  25              		.file 1 ".\\events.c"
   1:.\events.c    **** /* ========================================
   2:.\events.c    ****  *
   3:.\events.c    ****  * Copyright YOUR COMPANY, THE YEAR
   4:.\events.c    ****  * All Rights Reserved
   5:.\events.c    ****  * UNPUBLISHED, LICENSED SOFTWARE.
   6:.\events.c    ****  *
   7:.\events.c    ****  * CONFIDENTIAL AND PROPRIETARY INFORMATION
   8:.\events.c    ****  * WHICH IS THE PROPERTY OF your company.
   9:.\events.c    ****  *
  10:.\events.c    ****  * ========================================
  11:.\events.c    **** */
  12:.\events.c    **** #include "events.h"
  13:.\events.c    **** 
  14:.\events.c    **** extern volatile uint16_t sys_events;
  15:.\events.c    **** extern volatile uint16_t compareValue;
  16:.\events.c    **** 
  17:.\events.c    **** void BTN0_EVENT_func()
  18:.\events.c    **** {
  26              		.loc 1 18 0
  27              		.cfi_startproc
  28 0000 80B5     		push	{r7, lr}
  29              	.LCFI0:
  30              		.cfi_def_cfa_offset 8
  31              		.cfi_offset 7, -8
  32              		.cfi_offset 14, -4
  33 0002 00AF     		add	r7, sp, #0
  34              	.LCFI1:
  35              		.cfi_def_cfa_register 7
  19:.\events.c    ****     compareValue += INC_DEC;
  36              		.loc 1 19 0
  37 0004 094B     		ldr	r3, .L3
  38 0006 1B88     		ldrh	r3, [r3]
ARM GAS  C:\Users\Jared\AppData\Local\Temp\cctQyRI2.s 			page 2


  39 0008 9BB2     		uxth	r3, r3
  40 000a 6433     		add	r3, r3, #100
  41 000c 9AB2     		uxth	r2, r3
  42 000e 074B     		ldr	r3, .L3
  43 0010 1A80     		strh	r2, [r3]
  20:.\events.c    ****     if (compareValue > MAX_SERVO)
  44              		.loc 1 20 0
  45 0012 064B     		ldr	r3, .L3
  46 0014 1B88     		ldrh	r3, [r3]
  47 0016 9AB2     		uxth	r2, r3
  48 0018 FA23     		mov	r3, #250
  49 001a DB00     		lsl	r3, r3, #3
  50 001c 9A42     		cmp	r2, r3
  51 001e 03D9     		bls	.L1
  21:.\events.c    ****         compareValue = MAX_SERVO; // we don't allow the servo to go beyond maximum position
  52              		.loc 1 21 0
  53 0020 024B     		ldr	r3, .L3
  54 0022 FA22     		mov	r2, #250
  55 0024 D200     		lsl	r2, r2, #3
  56 0026 1A80     		strh	r2, [r3]
  57              	.L1:
  22:.\events.c    ****     //LED_Write(!LED_Read()); // just toggle LED for now.
  23:.\events.c    **** }
  58              		.loc 1 23 0
  59 0028 BD46     		mov	sp, r7
  60              		@ sp needed for prologue
  61 002a 80BD     		pop	{r7, pc}
  62              	.L4:
  63              		.align	2
  64              	.L3:
  65 002c 00000000 		.word	compareValue
  66              		.cfi_endproc
  67              	.LFE33:
  68              		.size	BTN0_EVENT_func, .-BTN0_EVENT_func
  69              		.section	.text.BTN1_EVENT_func,"ax",%progbits
  70              		.align	2
  71              		.global	BTN1_EVENT_func
  72              		.code	16
  73              		.thumb_func
  74              		.type	BTN1_EVENT_func, %function
  75              	BTN1_EVENT_func:
  76              	.LFB34:
  24:.\events.c    **** 
  25:.\events.c    **** void BTN1_EVENT_func()
  26:.\events.c    **** {
  77              		.loc 1 26 0
  78              		.cfi_startproc
  79 0000 80B5     		push	{r7, lr}
  80              	.LCFI2:
  81              		.cfi_def_cfa_offset 8
  82              		.cfi_offset 7, -8
  83              		.cfi_offset 14, -4
  84 0002 00AF     		add	r7, sp, #0
  85              	.LCFI3:
  86              		.cfi_def_cfa_register 7
  27:.\events.c    ****     compareValue -= INC_DEC;
  87              		.loc 1 27 0
ARM GAS  C:\Users\Jared\AppData\Local\Temp\cctQyRI2.s 			page 3


  88 0004 094B     		ldr	r3, .L7
  89 0006 1B88     		ldrh	r3, [r3]
  90 0008 9BB2     		uxth	r3, r3
  91 000a 643B     		sub	r3, r3, #100
  92 000c 9AB2     		uxth	r2, r3
  93 000e 074B     		ldr	r3, .L7
  94 0010 1A80     		strh	r2, [r3]
  28:.\events.c    ****     if (compareValue < MIN_SERVO)
  95              		.loc 1 28 0
  96 0012 064B     		ldr	r3, .L7
  97 0014 1B88     		ldrh	r3, [r3]
  98 0016 9AB2     		uxth	r2, r3
  99 0018 054B     		ldr	r3, .L7+4
 100 001a 9A42     		cmp	r2, r3
 101 001c 03D8     		bhi	.L5
  29:.\events.c    ****         compareValue = MIN_SERVO; // don't allow servo to go beyond min pos
 102              		.loc 1 29 0
 103 001e 034B     		ldr	r3, .L7
 104 0020 FA22     		mov	r2, #250
 105 0022 9200     		lsl	r2, r2, #2
 106 0024 1A80     		strh	r2, [r3]
 107              	.L5:
  30:.\events.c    ****     //LED1_Write(!LED1_Read()); // toggle blue LED    
  31:.\events.c    **** }
 108              		.loc 1 31 0
 109 0026 BD46     		mov	sp, r7
 110              		@ sp needed for prologue
 111 0028 80BD     		pop	{r7, pc}
 112              	.L8:
 113 002a C046     		.align	2
 114              	.L7:
 115 002c 00000000 		.word	compareValue
 116 0030 E7030000 		.word	999
 117              		.cfi_endproc
 118              	.LFE34:
 119              		.size	BTN1_EVENT_func, .-BTN1_EVENT_func
 120              		.section	.text.PWM_MOVE_SERVO_EVENT_func,"ax",%progbits
 121              		.align	2
 122              		.global	PWM_MOVE_SERVO_EVENT_func
 123              		.code	16
 124              		.thumb_func
 125              		.type	PWM_MOVE_SERVO_EVENT_func, %function
 126              	PWM_MOVE_SERVO_EVENT_func:
 127              	.LFB35:
  32:.\events.c    **** 
  33:.\events.c    **** void PWM_MOVE_SERVO_EVENT_func() // should be called every 25ms
  34:.\events.c    **** { // just write new compare value to PWM module to move the servo
 128              		.loc 1 34 0
 129              		.cfi_startproc
 130 0000 80B5     		push	{r7, lr}
 131              	.LCFI4:
 132              		.cfi_def_cfa_offset 8
 133              		.cfi_offset 7, -8
 134              		.cfi_offset 14, -4
 135 0002 00AF     		add	r7, sp, #0
 136              	.LCFI5:
 137              		.cfi_def_cfa_register 7
ARM GAS  C:\Users\Jared\AppData\Local\Temp\cctQyRI2.s 			page 4


  35:.\events.c    ****     PWM_Servo_WriteCompare(compareValue);
 138              		.loc 1 35 0
 139 0004 034B     		ldr	r3, .L10
 140 0006 1B88     		ldrh	r3, [r3]
 141 0008 9BB2     		uxth	r3, r3
 142 000a 181C     		mov	r0, r3
 143 000c FFF7FEFF 		bl	PWM_Servo_WriteCompare
  36:.\events.c    **** }
 144              		.loc 1 36 0
 145 0010 BD46     		mov	sp, r7
 146              		@ sp needed for prologue
 147 0012 80BD     		pop	{r7, pc}
 148              	.L11:
 149              		.align	2
 150              	.L10:
 151 0014 00000000 		.word	compareValue
 152              		.cfi_endproc
 153              	.LFE35:
 154              		.size	PWM_MOVE_SERVO_EVENT_func, .-PWM_MOVE_SERVO_EVENT_func
 155              		.text
 156              	.Letext0:
 157              		.file 2 "c:\\program files (x86)\\cypress\\psoc creator\\3.0\\psoc creator\\import\\gnu_cs\\arm\\4