ARM GAS  C:\Users\Jared\AppData\Local\Temp\cc850TPn.s 			page 1


   1              		.cpu cortex-m0
   2              		.fpu softvfp
   3              		.eabi_attribute 20, 1
   4              		.eabi_attribute 21, 1
   5              		.eabi_attribute 23, 3
   6              		.eabi_attribute 24, 1
   7              		.eabi_attribute 25, 1
   8              		.eabi_attribute 26, 1
   9              		.eabi_attribute 30, 6
  10              		.eabi_attribute 34, 0
  11              		.eabi_attribute 18, 4
  12              		.code	16
  13              		.file	"ISR_UART_Rx.c"
  14              		.text
  15              	.Ltext0:
  16              		.cfi_sections	.debug_frame
  17              		.section	.text.ISR_UART_Rx_Start,"ax",%progbits
  18              		.align	2
  19              		.global	ISR_UART_Rx_Start
  20              		.code	16
  21              		.thumb_func
  22              		.type	ISR_UART_Rx_Start, %function
  23              	ISR_UART_Rx_Start:
  24              	.LFB0:
  25              		.file 1 ".\\Generated_Source\\PSoC4\\ISR_UART_Rx.c"
   1:.\Generated_Source\PSoC4/ISR_UART_Rx.c **** /*******************************************************************************
   2:.\Generated_Source\PSoC4/ISR_UART_Rx.c **** * File Name: ISR_UART_Rx.c  
   3:.\Generated_Source\PSoC4/ISR_UART_Rx.c **** * Version 1.70
   4:.\Generated_Source\PSoC4/ISR_UART_Rx.c **** *
   5:.\Generated_Source\PSoC4/ISR_UART_Rx.c **** *  Description:
   6:.\Generated_Source\PSoC4/ISR_UART_Rx.c **** *   API for controlling the state of an interrupt.
   7:.\Generated_Source\PSoC4/ISR_UART_Rx.c **** *
   8:.\Generated_Source\PSoC4/ISR_UART_Rx.c **** *
   9:.\Generated_Source\PSoC4/ISR_UART_Rx.c **** *  Note:
  10:.\Generated_Source\PSoC4/ISR_UART_Rx.c **** *
  11:.\Generated_Source\PSoC4/ISR_UART_Rx.c **** ********************************************************************************
  12:.\Generated_Source\PSoC4/ISR_UART_Rx.c **** * Copyright 2008-2012, Cypress Semiconductor Corporation.  All rights reserved.
  13:.\Generated_Source\PSoC4/ISR_UART_Rx.c **** * You may use this file only in accordance with the license, terms, conditions, 
  14:.\Generated_Source\PSoC4/ISR_UART_Rx.c **** * disclaimers, and limitations in the end user license agreement accompanying 
  15:.\Generated_Source\PSoC4/ISR_UART_Rx.c **** * the software package with which this file was provided.
  16:.\Generated_Source\PSoC4/ISR_UART_Rx.c **** *******************************************************************************/
  17:.\Generated_Source\PSoC4/ISR_UART_Rx.c **** 
  18:.\Generated_Source\PSoC4/ISR_UART_Rx.c **** 
  19:.\Generated_Source\PSoC4/ISR_UART_Rx.c **** #include <cydevice_trm.h>
  20:.\Generated_Source\PSoC4/ISR_UART_Rx.c **** #include <CyLib.h>
  21:.\Generated_Source\PSoC4/ISR_UART_Rx.c **** #include <ISR_UART_Rx.h>
  22:.\Generated_Source\PSoC4/ISR_UART_Rx.c **** 
  23:.\Generated_Source\PSoC4/ISR_UART_Rx.c **** #if !defined(ISR_UART_Rx__REMOVED) /* Check for removal by optimization */
  24:.\Generated_Source\PSoC4/ISR_UART_Rx.c **** 
  25:.\Generated_Source\PSoC4/ISR_UART_Rx.c **** /*******************************************************************************
  26:.\Generated_Source\PSoC4/ISR_UART_Rx.c **** *  Place your includes, defines and code here 
  27:.\Generated_Source\PSoC4/ISR_UART_Rx.c **** ********************************************************************************/
  28:.\Generated_Source\PSoC4/ISR_UART_Rx.c **** /* `#START ISR_UART_Rx_intc` */
  29:.\Generated_Source\PSoC4/ISR_UART_Rx.c **** 
  30:.\Generated_Source\PSoC4/ISR_UART_Rx.c **** extern volatile uint16_t sys_events;
  31:.\Generated_Source\PSoC4/ISR_UART_Rx.c **** /* `#END` */
  32:.\Generated_Source\PSoC4/ISR_UART_Rx.c **** 
ARM GAS  C:\Users\Jared\AppData\Local\Temp\cc850TPn.s 			page 2


  33:.\Generated_Source\PSoC4/ISR_UART_Rx.c **** extern cyisraddress CyRamVectors[CYINT_IRQ_BASE + CY_NUM_INTERRUPTS];
  34:.\Generated_Source\PSoC4/ISR_UART_Rx.c **** 
  35:.\Generated_Source\PSoC4/ISR_UART_Rx.c **** /* Declared in startup, used to set unused interrupts to. */
  36:.\Generated_Source\PSoC4/ISR_UART_Rx.c **** CY_ISR_PROTO(IntDefaultHandler);
  37:.\Generated_Source\PSoC4/ISR_UART_Rx.c **** 
  38:.\Generated_Source\PSoC4/ISR_UART_Rx.c **** 
  39:.\Generated_Source\PSoC4/ISR_UART_Rx.c **** /*******************************************************************************
  40:.\Generated_Source\PSoC4/ISR_UART_Rx.c **** * Function Name: ISR_UART_Rx_Start
  41:.\Generated_Source\PSoC4/ISR_UART_Rx.c **** ********************************************************************************
  42:.\Generated_Source\PSoC4/ISR_UART_Rx.c **** *
  43:.\Generated_Source\PSoC4/ISR_UART_Rx.c **** * Summary:
  44:.\Generated_Source\PSoC4/ISR_UART_Rx.c **** *  Set up the interrupt and enable it.
  45:.\Generated_Source\PSoC4/ISR_UART_Rx.c **** *
  46:.\Generated_Source\PSoC4/ISR_UART_Rx.c **** * Parameters:  
  47:.\Generated_Source\PSoC4/ISR_UART_Rx.c **** *   None
  48:.\Generated_Source\PSoC4/ISR_UART_Rx.c **** *
  49:.\Generated_Source\PSoC4/ISR_UART_Rx.c **** * Return:
  50:.\Generated_Source\PSoC4/ISR_UART_Rx.c **** *   None
  51:.\Generated_Source\PSoC4/ISR_UART_Rx.c **** *
  52:.\Generated_Source\PSoC4/ISR_UART_Rx.c **** *******************************************************************************/
  53:.\Generated_Source\PSoC4/ISR_UART_Rx.c **** void ISR_UART_Rx_Start(void)
  54:.\Generated_Source\PSoC4/ISR_UART_Rx.c **** {
  26              		.loc 1 54 0
  27              		.cfi_startproc
  28 0000 80B5     		push	{r7, lr}
  29              	.LCFI0:
  30              		.cfi_def_cfa_offset 8
  31              		.cfi_offset 7, -8
  32              		.cfi_offset 14, -4
  33 0002 00AF     		add	r7, sp, #0
  34              	.LCFI1:
  35              		.cfi_def_cfa_register 7
  55:.\Generated_Source\PSoC4/ISR_UART_Rx.c ****     /* For all we know the interrupt is active. */
  56:.\Generated_Source\PSoC4/ISR_UART_Rx.c ****     ISR_UART_Rx_Disable();
  36              		.loc 1 56 0
  37 0004 FFF7FEFF 		bl	ISR_UART_Rx_Disable
  57:.\Generated_Source\PSoC4/ISR_UART_Rx.c **** 
  58:.\Generated_Source\PSoC4/ISR_UART_Rx.c ****     /* Set the ISR to point to the ISR_UART_Rx Interrupt. */
  59:.\Generated_Source\PSoC4/ISR_UART_Rx.c ****     ISR_UART_Rx_SetVector(&ISR_UART_Rx_Interrupt);
  38              		.loc 1 59 0
  39 0008 054B     		ldr	r3, .L2
  40 000a 181C     		mov	r0, r3
  41 000c FFF7FEFF 		bl	ISR_UART_Rx_SetVector
  60:.\Generated_Source\PSoC4/ISR_UART_Rx.c **** 
  61:.\Generated_Source\PSoC4/ISR_UART_Rx.c ****     /* Set the priority. */
  62:.\Generated_Source\PSoC4/ISR_UART_Rx.c ****     ISR_UART_Rx_SetPriority((uint8)ISR_UART_Rx_INTC_PRIOR_NUMBER);
  42              		.loc 1 62 0
  43 0010 0320     		mov	r0, #3
  44 0012 FFF7FEFF 		bl	ISR_UART_Rx_SetPriority
  63:.\Generated_Source\PSoC4/ISR_UART_Rx.c **** 
  64:.\Generated_Source\PSoC4/ISR_UART_Rx.c ****     /* Enable it. */
  65:.\Generated_Source\PSoC4/ISR_UART_Rx.c ****     ISR_UART_Rx_Enable();
  45              		.loc 1 65 0
  46 0016 FFF7FEFF 		bl	ISR_UART_Rx_Enable
  66:.\Generated_Source\PSoC4/ISR_UART_Rx.c **** }
  47              		.loc 1 66 0
  48 001a BD46     		mov	sp, r7
ARM GAS  C:\Users\Jared\AppData\Local\Temp\cc850TPn.s 			page 3


  49              		@ sp needed for prologue
  50 001c 80BD     		pop	{r7, pc}
  51              	.L3:
  52 001e C046     		.align	2
  53              	.L2:
  54 0020 00000000 		.word	ISR_UART_Rx_Interrupt
  55              		.cfi_endproc
  56              	.LFE0:
  57              		.size	ISR_UART_Rx_Start, .-ISR_UART_Rx_Start
  58              		.section	.text.ISR_UART_Rx_StartEx,"ax",%progbits
  59              		.align	2
  60              		.global	ISR_UART_Rx_StartEx
  61              		.code	16
  62              		.thumb_func
  63              		.type	ISR_UART_Rx_StartEx, %function
  64              	ISR_UART_Rx_StartEx:
  65              	.LFB1:
  67:.\Generated_Source\PSoC4/ISR_UART_Rx.c **** 
  68:.\Generated_Source\PSoC4/ISR_UART_Rx.c **** 
  69:.\Generated_Source\PSoC4/ISR_UART_Rx.c **** /*******************************************************************************
  70:.\Generated_Source\PSoC4/ISR_UART_Rx.c **** * Function Name: ISR_UART_Rx_StartEx
  71:.\Generated_Source\PSoC4/ISR_UART_Rx.c **** ********************************************************************************
  72:.\Generated_Source\PSoC4/ISR_UART_Rx.c **** *
  73:.\Generated_Source\PSoC4/ISR_UART_Rx.c **** * Summary:
  74:.\Generated_Source\PSoC4/ISR_UART_Rx.c **** *  Set up the interrupt and enable it.
  75:.\Generated_Source\PSoC4/ISR_UART_Rx.c **** *
  76:.\Generated_Source\PSoC4/ISR_UART_Rx.c **** * Parameters:  
  77:.\Generated_Source\PSoC4/ISR_UART_Rx.c **** *   address: Address of the ISR to set in the interrupt vector table.
  78:.\Generated_Source\PSoC4/ISR_UART_Rx.c **** *
  79:.\Generated_Source\PSoC4/ISR_UART_Rx.c **** * Return:
  80:.\Generated_Source\PSoC4/ISR_UART_Rx.c **** *   None
  81:.\Generated_Source\PSoC4/ISR_UART_Rx.c **** *
  82:.\Generated_Source\PSoC4/ISR_UART_Rx.c **** *******************************************************************************/
  83:.\Generated_Source\PSoC4/ISR_UART_Rx.c **** void ISR_UART_Rx_StartEx(cyisraddress address)
  84:.\Generated_Source\PSoC4/ISR_UART_Rx.c **** {
  66              		.loc 1 84 0
  67              		.cfi_startproc
  68 0000 80B5     		push	{r7, lr}
  69              	.LCFI2:
  70              		.cfi_def_cfa_offset 8
  71              		.cfi_offset 7, -8
  72              		.cfi_offset 14, -4
  73 0002 82B0     		sub	sp, sp, #8
  74              	.LCFI3:
  75              		.cfi_def_cfa_offset 16
  76 0004 00AF     		add	r7, sp, #0
  77              	.LCFI4:
  78              		.cfi_def_cfa_register 7
  79 0006 7860     		str	r0, [r7, #4]
  85:.\Generated_Source\PSoC4/ISR_UART_Rx.c ****     /* For all we know the interrupt is active. */
  86:.\Generated_Source\PSoC4/ISR_UART_Rx.c ****     ISR_UART_Rx_Disable();
  80              		.loc 1 86 0
  81 0008 FFF7FEFF 		bl	ISR_UART_Rx_Disable
  87:.\Generated_Source\PSoC4/ISR_UART_Rx.c **** 
  88:.\Generated_Source\PSoC4/ISR_UART_Rx.c ****     /* Set the ISR to point to the ISR_UART_Rx Interrupt. */
  89:.\Generated_Source\PSoC4/ISR_UART_Rx.c ****     ISR_UART_Rx_SetVector(address);
  82              		.loc 1 89 0
ARM GAS  C:\Users\Jared\AppData\Local\Temp\cc850TPn.s 			page 4


  83 000c 7B68     		ldr	r3, [r7, #4]
  84 000e 181C     		mov	r0, r3
  85 0010 FFF7FEFF 		bl	ISR_UART_Rx_SetVector
  90:.\Generated_Source\PSoC4/ISR_UART_Rx.c **** 
  91:.\Generated_Source\PSoC4/ISR_UART_Rx.c ****     /* Set the priority. */
  92:.\Generated_Source\PSoC4/ISR_UART_Rx.c ****     ISR_UART_Rx_SetPriority((uint8)ISR_UART_Rx_INTC_PRIOR_NUMBER);
  86              		.loc 1 92 0
  87 0014 0320     		mov	r0, #3
  88 0016 FFF7FEFF 		bl	ISR_UART_Rx_SetPriority
  93:.\Generated_Source\PSoC4/ISR_UART_Rx.c **** 
  94:.\Generated_Source\PSoC4/ISR_UART_Rx.c ****     /* Enable it. */
  95:.\Generated_Source\PSoC4/ISR_UART_Rx.c ****     ISR_UART_Rx_Enable();
  89              		.loc 1 95 0
  90 001a FFF7FEFF 		bl	ISR_UART_Rx_Enable
  96:.\Generated_Source\PSoC4/ISR_UART_Rx.c **** }
  91              		.loc 1 96 0
  92 001e BD46     		mov	sp, r7
  93 0020 02B0     		add	sp, sp, #8
  94              		@ sp needed for prologue
  95 0022 80BD     		pop	{r7, pc}
  96              		.cfi_endproc
  97              	.LFE1:
  98              		.size	ISR_UART_Rx_StartEx, .-ISR_UART_Rx_StartEx
  99              		.section	.text.ISR_UART_Rx_Stop,"ax",%progbits
 100              		.align	2
 101              		.global	ISR_UART_Rx_Stop
 102              		.code	16
 103              		.thumb_func
 104              		.type	ISR_UART_Rx_Stop, %function
 105              	ISR_UART_Rx_Stop:
 106              	.LFB2:
  97:.\Generated_Source\PSoC4/ISR_UART_Rx.c **** 
  98:.\Generated_Source\PSoC4/ISR_UART_Rx.c **** 
  99:.\Generated_Source\PSoC4/ISR_UART_Rx.c **** /*******************************************************************************
 100:.\Generated_Source\PSoC4/ISR_UART_Rx.c **** * Function Name: ISR_UART_Rx_Stop
 101:.\Generated_Source\PSoC4/ISR_UART_Rx.c **** ********************************************************************************
 102:.\Generated_Source\PSoC4/ISR_UART_Rx.c **** *
 103:.\Generated_Source\PSoC4/ISR_UART_Rx.c **** * Summary:
 104:.\Generated_Source\PSoC4/ISR_UART_Rx.c **** *   Disables and removes the interrupt.
 105:.\Generated_Source\PSoC4/ISR_UART_Rx.c **** *
 106:.\Generated_Source\PSoC4/ISR_UART_Rx.c **** * Parameters:  
 107:.\Generated_Source\PSoC4/ISR_UART_Rx.c **** *
 108:.\Generated_Source\PSoC4/ISR_UART_Rx.c **** * Return:
 109:.\Generated_Source\PSoC4/ISR_UART_Rx.c **** *   None
 110:.\Generated_Source\PSoC4/ISR_UART_Rx.c **** *
 111:.\Generated_Source\PSoC4/ISR_UART_Rx.c **** *******************************************************************************/
 112:.\Generated_Source\PSoC4/ISR_UART_Rx.c **** void ISR_UART_Rx_Stop(void)
 113:.\Generated_Source\PSoC4/ISR_UART_Rx.c **** {
 107              		.loc 1 113 0
 108              		.cfi_startproc
 109 0000 80B5     		push	{r7, lr}
 110              	.LCFI5:
 111              		.cfi_def_cfa_offset 8
 112              		.cfi_offset 7, -8
 113              		.cfi_offset 14, -4
 114 0002 00AF     		add	r7, sp, #0
 115              	.LCFI6:
ARM GAS  C:\Users\Jared\AppData\Local\Temp\cc850TPn.s 			page 5


 116              		.cfi_def_cfa_register 7
 114:.\Generated_Source\PSoC4/ISR_UART_Rx.c ****     /* Disable this interrupt. */
 115:.\Generated_Source\PSoC4/ISR_UART_Rx.c ****     ISR_UART_Rx_Disable();
 117              		.loc 1 115 0
 118 0004 FFF7FEFF 		bl	ISR_UART_Rx_Disable
 116:.\Generated_Source\PSoC4/ISR_UART_Rx.c **** 
 117:.\Generated_Source\PSoC4/ISR_UART_Rx.c ****     /* Set the ISR to point to the passive one. */
 118:.\Generated_Source\PSoC4/ISR_UART_Rx.c ****     ISR_UART_Rx_SetVector(&IntDefaultHandler);
 119              		.loc 1 118 0
 120 0008 024B     		ldr	r3, .L6
 121 000a 181C     		mov	r0, r3
 122 000c FFF7FEFF 		bl	ISR_UART_Rx_SetVector
 119:.\Generated_Source\PSoC4/ISR_UART_Rx.c **** }
 123              		.loc 1 119 0
 124 0010 BD46     		mov	sp, r7
 125              		@ sp needed for prologue
 126 0012 80BD     		pop	{r7, pc}
 127              	.L7:
 128              		.align	2
 129              	.L6:
 130 0014 00000000 		.word	IntDefaultHandler
 131              		.cfi_endproc
 132              	.LFE2:
 133              		.size	ISR_UART_Rx_Stop, .-ISR_UART_Rx_Stop
 134              		.section	.text.ISR_UART_Rx_Interrupt,"ax",%progbits
 135              		.align	2
 136              		.global	ISR_UART_Rx_Interrupt
 137              		.code	16
 138              		.thumb_func
 139              		.type	ISR_UART_Rx_Interrupt, %function
 140              	ISR_UART_Rx_Interrupt:
 141              	.LFB3:
 120:.\Generated_Source\PSoC4/ISR_UART_Rx.c **** 
 121:.\Generated_Source\PSoC4/ISR_UART_Rx.c **** 
 122:.\Generated_Source\PSoC4/ISR_UART_Rx.c **** /*******************************************************************************
 123:.\Generated_Source\PSoC4/ISR_UART_Rx.c **** * Function Name: ISR_UART_Rx_Interrupt
 124:.\Generated_Source\PSoC4/ISR_UART_Rx.c **** ********************************************************************************
 125:.\Generated_Source\PSoC4/ISR_UART_Rx.c **** *
 126:.\Generated_Source\PSoC4/ISR_UART_Rx.c **** * Summary:
 127:.\Generated_Source\PSoC4/ISR_UART_Rx.c **** *   The default Interrupt Service Routine for ISR_UART_Rx.
 128:.\Generated_Source\PSoC4/ISR_UART_Rx.c **** *
 129:.\Generated_Source\PSoC4/ISR_UART_Rx.c **** *   Add custom code between the coments to keep the next version of this file
 130:.\Generated_Source\PSoC4/ISR_UART_Rx.c **** *   from over writting your code.
 131:.\Generated_Source\PSoC4/ISR_UART_Rx.c **** *
 132:.\Generated_Source\PSoC4/ISR_UART_Rx.c **** * Parameters:  
 133:.\Generated_Source\PSoC4/ISR_UART_Rx.c **** *   None
 134:.\Generated_Source\PSoC4/ISR_UART_Rx.c **** *
 135:.\Generated_Source\PSoC4/ISR_UART_Rx.c **** * Return:
 136:.\Generated_Source\PSoC4/ISR_UART_Rx.c **** *   None
 137:.\Generated_Source\PSoC4/ISR_UART_Rx.c **** *
 138:.\Generated_Source\PSoC4/ISR_UART_Rx.c **** *******************************************************************************/
 139:.\Generated_Source\PSoC4/ISR_UART_Rx.c **** CY_ISR(ISR_UART_Rx_Interrupt)
 140:.\Generated_Source\PSoC4/ISR_UART_Rx.c **** {
 142              		.loc 1 140 0
 143              		.cfi_startproc
 144 0000 80B5     		push	{r7, lr}
 145              	.LCFI7:
ARM GAS  C:\Users\Jared\AppData\Local\Temp\cc850TPn.s 			page 6


 146              		.cfi_def_cfa_offset 8
 147              		.cfi_offset 7, -8
 148              		.cfi_offset 14, -4
 149 0002 00AF     		add	r7, sp, #0
 150              	.LCFI8:
 151              		.cfi_def_cfa_register 7
 141:.\Generated_Source\PSoC4/ISR_UART_Rx.c ****     /*  Place your Interrupt code here. */
 142:.\Generated_Source\PSoC4/ISR_UART_Rx.c ****     /* `#START ISR_UART_Rx_Interrupt` */
 143:.\Generated_Source\PSoC4/ISR_UART_Rx.c ****     ISR_UART_Rx_ClearPending();
 152              		.loc 1 143 0
 153 0004 FFF7FEFF 		bl	ISR_UART_Rx_ClearPending
 144:.\Generated_Source\PSoC4/ISR_UART_Rx.c ****     
 145:.\Generated_Source\PSoC4/ISR_UART_Rx.c ****     /* `#END` */
 146:.\Generated_Source\PSoC4/ISR_UART_Rx.c **** }
 154              		.loc 1 146 0
 155 0008 BD46     		mov	sp, r7
 156              		@ sp needed for prologue
 157 000a 80BD     		pop	{r7, pc}
 158              		.cfi_endproc
 159              	.LFE3:
 160              		.size	ISR_UART_Rx_Interrupt, .-ISR_UART_Rx_Interrupt
 161              		.section	.text.ISR_UART_Rx_SetVector,"ax",%progbits
 162              		.align	2
 163              		.global	ISR_UART_Rx_SetVector
 164              		.code	16
 165              		.thumb_func
 166              		.type	ISR_UART_Rx_SetVector, %function
 167              	ISR_UART_Rx_SetVector:
 168              	.LFB4:
 147:.\Generated_Source\PSoC4/ISR_UART_Rx.c **** 
 148:.\Generated_Source\PSoC4/ISR_UART_Rx.c **** 
 149:.\Generated_Source\PSoC4/ISR_UART_Rx.c **** /*******************************************************************************
 150:.\Generated_Source\PSoC4/ISR_UART_Rx.c **** * Function Name: ISR_UART_Rx_SetVector
 151:.\Generated_Source\PSoC4/ISR_UART_Rx.c **** ********************************************************************************
 152:.\Generated_Source\PSoC4/ISR_UART_Rx.c **** *
 153:.\Generated_Source\PSoC4/ISR_UART_Rx.c **** * Summary:
 154:.\Generated_Source\PSoC4/ISR_UART_Rx.c **** *   Change the ISR vector for the Interrupt. Note calling ISR_UART_Rx_Start
 155:.\Generated_Source\PSoC4/ISR_UART_Rx.c **** *   will override any effect this method would have had. To set the vector 
 156:.\Generated_Source\PSoC4/ISR_UART_Rx.c **** *   before the component has been started use ISR_UART_Rx_StartEx instead.
 157:.\Generated_Source\PSoC4/ISR_UART_Rx.c **** *
 158:.\Generated_Source\PSoC4/ISR_UART_Rx.c **** * Parameters:
 159:.\Generated_Source\PSoC4/ISR_UART_Rx.c **** *   address: Address of the ISR to set in the interrupt vector table.
 160:.\Generated_Source\PSoC4/ISR_UART_Rx.c **** *
 161:.\Generated_Source\PSoC4/ISR_UART_Rx.c **** * Return:
 162:.\Generated_Source\PSoC4/ISR_UART_Rx.c **** *   None
 163:.\Generated_Source\PSoC4/ISR_UART_Rx.c **** *
 164:.\Generated_Source\PSoC4/ISR_UART_Rx.c **** *******************************************************************************/
 165:.\Generated_Source\PSoC4/ISR_UART_Rx.c **** void ISR_UART_Rx_SetVector(cyisraddress address)
 166:.\Generated_Source\PSoC4/ISR_UART_Rx.c **** {
 169              		.loc 1 166 0
 170              		.cfi_startproc
 171 0000 80B5     		push	{r7, lr}
 172              	.LCFI9:
 173              		.cfi_def_cfa_offset 8
 174              		.cfi_offset 7, -8
 175              		.cfi_offset 14, -4
 176 0002 82B0     		sub	sp, sp, #8
ARM GAS  C:\Users\Jared\AppData\Local\Temp\cc850TPn.s 			page 7


 177              	.LCFI10:
 178              		.cfi_def_cfa_offset 16
 179 0004 00AF     		add	r7, sp, #0
 180              	.LCFI11:
 181              		.cfi_def_cfa_register 7
 182 0006 7860     		str	r0, [r7, #4]
 167:.\Generated_Source\PSoC4/ISR_UART_Rx.c ****     CyRamVectors[CYINT_IRQ_BASE + ISR_UART_Rx__INTC_NUMBER] = address;
 183              		.loc 1 167 0
 184 0008 024B     		ldr	r3, .L10
 185 000a 7A68     		ldr	r2, [r7, #4]
 186 000c 9A66     		str	r2, [r3, #104]
 168:.\Generated_Source\PSoC4/ISR_UART_Rx.c **** }
 187              		.loc 1 168 0
 188 000e BD46     		mov	sp, r7
 189 0010 02B0     		add	sp, sp, #8
 190              		@ sp needed for prologue
 191 0012 80BD     		pop	{r7, pc}
 192              	.L11:
 193              		.align	2
 194              	.L10:
 195 0014 00000000 		.word	CyRamVectors
 196              		.cfi_endproc
 197              	.LFE4:
 198              		.size	ISR_UART_Rx_SetVector, .-ISR_UART_Rx_SetVector
 199              		.section	.text.ISR_UART_Rx_GetVector,"ax",%progbits
 200              		.align	2
 201              		.global	ISR_UART_Rx_GetVector
 202              		.code	16
 203              		.thumb_func
 204              		.type	ISR_UART_Rx_GetVector, %function
 205              	ISR_UART_Rx_GetVector:
 206              	.LFB5:
 169:.\Generated_Source\PSoC4/ISR_UART_Rx.c **** 
 170:.\Generated_Source\PSoC4/ISR_UART_Rx.c **** 
 171:.\Generated_Source\PSoC4/ISR_UART_Rx.c **** /*******************************************************************************
 172:.\Generated_Source\PSoC4/ISR_UART_Rx.c **** * Function Name: ISR_UART_Rx_GetVector
 173:.\Generated_Source\PSoC4/ISR_UART_Rx.c **** ********************************************************************************
 174:.\Generated_Source\PSoC4/ISR_UART_Rx.c **** *
 175:.\Generated_Source\PSoC4/ISR_UART_Rx.c **** * Summary:
 176:.\Generated_Source\PSoC4/ISR_UART_Rx.c **** *   Gets the "address" of the current ISR vector for the Interrupt.
 177:.\Generated_Source\PSoC4/ISR_UART_Rx.c **** *
 178:.\Generated_Source\PSoC4/ISR_UART_Rx.c **** * Parameters:
 179:.\Generated_Source\PSoC4/ISR_UART_Rx.c **** *   None
 180:.\Generated_Source\PSoC4/ISR_UART_Rx.c **** *
 181:.\Generated_Source\PSoC4/ISR_UART_Rx.c **** * Return:
 182:.\Generated_Source\PSoC4/ISR_UART_Rx.c **** *   Address of the ISR in the interrupt vector table.
 183:.\Generated_Source\PSoC4/ISR_UART_Rx.c **** *
 184:.\Generated_Source\PSoC4/ISR_UART_Rx.c **** *******************************************************************************/
 185:.\Generated_Source\PSoC4/ISR_UART_Rx.c **** cyisraddress ISR_UART_Rx_GetVector(void)
 186:.\Generated_Source\PSoC4/ISR_UART_Rx.c **** {
 207              		.loc 1 186 0
 208              		.cfi_startproc
 209 0000 80B5     		push	{r7, lr}
 210              	.LCFI12:
 211              		.cfi_def_cfa_offset 8
 212              		.cfi_offset 7, -8
 213              		.cfi_offset 14, -4
ARM GAS  C:\Users\Jared\AppData\Local\Temp\cc850TPn.s 			page 8


 214 0002 00AF     		add	r7, sp, #0
 215              	.LCFI13:
 216              		.cfi_def_cfa_register 7
 187:.\Generated_Source\PSoC4/ISR_UART_Rx.c ****     return CyRamVectors[CYINT_IRQ_BASE + ISR_UART_Rx__INTC_NUMBER];
 217              		.loc 1 187 0
 218 0004 024B     		ldr	r3, .L14
 219 0006 9B6E     		ldr	r3, [r3, #104]
 188:.\Generated_Source\PSoC4/ISR_UART_Rx.c **** }
 220              		.loc 1 188 0
 221 0008 181C     		mov	r0, r3
 222 000a BD46     		mov	sp, r7
 223              		@ sp needed for prologue
 224 000c 80BD     		pop	{r7, pc}
 225              	.L15:
 226 000e C046     		.align	2
 227              	.L14:
 228 0010 00000000 		.word	CyRamVectors
 229              		.cfi_endproc
 230              	.LFE5:
 231              		.size	ISR_UART_Rx_GetVector, .-ISR_UART_Rx_GetVector
 232              		.section	.text.ISR_UART_Rx_SetPriority,"ax",%progbits
 233              		.align	2
 234              		.global	ISR_UART_Rx_SetPriority
 235              		.code	16
 236              		.thumb_func
 237              		.type	ISR_UART_Rx_SetPriority, %function
 238              	ISR_UART_Rx_SetPriority:
 239              	.LFB6:
 189:.\Generated_Source\PSoC4/ISR_UART_Rx.c **** 
 190:.\Generated_Source\PSoC4/ISR_UART_Rx.c **** 
 191:.\Generated_Source\PSoC4/ISR_UART_Rx.c **** /*******************************************************************************
 192:.\Generated_Source\PSoC4/ISR_UART_Rx.c **** * Function Name: ISR_UART_Rx_SetPriority
 193:.\Generated_Source\PSoC4/ISR_UART_Rx.c **** ********************************************************************************
 194:.\Generated_Source\PSoC4/ISR_UART_Rx.c **** *
 195:.\Generated_Source\PSoC4/ISR_UART_Rx.c **** * Summary:
 196:.\Generated_Source\PSoC4/ISR_UART_Rx.c **** *   Sets the Priority of the Interrupt. Note calling ISR_UART_Rx_Start
 197:.\Generated_Source\PSoC4/ISR_UART_Rx.c **** *   or ISR_UART_Rx_StartEx will override any effect this method would 
 198:.\Generated_Source\PSoC4/ISR_UART_Rx.c **** *   have had. This method should only be called after ISR_UART_Rx_Start or 
 199:.\Generated_Source\PSoC4/ISR_UART_Rx.c **** *   ISR_UART_Rx_StartEx has been called. To set the initial
 200:.\Generated_Source\PSoC4/ISR_UART_Rx.c **** *   priority for the component use the cydwr file in the tool.
 201:.\Generated_Source\PSoC4/ISR_UART_Rx.c **** *
 202:.\Generated_Source\PSoC4/ISR_UART_Rx.c **** * Parameters:
 203:.\Generated_Source\PSoC4/ISR_UART_Rx.c **** *   priority: Priority of the interrupt. 0 - 3, 0 being the highest.
 204:.\Generated_Source\PSoC4/ISR_UART_Rx.c **** *
 205:.\Generated_Source\PSoC4/ISR_UART_Rx.c **** * Return:
 206:.\Generated_Source\PSoC4/ISR_UART_Rx.c **** *   None
 207:.\Generated_Source\PSoC4/ISR_UART_Rx.c **** *
 208:.\Generated_Source\PSoC4/ISR_UART_Rx.c **** *******************************************************************************/
 209:.\Generated_Source\PSoC4/ISR_UART_Rx.c **** void ISR_UART_Rx_SetPriority(uint8 priority)
 210:.\Generated_Source\PSoC4/ISR_UART_Rx.c **** {
 240              		.loc 1 210 0
 241              		.cfi_startproc
 242 0000 90B5     		push	{r4, r7, lr}
 243              	.LCFI14:
 244              		.cfi_def_cfa_offset 12
 245              		.cfi_offset 4, -12
 246              		.cfi_offset 7, -8
ARM GAS  C:\Users\Jared\AppData\Local\Temp\cc850TPn.s 			page 9


 247              		.cfi_offset 14, -4
 248 0002 85B0     		sub	sp, sp, #20
 249              	.LCFI15:
 250              		.cfi_def_cfa_offset 32
 251 0004 00AF     		add	r7, sp, #0
 252              	.LCFI16:
 253              		.cfi_def_cfa_register 7
 254 0006 021C     		mov	r2, r0
 255 0008 FB1D     		add	r3, r7, #7
 256 000a 1A70     		strb	r2, [r3]
 211:.\Generated_Source\PSoC4/ISR_UART_Rx.c **** 	uint8 interruptState;
 212:.\Generated_Source\PSoC4/ISR_UART_Rx.c ****     uint32 priorityOffset = ((ISR_UART_Rx__INTC_NUMBER % 4u) * 8u) + 6u;
 257              		.loc 1 212 0
 258 000c 1623     		mov	r3, #22
 259 000e FB60     		str	r3, [r7, #12]
 213:.\Generated_Source\PSoC4/ISR_UART_Rx.c ****     
 214:.\Generated_Source\PSoC4/ISR_UART_Rx.c **** 	interruptState = CyEnterCriticalSection();
 260              		.loc 1 214 0
 261 0010 3C1C     		mov	r4, r7
 262 0012 0B34     		add	r4, r4, #11
 263 0014 FFF7FEFF 		bl	CyEnterCriticalSection
 264 0018 031C     		mov	r3, r0
 265 001a 2370     		strb	r3, [r4]
 215:.\Generated_Source\PSoC4/ISR_UART_Rx.c ****     *ISR_UART_Rx_INTC_PRIOR = (*ISR_UART_Rx_INTC_PRIOR & (uint32)(~ISR_UART_Rx__INTC_PRIOR_MASK)) |
 266              		.loc 1 215 0
 267 001c 0A4B     		ldr	r3, .L17
 268 001e 0A4A     		ldr	r2, .L17
 269 0020 1168     		ldr	r1, [r2]
 270 0022 0A4A     		ldr	r2, .L17+4
 271 0024 1140     		and	r1, r2
 216:.\Generated_Source\PSoC4/ISR_UART_Rx.c ****                                     ((uint32)priority << priorityOffset);
 272              		.loc 1 216 0
 273 0026 FA1D     		add	r2, r7, #7
 274 0028 1078     		ldrb	r0, [r2]
 275 002a FA68     		ldr	r2, [r7, #12]
 276 002c 041C     		mov	r4, r0
 277 002e 9440     		lsl	r4, r4, r2
 278 0030 221C     		mov	r2, r4
 215:.\Generated_Source\PSoC4/ISR_UART_Rx.c ****     *ISR_UART_Rx_INTC_PRIOR = (*ISR_UART_Rx_INTC_PRIOR & (uint32)(~ISR_UART_Rx__INTC_PRIOR_MASK)) |
 279              		.loc 1 215 0
 280 0032 0A43     		orr	r2, r1
 281 0034 1A60     		str	r2, [r3]
 217:.\Generated_Source\PSoC4/ISR_UART_Rx.c **** 	CyExitCriticalSection(interruptState);
 282              		.loc 1 217 0
 283 0036 3B1C     		mov	r3, r7
 284 0038 0B33     		add	r3, r3, #11
 285 003a 1B78     		ldrb	r3, [r3]
 286 003c 181C     		mov	r0, r3
 287 003e FFF7FEFF 		bl	CyExitCriticalSection
 218:.\Generated_Source\PSoC4/ISR_UART_Rx.c **** }
 288              		.loc 1 218 0
 289 0042 BD46     		mov	sp, r7
 290 0044 05B0     		add	sp, sp, #20
 291              		@ sp needed for prologue
 292 0046 90BD     		pop	{r4, r7, pc}
 293              	.L18:
 294              		.align	2
ARM GAS  C:\Users\Jared\AppData\Local\Temp\cc850TPn.s 			page 10


 295              	.L17:
 296 0048 08E400E0 		.word	-536812536
 297 004c FFFF3FFF 		.word	-12582913
 298              		.cfi_endproc
 299              	.LFE6:
 300              		.size	ISR_UART_Rx_SetPriority, .-ISR_UART_Rx_SetPriority
 301              		.section	.text.ISR_UART_Rx_GetPriority,"ax",%progbits
 302              		.align	2
 303              		.global	ISR_UART_Rx_GetPriority
 304              		.code	16
 305              		.thumb_func
 306              		.type	ISR_UART_Rx_GetPriority, %function
 307              	ISR_UART_Rx_GetPriority:
 308              	.LFB7:
 219:.\Generated_Source\PSoC4/ISR_UART_Rx.c **** 
 220:.\Generated_Source\PSoC4/ISR_UART_Rx.c **** 
 221:.\Generated_Source\PSoC4/ISR_UART_Rx.c **** /*******************************************************************************
 222:.\Generated_Source\PSoC4/ISR_UART_Rx.c **** * Function Name: ISR_UART_Rx_GetPriority
 223:.\Generated_Source\PSoC4/ISR_UART_Rx.c **** ********************************************************************************
 224:.\Generated_Source\PSoC4/ISR_UART_Rx.c **** *
 225:.\Generated_Source\PSoC4/ISR_UART_Rx.c **** * Summary:
 226:.\Generated_Source\PSoC4/ISR_UART_Rx.c **** *   Gets the Priority of the Interrupt.
 227:.\Generated_Source\PSoC4/ISR_UART_Rx.c **** *
 228:.\Generated_Source\PSoC4/ISR_UART_Rx.c **** * Parameters:
 229:.\Generated_Source\PSoC4/ISR_UART_Rx.c **** *   None
 230:.\Generated_Source\PSoC4/ISR_UART_Rx.c **** *
 231:.\Generated_Source\PSoC4/ISR_UART_Rx.c **** * Return:
 232:.\Generated_Source\PSoC4/ISR_UART_Rx.c **** *   Priority of the interrupt. 0 - 3, 0 being the highest.
 233:.\Generated_Source\PSoC4/ISR_UART_Rx.c **** *
 234:.\Generated_Source\PSoC4/ISR_UART_Rx.c **** *******************************************************************************/
 235:.\Generated_Source\PSoC4/ISR_UART_Rx.c **** uint8 ISR_UART_Rx_GetPriority(void)
 236:.\Generated_Source\PSoC4/ISR_UART_Rx.c **** {
 309              		.loc 1 236 0
 310              		.cfi_startproc
 311 0000 80B5     		push	{r7, lr}
 312              	.LCFI17:
 313              		.cfi_def_cfa_offset 8
 314              		.cfi_offset 7, -8
 315              		.cfi_offset 14, -4
 316 0002 82B0     		sub	sp, sp, #8
 317              	.LCFI18:
 318              		.cfi_def_cfa_offset 16
 319 0004 00AF     		add	r7, sp, #0
 320              	.LCFI19:
 321              		.cfi_def_cfa_register 7
 237:.\Generated_Source\PSoC4/ISR_UART_Rx.c ****     uint32 priority;
 238:.\Generated_Source\PSoC4/ISR_UART_Rx.c **** 	uint32 priorityOffset = ((ISR_UART_Rx__INTC_NUMBER % 4u) * 8u) + 6u;
 322              		.loc 1 238 0
 323 0006 1623     		mov	r3, #22
 324 0008 7B60     		str	r3, [r7, #4]
 239:.\Generated_Source\PSoC4/ISR_UART_Rx.c **** 
 240:.\Generated_Source\PSoC4/ISR_UART_Rx.c ****     priority = (*ISR_UART_Rx_INTC_PRIOR & ISR_UART_Rx__INTC_PRIOR_MASK) >> priorityOffset;
 325              		.loc 1 240 0
 326 000a 084B     		ldr	r3, .L21
 327 000c 1A68     		ldr	r2, [r3]
 328 000e C023     		mov	r3, #192
 329 0010 1B04     		lsl	r3, r3, #16
ARM GAS  C:\Users\Jared\AppData\Local\Temp\cc850TPn.s 			page 11


 330 0012 1A40     		and	r2, r3
 331 0014 7B68     		ldr	r3, [r7, #4]
 332 0016 111C     		mov	r1, r2
 333 0018 D940     		lsr	r1, r1, r3
 334 001a 0B1C     		mov	r3, r1
 335 001c 3B60     		str	r3, [r7]
 241:.\Generated_Source\PSoC4/ISR_UART_Rx.c **** 
 242:.\Generated_Source\PSoC4/ISR_UART_Rx.c ****     return (uint8)priority;
 336              		.loc 1 242 0
 337 001e 3B68     		ldr	r3, [r7]
 338 0020 DBB2     		uxtb	r3, r3
 243:.\Generated_Source\PSoC4/ISR_UART_Rx.c **** }
 339              		.loc 1 243 0
 340 0022 181C     		mov	r0, r3
 341 0024 BD46     		mov	sp, r7
 342 0026 02B0     		add	sp, sp, #8
 343              		@ sp needed for prologue
 344 0028 80BD     		pop	{r7, pc}
 345              	.L22:
 346 002a C046     		.align	2
 347              	.L21:
 348 002c 08E400E0 		.word	-536812536
 349              		.cfi_endproc
 350              	.LFE7:
 351              		.size	ISR_UART_Rx_GetPriority, .-ISR_UART_Rx_GetPriority
 352              		.section	.text.ISR_UART_Rx_Enable,"ax",%progbits
 353              		.align	2
 354              		.global	ISR_UART_Rx_Enable
 355              		.code	16
 356              		.thumb_func
 357              		.type	ISR_UART_Rx_Enable, %function
 358              	ISR_UART_Rx_Enable:
 359              	.LFB8:
 244:.\Generated_Source\PSoC4/ISR_UART_Rx.c **** 
 245:.\Generated_Source\PSoC4/ISR_UART_Rx.c **** 
 246:.\Generated_Source\PSoC4/ISR_UART_Rx.c **** /*******************************************************************************
 247:.\Generated_Source\PSoC4/ISR_UART_Rx.c **** * Function Name: ISR_UART_Rx_Enable
 248:.\Generated_Source\PSoC4/ISR_UART_Rx.c **** ********************************************************************************
 249:.\Generated_Source\PSoC4/ISR_UART_Rx.c **** *
 250:.\Generated_Source\PSoC4/ISR_UART_Rx.c **** * Summary:
 251:.\Generated_Source\PSoC4/ISR_UART_Rx.c **** *   Enables the interrupt.
 252:.\Generated_Source\PSoC4/ISR_UART_Rx.c **** *
 253:.\Generated_Source\PSoC4/ISR_UART_Rx.c **** * Parameters:
 254:.\Generated_Source\PSoC4/ISR_UART_Rx.c **** *   None
 255:.\Generated_Source\PSoC4/ISR_UART_Rx.c **** *
 256:.\Generated_Source\PSoC4/ISR_UART_Rx.c **** * Return:
 257:.\Generated_Source\PSoC4/ISR_UART_Rx.c **** *   None
 258:.\Generated_Source\PSoC4/ISR_UART_Rx.c **** *
 259:.\Generated_Source\PSoC4/ISR_UART_Rx.c **** *******************************************************************************/
 260:.\Generated_Source\PSoC4/ISR_UART_Rx.c **** void ISR_UART_Rx_Enable(void)
 261:.\Generated_Source\PSoC4/ISR_UART_Rx.c **** {
 360              		.loc 1 261 0
 361              		.cfi_startproc
 362 0000 80B5     		push	{r7, lr}
 363              	.LCFI20:
 364              		.cfi_def_cfa_offset 8
 365              		.cfi_offset 7, -8
ARM GAS  C:\Users\Jared\AppData\Local\Temp\cc850TPn.s 			page 12


 366              		.cfi_offset 14, -4
 367 0002 00AF     		add	r7, sp, #0
 368              	.LCFI21:
 369              		.cfi_def_cfa_register 7
 262:.\Generated_Source\PSoC4/ISR_UART_Rx.c ****     /* Enable the general interrupt. */
 263:.\Generated_Source\PSoC4/ISR_UART_Rx.c ****     *ISR_UART_Rx_INTC_SET_EN = ISR_UART_Rx__INTC_MASK;
 370              		.loc 1 263 0
 371 0004 024B     		ldr	r3, .L24
 372 0006 8022     		mov	r2, #128
 373 0008 D200     		lsl	r2, r2, #3
 374 000a 1A60     		str	r2, [r3]
 264:.\Generated_Source\PSoC4/ISR_UART_Rx.c **** }
 375              		.loc 1 264 0
 376 000c BD46     		mov	sp, r7
 377              		@ sp needed for prologue
 378 000e 80BD     		pop	{r7, pc}
 379              	.L25:
 380              		.align	2
 381              	.L24:
 382 0010 00E100E0 		.word	-536813312
 383              		.cfi_endproc
 384              	.LFE8:
 385              		.size	ISR_UART_Rx_Enable, .-ISR_UART_Rx_Enable
 386              		.section	.text.ISR_UART_Rx_GetState,"ax",%progbits
 387              		.align	2
 388              		.global	ISR_UART_Rx_GetState
 389              		.code	16
 390              		.thumb_func
 391              		.type	ISR_UART_Rx_GetState, %function
 392              	ISR_UART_Rx_GetState:
 393              	.LFB9:
 265:.\Generated_Source\PSoC4/ISR_UART_Rx.c **** 
 266:.\Generated_Source\PSoC4/ISR_UART_Rx.c **** 
 267:.\Generated_Source\PSoC4/ISR_UART_Rx.c **** /*******************************************************************************
 268:.\Generated_Source\PSoC4/ISR_UART_Rx.c **** * Function Name: ISR_UART_Rx_GetState
 269:.\Generated_Source\PSoC4/ISR_UART_Rx.c **** ********************************************************************************
 270:.\Generated_Source\PSoC4/ISR_UART_Rx.c **** *
 271:.\Generated_Source\PSoC4/ISR_UART_Rx.c **** * Summary:
 272:.\Generated_Source\PSoC4/ISR_UART_Rx.c **** *   Gets the state (enabled, disabled) of the Interrupt.
 273:.\Generated_Source\PSoC4/ISR_UART_Rx.c **** *
 274:.\Generated_Source\PSoC4/ISR_UART_Rx.c **** * Parameters:
 275:.\Generated_Source\PSoC4/ISR_UART_Rx.c **** *   None
 276:.\Generated_Source\PSoC4/ISR_UART_Rx.c **** *
 277:.\Generated_Source\PSoC4/ISR_UART_Rx.c **** * Return:
 278:.\Generated_Source\PSoC4/ISR_UART_Rx.c **** *   1 if enabled, 0 if disabled.
 279:.\Generated_Source\PSoC4/ISR_UART_Rx.c **** *
 280:.\Generated_Source\PSoC4/ISR_UART_Rx.c **** *******************************************************************************/
 281:.\Generated_Source\PSoC4/ISR_UART_Rx.c **** uint8 ISR_UART_Rx_GetState(void)
 282:.\Generated_Source\PSoC4/ISR_UART_Rx.c **** {
 394              		.loc 1 282 0
 395              		.cfi_startproc
 396 0000 80B5     		push	{r7, lr}
 397              	.LCFI22:
 398              		.cfi_def_cfa_offset 8
 399              		.cfi_offset 7, -8
 400              		.cfi_offset 14, -4
 401 0002 00AF     		add	r7, sp, #0
ARM GAS  C:\Users\Jared\AppData\Local\Temp\cc850TPn.s 			page 13


 402              	.LCFI23:
 403              		.cfi_def_cfa_register 7
 283:.\Generated_Source\PSoC4/ISR_UART_Rx.c ****     /* Get the state of the general interrupt. */
 284:.\Generated_Source\PSoC4/ISR_UART_Rx.c ****     return ((*ISR_UART_Rx_INTC_SET_EN & (uint32)ISR_UART_Rx__INTC_MASK) != 0u) ? 1u:0u;
 404              		.loc 1 284 0
 405 0004 054B     		ldr	r3, .L30
 406 0006 1A68     		ldr	r2, [r3]
 407 0008 8023     		mov	r3, #128
 408 000a DB00     		lsl	r3, r3, #3
 409 000c 1340     		and	r3, r2
 410 000e 01D0     		beq	.L27
 411              		.loc 1 284 0 is_stmt 0 discriminator 1
 412 0010 0123     		mov	r3, #1
 413 0012 00E0     		b	.L28
 414              	.L27:
 415              		.loc 1 284 0 discriminator 2
 416 0014 0023     		mov	r3, #0
 417              	.L28:
 285:.\Generated_Source\PSoC4/ISR_UART_Rx.c **** }
 418              		.loc 1 285 0 is_stmt 1 discriminator 3
 419 0016 181C     		mov	r0, r3
 420 0018 BD46     		mov	sp, r7
 421              		@ sp needed for prologue
 422 001a 80BD     		pop	{r7, pc}
 423              	.L31:
 424              		.align	2
 425              	.L30:
 426 001c 00E100E0 		.word	-536813312
 427              		.cfi_endproc
 428              	.LFE9:
 429              		.size	ISR_UART_Rx_GetState, .-ISR_UART_Rx_GetState
 430              		.section	.text.ISR_UART_Rx_Disable,"ax",%progbits
 431              		.align	2
 432              		.global	ISR_UART_Rx_Disable
 433              		.code	16
 434              		.thumb_func
 435              		.type	ISR_UART_Rx_Disable, %function
 436              	ISR_UART_Rx_Disable:
 437              	.LFB10:
 286:.\Generated_Source\PSoC4/ISR_UART_Rx.c **** 
 287:.\Generated_Source\PSoC4/ISR_UART_Rx.c **** 
 288:.\Generated_Source\PSoC4/ISR_UART_Rx.c **** /*******************************************************************************
 289:.\Generated_Source\PSoC4/ISR_UART_Rx.c **** * Function Name: ISR_UART_Rx_Disable
 290:.\Generated_Source\PSoC4/ISR_UART_Rx.c **** ********************************************************************************
 291:.\Generated_Source\PSoC4/ISR_UART_Rx.c **** *
 292:.\Generated_Source\PSoC4/ISR_UART_Rx.c **** * Summary:
 293:.\Generated_Source\PSoC4/ISR_UART_Rx.c **** *   Disables the Interrupt.
 294:.\Generated_Source\PSoC4/ISR_UART_Rx.c **** *
 295:.\Generated_Source\PSoC4/ISR_UART_Rx.c **** * Parameters:
 296:.\Generated_Source\PSoC4/ISR_UART_Rx.c **** *   None
 297:.\Generated_Source\PSoC4/ISR_UART_Rx.c **** *
 298:.\Generated_Source\PSoC4/ISR_UART_Rx.c **** * Return:
 299:.\Generated_Source\PSoC4/ISR_UART_Rx.c **** *   None
 300:.\Generated_Source\PSoC4/ISR_UART_Rx.c **** *
 301:.\Generated_Source\PSoC4/ISR_UART_Rx.c **** *******************************************************************************/
 302:.\Generated_Source\PSoC4/ISR_UART_Rx.c **** void ISR_UART_Rx_Disable(void)
 303:.\Generated_Source\PSoC4/ISR_UART_Rx.c **** {
ARM GAS  C:\Users\Jared\AppData\Local\Temp\cc850TPn.s 			page 14


 438              		.loc 1 303 0
 439              		.cfi_startproc
 440 0000 80B5     		push	{r7, lr}
 441              	.LCFI24:
 442              		.cfi_def_cfa_offset 8
 443              		.cfi_offset 7, -8
 444              		.cfi_offset 14, -4
 445 0002 00AF     		add	r7, sp, #0
 446              	.LCFI25:
 447              		.cfi_def_cfa_register 7
 304:.\Generated_Source\PSoC4/ISR_UART_Rx.c ****     /* Disable the general interrupt. */
 305:.\Generated_Source\PSoC4/ISR_UART_Rx.c ****     *ISR_UART_Rx_INTC_CLR_EN = ISR_UART_Rx__INTC_MASK;
 448              		.loc 1 305 0
 449 0004 024B     		ldr	r3, .L33
 450 0006 8022     		mov	r2, #128
 451 0008 D200     		lsl	r2, r2, #3
 452 000a 1A60     		str	r2, [r3]
 306:.\Generated_Source\PSoC4/ISR_UART_Rx.c **** }
 453              		.loc 1 306 0
 454 000c BD46     		mov	sp, r7
 455              		@ sp needed for prologue
 456 000e 80BD     		pop	{r7, pc}
 457              	.L34:
 458              		.align	2
 459              	.L33:
 460 0010 80E100E0 		.word	-536813184
 461              		.cfi_endproc
 462              	.LFE10:
 463              		.size	ISR_UART_Rx_Disable, .-ISR_UART_Rx_Disable
 464              		.section	.text.ISR_UART_Rx_SetPending,"ax",%progbits
 465              		.align	2
 466              		.global	ISR_UART_Rx_SetPending
 467              		.code	16
 468              		.thumb_func
 469              		.type	ISR_UART_Rx_SetPending, %function
 470              	ISR_UART_Rx_SetPending:
 471              	.LFB11:
 307:.\Generated_Source\PSoC4/ISR_UART_Rx.c **** 
 308:.\Generated_Source\PSoC4/ISR_UART_Rx.c **** 
 309:.\Generated_Source\PSoC4/ISR_UART_Rx.c **** /*******************************************************************************
 310:.\Generated_Source\PSoC4/ISR_UART_Rx.c **** * Function Name: ISR_UART_Rx_SetPending
 311:.\Generated_Source\PSoC4/ISR_UART_Rx.c **** ********************************************************************************
 312:.\Generated_Source\PSoC4/ISR_UART_Rx.c **** *
 313:.\Generated_Source\PSoC4/ISR_UART_Rx.c **** * Summary:
 314:.\Generated_Source\PSoC4/ISR_UART_Rx.c **** *   Causes the Interrupt to enter the pending state, a software method of
 315:.\Generated_Source\PSoC4/ISR_UART_Rx.c **** *   generating the interrupt.
 316:.\Generated_Source\PSoC4/ISR_UART_Rx.c **** *
 317:.\Generated_Source\PSoC4/ISR_UART_Rx.c **** * Parameters:
 318:.\Generated_Source\PSoC4/ISR_UART_Rx.c **** *   None
 319:.\Generated_Source\PSoC4/ISR_UART_Rx.c **** *
 320:.\Generated_Source\PSoC4/ISR_UART_Rx.c **** * Return:
 321:.\Generated_Source\PSoC4/ISR_UART_Rx.c **** *   None
 322:.\Generated_Source\PSoC4/ISR_UART_Rx.c **** *
 323:.\Generated_Source\PSoC4/ISR_UART_Rx.c **** *******************************************************************************/
 324:.\Generated_Source\PSoC4/ISR_UART_Rx.c **** void ISR_UART_Rx_SetPending(void)
 325:.\Generated_Source\PSoC4/ISR_UART_Rx.c **** {
 472              		.loc 1 325 0
ARM GAS  C:\Users\Jared\AppData\Local\Temp\cc850TPn.s 			page 15


 473              		.cfi_startproc
 474 0000 80B5     		push	{r7, lr}
 475              	.LCFI26:
 476              		.cfi_def_cfa_offset 8
 477              		.cfi_offset 7, -8
 478              		.cfi_offset 14, -4
 479 0002 00AF     		add	r7, sp, #0
 480              	.LCFI27:
 481              		.cfi_def_cfa_register 7
 326:.\Generated_Source\PSoC4/ISR_UART_Rx.c ****     *ISR_UART_Rx_INTC_SET_PD = ISR_UART_Rx__INTC_MASK;
 482              		.loc 1 326 0
 483 0004 024B     		ldr	r3, .L36
 484 0006 8022     		mov	r2, #128
 485 0008 D200     		lsl	r2, r2, #3
 486 000a 1A60     		str	r2, [r3]
 327:.\Generated_Source\PSoC4/ISR_UART_Rx.c **** }
 487              		.loc 1 327 0
 488 000c BD46     		mov	sp, r7
 489              		@ sp needed for prologue
 490 000e 80BD     		pop	{r7, pc}
 491              	.L37:
 492              		.align	2
 493              	.L36:
 494 0010 00E200E0 		.word	-536813056
 495              		.cfi_endproc
 496              	.LFE11:
 497              		.size	ISR_UART_Rx_SetPending, .-ISR_UART_Rx_SetPending
 498              		.section	.text.ISR_UART_Rx_ClearPending,"ax",%progbits
 499              		.align	2
 500              		.global	ISR_UART_Rx_ClearPending
 501              		.code	16
 502              		.thumb_func
 503              		.type	ISR_UART_Rx_ClearPending, %function
 504              	ISR_UART_Rx_ClearPending:
 505              	.LFB12:
 328:.\Generated_Source\PSoC4/ISR_UART_Rx.c **** 
 329:.\Generated_Source\PSoC4/ISR_UART_Rx.c **** 
 330:.\Generated_Source\PSoC4/ISR_UART_Rx.c **** /*******************************************************************************
 331:.\Generated_Source\PSoC4/ISR_UART_Rx.c **** * Function Name: ISR_UART_Rx_ClearPending
 332:.\Generated_Source\PSoC4/ISR_UART_Rx.c **** ********************************************************************************
 333:.\Generated_Source\PSoC4/ISR_UART_Rx.c **** *
 334:.\Generated_Source\PSoC4/ISR_UART_Rx.c **** * Summary:
 335:.\Generated_Source\PSoC4/ISR_UART_Rx.c **** *   Clears a pending interrupt.
 336:.\Generated_Source\PSoC4/ISR_UART_Rx.c **** *
 337:.\Generated_Source\PSoC4/ISR_UART_Rx.c **** * Parameters:
 338:.\Generated_Source\PSoC4/ISR_UART_Rx.c **** *   None
 339:.\Generated_Source\PSoC4/ISR_UART_Rx.c **** *
 340:.\Generated_Source\PSoC4/ISR_UART_Rx.c **** * Return:
 341:.\Generated_Source\PSoC4/ISR_UART_Rx.c **** *   None
 342:.\Generated_Source\PSoC4/ISR_UART_Rx.c **** *
 343:.\Generated_Source\PSoC4/ISR_UART_Rx.c **** *******************************************************************************/
 344:.\Generated_Source\PSoC4/ISR_UART_Rx.c **** void ISR_UART_Rx_ClearPending(void)
 345:.\Generated_Source\PSoC4/ISR_UART_Rx.c **** {
 506              		.loc 1 345 0
 507              		.cfi_startproc
 508 0000 80B5     		push	{r7, lr}
 509              	.LCFI28:
ARM GAS  C:\Users\Jared\AppData\Local\Temp\cc850TPn.s 			page 16


 510              		.cfi_def_cfa_offset 8
 511              		.cfi_offset 7, -8
 512              		.cfi_offset 14, -4
 513 0002 00AF     		add	r7, sp, #0
 514              	.LCFI29:
 515              		.cfi_def_cfa_register 7
 346:.\Generated_Source\PSoC4/ISR_UART_Rx.c ****     *ISR_UART_Rx_INTC_CLR_PD = ISR_UART_Rx__INTC_MASK;
 516              		.loc 1 346 0
 517 0004 024B     		ldr	r3, .L39
 518 0006 8022     		mov	r2, #128
 519 0008 D200     		lsl	r2, r2, #3
 520 000a 1A60     		str	r2, [r3]
 347:.\Generated_Source\PSoC4/ISR_UART_Rx.c **** }
 521              		.loc 1 347 0
 522 000c BD46     		mov	sp, r7
 523              		@ sp needed for prologue
 524 000e 80BD     		pop	{r7, pc}
 525              	.L40:
 526              		.align	2
 527              	.L39:
 528 0010 80E200E0 		.word	-536812928
 529              		.cfi_endproc
 530              	.LFE12:
 531              		.size	ISR_UART_Rx_ClearPending, .-ISR_UART_Rx_ClearPending
 532              		.text
 533              	.Letext0:
 534              		.file 2 "./Generated_Source/PSoC4/cytypes.h"