ARM GAS  C:\Users\Jared\AppData\Local\Temp\ccyhwfqn.s 			page 1


   1              		.cpu cortex-m0
   2              		.fpu softvfp
   3              		.eabi_attribute 20, 1
   4              		.eabi_attribute 21, 1
   5              		.eabi_attribute 23, 3
   6              		.eabi_attribute 24, 1
   7              		.eabi_attribute 25, 1
   8              		.eabi_attribute 26, 1
   9              		.eabi_attribute 30, 6
  10              		.eabi_attribute 34, 0
  11              		.eabi_attribute 18, 4
  12              		.code	16
  13              		.file	"ISR_Bnt1.c"
  14              		.text
  15              	.Ltext0:
  16              		.cfi_sections	.debug_frame
  17              		.comm	debounce_cnt_btn1,1,1
  18              		.section	.text.ISR_Bnt1_Start,"ax",%progbits
  19              		.align	2
  20              		.global	ISR_Bnt1_Start
  21              		.code	16
  22              		.thumb_func
  23              		.type	ISR_Bnt1_Start, %function
  24              	ISR_Bnt1_Start:
  25              	.LFB0:
  26              		.file 1 ".\\Generated_Source\\PSoC4\\ISR_Bnt1.c"
   1:.\Generated_Source\PSoC4/ISR_Bnt1.c **** /*******************************************************************************
   2:.\Generated_Source\PSoC4/ISR_Bnt1.c **** * File Name: ISR_Bnt1.c  
   3:.\Generated_Source\PSoC4/ISR_Bnt1.c **** * Version 1.70
   4:.\Generated_Source\PSoC4/ISR_Bnt1.c **** *
   5:.\Generated_Source\PSoC4/ISR_Bnt1.c **** *  Description:
   6:.\Generated_Source\PSoC4/ISR_Bnt1.c **** *   API for controlling the state of an interrupt.
   7:.\Generated_Source\PSoC4/ISR_Bnt1.c **** *
   8:.\Generated_Source\PSoC4/ISR_Bnt1.c **** *
   9:.\Generated_Source\PSoC4/ISR_Bnt1.c **** *  Note:
  10:.\Generated_Source\PSoC4/ISR_Bnt1.c **** *
  11:.\Generated_Source\PSoC4/ISR_Bnt1.c **** ********************************************************************************
  12:.\Generated_Source\PSoC4/ISR_Bnt1.c **** * Copyright 2008-2012, Cypress Semiconductor Corporation.  All rights reserved.
  13:.\Generated_Source\PSoC4/ISR_Bnt1.c **** * You may use this file only in accordance with the license, terms, conditions, 
  14:.\Generated_Source\PSoC4/ISR_Bnt1.c **** * disclaimers, and limitations in the end user license agreement accompanying 
  15:.\Generated_Source\PSoC4/ISR_Bnt1.c **** * the software package with which this file was provided.
  16:.\Generated_Source\PSoC4/ISR_Bnt1.c **** *******************************************************************************/
  17:.\Generated_Source\PSoC4/ISR_Bnt1.c **** 
  18:.\Generated_Source\PSoC4/ISR_Bnt1.c **** 
  19:.\Generated_Source\PSoC4/ISR_Bnt1.c **** #include <cydevice_trm.h>
  20:.\Generated_Source\PSoC4/ISR_Bnt1.c **** #include <CyLib.h>
  21:.\Generated_Source\PSoC4/ISR_Bnt1.c **** #include <ISR_Bnt1.h>
  22:.\Generated_Source\PSoC4/ISR_Bnt1.c **** 
  23:.\Generated_Source\PSoC4/ISR_Bnt1.c **** #if !defined(ISR_Bnt1__REMOVED) /* Check for removal by optimization */
  24:.\Generated_Source\PSoC4/ISR_Bnt1.c **** 
  25:.\Generated_Source\PSoC4/ISR_Bnt1.c **** /*******************************************************************************
  26:.\Generated_Source\PSoC4/ISR_Bnt1.c **** *  Place your includes, defines and code here 
  27:.\Generated_Source\PSoC4/ISR_Bnt1.c **** ********************************************************************************/
  28:.\Generated_Source\PSoC4/ISR_Bnt1.c **** /* `#START ISR_Bnt1_intc` */
  29:.\Generated_Source\PSoC4/ISR_Bnt1.c **** #include "Btn1.h"
  30:.\Generated_Source\PSoC4/ISR_Bnt1.c **** #define DEBOUNCE 10 
  31:.\Generated_Source\PSoC4/ISR_Bnt1.c **** volatile uint8_t debounce_cnt_btn1;
ARM GAS  C:\Users\Jared\AppData\Local\Temp\ccyhwfqn.s 			page 2


  32:.\Generated_Source\PSoC4/ISR_Bnt1.c **** 
  33:.\Generated_Source\PSoC4/ISR_Bnt1.c **** /* `#END` */
  34:.\Generated_Source\PSoC4/ISR_Bnt1.c **** 
  35:.\Generated_Source\PSoC4/ISR_Bnt1.c **** extern cyisraddress CyRamVectors[CYINT_IRQ_BASE + CY_NUM_INTERRUPTS];
  36:.\Generated_Source\PSoC4/ISR_Bnt1.c **** 
  37:.\Generated_Source\PSoC4/ISR_Bnt1.c **** /* Declared in startup, used to set unused interrupts to. */
  38:.\Generated_Source\PSoC4/ISR_Bnt1.c **** CY_ISR_PROTO(IntDefaultHandler);
  39:.\Generated_Source\PSoC4/ISR_Bnt1.c **** 
  40:.\Generated_Source\PSoC4/ISR_Bnt1.c **** 
  41:.\Generated_Source\PSoC4/ISR_Bnt1.c **** /*******************************************************************************
  42:.\Generated_Source\PSoC4/ISR_Bnt1.c **** * Function Name: ISR_Bnt1_Start
  43:.\Generated_Source\PSoC4/ISR_Bnt1.c **** ********************************************************************************
  44:.\Generated_Source\PSoC4/ISR_Bnt1.c **** *
  45:.\Generated_Source\PSoC4/ISR_Bnt1.c **** * Summary:
  46:.\Generated_Source\PSoC4/ISR_Bnt1.c **** *  Set up the interrupt and enable it.
  47:.\Generated_Source\PSoC4/ISR_Bnt1.c **** *
  48:.\Generated_Source\PSoC4/ISR_Bnt1.c **** * Parameters:  
  49:.\Generated_Source\PSoC4/ISR_Bnt1.c **** *   None
  50:.\Generated_Source\PSoC4/ISR_Bnt1.c **** *
  51:.\Generated_Source\PSoC4/ISR_Bnt1.c **** * Return:
  52:.\Generated_Source\PSoC4/ISR_Bnt1.c **** *   None
  53:.\Generated_Source\PSoC4/ISR_Bnt1.c **** *
  54:.\Generated_Source\PSoC4/ISR_Bnt1.c **** *******************************************************************************/
  55:.\Generated_Source\PSoC4/ISR_Bnt1.c **** void ISR_Bnt1_Start(void)
  56:.\Generated_Source\PSoC4/ISR_Bnt1.c **** {
  27              		.loc 1 56 0
  28              		.cfi_startproc
  29 0000 80B5     		push	{r7, lr}
  30              	.LCFI0:
  31              		.cfi_def_cfa_offset 8
  32              		.cfi_offset 7, -8
  33              		.cfi_offset 14, -4
  34 0002 00AF     		add	r7, sp, #0
  35              	.LCFI1:
  36              		.cfi_def_cfa_register 7
  57:.\Generated_Source\PSoC4/ISR_Bnt1.c ****     /* For all we know the interrupt is active. */
  58:.\Generated_Source\PSoC4/ISR_Bnt1.c ****     ISR_Bnt1_Disable();
  37              		.loc 1 58 0
  38 0004 FFF7FEFF 		bl	ISR_Bnt1_Disable
  59:.\Generated_Source\PSoC4/ISR_Bnt1.c **** 
  60:.\Generated_Source\PSoC4/ISR_Bnt1.c ****     /* Set the ISR to point to the ISR_Bnt1 Interrupt. */
  61:.\Generated_Source\PSoC4/ISR_Bnt1.c ****     ISR_Bnt1_SetVector(&ISR_Bnt1_Interrupt);
  39              		.loc 1 61 0
  40 0008 054B     		ldr	r3, .L2
  41 000a 181C     		mov	r0, r3
  42 000c FFF7FEFF 		bl	ISR_Bnt1_SetVector
  62:.\Generated_Source\PSoC4/ISR_Bnt1.c **** 
  63:.\Generated_Source\PSoC4/ISR_Bnt1.c ****     /* Set the priority. */
  64:.\Generated_Source\PSoC4/ISR_Bnt1.c ****     ISR_Bnt1_SetPriority((uint8)ISR_Bnt1_INTC_PRIOR_NUMBER);
  43              		.loc 1 64 0
  44 0010 0320     		mov	r0, #3
  45 0012 FFF7FEFF 		bl	ISR_Bnt1_SetPriority
  65:.\Generated_Source\PSoC4/ISR_Bnt1.c **** 
  66:.\Generated_Source\PSoC4/ISR_Bnt1.c ****     /* Enable it. */
  67:.\Generated_Source\PSoC4/ISR_Bnt1.c ****     ISR_Bnt1_Enable();
  46              		.loc 1 67 0
  47 0016 FFF7FEFF 		bl	ISR_Bnt1_Enable
ARM GAS  C:\Users\Jared\AppData\Local\Temp\ccyhwfqn.s 			page 3


  68:.\Generated_Source\PSoC4/ISR_Bnt1.c **** }
  48              		.loc 1 68 0
  49 001a BD46     		mov	sp, r7
  50              		@ sp needed for prologue
  51 001c 80BD     		pop	{r7, pc}
  52              	.L3:
  53 001e C046     		.align	2
  54              	.L2:
  55 0020 00000000 		.word	ISR_Bnt1_Interrupt
  56              		.cfi_endproc
  57              	.LFE0:
  58              		.size	ISR_Bnt1_Start, .-ISR_Bnt1_Start
  59              		.section	.text.ISR_Bnt1_StartEx,"ax",%progbits
  60              		.align	2
  61              		.global	ISR_Bnt1_StartEx
  62              		.code	16
  63              		.thumb_func
  64              		.type	ISR_Bnt1_StartEx, %function
  65              	ISR_Bnt1_StartEx:
  66              	.LFB1:
  69:.\Generated_Source\PSoC4/ISR_Bnt1.c **** 
  70:.\Generated_Source\PSoC4/ISR_Bnt1.c **** 
  71:.\Generated_Source\PSoC4/ISR_Bnt1.c **** /*******************************************************************************
  72:.\Generated_Source\PSoC4/ISR_Bnt1.c **** * Function Name: ISR_Bnt1_StartEx
  73:.\Generated_Source\PSoC4/ISR_Bnt1.c **** ********************************************************************************
  74:.\Generated_Source\PSoC4/ISR_Bnt1.c **** *
  75:.\Generated_Source\PSoC4/ISR_Bnt1.c **** * Summary:
  76:.\Generated_Source\PSoC4/ISR_Bnt1.c **** *  Set up the interrupt and enable it.
  77:.\Generated_Source\PSoC4/ISR_Bnt1.c **** *
  78:.\Generated_Source\PSoC4/ISR_Bnt1.c **** * Parameters:  
  79:.\Generated_Source\PSoC4/ISR_Bnt1.c **** *   address: Address of the ISR to set in the interrupt vector table.
  80:.\Generated_Source\PSoC4/ISR_Bnt1.c **** *
  81:.\Generated_Source\PSoC4/ISR_Bnt1.c **** * Return:
  82:.\Generated_Source\PSoC4/ISR_Bnt1.c **** *   None
  83:.\Generated_Source\PSoC4/ISR_Bnt1.c **** *
  84:.\Generated_Source\PSoC4/ISR_Bnt1.c **** *******************************************************************************/
  85:.\Generated_Source\PSoC4/ISR_Bnt1.c **** void ISR_Bnt1_StartEx(cyisraddress address)
  86:.\Generated_Source\PSoC4/ISR_Bnt1.c **** {
  67              		.loc 1 86 0
  68              		.cfi_startproc
  69 0000 80B5     		push	{r7, lr}
  70              	.LCFI2:
  71              		.cfi_def_cfa_offset 8
  72              		.cfi_offset 7, -8
  73              		.cfi_offset 14, -4
  74 0002 82B0     		sub	sp, sp, #8
  75              	.LCFI3:
  76              		.cfi_def_cfa_offset 16
  77 0004 00AF     		add	r7, sp, #0
  78              	.LCFI4:
  79              		.cfi_def_cfa_register 7
  80 0006 7860     		str	r0, [r7, #4]
  87:.\Generated_Source\PSoC4/ISR_Bnt1.c ****     /* For all we know the interrupt is active. */
  88:.\Generated_Source\PSoC4/ISR_Bnt1.c ****     ISR_Bnt1_Disable();
  81              		.loc 1 88 0
  82 0008 FFF7FEFF 		bl	ISR_Bnt1_Disable
  89:.\Generated_Source\PSoC4/ISR_Bnt1.c **** 
ARM GAS  C:\Users\Jared\AppData\Local\Temp\ccyhwfqn.s 			page 4


  90:.\Generated_Source\PSoC4/ISR_Bnt1.c ****     /* Set the ISR to point to the ISR_Bnt1 Interrupt. */
  91:.\Generated_Source\PSoC4/ISR_Bnt1.c ****     ISR_Bnt1_SetVector(address);
  83              		.loc 1 91 0
  84 000c 7B68     		ldr	r3, [r7, #4]
  85 000e 181C     		mov	r0, r3
  86 0010 FFF7FEFF 		bl	ISR_Bnt1_SetVector
  92:.\Generated_Source\PSoC4/ISR_Bnt1.c **** 
  93:.\Generated_Source\PSoC4/ISR_Bnt1.c ****     /* Set the priority. */
  94:.\Generated_Source\PSoC4/ISR_Bnt1.c ****     ISR_Bnt1_SetPriority((uint8)ISR_Bnt1_INTC_PRIOR_NUMBER);
  87              		.loc 1 94 0
  88 0014 0320     		mov	r0, #3
  89 0016 FFF7FEFF 		bl	ISR_Bnt1_SetPriority
  95:.\Generated_Source\PSoC4/ISR_Bnt1.c **** 
  96:.\Generated_Source\PSoC4/ISR_Bnt1.c ****     /* Enable it. */
  97:.\Generated_Source\PSoC4/ISR_Bnt1.c ****     ISR_Bnt1_Enable();
  90              		.loc 1 97 0
  91 001a FFF7FEFF 		bl	ISR_Bnt1_Enable
  98:.\Generated_Source\PSoC4/ISR_Bnt1.c **** }
  92              		.loc 1 98 0
  93 001e BD46     		mov	sp, r7
  94 0020 02B0     		add	sp, sp, #8
  95              		@ sp needed for prologue
  96 0022 80BD     		pop	{r7, pc}
  97              		.cfi_endproc
  98              	.LFE1:
  99              		.size	ISR_Bnt1_StartEx, .-ISR_Bnt1_StartEx
 100              		.section	.text.ISR_Bnt1_Stop,"ax",%progbits
 101              		.align	2
 102              		.global	ISR_Bnt1_Stop
 103              		.code	16
 104              		.thumb_func
 105              		.type	ISR_Bnt1_Stop, %function
 106              	ISR_Bnt1_Stop:
 107              	.LFB2:
  99:.\Generated_Source\PSoC4/ISR_Bnt1.c **** 
 100:.\Generated_Source\PSoC4/ISR_Bnt1.c **** 
 101:.\Generated_Source\PSoC4/ISR_Bnt1.c **** /*******************************************************************************
 102:.\Generated_Source\PSoC4/ISR_Bnt1.c **** * Function Name: ISR_Bnt1_Stop
 103:.\Generated_Source\PSoC4/ISR_Bnt1.c **** ********************************************************************************
 104:.\Generated_Source\PSoC4/ISR_Bnt1.c **** *
 105:.\Generated_Source\PSoC4/ISR_Bnt1.c **** * Summary:
 106:.\Generated_Source\PSoC4/ISR_Bnt1.c **** *   Disables and removes the interrupt.
 107:.\Generated_Source\PSoC4/ISR_Bnt1.c **** *
 108:.\Generated_Source\PSoC4/ISR_Bnt1.c **** * Parameters:  
 109:.\Generated_Source\PSoC4/ISR_Bnt1.c **** *
 110:.\Generated_Source\PSoC4/ISR_Bnt1.c **** * Return:
 111:.\Generated_Source\PSoC4/ISR_Bnt1.c **** *   None
 112:.\Generated_Source\PSoC4/ISR_Bnt1.c **** *
 113:.\Generated_Source\PSoC4/ISR_Bnt1.c **** *******************************************************************************/
 114:.\Generated_Source\PSoC4/ISR_Bnt1.c **** void ISR_Bnt1_Stop(void)
 115:.\Generated_Source\PSoC4/ISR_Bnt1.c **** {
 108              		.loc 1 115 0
 109              		.cfi_startproc
 110 0000 80B5     		push	{r7, lr}
 111              	.LCFI5:
 112              		.cfi_def_cfa_offset 8
 113              		.cfi_offset 7, -8
ARM GAS  C:\Users\Jared\AppData\Local\Temp\ccyhwfqn.s 			page 5


 114              		.cfi_offset 14, -4
 115 0002 00AF     		add	r7, sp, #0
 116              	.LCFI6:
 117              		.cfi_def_cfa_register 7
 116:.\Generated_Source\PSoC4/ISR_Bnt1.c ****     /* Disable this interrupt. */
 117:.\Generated_Source\PSoC4/ISR_Bnt1.c ****     ISR_Bnt1_Disable();
 118              		.loc 1 117 0
 119 0004 FFF7FEFF 		bl	ISR_Bnt1_Disable
 118:.\Generated_Source\PSoC4/ISR_Bnt1.c **** 
 119:.\Generated_Source\PSoC4/ISR_Bnt1.c ****     /* Set the ISR to point to the passive one. */
 120:.\Generated_Source\PSoC4/ISR_Bnt1.c ****     ISR_Bnt1_SetVector(&IntDefaultHandler);
 120              		.loc 1 120 0
 121 0008 024B     		ldr	r3, .L6
 122 000a 181C     		mov	r0, r3
 123 000c FFF7FEFF 		bl	ISR_Bnt1_SetVector
 121:.\Generated_Source\PSoC4/ISR_Bnt1.c **** }
 124              		.loc 1 121 0
 125 0010 BD46     		mov	sp, r7
 126              		@ sp needed for prologue
 127 0012 80BD     		pop	{r7, pc}
 128              	.L7:
 129              		.align	2
 130              	.L6:
 131 0014 00000000 		.word	IntDefaultHandler
 132              		.cfi_endproc
 133              	.LFE2:
 134              		.size	ISR_Bnt1_Stop, .-ISR_Bnt1_Stop
 135              		.section	.text.ISR_Bnt1_Interrupt,"ax",%progbits
 136              		.align	2
 137              		.global	ISR_Bnt1_Interrupt
 138              		.code	16
 139              		.thumb_func
 140              		.type	ISR_Bnt1_Interrupt, %function
 141              	ISR_Bnt1_Interrupt:
 142              	.LFB3:
 122:.\Generated_Source\PSoC4/ISR_Bnt1.c **** 
 123:.\Generated_Source\PSoC4/ISR_Bnt1.c **** 
 124:.\Generated_Source\PSoC4/ISR_Bnt1.c **** /*******************************************************************************
 125:.\Generated_Source\PSoC4/ISR_Bnt1.c **** * Function Name: ISR_Bnt1_Interrupt
 126:.\Generated_Source\PSoC4/ISR_Bnt1.c **** ********************************************************************************
 127:.\Generated_Source\PSoC4/ISR_Bnt1.c **** *
 128:.\Generated_Source\PSoC4/ISR_Bnt1.c **** * Summary:
 129:.\Generated_Source\PSoC4/ISR_Bnt1.c **** *   The default Interrupt Service Routine for ISR_Bnt1.
 130:.\Generated_Source\PSoC4/ISR_Bnt1.c **** *
 131:.\Generated_Source\PSoC4/ISR_Bnt1.c **** *   Add custom code between the coments to keep the next version of this file
 132:.\Generated_Source\PSoC4/ISR_Bnt1.c **** *   from over writting your code.
 133:.\Generated_Source\PSoC4/ISR_Bnt1.c **** *
 134:.\Generated_Source\PSoC4/ISR_Bnt1.c **** * Parameters:  
 135:.\Generated_Source\PSoC4/ISR_Bnt1.c **** *   None
 136:.\Generated_Source\PSoC4/ISR_Bnt1.c **** *
 137:.\Generated_Source\PSoC4/ISR_Bnt1.c **** * Return:
 138:.\Generated_Source\PSoC4/ISR_Bnt1.c **** *   None
 139:.\Generated_Source\PSoC4/ISR_Bnt1.c **** *
 140:.\Generated_Source\PSoC4/ISR_Bnt1.c **** *******************************************************************************/
 141:.\Generated_Source\PSoC4/ISR_Bnt1.c **** CY_ISR(ISR_Bnt1_Interrupt)
 142:.\Generated_Source\PSoC4/ISR_Bnt1.c **** {
 143              		.loc 1 142 0
ARM GAS  C:\Users\Jared\AppData\Local\Temp\ccyhwfqn.s 			page 6


 144              		.cfi_startproc
 145 0000 80B5     		push	{r7, lr}
 146              	.LCFI7:
 147              		.cfi_def_cfa_offset 8
 148              		.cfi_offset 7, -8
 149              		.cfi_offset 14, -4
 150 0002 00AF     		add	r7, sp, #0
 151              	.LCFI8:
 152              		.cfi_def_cfa_register 7
 143:.\Generated_Source\PSoC4/ISR_Bnt1.c ****     /*  Place your Interrupt code here. */
 144:.\Generated_Source\PSoC4/ISR_Bnt1.c ****     /* `#START ISR_Bnt1_Interrupt` */
 145:.\Generated_Source\PSoC4/ISR_Bnt1.c ****     Btn1_ClearInterrupt();
 153              		.loc 1 145 0
 154 0004 FFF7FEFF 		bl	Btn1_ClearInterrupt
 146:.\Generated_Source\PSoC4/ISR_Bnt1.c ****     ISR_Bnt1_ClearPending();
 155              		.loc 1 146 0
 156 0008 FFF7FEFF 		bl	ISR_Bnt1_ClearPending
 147:.\Generated_Source\PSoC4/ISR_Bnt1.c ****     debounce_cnt_btn1 = DEBOUNCE;
 157              		.loc 1 147 0
 158 000c 024B     		ldr	r3, .L9
 159 000e 0A22     		mov	r2, #10
 160 0010 1A70     		strb	r2, [r3]
 148:.\Generated_Source\PSoC4/ISR_Bnt1.c ****     /* `#END` */
 149:.\Generated_Source\PSoC4/ISR_Bnt1.c **** }
 161              		.loc 1 149 0
 162 0012 BD46     		mov	sp, r7
 163              		@ sp needed for prologue
 164 0014 80BD     		pop	{r7, pc}
 165              	.L10:
 166 0016 C046     		.align	2
 167              	.L9:
 168 0018 00000000 		.word	debounce_cnt_btn1
 169              		.cfi_endproc
 170              	.LFE3:
 171              		.size	ISR_Bnt1_Interrupt, .-ISR_Bnt1_Interrupt
 172              		.section	.text.ISR_Bnt1_SetVector,"ax",%progbits
 173              		.align	2
 174              		.global	ISR_Bnt1_SetVector
 175              		.code	16
 176              		.thumb_func
 177              		.type	ISR_Bnt1_SetVector, %function
 178              	ISR_Bnt1_SetVector:
 179              	.LFB4:
 150:.\Generated_Source\PSoC4/ISR_Bnt1.c **** 
 151:.\Generated_Source\PSoC4/ISR_Bnt1.c **** 
 152:.\Generated_Source\PSoC4/ISR_Bnt1.c **** /*******************************************************************************
 153:.\Generated_Source\PSoC4/ISR_Bnt1.c **** * Function Name: ISR_Bnt1_SetVector
 154:.\Generated_Source\PSoC4/ISR_Bnt1.c **** ********************************************************************************
 155:.\Generated_Source\PSoC4/ISR_Bnt1.c **** *
 156:.\Generated_Source\PSoC4/ISR_Bnt1.c **** * Summary:
 157:.\Generated_Source\PSoC4/ISR_Bnt1.c **** *   Change the ISR vector for the Interrupt. Note calling ISR_Bnt1_Start
 158:.\Generated_Source\PSoC4/ISR_Bnt1.c **** *   will override any effect this method would have had. To set the vector 
 159:.\Generated_Source\PSoC4/ISR_Bnt1.c **** *   before the component has been started use ISR_Bnt1_StartEx instead.
 160:.\Generated_Source\PSoC4/ISR_Bnt1.c **** *
 161:.\Generated_Source\PSoC4/ISR_Bnt1.c **** * Parameters:
 162:.\Generated_Source\PSoC4/ISR_Bnt1.c **** *   address: Address of the ISR to set in the interrupt vector table.
 163:.\Generated_Source\PSoC4/ISR_Bnt1.c **** *
ARM GAS  C:\Users\Jared\AppData\Local\Temp\ccyhwfqn.s 			page 7


 164:.\Generated_Source\PSoC4/ISR_Bnt1.c **** * Return:
 165:.\Generated_Source\PSoC4/ISR_Bnt1.c **** *   None
 166:.\Generated_Source\PSoC4/ISR_Bnt1.c **** *
 167:.\Generated_Source\PSoC4/ISR_Bnt1.c **** *******************************************************************************/
 168:.\Generated_Source\PSoC4/ISR_Bnt1.c **** void ISR_Bnt1_SetVector(cyisraddress address)
 169:.\Generated_Source\PSoC4/ISR_Bnt1.c **** {
 180              		.loc 1 169 0
 181              		.cfi_startproc
 182 0000 80B5     		push	{r7, lr}
 183              	.LCFI9:
 184              		.cfi_def_cfa_offset 8
 185              		.cfi_offset 7, -8
 186              		.cfi_offset 14, -4
 187 0002 82B0     		sub	sp, sp, #8
 188              	.LCFI10:
 189              		.cfi_def_cfa_offset 16
 190 0004 00AF     		add	r7, sp, #0
 191              	.LCFI11:
 192              		.cfi_def_cfa_register 7
 193 0006 7860     		str	r0, [r7, #4]
 170:.\Generated_Source\PSoC4/ISR_Bnt1.c ****     CyRamVectors[CYINT_IRQ_BASE + ISR_Bnt1__INTC_NUMBER] = address;
 194              		.loc 1 170 0
 195 0008 024B     		ldr	r3, .L12
 196 000a 7A68     		ldr	r2, [r7, #4]
 197 000c 9A64     		str	r2, [r3, #72]
 171:.\Generated_Source\PSoC4/ISR_Bnt1.c **** }
 198              		.loc 1 171 0
 199 000e BD46     		mov	sp, r7
 200 0010 02B0     		add	sp, sp, #8
 201              		@ sp needed for prologue
 202 0012 80BD     		pop	{r7, pc}
 203              	.L13:
 204              		.align	2
 205              	.L12:
 206 0014 00000000 		.word	CyRamVectors
 207              		.cfi_endproc
 208              	.LFE4:
 209              		.size	ISR_Bnt1_SetVector, .-ISR_Bnt1_SetVector
 210              		.section	.text.ISR_Bnt1_GetVector,"ax",%progbits
 211              		.align	2
 212              		.global	ISR_Bnt1_GetVector
 213              		.code	16
 214              		.thumb_func
 215              		.type	ISR_Bnt1_GetVector, %function
 216              	ISR_Bnt1_GetVector:
 217              	.LFB5:
 172:.\Generated_Source\PSoC4/ISR_Bnt1.c **** 
 173:.\Generated_Source\PSoC4/ISR_Bnt1.c **** 
 174:.\Generated_Source\PSoC4/ISR_Bnt1.c **** /*******************************************************************************
 175:.\Generated_Source\PSoC4/ISR_Bnt1.c **** * Function Name: ISR_Bnt1_GetVector
 176:.\Generated_Source\PSoC4/ISR_Bnt1.c **** ********************************************************************************
 177:.\Generated_Source\PSoC4/ISR_Bnt1.c **** *
 178:.\Generated_Source\PSoC4/ISR_Bnt1.c **** * Summary:
 179:.\Generated_Source\PSoC4/ISR_Bnt1.c **** *   Gets the "address" of the current ISR vector for the Interrupt.
 180:.\Generated_Source\PSoC4/ISR_Bnt1.c **** *
 181:.\Generated_Source\PSoC4/ISR_Bnt1.c **** * Parameters:
 182:.\Generated_Source\PSoC4/ISR_Bnt1.c **** *   None
ARM GAS  C:\Users\Jared\AppData\Local\Temp\ccyhwfqn.s 			page 8


 183:.\Generated_Source\PSoC4/ISR_Bnt1.c **** *
 184:.\Generated_Source\PSoC4/ISR_Bnt1.c **** * Return:
 185:.\Generated_Source\PSoC4/ISR_Bnt1.c **** *   Address of the ISR in the interrupt vector table.
 186:.\Generated_Source\PSoC4/ISR_Bnt1.c **** *
 187:.\Generated_Source\PSoC4/ISR_Bnt1.c **** *******************************************************************************/
 188:.\Generated_Source\PSoC4/ISR_Bnt1.c **** cyisraddress ISR_Bnt1_GetVector(void)
 189:.\Generated_Source\PSoC4/ISR_Bnt1.c **** {
 218              		.loc 1 189 0
 219              		.cfi_startproc
 220 0000 80B5     		push	{r7, lr}
 221              	.LCFI12:
 222              		.cfi_def_cfa_offset 8
 223              		.cfi_offset 7, -8
 224              		.cfi_offset 14, -4
 225 0002 00AF     		add	r7, sp, #0
 226              	.LCFI13:
 227              		.cfi_def_cfa_register 7
 190:.\Generated_Source\PSoC4/ISR_Bnt1.c ****     return CyRamVectors[CYINT_IRQ_BASE + ISR_Bnt1__INTC_NUMBER];
 228              		.loc 1 190 0
 229 0004 024B     		ldr	r3, .L16
 230 0006 9B6C     		ldr	r3, [r3, #72]
 191:.\Generated_Source\PSoC4/ISR_Bnt1.c **** }
 231              		.loc 1 191 0
 232 0008 181C     		mov	r0, r3
 233 000a BD46     		mov	sp, r7
 234              		@ sp needed for prologue
 235 000c 80BD     		pop	{r7, pc}
 236              	.L17:
 237 000e C046     		.align	2
 238              	.L16:
 239 0010 00000000 		.word	CyRamVectors
 240              		.cfi_endproc
 241              	.LFE5:
 242              		.size	ISR_Bnt1_GetVector, .-ISR_Bnt1_GetVector
 243              		.section	.text.ISR_Bnt1_SetPriority,"ax",%progbits
 244              		.align	2
 245              		.global	ISR_Bnt1_SetPriority
 246              		.code	16
 247              		.thumb_func
 248              		.type	ISR_Bnt1_SetPriority, %function
 249              	ISR_Bnt1_SetPriority:
 250              	.LFB6:
 192:.\Generated_Source\PSoC4/ISR_Bnt1.c **** 
 193:.\Generated_Source\PSoC4/ISR_Bnt1.c **** 
 194:.\Generated_Source\PSoC4/ISR_Bnt1.c **** /*******************************************************************************
 195:.\Generated_Source\PSoC4/ISR_Bnt1.c **** * Function Name: ISR_Bnt1_SetPriority
 196:.\Generated_Source\PSoC4/ISR_Bnt1.c **** ********************************************************************************
 197:.\Generated_Source\PSoC4/ISR_Bnt1.c **** *
 198:.\Generated_Source\PSoC4/ISR_Bnt1.c **** * Summary:
 199:.\Generated_Source\PSoC4/ISR_Bnt1.c **** *   Sets the Priority of the Interrupt. Note calling ISR_Bnt1_Start
 200:.\Generated_Source\PSoC4/ISR_Bnt1.c **** *   or ISR_Bnt1_StartEx will override any effect this method would 
 201:.\Generated_Source\PSoC4/ISR_Bnt1.c **** *   have had. This method should only be called after ISR_Bnt1_Start or 
 202:.\Generated_Source\PSoC4/ISR_Bnt1.c **** *   ISR_Bnt1_StartEx has been called. To set the initial
 203:.\Generated_Source\PSoC4/ISR_Bnt1.c **** *   priority for the component use the cydwr file in the tool.
 204:.\Generated_Source\PSoC4/ISR_Bnt1.c **** *
 205:.\Generated_Source\PSoC4/ISR_Bnt1.c **** * Parameters:
 206:.\Generated_Source\PSoC4/ISR_Bnt1.c **** *   priority: Priority of the interrupt. 0 - 3, 0 being the highest.
ARM GAS  C:\Users\Jared\AppData\Local\Temp\ccyhwfqn.s 			page 9


 207:.\Generated_Source\PSoC4/ISR_Bnt1.c **** *
 208:.\Generated_Source\PSoC4/ISR_Bnt1.c **** * Return:
 209:.\Generated_Source\PSoC4/ISR_Bnt1.c **** *   None
 210:.\Generated_Source\PSoC4/ISR_Bnt1.c **** *
 211:.\Generated_Source\PSoC4/ISR_Bnt1.c **** *******************************************************************************/
 212:.\Generated_Source\PSoC4/ISR_Bnt1.c **** void ISR_Bnt1_SetPriority(uint8 priority)
 213:.\Generated_Source\PSoC4/ISR_Bnt1.c **** {
 251              		.loc 1 213 0
 252              		.cfi_startproc
 253 0000 90B5     		push	{r4, r7, lr}
 254              	.LCFI14:
 255              		.cfi_def_cfa_offset 12
 256              		.cfi_offset 4, -12
 257              		.cfi_offset 7, -8
 258              		.cfi_offset 14, -4
 259 0002 85B0     		sub	sp, sp, #20
 260              	.LCFI15:
 261              		.cfi_def_cfa_offset 32
 262 0004 00AF     		add	r7, sp, #0
 263              	.LCFI16:
 264              		.cfi_def_cfa_register 7
 265 0006 021C     		mov	r2, r0
 266 0008 FB1D     		add	r3, r7, #7
 267 000a 1A70     		strb	r2, [r3]
 214:.\Generated_Source\PSoC4/ISR_Bnt1.c **** 	uint8 interruptState;
 215:.\Generated_Source\PSoC4/ISR_Bnt1.c ****     uint32 priorityOffset = ((ISR_Bnt1__INTC_NUMBER % 4u) * 8u) + 6u;
 268              		.loc 1 215 0
 269 000c 1623     		mov	r3, #22
 270 000e FB60     		str	r3, [r7, #12]
 216:.\Generated_Source\PSoC4/ISR_Bnt1.c ****     
 217:.\Generated_Source\PSoC4/ISR_Bnt1.c **** 	interruptState = CyEnterCriticalSection();
 271              		.loc 1 217 0
 272 0010 3C1C     		mov	r4, r7
 273 0012 0B34     		add	r4, r4, #11
 274 0014 FFF7FEFF 		bl	CyEnterCriticalSection
 275 0018 031C     		mov	r3, r0
 276 001a 2370     		strb	r3, [r4]
 218:.\Generated_Source\PSoC4/ISR_Bnt1.c ****     *ISR_Bnt1_INTC_PRIOR = (*ISR_Bnt1_INTC_PRIOR & (uint32)(~ISR_Bnt1__INTC_PRIOR_MASK)) |
 277              		.loc 1 218 0
 278 001c 0A4B     		ldr	r3, .L19
 279 001e 0A4A     		ldr	r2, .L19
 280 0020 1168     		ldr	r1, [r2]
 281 0022 0A4A     		ldr	r2, .L19+4
 282 0024 1140     		and	r1, r2
 219:.\Generated_Source\PSoC4/ISR_Bnt1.c ****                                     ((uint32)priority << priorityOffset);
 283              		.loc 1 219 0
 284 0026 FA1D     		add	r2, r7, #7
 285 0028 1078     		ldrb	r0, [r2]
 286 002a FA68     		ldr	r2, [r7, #12]
 287 002c 041C     		mov	r4, r0
 288 002e 9440     		lsl	r4, r4, r2
 289 0030 221C     		mov	r2, r4
 218:.\Generated_Source\PSoC4/ISR_Bnt1.c ****     *ISR_Bnt1_INTC_PRIOR = (*ISR_Bnt1_INTC_PRIOR & (uint32)(~ISR_Bnt1__INTC_PRIOR_MASK)) |
 290              		.loc 1 218 0
 291 0032 0A43     		orr	r2, r1
 292 0034 1A60     		str	r2, [r3]
 220:.\Generated_Source\PSoC4/ISR_Bnt1.c **** 	CyExitCriticalSection(interruptState);
ARM GAS  C:\Users\Jared\AppData\Local\Temp\ccyhwfqn.s 			page 10


 293              		.loc 1 220 0
 294 0036 3B1C     		mov	r3, r7
 295 0038 0B33     		add	r3, r3, #11
 296 003a 1B78     		ldrb	r3, [r3]
 297 003c 181C     		mov	r0, r3
 298 003e FFF7FEFF 		bl	CyExitCriticalSection
 221:.\Generated_Source\PSoC4/ISR_Bnt1.c **** }
 299              		.loc 1 221 0
 300 0042 BD46     		mov	sp, r7
 301 0044 05B0     		add	sp, sp, #20
 302              		@ sp needed for prologue
 303 0046 90BD     		pop	{r4, r7, pc}
 304              	.L20:
 305              		.align	2
 306              	.L19:
 307 0048 00E400E0 		.word	-536812544
 308 004c FFFF3FFF 		.word	-12582913
 309              		.cfi_endproc
 310              	.LFE6:
 311              		.size	ISR_Bnt1_SetPriority, .-ISR_Bnt1_SetPriority
 312              		.section	.text.ISR_Bnt1_GetPriority,"ax",%progbits
 313              		.align	2
 314              		.global	ISR_Bnt1_GetPriority
 315              		.code	16
 316              		.thumb_func
 317              		.type	ISR_Bnt1_GetPriority, %function
 318              	ISR_Bnt1_GetPriority:
 319              	.LFB7:
 222:.\Generated_Source\PSoC4/ISR_Bnt1.c **** 
 223:.\Generated_Source\PSoC4/ISR_Bnt1.c **** 
 224:.\Generated_Source\PSoC4/ISR_Bnt1.c **** /*******************************************************************************
 225:.\Generated_Source\PSoC4/ISR_Bnt1.c **** * Function Name: ISR_Bnt1_GetPriority
 226:.\Generated_Source\PSoC4/ISR_Bnt1.c **** ********************************************************************************
 227:.\Generated_Source\PSoC4/ISR_Bnt1.c **** *
 228:.\Generated_Source\PSoC4/ISR_Bnt1.c **** * Summary:
 229:.\Generated_Source\PSoC4/ISR_Bnt1.c **** *   Gets the Priority of the Interrupt.
 230:.\Generated_Source\PSoC4/ISR_Bnt1.c **** *
 231:.\Generated_Source\PSoC4/ISR_Bnt1.c **** * Parameters:
 232:.\Generated_Source\PSoC4/ISR_Bnt1.c **** *   None
 233:.\Generated_Source\PSoC4/ISR_Bnt1.c **** *
 234:.\Generated_Source\PSoC4/ISR_Bnt1.c **** * Return:
 235:.\Generated_Source\PSoC4/ISR_Bnt1.c **** *   Priority of the interrupt. 0 - 3, 0 being the highest.
 236:.\Generated_Source\PSoC4/ISR_Bnt1.c **** *
 237:.\Generated_Source\PSoC4/ISR_Bnt1.c **** *******************************************************************************/
 238:.\Generated_Source\PSoC4/ISR_Bnt1.c **** uint8 ISR_Bnt1_GetPriority(void)
 239:.\Generated_Source\PSoC4/ISR_Bnt1.c **** {
 320              		.loc 1 239 0
 321              		.cfi_startproc
 322 0000 80B5     		push	{r7, lr}
 323              	.LCFI17:
 324              		.cfi_def_cfa_offset 8
 325              		.cfi_offset 7, -8
 326              		.cfi_offset 14, -4
 327 0002 82B0     		sub	sp, sp, #8
 328              	.LCFI18:
 329              		.cfi_def_cfa_offset 16
 330 0004 00AF     		add	r7, sp, #0
ARM GAS  C:\Users\Jared\AppData\Local\Temp\ccyhwfqn.s 			page 11


 331              	.LCFI19:
 332              		.cfi_def_cfa_register 7
 240:.\Generated_Source\PSoC4/ISR_Bnt1.c ****     uint32 priority;
 241:.\Generated_Source\PSoC4/ISR_Bnt1.c **** 	uint32 priorityOffset = ((ISR_Bnt1__INTC_NUMBER % 4u) * 8u) + 6u;
 333              		.loc 1 241 0
 334 0006 1623     		mov	r3, #22
 335 0008 7B60     		str	r3, [r7, #4]
 242:.\Generated_Source\PSoC4/ISR_Bnt1.c **** 
 243:.\Generated_Source\PSoC4/ISR_Bnt1.c ****     priority = (*ISR_Bnt1_INTC_PRIOR & ISR_Bnt1__INTC_PRIOR_MASK) >> priorityOffset;
 336              		.loc 1 243 0
 337 000a 084B     		ldr	r3, .L23
 338 000c 1A68     		ldr	r2, [r3]
 339 000e C023     		mov	r3, #192
 340 0010 1B04     		lsl	r3, r3, #16
 341 0012 1A40     		and	r2, r3
 342 0014 7B68     		ldr	r3, [r7, #4]
 343 0016 111C     		mov	r1, r2
 344 0018 D940     		lsr	r1, r1, r3
 345 001a 0B1C     		mov	r3, r1
 346 001c 3B60     		str	r3, [r7]
 244:.\Generated_Source\PSoC4/ISR_Bnt1.c **** 
 245:.\Generated_Source\PSoC4/ISR_Bnt1.c ****     return (uint8)priority;
 347              		.loc 1 245 0
 348 001e 3B68     		ldr	r3, [r7]
 349 0020 DBB2     		uxtb	r3, r3
 246:.\Generated_Source\PSoC4/ISR_Bnt1.c **** }
 350              		.loc 1 246 0
 351 0022 181C     		mov	r0, r3
 352 0024 BD46     		mov	sp, r7
 353 0026 02B0     		add	sp, sp, #8
 354              		@ sp needed for prologue
 355 0028 80BD     		pop	{r7, pc}
 356              	.L24:
 357 002a C046     		.align	2
 358              	.L23:
 359 002c 00E400E0 		.word	-536812544
 360              		.cfi_endproc
 361              	.LFE7:
 362              		.size	ISR_Bnt1_GetPriority, .-ISR_Bnt1_GetPriority
 363              		.section	.text.ISR_Bnt1_Enable,"ax",%progbits
 364              		.align	2
 365              		.global	ISR_Bnt1_Enable
 366              		.code	16
 367              		.thumb_func
 368              		.type	ISR_Bnt1_Enable, %function
 369              	ISR_Bnt1_Enable:
 370              	.LFB8:
 247:.\Generated_Source\PSoC4/ISR_Bnt1.c **** 
 248:.\Generated_Source\PSoC4/ISR_Bnt1.c **** 
 249:.\Generated_Source\PSoC4/ISR_Bnt1.c **** /*******************************************************************************
 250:.\Generated_Source\PSoC4/ISR_Bnt1.c **** * Function Name: ISR_Bnt1_Enable
 251:.\Generated_Source\PSoC4/ISR_Bnt1.c **** ********************************************************************************
 252:.\Generated_Source\PSoC4/ISR_Bnt1.c **** *
 253:.\Generated_Source\PSoC4/ISR_Bnt1.c **** * Summary:
 254:.\Generated_Source\PSoC4/ISR_Bnt1.c **** *   Enables the interrupt.
 255:.\Generated_Source\PSoC4/ISR_Bnt1.c **** *
 256:.\Generated_Source\PSoC4/ISR_Bnt1.c **** * Parameters:
ARM GAS  C:\Users\Jared\AppData\Local\Temp\ccyhwfqn.s 			page 12


 257:.\Generated_Source\PSoC4/ISR_Bnt1.c **** *   None
 258:.\Generated_Source\PSoC4/ISR_Bnt1.c **** *
 259:.\Generated_Source\PSoC4/ISR_Bnt1.c **** * Return:
 260:.\Generated_Source\PSoC4/ISR_Bnt1.c **** *   None
 261:.\Generated_Source\PSoC4/ISR_Bnt1.c **** *
 262:.\Generated_Source\PSoC4/ISR_Bnt1.c **** *******************************************************************************/
 263:.\Generated_Source\PSoC4/ISR_Bnt1.c **** void ISR_Bnt1_Enable(void)
 264:.\Generated_Source\PSoC4/ISR_Bnt1.c **** {
 371              		.loc 1 264 0
 372              		.cfi_startproc
 373 0000 80B5     		push	{r7, lr}
 374              	.LCFI20:
 375              		.cfi_def_cfa_offset 8
 376              		.cfi_offset 7, -8
 377              		.cfi_offset 14, -4
 378 0002 00AF     		add	r7, sp, #0
 379              	.LCFI21:
 380              		.cfi_def_cfa_register 7
 265:.\Generated_Source\PSoC4/ISR_Bnt1.c ****     /* Enable the general interrupt. */
 266:.\Generated_Source\PSoC4/ISR_Bnt1.c ****     *ISR_Bnt1_INTC_SET_EN = ISR_Bnt1__INTC_MASK;
 381              		.loc 1 266 0
 382 0004 024B     		ldr	r3, .L26
 383 0006 0422     		mov	r2, #4
 384 0008 1A60     		str	r2, [r3]
 267:.\Generated_Source\PSoC4/ISR_Bnt1.c **** }
 385              		.loc 1 267 0
 386 000a BD46     		mov	sp, r7
 387              		@ sp needed for prologue
 388 000c 80BD     		pop	{r7, pc}
 389              	.L27:
 390 000e C046     		.align	2
 391              	.L26:
 392 0010 00E100E0 		.word	-536813312
 393              		.cfi_endproc
 394              	.LFE8:
 395              		.size	ISR_Bnt1_Enable, .-ISR_Bnt1_Enable
 396              		.section	.text.ISR_Bnt1_GetState,"ax",%progbits
 397              		.align	2
 398              		.global	ISR_Bnt1_GetState
 399              		.code	16
 400              		.thumb_func
 401              		.type	ISR_Bnt1_GetState, %function
 402              	ISR_Bnt1_GetState:
 403              	.LFB9:
 268:.\Generated_Source\PSoC4/ISR_Bnt1.c **** 
 269:.\Generated_Source\PSoC4/ISR_Bnt1.c **** 
 270:.\Generated_Source\PSoC4/ISR_Bnt1.c **** /*******************************************************************************
 271:.\Generated_Source\PSoC4/ISR_Bnt1.c **** * Function Name: ISR_Bnt1_GetState
 272:.\Generated_Source\PSoC4/ISR_Bnt1.c **** ********************************************************************************
 273:.\Generated_Source\PSoC4/ISR_Bnt1.c **** *
 274:.\Generated_Source\PSoC4/ISR_Bnt1.c **** * Summary:
 275:.\Generated_Source\PSoC4/ISR_Bnt1.c **** *   Gets the state (enabled, disabled) of the Interrupt.
 276:.\Generated_Source\PSoC4/ISR_Bnt1.c **** *
 277:.\Generated_Source\PSoC4/ISR_Bnt1.c **** * Parameters:
 278:.\Generated_Source\PSoC4/ISR_Bnt1.c **** *   None
 279:.\Generated_Source\PSoC4/ISR_Bnt1.c **** *
 280:.\Generated_Source\PSoC4/ISR_Bnt1.c **** * Return:
ARM GAS  C:\Users\Jared\AppData\Local\Temp\ccyhwfqn.s 			page 13


 281:.\Generated_Source\PSoC4/ISR_Bnt1.c **** *   1 if enabled, 0 if disabled.
 282:.\Generated_Source\PSoC4/ISR_Bnt1.c **** *
 283:.\Generated_Source\PSoC4/ISR_Bnt1.c **** *******************************************************************************/
 284:.\Generated_Source\PSoC4/ISR_Bnt1.c **** uint8 ISR_Bnt1_GetState(void)
 285:.\Generated_Source\PSoC4/ISR_Bnt1.c **** {
 404              		.loc 1 285 0
 405              		.cfi_startproc
 406 0000 80B5     		push	{r7, lr}
 407              	.LCFI22:
 408              		.cfi_def_cfa_offset 8
 409              		.cfi_offset 7, -8
 410              		.cfi_offset 14, -4
 411 0002 00AF     		add	r7, sp, #0
 412              	.LCFI23:
 413              		.cfi_def_cfa_register 7
 286:.\Generated_Source\PSoC4/ISR_Bnt1.c ****     /* Get the state of the general interrupt. */
 287:.\Generated_Source\PSoC4/ISR_Bnt1.c ****     return ((*ISR_Bnt1_INTC_SET_EN & (uint32)ISR_Bnt1__INTC_MASK) != 0u) ? 1u:0u;
 414              		.loc 1 287 0
 415 0004 054B     		ldr	r3, .L32
 416 0006 1A68     		ldr	r2, [r3]
 417 0008 0423     		mov	r3, #4
 418 000a 1340     		and	r3, r2
 419 000c 01D0     		beq	.L29
 420              		.loc 1 287 0 is_stmt 0 discriminator 1
 421 000e 0123     		mov	r3, #1
 422 0010 00E0     		b	.L30
 423              	.L29:
 424              		.loc 1 287 0 discriminator 2
 425 0012 0023     		mov	r3, #0
 426              	.L30:
 288:.\Generated_Source\PSoC4/ISR_Bnt1.c **** }
 427              		.loc 1 288 0 is_stmt 1 discriminator 3
 428 0014 181C     		mov	r0, r3
 429 0016 BD46     		mov	sp, r7
 430              		@ sp needed for prologue
 431 0018 80BD     		pop	{r7, pc}
 432              	.L33:
 433 001a C046     		.align	2
 434              	.L32:
 435 001c 00E100E0 		.word	-536813312
 436              		.cfi_endproc
 437              	.LFE9:
 438              		.size	ISR_Bnt1_GetState, .-ISR_Bnt1_GetState
 439              		.section	.text.ISR_Bnt1_Disable,"ax",%progbits
 440              		.align	2
 441              		.global	ISR_Bnt1_Disable
 442              		.code	16
 443              		.thumb_func
 444              		.type	ISR_Bnt1_Disable, %function
 445              	ISR_Bnt1_Disable:
 446              	.LFB10:
 289:.\Generated_Source\PSoC4/ISR_Bnt1.c **** 
 290:.\Generated_Source\PSoC4/ISR_Bnt1.c **** 
 291:.\Generated_Source\PSoC4/ISR_Bnt1.c **** /*******************************************************************************
 292:.\Generated_Source\PSoC4/ISR_Bnt1.c **** * Function Name: ISR_Bnt1_Disable
 293:.\Generated_Source\PSoC4/ISR_Bnt1.c **** ********************************************************************************
 294:.\Generated_Source\PSoC4/ISR_Bnt1.c **** *
ARM GAS  C:\Users\Jared\AppData\Local\Temp\ccyhwfqn.s 			page 14


 295:.\Generated_Source\PSoC4/ISR_Bnt1.c **** * Summary:
 296:.\Generated_Source\PSoC4/ISR_Bnt1.c **** *   Disables the Interrupt.
 297:.\Generated_Source\PSoC4/ISR_Bnt1.c **** *
 298:.\Generated_Source\PSoC4/ISR_Bnt1.c **** * Parameters:
 299:.\Generated_Source\PSoC4/ISR_Bnt1.c **** *   None
 300:.\Generated_Source\PSoC4/ISR_Bnt1.c **** *
 301:.\Generated_Source\PSoC4/ISR_Bnt1.c **** * Return:
 302:.\Generated_Source\PSoC4/ISR_Bnt1.c **** *   None
 303:.\Generated_Source\PSoC4/ISR_Bnt1.c **** *
 304:.\Generated_Source\PSoC4/ISR_Bnt1.c **** *******************************************************************************/
 305:.\Generated_Source\PSoC4/ISR_Bnt1.c **** void ISR_Bnt1_Disable(void)
 306:.\Generated_Source\PSoC4/ISR_Bnt1.c **** {
 447              		.loc 1 306 0
 448              		.cfi_startproc
 449 0000 80B5     		push	{r7, lr}
 450              	.LCFI24:
 451              		.cfi_def_cfa_offset 8
 452              		.cfi_offset 7, -8
 453              		.cfi_offset 14, -4
 454 0002 00AF     		add	r7, sp, #0
 455              	.LCFI25:
 456              		.cfi_def_cfa_register 7
 307:.\Generated_Source\PSoC4/ISR_Bnt1.c ****     /* Disable the general interrupt. */
 308:.\Generated_Source\PSoC4/ISR_Bnt1.c ****     *ISR_Bnt1_INTC_CLR_EN = ISR_Bnt1__INTC_MASK;
 457              		.loc 1 308 0
 458 0004 024B     		ldr	r3, .L35
 459 0006 0422     		mov	r2, #4
 460 0008 1A60     		str	r2, [r3]
 309:.\Generated_Source\PSoC4/ISR_Bnt1.c **** }
 461              		.loc 1 309 0
 462 000a BD46     		mov	sp, r7
 463              		@ sp needed for prologue
 464 000c 80BD     		pop	{r7, pc}
 465              	.L36:
 466 000e C046     		.align	2
 467              	.L35:
 468 0010 80E100E0 		.word	-536813184
 469              		.cfi_endproc
 470              	.LFE10:
 471              		.size	ISR_Bnt1_Disable, .-ISR_Bnt1_Disable
 472              		.section	.text.ISR_Bnt1_SetPending,"ax",%progbits
 473              		.align	2
 474              		.global	ISR_Bnt1_SetPending
 475              		.code	16
 476              		.thumb_func
 477              		.type	ISR_Bnt1_SetPending, %function
 478              	ISR_Bnt1_SetPending:
 479              	.LFB11:
 310:.\Generated_Source\PSoC4/ISR_Bnt1.c **** 
 311:.\Generated_Source\PSoC4/ISR_Bnt1.c **** 
 312:.\Generated_Source\PSoC4/ISR_Bnt1.c **** /*******************************************************************************
 313:.\Generated_Source\PSoC4/ISR_Bnt1.c **** * Function Name: ISR_Bnt1_SetPending
 314:.\Generated_Source\PSoC4/ISR_Bnt1.c **** ********************************************************************************
 315:.\Generated_Source\PSoC4/ISR_Bnt1.c **** *
 316:.\Generated_Source\PSoC4/ISR_Bnt1.c **** * Summary:
 317:.\Generated_Source\PSoC4/ISR_Bnt1.c **** *   Causes the Interrupt to enter the pending state, a software method of
 318:.\Generated_Source\PSoC4/ISR_Bnt1.c **** *   generating the interrupt.
ARM GAS  C:\Users\Jared\AppData\Local\Temp\ccyhwfqn.s 			page 15


 319:.\Generated_Source\PSoC4/ISR_Bnt1.c **** *
 320:.\Generated_Source\PSoC4/ISR_Bnt1.c **** * Parameters:
 321:.\Generated_Source\PSoC4/ISR_Bnt1.c **** *   None
 322:.\Generated_Source\PSoC4/ISR_Bnt1.c **** *
 323:.\Generated_Source\PSoC4/ISR_Bnt1.c **** * Return:
 324:.\Generated_Source\PSoC4/ISR_Bnt1.c **** *   None
 325:.\Generated_Source\PSoC4/ISR_Bnt1.c **** *
 326:.\Generated_Source\PSoC4/ISR_Bnt1.c **** *******************************************************************************/
 327:.\Generated_Source\PSoC4/ISR_Bnt1.c **** void ISR_Bnt1_SetPending(void)
 328:.\Generated_Source\PSoC4/ISR_Bnt1.c **** {
 480              		.loc 1 328 0
 481              		.cfi_startproc
 482 0000 80B5     		push	{r7, lr}
 483              	.LCFI26:
 484              		.cfi_def_cfa_offset 8
 485              		.cfi_offset 7, -8
 486              		.cfi_offset 14, -4
 487 0002 00AF     		add	r7, sp, #0
 488              	.LCFI27:
 489              		.cfi_def_cfa_register 7
 329:.\Generated_Source\PSoC4/ISR_Bnt1.c ****     *ISR_Bnt1_INTC_SET_PD = ISR_Bnt1__INTC_MASK;
 490              		.loc 1 329 0
 491 0004 024B     		ldr	r3, .L38
 492 0006 0422     		mov	r2, #4
 493 0008 1A60     		str	r2, [r3]
 330:.\Generated_Source\PSoC4/ISR_Bnt1.c **** }
 494              		.loc 1 330 0
 495 000a BD46     		mov	sp, r7
 496              		@ sp needed for prologue
 497 000c 80BD     		pop	{r7, pc}
 498              	.L39:
 499 000e C046     		.align	2
 500              	.L38:
 501 0010 00E200E0 		.word	-536813056
 502              		.cfi_endproc
 503              	.LFE11:
 504              		.size	ISR_Bnt1_SetPending, .-ISR_Bnt1_SetPending
 505              		.section	.text.ISR_Bnt1_ClearPending,"ax",%progbits
 506              		.align	2
 507              		.global	ISR_Bnt1_ClearPending
 508              		.code	16
 509              		.thumb_func
 510              		.type	ISR_Bnt1_ClearPending, %function
 511              	ISR_Bnt1_ClearPending:
 512              	.LFB12:
 331:.\Generated_Source\PSoC4/ISR_Bnt1.c **** 
 332:.\Generated_Source\PSoC4/ISR_Bnt1.c **** 
 333:.\Generated_Source\PSoC4/ISR_Bnt1.c **** /*******************************************************************************
 334:.\Generated_Source\PSoC4/ISR_Bnt1.c **** * Function Name: ISR_Bnt1_ClearPending
 335:.\Generated_Source\PSoC4/ISR_Bnt1.c **** ********************************************************************************
 336:.\Generated_Source\PSoC4/ISR_Bnt1.c **** *
 337:.\Generated_Source\PSoC4/ISR_Bnt1.c **** * Summary:
 338:.\Generated_Source\PSoC4/ISR_Bnt1.c **** *   Clears a pending interrupt.
 339:.\Generated_Source\PSoC4/ISR_Bnt1.c **** *
 340:.\Generated_Source\PSoC4/ISR_Bnt1.c **** * Parameters:
 341:.\Generated_Source\PSoC4/ISR_Bnt1.c **** *   None
 342:.\Generated_Source\PSoC4/ISR_Bnt1.c **** *
ARM GAS  C:\Users\Jared\AppData\Local\Temp\ccyhwfqn.s 			page 16


 343:.\Generated_Source\PSoC4/ISR_Bnt1.c **** * Return:
 344:.\Generated_Source\PSoC4/ISR_Bnt1.c **** *   None
 345:.\Generated_Source\PSoC4/ISR_Bnt1.c **** *
 346:.\Generated_Source\PSoC4/ISR_Bnt1.c **** *******************************************************************************/
 347:.\Generated_Source\PSoC4/ISR_Bnt1.c **** void ISR_Bnt1_ClearPending(void)
 348:.\Generated_Source\PSoC4/ISR_Bnt1.c **** {
 513              		.loc 1 348 0
 514              		.cfi_startproc
 515 0000 80B5     		push	{r7, lr}
 516              	.LCFI28:
 517              		.cfi_def_cfa_offset 8
 518              		.cfi_offset 7, -8
 519              		.cfi_offset 14, -4
 520 0002 00AF     		add	r7, sp, #0
 521              	.LCFI29:
 522              		.cfi_def_cfa_register 7
 349:.\Generated_Source\PSoC4/ISR_Bnt1.c ****     *ISR_Bnt1_INTC_CLR_PD = ISR_Bnt1__INTC_MASK;
 523              		.loc 1 349 0
 524 0004 024B     		ldr	r3, .L41
 525 0006 0422     		mov	r2, #4
 526 0008 1A60     		str	r2, [r3]
 350:.\Generated_Source\PSoC4/ISR_Bnt1.c **** }
 527              		.loc 1 350 0
 528 000a BD46     		mov	sp, r7
 529              		@ sp needed for prologue
 530 000c 80BD     		pop	{r7, pc}
 531              	.L42:
 532 000e C046     		.align	2
 533              	.L41:
 534 0010 80E200E0 		.word	-536812928
 535              		.cfi_endproc
 536              	.LFE12:
 537              		.size	ISR_Bnt1_ClearPending, .-ISR_Bnt1_ClearPending
 538              		.text
 539              	.Letext0:
 540              		.file 2 "c:\\program files (x86)\\cypress\\psoc creator\\3.0\\psoc creator\\import\\gnu_cs\\arm\\4
 541              		.file 3 "./Generated_Source/PSoC4/cytypes.h"