ARM GAS  C:\Users\Jared\AppData\Local\Temp\ccqqdBgj.s 			page 1


   1              		.cpu cortex-m0
   2              		.fpu softvfp
   3              		.eabi_attribute 20, 1
   4              		.eabi_attribute 21, 1
   5              		.eabi_attribute 23, 3
   6              		.eabi_attribute 24, 1
   7              		.eabi_attribute 25, 1
   8              		.eabi_attribute 26, 1
   9              		.eabi_attribute 30, 6
  10              		.eabi_attribute 34, 0
  11              		.eabi_attribute 18, 4
  12              		.code	16
  13              		.file	"ISR_Timer1.c"
  14              		.text
  15              	.Ltext0:
  16              		.cfi_sections	.debug_frame
  17              		.section	.text.ISR_Timer1_Start,"ax",%progbits
  18              		.align	2
  19              		.global	ISR_Timer1_Start
  20              		.code	16
  21              		.thumb_func
  22              		.type	ISR_Timer1_Start, %function
  23              	ISR_Timer1_Start:
  24              	.LFB33:
  25              		.file 1 ".\\Generated_Source\\PSoC4\\ISR_Timer1.c"
   1:.\Generated_Source\PSoC4/ISR_Timer1.c **** /*******************************************************************************
   2:.\Generated_Source\PSoC4/ISR_Timer1.c **** * File Name: ISR_Timer1.c  
   3:.\Generated_Source\PSoC4/ISR_Timer1.c **** * Version 1.70
   4:.\Generated_Source\PSoC4/ISR_Timer1.c **** *
   5:.\Generated_Source\PSoC4/ISR_Timer1.c **** *  Description:
   6:.\Generated_Source\PSoC4/ISR_Timer1.c **** *   API for controlling the state of an interrupt.
   7:.\Generated_Source\PSoC4/ISR_Timer1.c **** *
   8:.\Generated_Source\PSoC4/ISR_Timer1.c **** *
   9:.\Generated_Source\PSoC4/ISR_Timer1.c **** *  Note:
  10:.\Generated_Source\PSoC4/ISR_Timer1.c **** *
  11:.\Generated_Source\PSoC4/ISR_Timer1.c **** ********************************************************************************
  12:.\Generated_Source\PSoC4/ISR_Timer1.c **** * Copyright 2008-2012, Cypress Semiconductor Corporation.  All rights reserved.
  13:.\Generated_Source\PSoC4/ISR_Timer1.c **** * You may use this file only in accordance with the license, terms, conditions, 
  14:.\Generated_Source\PSoC4/ISR_Timer1.c **** * disclaimers, and limitations in the end user license agreement accompanying 
  15:.\Generated_Source\PSoC4/ISR_Timer1.c **** * the software package with which this file was provided.
  16:.\Generated_Source\PSoC4/ISR_Timer1.c **** *******************************************************************************/
  17:.\Generated_Source\PSoC4/ISR_Timer1.c **** 
  18:.\Generated_Source\PSoC4/ISR_Timer1.c **** 
  19:.\Generated_Source\PSoC4/ISR_Timer1.c **** #include <cydevice_trm.h>
  20:.\Generated_Source\PSoC4/ISR_Timer1.c **** #include <CyLib.h>
  21:.\Generated_Source\PSoC4/ISR_Timer1.c **** #include <ISR_Timer1.h>
  22:.\Generated_Source\PSoC4/ISR_Timer1.c **** 
  23:.\Generated_Source\PSoC4/ISR_Timer1.c **** #if !defined(ISR_Timer1__REMOVED) /* Check for removal by optimization */
  24:.\Generated_Source\PSoC4/ISR_Timer1.c **** 
  25:.\Generated_Source\PSoC4/ISR_Timer1.c **** /*******************************************************************************
  26:.\Generated_Source\PSoC4/ISR_Timer1.c **** *  Place your includes, defines and code here 
  27:.\Generated_Source\PSoC4/ISR_Timer1.c **** ********************************************************************************/
  28:.\Generated_Source\PSoC4/ISR_Timer1.c **** /* `#START ISR_Timer1_intc` */
  29:.\Generated_Source\PSoC4/ISR_Timer1.c **** #include "events.h"
  30:.\Generated_Source\PSoC4/ISR_Timer1.c **** #include "Btn0.h"
  31:.\Generated_Source\PSoC4/ISR_Timer1.c **** #include "Btn1.h"
  32:.\Generated_Source\PSoC4/ISR_Timer1.c ****     
ARM GAS  C:\Users\Jared\AppData\Local\Temp\ccqqdBgj.s 			page 2


  33:.\Generated_Source\PSoC4/ISR_Timer1.c **** #define WRITE_SERVO_DELAY_CNT  25 // every 25 ms we will trigger an interrupt
  34:.\Generated_Source\PSoC4/ISR_Timer1.c **** 
  35:.\Generated_Source\PSoC4/ISR_Timer1.c **** extern volatile uint8_t debounce_cnt_btn0;
  36:.\Generated_Source\PSoC4/ISR_Timer1.c **** extern volatile uint8_t debounce_cnt_btn1;
  37:.\Generated_Source\PSoC4/ISR_Timer1.c **** extern volatile uint16_t sys_events;
  38:.\Generated_Source\PSoC4/ISR_Timer1.c **** /* `#END` */
  39:.\Generated_Source\PSoC4/ISR_Timer1.c **** 
  40:.\Generated_Source\PSoC4/ISR_Timer1.c **** extern cyisraddress CyRamVectors[CYINT_IRQ_BASE + CY_NUM_INTERRUPTS];
  41:.\Generated_Source\PSoC4/ISR_Timer1.c **** 
  42:.\Generated_Source\PSoC4/ISR_Timer1.c **** /* Declared in startup, used to set unused interrupts to. */
  43:.\Generated_Source\PSoC4/ISR_Timer1.c **** CY_ISR_PROTO(IntDefaultHandler);
  44:.\Generated_Source\PSoC4/ISR_Timer1.c **** 
  45:.\Generated_Source\PSoC4/ISR_Timer1.c **** 
  46:.\Generated_Source\PSoC4/ISR_Timer1.c **** /*******************************************************************************
  47:.\Generated_Source\PSoC4/ISR_Timer1.c **** * Function Name: ISR_Timer1_Start
  48:.\Generated_Source\PSoC4/ISR_Timer1.c **** ********************************************************************************
  49:.\Generated_Source\PSoC4/ISR_Timer1.c **** *
  50:.\Generated_Source\PSoC4/ISR_Timer1.c **** * Summary:
  51:.\Generated_Source\PSoC4/ISR_Timer1.c **** *  Set up the interrupt and enable it.
  52:.\Generated_Source\PSoC4/ISR_Timer1.c **** *
  53:.\Generated_Source\PSoC4/ISR_Timer1.c **** * Parameters:  
  54:.\Generated_Source\PSoC4/ISR_Timer1.c **** *   None
  55:.\Generated_Source\PSoC4/ISR_Timer1.c **** *
  56:.\Generated_Source\PSoC4/ISR_Timer1.c **** * Return:
  57:.\Generated_Source\PSoC4/ISR_Timer1.c **** *   None
  58:.\Generated_Source\PSoC4/ISR_Timer1.c **** *
  59:.\Generated_Source\PSoC4/ISR_Timer1.c **** *******************************************************************************/
  60:.\Generated_Source\PSoC4/ISR_Timer1.c **** void ISR_Timer1_Start(void)
  61:.\Generated_Source\PSoC4/ISR_Timer1.c **** {
  26              		.loc 1 61 0
  27              		.cfi_startproc
  28 0000 80B5     		push	{r7, lr}
  29              	.LCFI0:
  30              		.cfi_def_cfa_offset 8
  31              		.cfi_offset 7, -8
  32              		.cfi_offset 14, -4
  33 0002 00AF     		add	r7, sp, #0
  34              	.LCFI1:
  35              		.cfi_def_cfa_register 7
  62:.\Generated_Source\PSoC4/ISR_Timer1.c ****     /* For all we know the interrupt is active. */
  63:.\Generated_Source\PSoC4/ISR_Timer1.c ****     ISR_Timer1_Disable();
  36              		.loc 1 63 0
  37 0004 FFF7FEFF 		bl	ISR_Timer1_Disable
  64:.\Generated_Source\PSoC4/ISR_Timer1.c **** 
  65:.\Generated_Source\PSoC4/ISR_Timer1.c ****     /* Set the ISR to point to the ISR_Timer1 Interrupt. */
  66:.\Generated_Source\PSoC4/ISR_Timer1.c ****     ISR_Timer1_SetVector(&ISR_Timer1_Interrupt);
  38              		.loc 1 66 0
  39 0008 054B     		ldr	r3, .L2
  40 000a 181C     		mov	r0, r3
  41 000c FFF7FEFF 		bl	ISR_Timer1_SetVector
  67:.\Generated_Source\PSoC4/ISR_Timer1.c **** 
  68:.\Generated_Source\PSoC4/ISR_Timer1.c ****     /* Set the priority. */
  69:.\Generated_Source\PSoC4/ISR_Timer1.c ****     ISR_Timer1_SetPriority((uint8)ISR_Timer1_INTC_PRIOR_NUMBER);
  42              		.loc 1 69 0
  43 0010 0320     		mov	r0, #3
  44 0012 FFF7FEFF 		bl	ISR_Timer1_SetPriority
  70:.\Generated_Source\PSoC4/ISR_Timer1.c **** 
ARM GAS  C:\Users\Jared\AppData\Local\Temp\ccqqdBgj.s 			page 3


  71:.\Generated_Source\PSoC4/ISR_Timer1.c ****     /* Enable it. */
  72:.\Generated_Source\PSoC4/ISR_Timer1.c ****     ISR_Timer1_Enable();
  45              		.loc 1 72 0
  46 0016 FFF7FEFF 		bl	ISR_Timer1_Enable
  73:.\Generated_Source\PSoC4/ISR_Timer1.c **** }
  47              		.loc 1 73 0
  48 001a BD46     		mov	sp, r7
  49              		@ sp needed for prologue
  50 001c 80BD     		pop	{r7, pc}
  51              	.L3:
  52 001e C046     		.align	2
  53              	.L2:
  54 0020 00000000 		.word	ISR_Timer1_Interrupt
  55              		.cfi_endproc
  56              	.LFE33:
  57              		.size	ISR_Timer1_Start, .-ISR_Timer1_Start
  58              		.section	.text.ISR_Timer1_StartEx,"ax",%progbits
  59              		.align	2
  60              		.global	ISR_Timer1_StartEx
  61              		.code	16
  62              		.thumb_func
  63              		.type	ISR_Timer1_StartEx, %function
  64              	ISR_Timer1_StartEx:
  65              	.LFB34:
  74:.\Generated_Source\PSoC4/ISR_Timer1.c **** 
  75:.\Generated_Source\PSoC4/ISR_Timer1.c **** 
  76:.\Generated_Source\PSoC4/ISR_Timer1.c **** /*******************************************************************************
  77:.\Generated_Source\PSoC4/ISR_Timer1.c **** * Function Name: ISR_Timer1_StartEx
  78:.\Generated_Source\PSoC4/ISR_Timer1.c **** ********************************************************************************
  79:.\Generated_Source\PSoC4/ISR_Timer1.c **** *
  80:.\Generated_Source\PSoC4/ISR_Timer1.c **** * Summary:
  81:.\Generated_Source\PSoC4/ISR_Timer1.c **** *  Set up the interrupt and enable it.
  82:.\Generated_Source\PSoC4/ISR_Timer1.c **** *
  83:.\Generated_Source\PSoC4/ISR_Timer1.c **** * Parameters:  
  84:.\Generated_Source\PSoC4/ISR_Timer1.c **** *   address: Address of the ISR to set in the interrupt vector table.
  85:.\Generated_Source\PSoC4/ISR_Timer1.c **** *
  86:.\Generated_Source\PSoC4/ISR_Timer1.c **** * Return:
  87:.\Generated_Source\PSoC4/ISR_Timer1.c **** *   None
  88:.\Generated_Source\PSoC4/ISR_Timer1.c **** *
  89:.\Generated_Source\PSoC4/ISR_Timer1.c **** *******************************************************************************/
  90:.\Generated_Source\PSoC4/ISR_Timer1.c **** void ISR_Timer1_StartEx(cyisraddress address)
  91:.\Generated_Source\PSoC4/ISR_Timer1.c **** {
  66              		.loc 1 91 0
  67              		.cfi_startproc
  68 0000 80B5     		push	{r7, lr}
  69              	.LCFI2:
  70              		.cfi_def_cfa_offset 8
  71              		.cfi_offset 7, -8
  72              		.cfi_offset 14, -4
  73 0002 82B0     		sub	sp, sp, #8
  74              	.LCFI3:
  75              		.cfi_def_cfa_offset 16
  76 0004 00AF     		add	r7, sp, #0
  77              	.LCFI4:
  78              		.cfi_def_cfa_register 7
  79 0006 7860     		str	r0, [r7, #4]
  92:.\Generated_Source\PSoC4/ISR_Timer1.c ****     /* For all we know the interrupt is active. */
ARM GAS  C:\Users\Jared\AppData\Local\Temp\ccqqdBgj.s 			page 4


  93:.\Generated_Source\PSoC4/ISR_Timer1.c ****     ISR_Timer1_Disable();
  80              		.loc 1 93 0
  81 0008 FFF7FEFF 		bl	ISR_Timer1_Disable
  94:.\Generated_Source\PSoC4/ISR_Timer1.c **** 
  95:.\Generated_Source\PSoC4/ISR_Timer1.c ****     /* Set the ISR to point to the ISR_Timer1 Interrupt. */
  96:.\Generated_Source\PSoC4/ISR_Timer1.c ****     ISR_Timer1_SetVector(address);
  82              		.loc 1 96 0
  83 000c 7B68     		ldr	r3, [r7, #4]
  84 000e 181C     		mov	r0, r3
  85 0010 FFF7FEFF 		bl	ISR_Timer1_SetVector
  97:.\Generated_Source\PSoC4/ISR_Timer1.c **** 
  98:.\Generated_Source\PSoC4/ISR_Timer1.c ****     /* Set the priority. */
  99:.\Generated_Source\PSoC4/ISR_Timer1.c ****     ISR_Timer1_SetPriority((uint8)ISR_Timer1_INTC_PRIOR_NUMBER);
  86              		.loc 1 99 0
  87 0014 0320     		mov	r0, #3
  88 0016 FFF7FEFF 		bl	ISR_Timer1_SetPriority
 100:.\Generated_Source\PSoC4/ISR_Timer1.c **** 
 101:.\Generated_Source\PSoC4/ISR_Timer1.c ****     /* Enable it. */
 102:.\Generated_Source\PSoC4/ISR_Timer1.c ****     ISR_Timer1_Enable();
  89              		.loc 1 102 0
  90 001a FFF7FEFF 		bl	ISR_Timer1_Enable
 103:.\Generated_Source\PSoC4/ISR_Timer1.c **** }
  91              		.loc 1 103 0
  92 001e BD46     		mov	sp, r7
  93 0020 02B0     		add	sp, sp, #8
  94              		@ sp needed for prologue
  95 0022 80BD     		pop	{r7, pc}
  96              		.cfi_endproc
  97              	.LFE34:
  98              		.size	ISR_Timer1_StartEx, .-ISR_Timer1_StartEx
  99              		.section	.text.ISR_Timer1_Stop,"ax",%progbits
 100              		.align	2
 101              		.global	ISR_Timer1_Stop
 102              		.code	16
 103              		.thumb_func
 104              		.type	ISR_Timer1_Stop, %function
 105              	ISR_Timer1_Stop:
 106              	.LFB35:
 104:.\Generated_Source\PSoC4/ISR_Timer1.c **** 
 105:.\Generated_Source\PSoC4/ISR_Timer1.c **** 
 106:.\Generated_Source\PSoC4/ISR_Timer1.c **** /*******************************************************************************
 107:.\Generated_Source\PSoC4/ISR_Timer1.c **** * Function Name: ISR_Timer1_Stop
 108:.\Generated_Source\PSoC4/ISR_Timer1.c **** ********************************************************************************
 109:.\Generated_Source\PSoC4/ISR_Timer1.c **** *
 110:.\Generated_Source\PSoC4/ISR_Timer1.c **** * Summary:
 111:.\Generated_Source\PSoC4/ISR_Timer1.c **** *   Disables and removes the interrupt.
 112:.\Generated_Source\PSoC4/ISR_Timer1.c **** *
 113:.\Generated_Source\PSoC4/ISR_Timer1.c **** * Parameters:  
 114:.\Generated_Source\PSoC4/ISR_Timer1.c **** *
 115:.\Generated_Source\PSoC4/ISR_Timer1.c **** * Return:
 116:.\Generated_Source\PSoC4/ISR_Timer1.c **** *   None
 117:.\Generated_Source\PSoC4/ISR_Timer1.c **** *
 118:.\Generated_Source\PSoC4/ISR_Timer1.c **** *******************************************************************************/
 119:.\Generated_Source\PSoC4/ISR_Timer1.c **** void ISR_Timer1_Stop(void)
 120:.\Generated_Source\PSoC4/ISR_Timer1.c **** {
 107              		.loc 1 120 0
 108              		.cfi_startproc
ARM GAS  C:\Users\Jared\AppData\Local\Temp\ccqqdBgj.s 			page 5


 109 0000 80B5     		push	{r7, lr}
 110              	.LCFI5:
 111              		.cfi_def_cfa_offset 8
 112              		.cfi_offset 7, -8
 113              		.cfi_offset 14, -4
 114 0002 00AF     		add	r7, sp, #0
 115              	.LCFI6:
 116              		.cfi_def_cfa_register 7
 121:.\Generated_Source\PSoC4/ISR_Timer1.c ****     /* Disable this interrupt. */
 122:.\Generated_Source\PSoC4/ISR_Timer1.c ****     ISR_Timer1_Disable();
 117              		.loc 1 122 0
 118 0004 FFF7FEFF 		bl	ISR_Timer1_Disable
 123:.\Generated_Source\PSoC4/ISR_Timer1.c **** 
 124:.\Generated_Source\PSoC4/ISR_Timer1.c ****     /* Set the ISR to point to the passive one. */
 125:.\Generated_Source\PSoC4/ISR_Timer1.c ****     ISR_Timer1_SetVector(&IntDefaultHandler);
 119              		.loc 1 125 0
 120 0008 024B     		ldr	r3, .L6
 121 000a 181C     		mov	r0, r3
 122 000c FFF7FEFF 		bl	ISR_Timer1_SetVector
 126:.\Generated_Source\PSoC4/ISR_Timer1.c **** }
 123              		.loc 1 126 0
 124 0010 BD46     		mov	sp, r7
 125              		@ sp needed for prologue
 126 0012 80BD     		pop	{r7, pc}
 127              	.L7:
 128              		.align	2
 129              	.L6:
 130 0014 00000000 		.word	IntDefaultHandler
 131              		.cfi_endproc
 132              	.LFE35:
 133              		.size	ISR_Timer1_Stop, .-ISR_Timer1_Stop
 134              		.section	.text.ISR_Timer1_Interrupt,"ax",%progbits
 135              		.align	2
 136              		.global	ISR_Timer1_Interrupt
 137              		.code	16
 138              		.thumb_func
 139              		.type	ISR_Timer1_Interrupt, %function
 140              	ISR_Timer1_Interrupt:
 141              	.LFB36:
 127:.\Generated_Source\PSoC4/ISR_Timer1.c **** 
 128:.\Generated_Source\PSoC4/ISR_Timer1.c **** 
 129:.\Generated_Source\PSoC4/ISR_Timer1.c **** /*******************************************************************************
 130:.\Generated_Source\PSoC4/ISR_Timer1.c **** * Function Name: ISR_Timer1_Interrupt
 131:.\Generated_Source\PSoC4/ISR_Timer1.c **** ********************************************************************************
 132:.\Generated_Source\PSoC4/ISR_Timer1.c **** *
 133:.\Generated_Source\PSoC4/ISR_Timer1.c **** * Summary:
 134:.\Generated_Source\PSoC4/ISR_Timer1.c **** *   The default Interrupt Service Routine for ISR_Timer1.
 135:.\Generated_Source\PSoC4/ISR_Timer1.c **** *
 136:.\Generated_Source\PSoC4/ISR_Timer1.c **** *   Add custom code between the coments to keep the next version of this file
 137:.\Generated_Source\PSoC4/ISR_Timer1.c **** *   from over writting your code.
 138:.\Generated_Source\PSoC4/ISR_Timer1.c **** *
 139:.\Generated_Source\PSoC4/ISR_Timer1.c **** * Parameters:  
 140:.\Generated_Source\PSoC4/ISR_Timer1.c **** *   None
 141:.\Generated_Source\PSoC4/ISR_Timer1.c **** *
 142:.\Generated_Source\PSoC4/ISR_Timer1.c **** * Return:
 143:.\Generated_Source\PSoC4/ISR_Timer1.c **** *   None
 144:.\Generated_Source\PSoC4/ISR_Timer1.c **** *
ARM GAS  C:\Users\Jared\AppData\Local\Temp\ccqqdBgj.s 			page 6


 145:.\Generated_Source\PSoC4/ISR_Timer1.c **** *******************************************************************************/
 146:.\Generated_Source\PSoC4/ISR_Timer1.c **** CY_ISR(ISR_Timer1_Interrupt)
 147:.\Generated_Source\PSoC4/ISR_Timer1.c **** {
 142              		.loc 1 147 0
 143              		.cfi_startproc
 144 0000 80B5     		push	{r7, lr}
 145              	.LCFI7:
 146              		.cfi_def_cfa_offset 8
 147              		.cfi_offset 7, -8
 148              		.cfi_offset 14, -4
 149 0002 82B0     		sub	sp, sp, #8
 150              	.LCFI8:
 151              		.cfi_def_cfa_offset 16
 152 0004 00AF     		add	r7, sp, #0
 153              	.LCFI9:
 154              		.cfi_def_cfa_register 7
 148:.\Generated_Source\PSoC4/ISR_Timer1.c ****     /*  Place your Interrupt code here. */
 149:.\Generated_Source\PSoC4/ISR_Timer1.c ****     /* `#START ISR_Timer1_Interrupt` */
 150:.\Generated_Source\PSoC4/ISR_Timer1.c ****     // this ISR interrupts every 1 ms (1000times/second)
 151:.\Generated_Source\PSoC4/ISR_Timer1.c ****     static int16_t servoEventDelayCnt = WRITE_SERVO_DELAY_CNT;
 152:.\Generated_Source\PSoC4/ISR_Timer1.c ****     ISR_Timer1_ClearPending();
 155              		.loc 1 152 0
 156 0006 FFF7FEFF 		bl	ISR_Timer1_ClearPending
 153:.\Generated_Source\PSoC4/ISR_Timer1.c ****     uint32_t mask = Timer1_GetInterruptSourceMasked();
 157              		.loc 1 153 0
 158 000a FFF7FEFF 		bl	Timer1_GetInterruptSourceMasked
 159 000e 031C     		mov	r3, r0
 160 0010 7B60     		str	r3, [r7, #4]
 154:.\Generated_Source\PSoC4/ISR_Timer1.c ****     Timer1_ClearInterrupt(mask);
 161              		.loc 1 154 0
 162 0012 7B68     		ldr	r3, [r7, #4]
 163 0014 181C     		mov	r0, r3
 164 0016 FFF7FEFF 		bl	Timer1_ClearInterrupt
 155:.\Generated_Source\PSoC4/ISR_Timer1.c ****     ISR_Timer1_Disable();
 165              		.loc 1 155 0
 166 001a FFF7FEFF 		bl	ISR_Timer1_Disable
 156:.\Generated_Source\PSoC4/ISR_Timer1.c ****     // debouncing --------------------------------------
 157:.\Generated_Source\PSoC4/ISR_Timer1.c ****     if (debounce_cnt_btn0 && (--debounce_cnt_btn0 == 0))
 167              		.loc 1 157 0
 168 001e 244B     		ldr	r3, .L12
 169 0020 1B78     		ldrb	r3, [r3]
 170 0022 DBB2     		uxtb	r3, r3
 171 0024 002B     		cmp	r3, #0
 172 0026 11D0     		beq	.L9
 173              		.loc 1 157 0 is_stmt 0 discriminator 1
 174 0028 214B     		ldr	r3, .L12
 175 002a 1B78     		ldrb	r3, [r3]
 176 002c DBB2     		uxtb	r3, r3
 177 002e 013B     		sub	r3, r3, #1
 178 0030 DBB2     		uxtb	r3, r3
 179 0032 1F4A     		ldr	r2, .L12
 180 0034 191C     		add	r1, r3, #0
 181 0036 1170     		strb	r1, [r2]
 182 0038 002B     		cmp	r3, #0
 183 003a 07D1     		bne	.L9
 158:.\Generated_Source\PSoC4/ISR_Timer1.c ****     {
 159:.\Generated_Source\PSoC4/ISR_Timer1.c ****         sys_events |= BTN0_EVENT; // trigger btn0 event
ARM GAS  C:\Users\Jared\AppData\Local\Temp\ccqqdBgj.s 			page 7


 184              		.loc 1 159 0 is_stmt 1
 185 003c 1D4B     		ldr	r3, .L12+4
 186 003e 1B88     		ldrh	r3, [r3]
 187 0040 9BB2     		uxth	r3, r3
 188 0042 0122     		mov	r2, #1
 189 0044 1343     		orr	r3, r2
 190 0046 9AB2     		uxth	r2, r3
 191 0048 1A4B     		ldr	r3, .L12+4
 192 004a 1A80     		strh	r2, [r3]
 193              	.L9:
 160:.\Generated_Source\PSoC4/ISR_Timer1.c ****     }
 161:.\Generated_Source\PSoC4/ISR_Timer1.c ****     if (debounce_cnt_btn1 && (--debounce_cnt_btn1 == 0))
 194              		.loc 1 161 0
 195 004c 1A4B     		ldr	r3, .L12+8
 196 004e 1B78     		ldrb	r3, [r3]
 197 0050 DBB2     		uxtb	r3, r3
 198 0052 002B     		cmp	r3, #0
 199 0054 11D0     		beq	.L10
 200              		.loc 1 161 0 is_stmt 0 discriminator 1
 201 0056 184B     		ldr	r3, .L12+8
 202 0058 1B78     		ldrb	r3, [r3]
 203 005a DBB2     		uxtb	r3, r3
 204 005c 013B     		sub	r3, r3, #1
 205 005e DBB2     		uxtb	r3, r3
 206 0060 154A     		ldr	r2, .L12+8
 207 0062 191C     		add	r1, r3, #0
 208 0064 1170     		strb	r1, [r2]
 209 0066 002B     		cmp	r3, #0
 210 0068 07D1     		bne	.L10
 162:.\Generated_Source\PSoC4/ISR_Timer1.c ****     {
 163:.\Generated_Source\PSoC4/ISR_Timer1.c ****         sys_events |= BTN1_EVENT; // trigger btn1 event
 211              		.loc 1 163 0 is_stmt 1
 212 006a 124B     		ldr	r3, .L12+4
 213 006c 1B88     		ldrh	r3, [r3]
 214 006e 9BB2     		uxth	r3, r3
 215 0070 0222     		mov	r2, #2
 216 0072 1343     		orr	r3, r2
 217 0074 9AB2     		uxth	r2, r3
 218 0076 0F4B     		ldr	r3, .L12+4
 219 0078 1A80     		strh	r2, [r3]
 220              	.L10:
 164:.\Generated_Source\PSoC4/ISR_Timer1.c ****     }
 165:.\Generated_Source\PSoC4/ISR_Timer1.c ****     // servo event timer -------------------------------
 166:.\Generated_Source\PSoC4/ISR_Timer1.c ****     if (--servoEventDelayCnt <= 0) // delay over
 221              		.loc 1 166 0
 222 007a 104B     		ldr	r3, .L12+12
 223 007c 1B88     		ldrh	r3, [r3]
 224 007e 013B     		sub	r3, r3, #1
 225 0080 9AB2     		uxth	r2, r3
 226 0082 0E4B     		ldr	r3, .L12+12
 227 0084 1A80     		strh	r2, [r3]
 228 0086 0D4B     		ldr	r3, .L12+12
 229 0088 1B88     		ldrh	r3, [r3]
 230 008a 1BB2     		sxth	r3, r3
 231 008c 002B     		cmp	r3, #0
 232 008e 0ADC     		bgt	.L11
 167:.\Generated_Source\PSoC4/ISR_Timer1.c ****     {
ARM GAS  C:\Users\Jared\AppData\Local\Temp\ccqqdBgj.s 			page 8


 168:.\Generated_Source\PSoC4/ISR_Timer1.c ****         servoEventDelayCnt = WRITE_SERVO_DELAY_CNT; // reset counter
 233              		.loc 1 168 0
 234 0090 0A4B     		ldr	r3, .L12+12
 235 0092 1922     		mov	r2, #25
 236 0094 1A80     		strh	r2, [r3]
 169:.\Generated_Source\PSoC4/ISR_Timer1.c ****         sys_events |= PWM_MOVE_SERVO_EVENT; // trigger move servo event
 237              		.loc 1 169 0
 238 0096 074B     		ldr	r3, .L12+4
 239 0098 1B88     		ldrh	r3, [r3]
 240 009a 9BB2     		uxth	r3, r3
 241 009c 1022     		mov	r2, #16
 242 009e 1343     		orr	r3, r2
 243 00a0 9AB2     		uxth	r2, r3
 244 00a2 044B     		ldr	r3, .L12+4
 245 00a4 1A80     		strh	r2, [r3]
 246              	.L11:
 170:.\Generated_Source\PSoC4/ISR_Timer1.c ****     }
 171:.\Generated_Source\PSoC4/ISR_Timer1.c ****     ISR_Timer1_Enable();
 247              		.loc 1 171 0
 248 00a6 FFF7FEFF 		bl	ISR_Timer1_Enable
 172:.\Generated_Source\PSoC4/ISR_Timer1.c ****     /* `#END` */
 173:.\Generated_Source\PSoC4/ISR_Timer1.c **** }
 249              		.loc 1 173 0
 250 00aa BD46     		mov	sp, r7
 251 00ac 02B0     		add	sp, sp, #8
 252              		@ sp needed for prologue
 253 00ae 80BD     		pop	{r7, pc}
 254              	.L13:
 255              		.align	2
 256              	.L12:
 257 00b0 00000000 		.word	debounce_cnt_btn0
 258 00b4 00000000 		.word	sys_events
 259 00b8 00000000 		.word	debounce_cnt_btn1
 260 00bc 00000000 		.word	servoEventDelayCnt.5329
 261              		.cfi_endproc
 262              	.LFE36:
 263              		.size	ISR_Timer1_Interrupt, .-ISR_Timer1_Interrupt
 264              		.section	.text.ISR_Timer1_SetVector,"ax",%progbits
 265              		.align	2
 266              		.global	ISR_Timer1_SetVector
 267              		.code	16
 268              		.thumb_func
 269              		.type	ISR_Timer1_SetVector, %function
 270              	ISR_Timer1_SetVector:
 271              	.LFB37:
 174:.\Generated_Source\PSoC4/ISR_Timer1.c **** 
 175:.\Generated_Source\PSoC4/ISR_Timer1.c **** 
 176:.\Generated_Source\PSoC4/ISR_Timer1.c **** /*******************************************************************************
 177:.\Generated_Source\PSoC4/ISR_Timer1.c **** * Function Name: ISR_Timer1_SetVector
 178:.\Generated_Source\PSoC4/ISR_Timer1.c **** ********************************************************************************
 179:.\Generated_Source\PSoC4/ISR_Timer1.c **** *
 180:.\Generated_Source\PSoC4/ISR_Timer1.c **** * Summary:
 181:.\Generated_Source\PSoC4/ISR_Timer1.c **** *   Change the ISR vector for the Interrupt. Note calling ISR_Timer1_Start
 182:.\Generated_Source\PSoC4/ISR_Timer1.c **** *   will override any effect this method would have had. To set the vector 
 183:.\Generated_Source\PSoC4/ISR_Timer1.c **** *   before the component has been started use ISR_Timer1_StartEx instead.
 184:.\Generated_Source\PSoC4/ISR_Timer1.c **** *
 185:.\Generated_Source\PSoC4/ISR_Timer1.c **** * Parameters:
ARM GAS  C:\Users\Jared\AppData\Local\Temp\ccqqdBgj.s 			page 9


 186:.\Generated_Source\PSoC4/ISR_Timer1.c **** *   address: Address of the ISR to set in the interrupt vector table.
 187:.\Generated_Source\PSoC4/ISR_Timer1.c **** *
 188:.\Generated_Source\PSoC4/ISR_Timer1.c **** * Return:
 189:.\Generated_Source\PSoC4/ISR_Timer1.c **** *   None
 190:.\Generated_Source\PSoC4/ISR_Timer1.c **** *
 191:.\Generated_Source\PSoC4/ISR_Timer1.c **** *******************************************************************************/
 192:.\Generated_Source\PSoC4/ISR_Timer1.c **** void ISR_Timer1_SetVector(cyisraddress address)
 193:.\Generated_Source\PSoC4/ISR_Timer1.c **** {
 272              		.loc 1 193 0
 273              		.cfi_startproc
 274 0000 80B5     		push	{r7, lr}
 275              	.LCFI10:
 276              		.cfi_def_cfa_offset 8
 277              		.cfi_offset 7, -8
 278              		.cfi_offset 14, -4
 279 0002 82B0     		sub	sp, sp, #8
 280              	.LCFI11:
 281              		.cfi_def_cfa_offset 16
 282 0004 00AF     		add	r7, sp, #0
 283              	.LCFI12:
 284              		.cfi_def_cfa_register 7
 285 0006 7860     		str	r0, [r7, #4]
 194:.\Generated_Source\PSoC4/ISR_Timer1.c ****     CyRamVectors[CYINT_IRQ_BASE + ISR_Timer1__INTC_NUMBER] = address;
 286              		.loc 1 194 0
 287 0008 034A     		ldr	r2, .L15
 288 000a 8023     		mov	r3, #128
 289 000c 7968     		ldr	r1, [r7, #4]
 290 000e D150     		str	r1, [r2, r3]
 195:.\Generated_Source\PSoC4/ISR_Timer1.c **** }
 291              		.loc 1 195 0
 292 0010 BD46     		mov	sp, r7
 293 0012 02B0     		add	sp, sp, #8
 294              		@ sp needed for prologue
 295 0014 80BD     		pop	{r7, pc}
 296              	.L16:
 297 0016 C046     		.align	2
 298              	.L15:
 299 0018 00000000 		.word	CyRamVectors
 300              		.cfi_endproc
 301              	.LFE37:
 302              		.size	ISR_Timer1_SetVector, .-ISR_Timer1_SetVector
 303              		.section	.text.ISR_Timer1_GetVector,"ax",%progbits
 304              		.align	2
 305              		.global	ISR_Timer1_GetVector
 306              		.code	16
 307              		.thumb_func
 308              		.type	ISR_Timer1_GetVector, %function
 309              	ISR_Timer1_GetVector:
 310              	.LFB38:
 196:.\Generated_Source\PSoC4/ISR_Timer1.c **** 
 197:.\Generated_Source\PSoC4/ISR_Timer1.c **** 
 198:.\Generated_Source\PSoC4/ISR_Timer1.c **** /*******************************************************************************
 199:.\Generated_Source\PSoC4/ISR_Timer1.c **** * Function Name: ISR_Timer1_GetVector
 200:.\Generated_Source\PSoC4/ISR_Timer1.c **** ********************************************************************************
 201:.\Generated_Source\PSoC4/ISR_Timer1.c **** *
 202:.\Generated_Source\PSoC4/ISR_Timer1.c **** * Summary:
 203:.\Generated_Source\PSoC4/ISR_Timer1.c **** *   Gets the "address" of the current ISR vector for the Interrupt.
ARM GAS  C:\Users\Jared\AppData\Local\Temp\ccqqdBgj.s 			page 10


 204:.\Generated_Source\PSoC4/ISR_Timer1.c **** *
 205:.\Generated_Source\PSoC4/ISR_Timer1.c **** * Parameters:
 206:.\Generated_Source\PSoC4/ISR_Timer1.c **** *   None
 207:.\Generated_Source\PSoC4/ISR_Timer1.c **** *
 208:.\Generated_Source\PSoC4/ISR_Timer1.c **** * Return:
 209:.\Generated_Source\PSoC4/ISR_Timer1.c **** *   Address of the ISR in the interrupt vector table.
 210:.\Generated_Source\PSoC4/ISR_Timer1.c **** *
 211:.\Generated_Source\PSoC4/ISR_Timer1.c **** *******************************************************************************/
 212:.\Generated_Source\PSoC4/ISR_Timer1.c **** cyisraddress ISR_Timer1_GetVector(void)
 213:.\Generated_Source\PSoC4/ISR_Timer1.c **** {
 311              		.loc 1 213 0
 312              		.cfi_startproc
 313 0000 80B5     		push	{r7, lr}
 314              	.LCFI13:
 315              		.cfi_def_cfa_offset 8
 316              		.cfi_offset 7, -8
 317              		.cfi_offset 14, -4
 318 0002 00AF     		add	r7, sp, #0
 319              	.LCFI14:
 320              		.cfi_def_cfa_register 7
 214:.\Generated_Source\PSoC4/ISR_Timer1.c ****     return CyRamVectors[CYINT_IRQ_BASE + ISR_Timer1__INTC_NUMBER];
 321              		.loc 1 214 0
 322 0004 024A     		ldr	r2, .L19
 323 0006 8023     		mov	r3, #128
 324 0008 D358     		ldr	r3, [r2, r3]
 215:.\Generated_Source\PSoC4/ISR_Timer1.c **** }
 325              		.loc 1 215 0
 326 000a 181C     		mov	r0, r3
 327 000c BD46     		mov	sp, r7
 328              		@ sp needed for prologue
 329 000e 80BD     		pop	{r7, pc}
 330              	.L20:
 331              		.align	2
 332              	.L19:
 333 0010 00000000 		.word	CyRamVectors
 334              		.cfi_endproc
 335              	.LFE38:
 336              		.size	ISR_Timer1_GetVector, .-ISR_Timer1_GetVector
 337              		.section	.text.ISR_Timer1_SetPriority,"ax",%progbits
 338              		.align	2
 339              		.global	ISR_Timer1_SetPriority
 340              		.code	16
 341              		.thumb_func
 342              		.type	ISR_Timer1_SetPriority, %function
 343              	ISR_Timer1_SetPriority:
 344              	.LFB39:
 216:.\Generated_Source\PSoC4/ISR_Timer1.c **** 
 217:.\Generated_Source\PSoC4/ISR_Timer1.c **** 
 218:.\Generated_Source\PSoC4/ISR_Timer1.c **** /*******************************************************************************
 219:.\Generated_Source\PSoC4/ISR_Timer1.c **** * Function Name: ISR_Timer1_SetPriority
 220:.\Generated_Source\PSoC4/ISR_Timer1.c **** ********************************************************************************
 221:.\Generated_Source\PSoC4/ISR_Timer1.c **** *
 222:.\Generated_Source\PSoC4/ISR_Timer1.c **** * Summary:
 223:.\Generated_Source\PSoC4/ISR_Timer1.c **** *   Sets the Priority of the Interrupt. Note calling ISR_Timer1_Start
 224:.\Generated_Source\PSoC4/ISR_Timer1.c **** *   or ISR_Timer1_StartEx will override any effect this method would 
 225:.\Generated_Source\PSoC4/ISR_Timer1.c **** *   have had. This method should only be called after ISR_Timer1_Start or 
 226:.\Generated_Source\PSoC4/ISR_Timer1.c **** *   ISR_Timer1_StartEx has been called. To set the initial
ARM GAS  C:\Users\Jared\AppData\Local\Temp\ccqqdBgj.s 			page 11


 227:.\Generated_Source\PSoC4/ISR_Timer1.c **** *   priority for the component use the cydwr file in the tool.
 228:.\Generated_Source\PSoC4/ISR_Timer1.c **** *
 229:.\Generated_Source\PSoC4/ISR_Timer1.c **** * Parameters:
 230:.\Generated_Source\PSoC4/ISR_Timer1.c **** *   priority: Priority of the interrupt. 0 - 3, 0 being the highest.
 231:.\Generated_Source\PSoC4/ISR_Timer1.c **** *
 232:.\Generated_Source\PSoC4/ISR_Timer1.c **** * Return:
 233:.\Generated_Source\PSoC4/ISR_Timer1.c **** *   None
 234:.\Generated_Source\PSoC4/ISR_Timer1.c **** *
 235:.\Generated_Source\PSoC4/ISR_Timer1.c **** *******************************************************************************/
 236:.\Generated_Source\PSoC4/ISR_Timer1.c **** void ISR_Timer1_SetPriority(uint8 priority)
 237:.\Generated_Source\PSoC4/ISR_Timer1.c **** {
 345              		.loc 1 237 0
 346              		.cfi_startproc
 347 0000 90B5     		push	{r4, r7, lr}
 348              	.LCFI15:
 349              		.cfi_def_cfa_offset 12
 350              		.cfi_offset 4, -12
 351              		.cfi_offset 7, -8
 352              		.cfi_offset 14, -4
 353 0002 85B0     		sub	sp, sp, #20
 354              	.LCFI16:
 355              		.cfi_def_cfa_offset 32
 356 0004 00AF     		add	r7, sp, #0
 357              	.LCFI17:
 358              		.cfi_def_cfa_register 7
 359 0006 021C     		mov	r2, r0
 360 0008 FB1D     		add	r3, r7, #7
 361 000a 1A70     		strb	r2, [r3]
 238:.\Generated_Source\PSoC4/ISR_Timer1.c **** 	uint8 interruptState;
 239:.\Generated_Source\PSoC4/ISR_Timer1.c ****     uint32 priorityOffset = ((ISR_Timer1__INTC_NUMBER % 4u) * 8u) + 6u;
 362              		.loc 1 239 0
 363 000c 0623     		mov	r3, #6
 364 000e FB60     		str	r3, [r7, #12]
 240:.\Generated_Source\PSoC4/ISR_Timer1.c ****     
 241:.\Generated_Source\PSoC4/ISR_Timer1.c **** 	interruptState = CyEnterCriticalSection();
 365              		.loc 1 241 0
 366 0010 3C1C     		mov	r4, r7
 367 0012 0B34     		add	r4, r4, #11
 368 0014 FFF7FEFF 		bl	CyEnterCriticalSection
 369 0018 031C     		mov	r3, r0
 370 001a 2370     		strb	r3, [r4]
 242:.\Generated_Source\PSoC4/ISR_Timer1.c ****     *ISR_Timer1_INTC_PRIOR = (*ISR_Timer1_INTC_PRIOR & (uint32)(~ISR_Timer1__INTC_PRIOR_MASK)) |
 371              		.loc 1 242 0
 372 001c 0B4B     		ldr	r3, .L22
 373 001e 0B4A     		ldr	r2, .L22
 374 0020 1268     		ldr	r2, [r2]
 375 0022 C021     		mov	r1, #192
 376 0024 101C     		mov	r0, r2
 377 0026 8843     		bic	r0, r1
 378 0028 011C     		mov	r1, r0
 243:.\Generated_Source\PSoC4/ISR_Timer1.c ****                                     ((uint32)priority << priorityOffset);
 379              		.loc 1 243 0
 380 002a FA1D     		add	r2, r7, #7
 381 002c 1078     		ldrb	r0, [r2]
 382 002e FA68     		ldr	r2, [r7, #12]
 383 0030 041C     		mov	r4, r0
 384 0032 9440     		lsl	r4, r4, r2
ARM GAS  C:\Users\Jared\AppData\Local\Temp\ccqqdBgj.s 			page 12


 385 0034 221C     		mov	r2, r4
 242:.\Generated_Source\PSoC4/ISR_Timer1.c ****     *ISR_Timer1_INTC_PRIOR = (*ISR_Timer1_INTC_PRIOR & (uint32)(~ISR_Timer1__INTC_PRIOR_MASK)) |
 386              		.loc 1 242 0
 387 0036 0A43     		orr	r2, r1
 388 0038 1A60     		str	r2, [r3]
 244:.\Generated_Source\PSoC4/ISR_Timer1.c **** 	CyExitCriticalSection(interruptState);
 389              		.loc 1 244 0
 390 003a 3B1C     		mov	r3, r7
 391 003c 0B33     		add	r3, r3, #11
 392 003e 1B78     		ldrb	r3, [r3]
 393 0040 181C     		mov	r0, r3
 394 0042 FFF7FEFF 		bl	CyExitCriticalSection
 245:.\Generated_Source\PSoC4/ISR_Timer1.c **** }
 395              		.loc 1 245 0
 396 0046 BD46     		mov	sp, r7
 397 0048 05B0     		add	sp, sp, #20
 398              		@ sp needed for prologue
 399 004a 90BD     		pop	{r4, r7, pc}
 400              	.L23:
 401              		.align	2
 402              	.L22:
 403 004c 10E400E0 		.word	-536812528
 404              		.cfi_endproc
 405              	.LFE39:
 406              		.size	ISR_Timer1_SetPriority, .-ISR_Timer1_SetPriority
 407              		.section	.text.ISR_Timer1_GetPriority,"ax",%progbits
 408              		.align	2
 409              		.global	ISR_Timer1_GetPriority
 410              		.code	16
 411              		.thumb_func
 412              		.type	ISR_Timer1_GetPriority, %function
 413              	ISR_Timer1_GetPriority:
 414              	.LFB40:
 246:.\Generated_Source\PSoC4/ISR_Timer1.c **** 
 247:.\Generated_Source\PSoC4/ISR_Timer1.c **** 
 248:.\Generated_Source\PSoC4/ISR_Timer1.c **** /*******************************************************************************
 249:.\Generated_Source\PSoC4/ISR_Timer1.c **** * Function Name: ISR_Timer1_GetPriority
 250:.\Generated_Source\PSoC4/ISR_Timer1.c **** ********************************************************************************
 251:.\Generated_Source\PSoC4/ISR_Timer1.c **** *
 252:.\Generated_Source\PSoC4/ISR_Timer1.c **** * Summary:
 253:.\Generated_Source\PSoC4/ISR_Timer1.c **** *   Gets the Priority of the Interrupt.
 254:.\Generated_Source\PSoC4/ISR_Timer1.c **** *
 255:.\Generated_Source\PSoC4/ISR_Timer1.c **** * Parameters:
 256:.\Generated_Source\PSoC4/ISR_Timer1.c **** *   None
 257:.\Generated_Source\PSoC4/ISR_Timer1.c **** *
 258:.\Generated_Source\PSoC4/ISR_Timer1.c **** * Return:
 259:.\Generated_Source\PSoC4/ISR_Timer1.c **** *   Priority of the interrupt. 0 - 3, 0 being the highest.
 260:.\Generated_Source\PSoC4/ISR_Timer1.c **** *
 261:.\Generated_Source\PSoC4/ISR_Timer1.c **** *******************************************************************************/
 262:.\Generated_Source\PSoC4/ISR_Timer1.c **** uint8 ISR_Timer1_GetPriority(void)
 263:.\Generated_Source\PSoC4/ISR_Timer1.c **** {
 415              		.loc 1 263 0
 416              		.cfi_startproc
 417 0000 80B5     		push	{r7, lr}
 418              	.LCFI18:
 419              		.cfi_def_cfa_offset 8
 420              		.cfi_offset 7, -8
ARM GAS  C:\Users\Jared\AppData\Local\Temp\ccqqdBgj.s 			page 13


 421              		.cfi_offset 14, -4
 422 0002 82B0     		sub	sp, sp, #8
 423              	.LCFI19:
 424              		.cfi_def_cfa_offset 16
 425 0004 00AF     		add	r7, sp, #0
 426              	.LCFI20:
 427              		.cfi_def_cfa_register 7
 264:.\Generated_Source\PSoC4/ISR_Timer1.c ****     uint32 priority;
 265:.\Generated_Source\PSoC4/ISR_Timer1.c **** 	uint32 priorityOffset = ((ISR_Timer1__INTC_NUMBER % 4u) * 8u) + 6u;
 428              		.loc 1 265 0
 429 0006 0623     		mov	r3, #6
 430 0008 7B60     		str	r3, [r7, #4]
 266:.\Generated_Source\PSoC4/ISR_Timer1.c **** 
 267:.\Generated_Source\PSoC4/ISR_Timer1.c ****     priority = (*ISR_Timer1_INTC_PRIOR & ISR_Timer1__INTC_PRIOR_MASK) >> priorityOffset;
 431              		.loc 1 267 0
 432 000a 074B     		ldr	r3, .L26
 433 000c 1A68     		ldr	r2, [r3]
 434 000e C023     		mov	r3, #192
 435 0010 1A40     		and	r2, r3
 436 0012 7B68     		ldr	r3, [r7, #4]
 437 0014 111C     		mov	r1, r2
 438 0016 D940     		lsr	r1, r1, r3
 439 0018 0B1C     		mov	r3, r1
 440 001a 3B60     		str	r3, [r7]
 268:.\Generated_Source\PSoC4/ISR_Timer1.c **** 
 269:.\Generated_Source\PSoC4/ISR_Timer1.c ****     return (uint8)priority;
 441              		.loc 1 269 0
 442 001c 3B68     		ldr	r3, [r7]
 443 001e DBB2     		uxtb	r3, r3
 270:.\Generated_Source\PSoC4/ISR_Timer1.c **** }
 444              		.loc 1 270 0
 445 0020 181C     		mov	r0, r3
 446 0022 BD46     		mov	sp, r7
 447 0024 02B0     		add	sp, sp, #8
 448              		@ sp needed for prologue
 449 0026 80BD     		pop	{r7, pc}
 450              	.L27:
 451              		.align	2
 452              	.L26:
 453 0028 10E400E0 		.word	-536812528
 454              		.cfi_endproc
 455              	.LFE40:
 456              		.size	ISR_Timer1_GetPriority, .-ISR_Timer1_GetPriority
 457              		.section	.text.ISR_Timer1_Enable,"ax",%progbits
 458              		.align	2
 459              		.global	ISR_Timer1_Enable
 460              		.code	16
 461              		.thumb_func
 462              		.type	ISR_Timer1_Enable, %function
 463              	ISR_Timer1_Enable:
 464              	.LFB41:
 271:.\Generated_Source\PSoC4/ISR_Timer1.c **** 
 272:.\Generated_Source\PSoC4/ISR_Timer1.c **** 
 273:.\Generated_Source\PSoC4/ISR_Timer1.c **** /*******************************************************************************
 274:.\Generated_Source\PSoC4/ISR_Timer1.c **** * Function Name: ISR_Timer1_Enable
 275:.\Generated_Source\PSoC4/ISR_Timer1.c **** ********************************************************************************
 276:.\Generated_Source\PSoC4/ISR_Timer1.c **** *
ARM GAS  C:\Users\Jared\AppData\Local\Temp\ccqqdBgj.s 			page 14


 277:.\Generated_Source\PSoC4/ISR_Timer1.c **** * Summary:
 278:.\Generated_Source\PSoC4/ISR_Timer1.c **** *   Enables the interrupt.
 279:.\Generated_Source\PSoC4/ISR_Timer1.c **** *
 280:.\Generated_Source\PSoC4/ISR_Timer1.c **** * Parameters:
 281:.\Generated_Source\PSoC4/ISR_Timer1.c **** *   None
 282:.\Generated_Source\PSoC4/ISR_Timer1.c **** *
 283:.\Generated_Source\PSoC4/ISR_Timer1.c **** * Return:
 284:.\Generated_Source\PSoC4/ISR_Timer1.c **** *   None
 285:.\Generated_Source\PSoC4/ISR_Timer1.c **** *
 286:.\Generated_Source\PSoC4/ISR_Timer1.c **** *******************************************************************************/
 287:.\Generated_Source\PSoC4/ISR_Timer1.c **** void ISR_Timer1_Enable(void)
 288:.\Generated_Source\PSoC4/ISR_Timer1.c **** {
 465              		.loc 1 288 0
 466              		.cfi_startproc
 467 0000 80B5     		push	{r7, lr}
 468              	.LCFI21:
 469              		.cfi_def_cfa_offset 8
 470              		.cfi_offset 7, -8
 471              		.cfi_offset 14, -4
 472 0002 00AF     		add	r7, sp, #0
 473              	.LCFI22:
 474              		.cfi_def_cfa_register 7
 289:.\Generated_Source\PSoC4/ISR_Timer1.c ****     /* Enable the general interrupt. */
 290:.\Generated_Source\PSoC4/ISR_Timer1.c ****     *ISR_Timer1_INTC_SET_EN = ISR_Timer1__INTC_MASK;
 475              		.loc 1 290 0
 476 0004 024B     		ldr	r3, .L29
 477 0006 8022     		mov	r2, #128
 478 0008 5202     		lsl	r2, r2, #9
 479 000a 1A60     		str	r2, [r3]
 291:.\Generated_Source\PSoC4/ISR_Timer1.c **** }
 480              		.loc 1 291 0
 481 000c BD46     		mov	sp, r7
 482              		@ sp needed for prologue
 483 000e 80BD     		pop	{r7, pc}
 484              	.L30:
 485              		.align	2
 486              	.L29:
 487 0010 00E100E0 		.word	-536813312
 488              		.cfi_endproc
 489              	.LFE41:
 490              		.size	ISR_Timer1_Enable, .-ISR_Timer1_Enable
 491              		.section	.text.ISR_Timer1_GetState,"ax",%progbits
 492              		.align	2
 493              		.global	ISR_Timer1_GetState
 494              		.code	16
 495              		.thumb_func
 496              		.type	ISR_Timer1_GetState, %function
 497              	ISR_Timer1_GetState:
 498              	.LFB42:
 292:.\Generated_Source\PSoC4/ISR_Timer1.c **** 
 293:.\Generated_Source\PSoC4/ISR_Timer1.c **** 
 294:.\Generated_Source\PSoC4/ISR_Timer1.c **** /*******************************************************************************
 295:.\Generated_Source\PSoC4/ISR_Timer1.c **** * Function Name: ISR_Timer1_GetState
 296:.\Generated_Source\PSoC4/ISR_Timer1.c **** ********************************************************************************
 297:.\Generated_Source\PSoC4/ISR_Timer1.c **** *
 298:.\Generated_Source\PSoC4/ISR_Timer1.c **** * Summary:
 299:.\Generated_Source\PSoC4/ISR_Timer1.c **** *   Gets the state (enabled, disabled) of the Interrupt.
ARM GAS  C:\Users\Jared\AppData\Local\Temp\ccqqdBgj.s 			page 15


 300:.\Generated_Source\PSoC4/ISR_Timer1.c **** *
 301:.\Generated_Source\PSoC4/ISR_Timer1.c **** * Parameters:
 302:.\Generated_Source\PSoC4/ISR_Timer1.c **** *   None
 303:.\Generated_Source\PSoC4/ISR_Timer1.c **** *
 304:.\Generated_Source\PSoC4/ISR_Timer1.c **** * Return:
 305:.\Generated_Source\PSoC4/ISR_Timer1.c **** *   1 if enabled, 0 if disabled.
 306:.\Generated_Source\PSoC4/ISR_Timer1.c **** *
 307:.\Generated_Source\PSoC4/ISR_Timer1.c **** *******************************************************************************/
 308:.\Generated_Source\PSoC4/ISR_Timer1.c **** uint8 ISR_Timer1_GetState(void)
 309:.\Generated_Source\PSoC4/ISR_Timer1.c **** {
 499              		.loc 1 309 0
 500              		.cfi_startproc
 501 0000 80B5     		push	{r7, lr}
 502              	.LCFI23:
 503              		.cfi_def_cfa_offset 8
 504              		.cfi_offset 7, -8
 505              		.cfi_offset 14, -4
 506 0002 00AF     		add	r7, sp, #0
 507              	.LCFI24:
 508              		.cfi_def_cfa_register 7
 310:.\Generated_Source\PSoC4/ISR_Timer1.c ****     /* Get the state of the general interrupt. */
 311:.\Generated_Source\PSoC4/ISR_Timer1.c ****     return ((*ISR_Timer1_INTC_SET_EN & (uint32)ISR_Timer1__INTC_MASK) != 0u) ? 1u:0u;
 509              		.loc 1 311 0
 510 0004 054B     		ldr	r3, .L35
 511 0006 1A68     		ldr	r2, [r3]
 512 0008 8023     		mov	r3, #128
 513 000a 5B02     		lsl	r3, r3, #9
 514 000c 1340     		and	r3, r2
 515 000e 01D0     		beq	.L32
 516              		.loc 1 311 0 is_stmt 0 discriminator 1
 517 0010 0123     		mov	r3, #1
 518 0012 00E0     		b	.L33
 519              	.L32:
 520              		.loc 1 311 0 discriminator 2
 521 0014 0023     		mov	r3, #0
 522              	.L33:
 312:.\Generated_Source\PSoC4/ISR_Timer1.c **** }
 523              		.loc 1 312 0 is_stmt 1 discriminator 3
 524 0016 181C     		mov	r0, r3
 525 0018 BD46     		mov	sp, r7
 526              		@ sp needed for prologue
 527 001a 80BD     		pop	{r7, pc}
 528              	.L36:
 529              		.align	2
 530              	.L35:
 531 001c 00E100E0 		.word	-536813312
 532              		.cfi_endproc
 533              	.LFE42:
 534              		.size	ISR_Timer1_GetState, .-ISR_Timer1_GetState
 535              		.section	.text.ISR_Timer1_Disable,"ax",%progbits
 536              		.align	2
 537              		.global	ISR_Timer1_Disable
 538              		.code	16
 539              		.thumb_func
 540              		.type	ISR_Timer1_Disable, %function
 541              	ISR_Timer1_Disable:
 542              	.LFB43:
ARM GAS  C:\Users\Jared\AppData\Local\Temp\ccqqdBgj.s 			page 16


 313:.\Generated_Source\PSoC4/ISR_Timer1.c **** 
 314:.\Generated_Source\PSoC4/ISR_Timer1.c **** 
 315:.\Generated_Source\PSoC4/ISR_Timer1.c **** /*******************************************************************************
 316:.\Generated_Source\PSoC4/ISR_Timer1.c **** * Function Name: ISR_Timer1_Disable
 317:.\Generated_Source\PSoC4/ISR_Timer1.c **** ********************************************************************************
 318:.\Generated_Source\PSoC4/ISR_Timer1.c **** *
 319:.\Generated_Source\PSoC4/ISR_Timer1.c **** * Summary:
 320:.\Generated_Source\PSoC4/ISR_Timer1.c **** *   Disables the Interrupt.
 321:.\Generated_Source\PSoC4/ISR_Timer1.c **** *
 322:.\Generated_Source\PSoC4/ISR_Timer1.c **** * Parameters:
 323:.\Generated_Source\PSoC4/ISR_Timer1.c **** *   None
 324:.\Generated_Source\PSoC4/ISR_Timer1.c **** *
 325:.\Generated_Source\PSoC4/ISR_Timer1.c **** * Return:
 326:.\Generated_Source\PSoC4/ISR_Timer1.c **** *   None
 327:.\Generated_Source\PSoC4/ISR_Timer1.c **** *
 328:.\Generated_Source\PSoC4/ISR_Timer1.c **** *******************************************************************************/
 329:.\Generated_Source\PSoC4/ISR_Timer1.c **** void ISR_Timer1_Disable(void)
 330:.\Generated_Source\PSoC4/ISR_Timer1.c **** {
 543              		.loc 1 330 0
 544              		.cfi_startproc
 545 0000 80B5     		push	{r7, lr}
 546              	.LCFI25:
 547              		.cfi_def_cfa_offset 8
 548              		.cfi_offset 7, -8
 549              		.cfi_offset 14, -4
 550 0002 00AF     		add	r7, sp, #0
 551              	.LCFI26:
 552              		.cfi_def_cfa_register 7
 331:.\Generated_Source\PSoC4/ISR_Timer1.c ****     /* Disable the general interrupt. */
 332:.\Generated_Source\PSoC4/ISR_Timer1.c ****     *ISR_Timer1_INTC_CLR_EN = ISR_Timer1__INTC_MASK;
 553              		.loc 1 332 0
 554 0004 024B     		ldr	r3, .L38
 555 0006 8022     		mov	r2, #128
 556 0008 5202     		lsl	r2, r2, #9
 557 000a 1A60     		str	r2, [r3]
 333:.\Generated_Source\PSoC4/ISR_Timer1.c **** }
 558              		.loc 1 333 0
 559 000c BD46     		mov	sp, r7
 560              		@ sp needed for prologue
 561 000e 80BD     		pop	{r7, pc}
 562              	.L39:
 563              		.align	2
 564              	.L38:
 565 0010 80E100E0 		.word	-536813184
 566              		.cfi_endproc
 567              	.LFE43:
 568              		.size	ISR_Timer1_Disable, .-ISR_Timer1_Disable
 569              		.section	.text.ISR_Timer1_SetPending,"ax",%progbits
 570              		.align	2
 571              		.global	ISR_Timer1_SetPending
 572              		.code	16
 573              		.thumb_func
 574              		.type	ISR_Timer1_SetPending, %function
 575              	ISR_Timer1_SetPending:
 576              	.LFB44:
 334:.\Generated_Source\PSoC4/ISR_Timer1.c **** 
 335:.\Generated_Source\PSoC4/ISR_Timer1.c **** 
ARM GAS  C:\Users\Jared\AppData\Local\Temp\ccqqdBgj.s 			page 17


 336:.\Generated_Source\PSoC4/ISR_Timer1.c **** /*******************************************************************************
 337:.\Generated_Source\PSoC4/ISR_Timer1.c **** * Function Name: ISR_Timer1_SetPending
 338:.\Generated_Source\PSoC4/ISR_Timer1.c **** ********************************************************************************
 339:.\Generated_Source\PSoC4/ISR_Timer1.c **** *
 340:.\Generated_Source\PSoC4/ISR_Timer1.c **** * Summary:
 341:.\Generated_Source\PSoC4/ISR_Timer1.c **** *   Causes the Interrupt to enter the pending state, a software method of
 342:.\Generated_Source\PSoC4/ISR_Timer1.c **** *   generating the interrupt.
 343:.\Generated_Source\PSoC4/ISR_Timer1.c **** *
 344:.\Generated_Source\PSoC4/ISR_Timer1.c **** * Parameters:
 345:.\Generated_Source\PSoC4/ISR_Timer1.c **** *   None
 346:.\Generated_Source\PSoC4/ISR_Timer1.c **** *
 347:.\Generated_Source\PSoC4/ISR_Timer1.c **** * Return:
 348:.\Generated_Source\PSoC4/ISR_Timer1.c **** *   None
 349:.\Generated_Source\PSoC4/ISR_Timer1.c **** *
 350:.\Generated_Source\PSoC4/ISR_Timer1.c **** *******************************************************************************/
 351:.\Generated_Source\PSoC4/ISR_Timer1.c **** void ISR_Timer1_SetPending(void)
 352:.\Generated_Source\PSoC4/ISR_Timer1.c **** {
 577              		.loc 1 352 0
 578              		.cfi_startproc
 579 0000 80B5     		push	{r7, lr}
 580              	.LCFI27:
 581              		.cfi_def_cfa_offset 8
 582              		.cfi_offset 7, -8
 583              		.cfi_offset 14, -4
 584 0002 00AF     		add	r7, sp, #0
 585              	.LCFI28:
 586              		.cfi_def_cfa_register 7
 353:.\Generated_Source\PSoC4/ISR_Timer1.c ****     *ISR_Timer1_INTC_SET_PD = ISR_Timer1__INTC_MASK;
 587              		.loc 1 353 0
 588 0004 024B     		ldr	r3, .L41
 589 0006 8022     		mov	r2, #128
 590 0008 5202     		lsl	r2, r2, #9
 591 000a 1A60     		str	r2, [r3]
 354:.\Generated_Source\PSoC4/ISR_Timer1.c **** }
 592              		.loc 1 354 0
 593 000c BD46     		mov	sp, r7
 594              		@ sp needed for prologue
 595 000e 80BD     		pop	{r7, pc}
 596              	.L42:
 597              		.align	2
 598              	.L41:
 599 0010 00E200E0 		.word	-536813056
 600              		.cfi_endproc
 601              	.LFE44:
 602              		.size	ISR_Timer1_SetPending, .-ISR_Timer1_SetPending
 603              		.section	.text.ISR_Timer1_ClearPending,"ax",%progbits
 604              		.align	2
 605              		.global	ISR_Timer1_ClearPending
 606              		.code	16
 607              		.thumb_func
 608              		.type	ISR_Timer1_ClearPending, %function
 609              	ISR_Timer1_ClearPending:
 610              	.LFB45:
 355:.\Generated_Source\PSoC4/ISR_Timer1.c **** 
 356:.\Generated_Source\PSoC4/ISR_Timer1.c **** 
 357:.\Generated_Source\PSoC4/ISR_Timer1.c **** /*******************************************************************************
 358:.\Generated_Source\PSoC4/ISR_Timer1.c **** * Function Name: ISR_Timer1_ClearPending
ARM GAS  C:\Users\Jared\AppData\Local\Temp\ccqqdBgj.s 			page 18


 359:.\Generated_Source\PSoC4/ISR_Timer1.c **** ********************************************************************************
 360:.\Generated_Source\PSoC4/ISR_Timer1.c **** *
 361:.\Generated_Source\PSoC4/ISR_Timer1.c **** * Summary:
 362:.\Generated_Source\PSoC4/ISR_Timer1.c **** *   Clears a pending interrupt.
 363:.\Generated_Source\PSoC4/ISR_Timer1.c **** *
 364:.\Generated_Source\PSoC4/ISR_Timer1.c **** * Parameters:
 365:.\Generated_Source\PSoC4/ISR_Timer1.c **** *   None
 366:.\Generated_Source\PSoC4/ISR_Timer1.c **** *
 367:.\Generated_Source\PSoC4/ISR_Timer1.c **** * Return:
 368:.\Generated_Source\PSoC4/ISR_Timer1.c **** *   None
 369:.\Generated_Source\PSoC4/ISR_Timer1.c **** *
 370:.\Generated_Source\PSoC4/ISR_Timer1.c **** *******************************************************************************/
 371:.\Generated_Source\PSoC4/ISR_Timer1.c **** void ISR_Timer1_ClearPending(void)
 372:.\Generated_Source\PSoC4/ISR_Timer1.c **** {
 611              		.loc 1 372 0
 612              		.cfi_startproc
 613 0000 80B5     		push	{r7, lr}
 614              	.LCFI29:
 615              		.cfi_def_cfa_offset 8
 616              		.cfi_offset 7, -8
 617              		.cfi_offset 14, -4
 618 0002 00AF     		add	r7, sp, #0
 619              	.LCFI30:
 620              		.cfi_def_cfa_register 7
 373:.\Generated_Source\PSoC4/ISR_Timer1.c ****     *ISR_Timer1_INTC_CLR_PD = ISR_Timer1__INTC_MASK;
 621              		.loc 1 373 0
 622 0004 024B     		ldr	r3, .L44
 623 0006 8022     		mov	r2, #128
 624 0008 5202     		lsl	r2, r2, #9
 625 000a 1A60     		str	r2, [r3]
 374:.\Generated_Source\PSoC4/ISR_Timer1.c **** }
 626              		.loc 1 374 0
 627 000c BD46     		mov	sp, r7
 628              		@ sp needed for prologue
 629 000e 80BD     		pop	{r7, pc}
 630              	.L45:
 631              		.align	2
 632              	.L44:
 633 0010 80E200E0 		.word	-536812928
 634              		.cfi_endproc
 635              	.LFE45:
 636              		.size	ISR_Timer1_ClearPending, .-ISR_Timer1_ClearPending
 637              		.data
 638              		.align	1
 639              		.type	servoEventDelayCnt.5329, %object
 640              		.size	servoEventDelayCnt.5329, 2
 641              	servoEventDelayCnt.5329:
 642 0000 1900     		.short	25
 643              		.text
 644              	.Letext0:
 645              		.file 2 "c:\\program files (x86)\\cypress\\psoc creator\\3.0\\psoc creator\\import\\gnu_cs\\arm\\4
 646              		.file 3 "./Generated_Source/PSoC4/cytypes.h"