ARM GAS  C:\Users\Jared\AppData\Local\Temp\ccZjK8xl.s 			page 1


   1              		.cpu cortex-m0
   2              		.fpu softvfp
   3              		.eabi_attribute 20, 1
   4              		.eabi_attribute 21, 1
   5              		.eabi_attribute 23, 3
   6              		.eabi_attribute 24, 1
   7              		.eabi_attribute 25, 1
   8              		.eabi_attribute 26, 1
   9              		.eabi_attribute 30, 6
  10              		.eabi_attribute 34, 0
  11              		.eabi_attribute 18, 4
  12              		.code	16
  13              		.file	"main.c"
  14              		.text
  15              	.Ltext0:
  16              		.cfi_sections	.debug_frame
  17              		.global	sys_events
  18              		.bss
  19              		.align	1
  20              		.type	sys_events, %object
  21              		.size	sys_events, 2
  22              	sys_events:
  23 0000 0000     		.space	2
  24              		.global	compareValue
  25              		.data
  26              		.align	1
  27              		.type	compareValue, %object
  28              		.size	compareValue, 2
  29              	compareValue:
  30 0000 DC05     		.short	1500
  31              		.section	.rodata
  32              		.align	2
  33              	.LC7:
  34 0000 62746E30 		.ascii	"btn0!\012\000"
  34      210A00
  35 0007 00       		.align	2
  36              	.LC9:
  37 0008 62746E31 		.ascii	"btn1!\012\000"
  37      210A00
  38 000f 00       		.section	.text.main,"ax",%progbits
  39              		.align	2
  40              		.global	main
  41              		.code	16
  42              		.thumb_func
  43              		.type	main, %function
  44              	main:
  45              	.LFB33:
  46              		.file 1 ".\\main.c"
   1:.\main.c      **** /* ========================================
   2:.\main.c      ****  *
   3:.\main.c      ****  * Copyright YOUR COMPANY, THE YEAR
   4:.\main.c      ****  * All Rights Reserved
   5:.\main.c      ****  * UNPUBLISHED, LICENSED SOFTWARE.
   6:.\main.c      ****  *
   7:.\main.c      ****  * CONFIDENTIAL AND PROPRIETARY INFORMATION
   8:.\main.c      ****  * WHICH IS THE PROPERTY OF your company.
   9:.\main.c      ****  *
ARM GAS  C:\Users\Jared\AppData\Local\Temp\ccZjK8xl.s 			page 2


  10:.\main.c      ****  * ========================================
  11:.\main.c      **** */
  12:.\main.c      **** #include <project.h>
  13:.\main.c      **** #include "events.h"
  14:.\main.c      **** 
  15:.\main.c      **** void putdata(void* p, char c);
  16:.\main.c      **** 
  17:.\main.c      **** volatile uint16_t sys_events = 0;
  18:.\main.c      **** volatile uint16_t compareValue = NEUTRAL;
  19:.\main.c      **** 
  20:.\main.c      **** 
  21:.\main.c      **** int main()
  22:.\main.c      **** {
  47              		.loc 1 22 0
  48              		.cfi_startproc
  49 0000 80B5     		push	{r7, lr}
  50              	.LCFI0:
  51              		.cfi_def_cfa_offset 8
  52              		.cfi_offset 7, -8
  53              		.cfi_offset 14, -4
  54 0002 00AF     		add	r7, sp, #0
  55              	.LCFI1:
  56              		.cfi_def_cfa_register 7
  23:.\main.c      ****     /* Place your initialization/startup code here (e.g. MyInst_Start()) */
  24:.\main.c      **** 
  25:.\main.c      ****     CyGlobalIntEnable;  /* Uncomment this line to enable global interrupts. */
  57              		.loc 1 25 0
  58              	@ 25 ".\main.c" 1
  59 0004 62B6     		CPSIE   i
  60              	@ 0 "" 2
  26:.\main.c      ****     // start various components
  27:.\main.c      ****     ISR_Btn0_StartEx(ISR_Btn0_Interrupt);
  61              		.loc 1 27 0
  62              		.code	16
  63 0006 384B     		ldr	r3, .L7
  64 0008 181C     		mov	r0, r3
  65 000a FFF7FEFF 		bl	ISR_Btn0_StartEx
  28:.\main.c      ****     ISR_Bnt1_StartEx(ISR_Bnt1_Interrupt);
  66              		.loc 1 28 0
  67 000e 374B     		ldr	r3, .L7+4
  68 0010 181C     		mov	r0, r3
  69 0012 FFF7FEFF 		bl	ISR_Bnt1_StartEx
  29:.\main.c      ****     ISR_Timer1_StartEx(ISR_Timer1_Interrupt);
  70              		.loc 1 29 0
  71 0016 364B     		ldr	r3, .L7+8
  72 0018 181C     		mov	r0, r3
  73 001a FFF7FEFF 		bl	ISR_Timer1_StartEx
  30:.\main.c      ****     Timer1_Start();
  74              		.loc 1 30 0
  75 001e FFF7FEFF 		bl	Timer1_Start
  31:.\main.c      ****     PWM_Servo_Start();
  76              		.loc 1 31 0
  77 0022 FFF7FEFF 		bl	PWM_Servo_Start
  32:.\main.c      ****     Clock_2_Start();
  78              		.loc 1 32 0
  79 0026 FFF7FEFF 		bl	Clock_2_Start
  33:.\main.c      ****     init_printf(NULL, putdata);
ARM GAS  C:\Users\Jared\AppData\Local\Temp\ccZjK8xl.s 			page 3


  80              		.loc 1 33 0
  81 002a 324B     		ldr	r3, .L7+12
  82 002c 0020     		mov	r0, #0
  83 002e 191C     		mov	r1, r3
  84 0030 FFF7FEFF 		bl	init_printf
  34:.\main.c      ****     UART_1_Start();
  85              		.loc 1 34 0
  86 0034 FFF7FEFF 		bl	UART_1_Start
  35:.\main.c      ****     ISR_UART_Rx_StartEx(ISR_UART_Rx_Interrupt);
  87              		.loc 1 35 0
  88 0038 2F4B     		ldr	r3, .L7+16
  89 003a 181C     		mov	r0, r3
  90 003c FFF7FEFF 		bl	ISR_UART_Rx_StartEx
  36:.\main.c      ****     
  37:.\main.c      ****     // init variables and LEDs
  38:.\main.c      ****     sys_events = 0; // clear all pending events
  91              		.loc 1 38 0
  92 0040 2E4B     		ldr	r3, .L7+20
  93 0042 0022     		mov	r2, #0
  94 0044 1A80     		strh	r2, [r3]
  39:.\main.c      ****     compareValue = NEUTRAL;
  95              		.loc 1 39 0
  96 0046 2E4B     		ldr	r3, .L7+24
  97 0048 2E4A     		ldr	r2, .L7+28
  98 004a 1A80     		strh	r2, [r3]
  40:.\main.c      ****     LED_Write(0); // turn LED's off
  99              		.loc 1 40 0
 100 004c 0020     		mov	r0, #0
 101 004e FFF7FEFF 		bl	LED_Write
  41:.\main.c      ****     LED1_Write(0); 
 102              		.loc 1 41 0
 103 0052 0020     		mov	r0, #0
 104 0054 FFF7FEFF 		bl	LED1_Write
 105 0058 00E0     		b	.L5
 106              	.L6:
  42:.\main.c      ****     for(;;)
  43:.\main.c      ****     {
  44:.\main.c      ****         //CyDisableInts()
  45:.\main.c      ****         CySysPmSleep(); // sleep until interrupt wakes up processor
  46:.\main.c      ****         //printf("wake up!");
  47:.\main.c      ****         if (sys_events) // if any events are pending
  48:.\main.c      ****         {
  49:.\main.c      ****             if (sys_events & PWM_MOVE_SERVO_EVENT)
  50:.\main.c      ****             {
  51:.\main.c      ****                 sys_events &= ~PWM_MOVE_SERVO_EVENT;
  52:.\main.c      ****                 PWM_MOVE_SERVO_EVENT_func();
  53:.\main.c      ****                 //printf("move servo\n");
  54:.\main.c      ****             }
  55:.\main.c      ****             else if (sys_events & BTN0_EVENT)
  56:.\main.c      ****             {
  57:.\main.c      ****                 sys_events &= ~BTN0_EVENT; // clear pending event flag
  58:.\main.c      ****                 BTN0_EVENT_func(); // call event.
  59:.\main.c      ****                 printf("btn0!\n");
  60:.\main.c      ****             }
  61:.\main.c      ****             else if (sys_events & BTN1_EVENT)
  62:.\main.c      ****             {
  63:.\main.c      ****                 sys_events &= ~BTN1_EVENT;  
ARM GAS  C:\Users\Jared\AppData\Local\Temp\ccZjK8xl.s 			page 4


  64:.\main.c      ****                 BTN1_EVENT_func(); 
  65:.\main.c      ****                 printf("btn1!\n");
  66:.\main.c      ****             }
  67:.\main.c      ****         } // end if (sys_events)
  68:.\main.c      ****     } // end while(1)
 107              		.loc 1 68 0
 108 005a C046     		mov	r8, r8
 109              	.L5:
  45:.\main.c      ****         CySysPmSleep(); // sleep until interrupt wakes up processor
 110              		.loc 1 45 0
 111 005c FFF7FEFF 		bl	CySysPmSleep
  47:.\main.c      ****         if (sys_events) // if any events are pending
 112              		.loc 1 47 0
 113 0060 264B     		ldr	r3, .L7+20
 114 0062 1B88     		ldrh	r3, [r3]
 115 0064 9BB2     		uxth	r3, r3
 116 0066 002B     		cmp	r3, #0
 117 0068 F7D0     		beq	.L6
  49:.\main.c      ****             if (sys_events & PWM_MOVE_SERVO_EVENT)
 118              		.loc 1 49 0
 119 006a 244B     		ldr	r3, .L7+20
 120 006c 1B88     		ldrh	r3, [r3]
 121 006e 9BB2     		uxth	r3, r3
 122 0070 1A1C     		mov	r2, r3
 123 0072 1023     		mov	r3, #16
 124 0074 1340     		and	r3, r2
 125 0076 0AD0     		beq	.L3
  51:.\main.c      ****                 sys_events &= ~PWM_MOVE_SERVO_EVENT;
 126              		.loc 1 51 0
 127 0078 204B     		ldr	r3, .L7+20
 128 007a 1B88     		ldrh	r3, [r3]
 129 007c 9BB2     		uxth	r3, r3
 130 007e 1022     		mov	r2, #16
 131 0080 9343     		bic	r3, r2
 132 0082 9AB2     		uxth	r2, r3
 133 0084 1D4B     		ldr	r3, .L7+20
 134 0086 1A80     		strh	r2, [r3]
  52:.\main.c      ****                 PWM_MOVE_SERVO_EVENT_func();
 135              		.loc 1 52 0
 136 0088 FFF7FEFF 		bl	PWM_MOVE_SERVO_EVENT_func
 137              		.loc 1 68 0
 138 008c E5E7     		b	.L6
 139              	.L3:
  55:.\main.c      ****             else if (sys_events & BTN0_EVENT)
 140              		.loc 1 55 0
 141 008e 1B4B     		ldr	r3, .L7+20
 142 0090 1B88     		ldrh	r3, [r3]
 143 0092 9BB2     		uxth	r3, r3
 144 0094 1A1C     		mov	r2, r3
 145 0096 0123     		mov	r3, #1
 146 0098 1340     		and	r3, r2
 147 009a 0ED0     		beq	.L4
  57:.\main.c      ****                 sys_events &= ~BTN0_EVENT; // clear pending event flag
 148              		.loc 1 57 0
 149 009c 174B     		ldr	r3, .L7+20
 150 009e 1B88     		ldrh	r3, [r3]
 151 00a0 9BB2     		uxth	r3, r3
ARM GAS  C:\Users\Jared\AppData\Local\Temp\ccZjK8xl.s 			page 5


 152 00a2 0122     		mov	r2, #1
 153 00a4 9343     		bic	r3, r2
 154 00a6 9AB2     		uxth	r2, r3
 155 00a8 144B     		ldr	r3, .L7+20
 156 00aa 1A80     		strh	r2, [r3]
  58:.\main.c      ****                 BTN0_EVENT_func(); // call event.
 157              		.loc 1 58 0
 158 00ac FFF7FEFF 		bl	BTN0_EVENT_func
  59:.\main.c      ****                 printf("btn0!\n");
 159              		.loc 1 59 0
 160 00b0 154B     		ldr	r3, .L7+32
 161 00b2 181C     		mov	r0, r3
 162 00b4 FFF7FEFF 		bl	tfp_printf
 163              		.loc 1 68 0
 164 00b8 CFE7     		b	.L6
 165              	.L4:
  61:.\main.c      ****             else if (sys_events & BTN1_EVENT)
 166              		.loc 1 61 0
 167 00ba 104B     		ldr	r3, .L7+20
 168 00bc 1B88     		ldrh	r3, [r3]
 169 00be 9BB2     		uxth	r3, r3
 170 00c0 1A1C     		mov	r2, r3
 171 00c2 0223     		mov	r3, #2
 172 00c4 1340     		and	r3, r2
 173 00c6 C8D0     		beq	.L6
  63:.\main.c      ****                 sys_events &= ~BTN1_EVENT;  
 174              		.loc 1 63 0
 175 00c8 0C4B     		ldr	r3, .L7+20
 176 00ca 1B88     		ldrh	r3, [r3]
 177 00cc 9BB2     		uxth	r3, r3
 178 00ce 0222     		mov	r2, #2
 179 00d0 9343     		bic	r3, r2
 180 00d2 9AB2     		uxth	r2, r3
 181 00d4 094B     		ldr	r3, .L7+20
 182 00d6 1A80     		strh	r2, [r3]
  64:.\main.c      ****                 BTN1_EVENT_func(); 
 183              		.loc 1 64 0
 184 00d8 FFF7FEFF 		bl	BTN1_EVENT_func
  65:.\main.c      ****                 printf("btn1!\n");
 185              		.loc 1 65 0
 186 00dc 0B4B     		ldr	r3, .L7+36
 187 00de 181C     		mov	r0, r3
 188 00e0 FFF7FEFF 		bl	tfp_printf
 189              		.loc 1 68 0
 190 00e4 B9E7     		b	.L6
 191              	.L8:
 192 00e6 C046     		.align	2
 193              	.L7:
 194 00e8 00000000 		.word	ISR_Btn0_Interrupt
 195 00ec 00000000 		.word	ISR_Bnt1_Interrupt
 196 00f0 00000000 		.word	ISR_Timer1_Interrupt
 197 00f4 00000000 		.word	putdata
 198 00f8 00000000 		.word	ISR_UART_Rx_Interrupt
 199 00fc 00000000 		.word	sys_events
 200 0100 00000000 		.word	compareValue
 201 0104 DC050000 		.word	1500
 202 0108 00000000 		.word	.LC7
ARM GAS  C:\Users\Jared\AppData\Local\Temp\ccZjK8xl.s 			page 6


 203 010c 08000000 		.word	.LC9
 204              		.cfi_endproc
 205              	.LFE33:
 206              		.size	main, .-main
 207              		.section	.text.putdata,"ax",%progbits
 208              		.align	2
 209              		.global	putdata
 210              		.code	16
 211              		.thumb_func
 212              		.type	putdata, %function
 213              	putdata:
 214              	.LFB34:
  69:.\main.c      **** } // end main
  70:.\main.c      **** 
  71:.\main.c      **** void putdata(void* p, char c)
  72:.\main.c      **** {
 215              		.loc 1 72 0
 216              		.cfi_startproc
 217 0000 80B5     		push	{r7, lr}
 218              	.LCFI2:
 219              		.cfi_def_cfa_offset 8
 220              		.cfi_offset 7, -8
 221              		.cfi_offset 14, -4
 222 0002 82B0     		sub	sp, sp, #8
 223              	.LCFI3:
 224              		.cfi_def_cfa_offset 16
 225 0004 00AF     		add	r7, sp, #0
 226              	.LCFI4:
 227              		.cfi_def_cfa_register 7
 228 0006 7860     		str	r0, [r7, #4]
 229 0008 0A1C     		mov	r2, r1
 230 000a FB1C     		add	r3, r7, #3
 231 000c 1A70     		strb	r2, [r3]
  73:.\main.c      ****     if (c == '\n')
 232              		.loc 1 73 0
 233 000e FB1C     		add	r3, r7, #3
 234 0010 1B78     		ldrb	r3, [r3]
 235 0012 0A2B     		cmp	r3, #10
 236 0014 02D1     		bne	.L10
  74:.\main.c      ****     {
  75:.\main.c      ****         UART_1_UartPutChar('\r'); // insert carriage return
 237              		.loc 1 75 0
 238 0016 0D20     		mov	r0, #13
 239 0018 FFF7FEFF 		bl	UART_1_SpiUartWriteTxData
 240              	.L10:
  76:.\main.c      ****     }
  77:.\main.c      ****     UART_1_UartPutChar(c);
 241              		.loc 1 77 0
 242 001c FB1C     		add	r3, r7, #3
 243 001e 1B78     		ldrb	r3, [r3]
 244 0020 181C     		mov	r0, r3
 245 0022 FFF7FEFF 		bl	UART_1_SpiUartWriteTxData
  78:.\main.c      **** }
 246              		.loc 1 78 0
 247 0026 BD46     		mov	sp, r7
 248 0028 02B0     		add	sp, sp, #8
 249              		@ sp needed for prologue
ARM GAS  C:\Users\Jared\AppData\Local\Temp\ccZjK8xl.s 			page 7


 250 002a 80BD     		pop	{r7, pc}
 251              		.cfi_endproc
 252              	.LFE34:
 253              		.size	putdata, .-putdata
 254              		.text
 255              	.Letext0:
 256              		.file 2 "c:\\program files (x86)\\cypress\\psoc creator\\3.0\\psoc creator\\import\\gnu_cs\\arm\\4
 257              		.file 3 "./Generated_Source/PSoC4/cytypes.h"