ARM GAS  C:\Users\Jared\AppData\Local\Temp\cclIiKIu.s 			page 1


   1              		.cpu cortex-m0
   2              		.fpu softvfp
   3              		.eabi_attribute 20, 1
   4              		.eabi_attribute 21, 1
   5              		.eabi_attribute 23, 3
   6              		.eabi_attribute 24, 1
   7              		.eabi_attribute 25, 1
   8              		.eabi_attribute 26, 1
   9              		.eabi_attribute 30, 6
  10              		.eabi_attribute 34, 0
  11              		.eabi_attribute 18, 4
  12              		.code	16
  13              		.file	"PWM_Servo.c"
  14              		.text
  15              	.Ltext0:
  16              		.cfi_sections	.debug_frame
  17              		.global	PWM_Servo_initVar
  18              		.bss
  19              		.type	PWM_Servo_initVar, %object
  20              		.size	PWM_Servo_initVar, 1
  21              	PWM_Servo_initVar:
  22 0000 00       		.space	1
  23              		.section	.text.PWM_Servo_Init,"ax",%progbits
  24              		.align	2
  25              		.global	PWM_Servo_Init
  26              		.code	16
  27              		.thumb_func
  28              		.type	PWM_Servo_Init, %function
  29              	PWM_Servo_Init:
  30              	.LFB0:
  31              		.file 1 ".\\Generated_Source\\PSoC4\\PWM_Servo.c"
   1:.\Generated_Source\PSoC4/PWM_Servo.c **** /*******************************************************************************
   2:.\Generated_Source\PSoC4/PWM_Servo.c **** * File Name: PWM_Servo.c
   3:.\Generated_Source\PSoC4/PWM_Servo.c **** * Version 1.10
   4:.\Generated_Source\PSoC4/PWM_Servo.c **** *
   5:.\Generated_Source\PSoC4/PWM_Servo.c **** * Description:
   6:.\Generated_Source\PSoC4/PWM_Servo.c **** *  This file provides the source code to the API for the PWM_Servo
   7:.\Generated_Source\PSoC4/PWM_Servo.c **** *  component
   8:.\Generated_Source\PSoC4/PWM_Servo.c **** *
   9:.\Generated_Source\PSoC4/PWM_Servo.c **** * Note:
  10:.\Generated_Source\PSoC4/PWM_Servo.c **** *  None
  11:.\Generated_Source\PSoC4/PWM_Servo.c **** *
  12:.\Generated_Source\PSoC4/PWM_Servo.c **** ********************************************************************************
  13:.\Generated_Source\PSoC4/PWM_Servo.c **** * Copyright 2013-2014, Cypress Semiconductor Corporation.  All rights reserved.
  14:.\Generated_Source\PSoC4/PWM_Servo.c **** * You may use this file only in accordance with the license, terms, conditions,
  15:.\Generated_Source\PSoC4/PWM_Servo.c **** * disclaimers, and limitations in the end user license agreement accompanying
  16:.\Generated_Source\PSoC4/PWM_Servo.c **** * the software package with which this file was provided.
  17:.\Generated_Source\PSoC4/PWM_Servo.c **** *******************************************************************************/
  18:.\Generated_Source\PSoC4/PWM_Servo.c **** 
  19:.\Generated_Source\PSoC4/PWM_Servo.c **** #include "PWM_Servo.h"
  20:.\Generated_Source\PSoC4/PWM_Servo.c **** #include "CyLib.h"
  21:.\Generated_Source\PSoC4/PWM_Servo.c **** 
  22:.\Generated_Source\PSoC4/PWM_Servo.c **** uint8 PWM_Servo_initVar = 0u;
  23:.\Generated_Source\PSoC4/PWM_Servo.c **** 
  24:.\Generated_Source\PSoC4/PWM_Servo.c **** 
  25:.\Generated_Source\PSoC4/PWM_Servo.c **** /*******************************************************************************
  26:.\Generated_Source\PSoC4/PWM_Servo.c **** * Function Name: PWM_Servo_Init
ARM GAS  C:\Users\Jared\AppData\Local\Temp\cclIiKIu.s 			page 2


  27:.\Generated_Source\PSoC4/PWM_Servo.c **** ********************************************************************************
  28:.\Generated_Source\PSoC4/PWM_Servo.c **** *
  29:.\Generated_Source\PSoC4/PWM_Servo.c **** * Summary:
  30:.\Generated_Source\PSoC4/PWM_Servo.c **** *  Initialize/Restore default PWM_Servo configuration.
  31:.\Generated_Source\PSoC4/PWM_Servo.c **** *
  32:.\Generated_Source\PSoC4/PWM_Servo.c **** * Parameters:
  33:.\Generated_Source\PSoC4/PWM_Servo.c **** *  None
  34:.\Generated_Source\PSoC4/PWM_Servo.c **** *
  35:.\Generated_Source\PSoC4/PWM_Servo.c **** * Return:
  36:.\Generated_Source\PSoC4/PWM_Servo.c **** *  None
  37:.\Generated_Source\PSoC4/PWM_Servo.c **** *
  38:.\Generated_Source\PSoC4/PWM_Servo.c **** *******************************************************************************/
  39:.\Generated_Source\PSoC4/PWM_Servo.c **** void PWM_Servo_Init(void)
  40:.\Generated_Source\PSoC4/PWM_Servo.c **** {
  32              		.loc 1 40 0
  33              		.cfi_startproc
  34 0000 80B5     		push	{r7, lr}
  35              	.LCFI0:
  36              		.cfi_def_cfa_offset 8
  37              		.cfi_offset 7, -8
  38              		.cfi_offset 14, -4
  39 0002 00AF     		add	r7, sp, #0
  40              	.LCFI1:
  41              		.cfi_def_cfa_register 7
  41:.\Generated_Source\PSoC4/PWM_Servo.c **** 
  42:.\Generated_Source\PSoC4/PWM_Servo.c ****     /* Set values from customizer to CTRL */
  43:.\Generated_Source\PSoC4/PWM_Servo.c ****     #if (PWM_Servo__QUAD == PWM_Servo_CONFIG)
  44:.\Generated_Source\PSoC4/PWM_Servo.c ****         PWM_Servo_CONTROL_REG =
  45:.\Generated_Source\PSoC4/PWM_Servo.c ****         (((uint32)(PWM_Servo_QUAD_ENCODING_MODES     << PWM_Servo_QUAD_MODE_SHIFT))       |
  46:.\Generated_Source\PSoC4/PWM_Servo.c ****          ((uint32)(PWM_Servo_CONFIG                  << PWM_Servo_MODE_SHIFT)));
  47:.\Generated_Source\PSoC4/PWM_Servo.c ****     #endif  /* (PWM_Servo__QUAD == PWM_Servo_CONFIG) */
  48:.\Generated_Source\PSoC4/PWM_Servo.c **** 
  49:.\Generated_Source\PSoC4/PWM_Servo.c ****     #if (PWM_Servo__PWM_SEL == PWM_Servo_CONFIG)
  50:.\Generated_Source\PSoC4/PWM_Servo.c ****         PWM_Servo_CONTROL_REG =
  42              		.loc 1 50 0
  43 0004 0F4B     		ldr	r3, .L2
  44 0006 8022     		mov	r2, #128
  45 0008 D204     		lsl	r2, r2, #19
  46 000a 1A60     		str	r2, [r3]
  51:.\Generated_Source\PSoC4/PWM_Servo.c ****         (((uint32)(PWM_Servo_PWM_STOP_EVENT          << PWM_Servo_PWM_STOP_KILL_SHIFT))    |
  52:.\Generated_Source\PSoC4/PWM_Servo.c ****          ((uint32)(PWM_Servo_PWM_OUT_INVERT          << PWM_Servo_INV_OUT_SHIFT))         |
  53:.\Generated_Source\PSoC4/PWM_Servo.c ****          ((uint32)(PWM_Servo_PWM_OUT_N_INVERT        << PWM_Servo_INV_COMPL_OUT_SHIFT))     |
  54:.\Generated_Source\PSoC4/PWM_Servo.c ****          ((uint32)(PWM_Servo_PWM_MODE                << PWM_Servo_MODE_SHIFT)));
  55:.\Generated_Source\PSoC4/PWM_Servo.c **** 
  56:.\Generated_Source\PSoC4/PWM_Servo.c ****         #if (PWM_Servo__PWM_PR == PWM_Servo_PWM_MODE)
  57:.\Generated_Source\PSoC4/PWM_Servo.c ****             PWM_Servo_CONTROL_REG |=
  58:.\Generated_Source\PSoC4/PWM_Servo.c ****             ((uint32)(PWM_Servo_PWM_RUN_MODE         << PWM_Servo_ONESHOT_SHIFT));
  59:.\Generated_Source\PSoC4/PWM_Servo.c **** 
  60:.\Generated_Source\PSoC4/PWM_Servo.c ****             PWM_Servo_WriteCounter(PWM_Servo_PWM_PR_INIT_VALUE);
  61:.\Generated_Source\PSoC4/PWM_Servo.c ****         #else
  62:.\Generated_Source\PSoC4/PWM_Servo.c ****             PWM_Servo_CONTROL_REG |=
  47              		.loc 1 62 0
  48 000c 0D4B     		ldr	r3, .L2
  49 000e 0D4A     		ldr	r2, .L2
  50 0010 1268     		ldr	r2, [r2]
  51 0012 1A60     		str	r2, [r3]
  63:.\Generated_Source\PSoC4/PWM_Servo.c ****             (((uint32)(PWM_Servo_PWM_ALIGN           << PWM_Servo_UPDOWN_SHIFT))          |
ARM GAS  C:\Users\Jared\AppData\Local\Temp\cclIiKIu.s 			page 3


  64:.\Generated_Source\PSoC4/PWM_Servo.c ****              ((uint32)(PWM_Servo_PWM_KILL_EVENT      << PWM_Servo_PWM_SYNC_KILL_SHIFT)));
  65:.\Generated_Source\PSoC4/PWM_Servo.c ****         #endif  /* (PWM_Servo__PWM_PR == PWM_Servo_PWM_MODE) */
  66:.\Generated_Source\PSoC4/PWM_Servo.c **** 
  67:.\Generated_Source\PSoC4/PWM_Servo.c ****         #if (PWM_Servo__PWM_DT == PWM_Servo_PWM_MODE)
  68:.\Generated_Source\PSoC4/PWM_Servo.c ****             PWM_Servo_CONTROL_REG |=
  69:.\Generated_Source\PSoC4/PWM_Servo.c ****             ((uint32)(PWM_Servo_PWM_DEAD_TIME_CYCLE  << PWM_Servo_PRESCALER_SHIFT));
  70:.\Generated_Source\PSoC4/PWM_Servo.c ****         #endif  /* (PWM_Servo__PWM_DT == PWM_Servo_PWM_MODE) */
  71:.\Generated_Source\PSoC4/PWM_Servo.c **** 
  72:.\Generated_Source\PSoC4/PWM_Servo.c ****         #if (PWM_Servo__PWM == PWM_Servo_PWM_MODE)
  73:.\Generated_Source\PSoC4/PWM_Servo.c ****             PWM_Servo_CONTROL_REG |=
  52              		.loc 1 73 0
  53 0014 0B4B     		ldr	r3, .L2
  54 0016 0B4A     		ldr	r2, .L2
  55 0018 1268     		ldr	r2, [r2]
  56 001a 1A60     		str	r2, [r3]
  74:.\Generated_Source\PSoC4/PWM_Servo.c ****             ((uint32)PWM_Servo_PWM_PRESCALER         << PWM_Servo_PRESCALER_SHIFT);
  75:.\Generated_Source\PSoC4/PWM_Servo.c ****         #endif  /* (PWM_Servo__PWM == PWM_Servo_PWM_MODE) */
  76:.\Generated_Source\PSoC4/PWM_Servo.c ****     #endif  /* (PWM_Servo__PWM_SEL == PWM_Servo_CONFIG) */
  77:.\Generated_Source\PSoC4/PWM_Servo.c **** 
  78:.\Generated_Source\PSoC4/PWM_Servo.c ****     #if (PWM_Servo__TIMER == PWM_Servo_CONFIG)
  79:.\Generated_Source\PSoC4/PWM_Servo.c ****         PWM_Servo_CONTROL_REG =
  80:.\Generated_Source\PSoC4/PWM_Servo.c ****         (((uint32)(PWM_Servo_TC_PRESCALER            << PWM_Servo_PRESCALER_SHIFT))   |
  81:.\Generated_Source\PSoC4/PWM_Servo.c ****          ((uint32)(PWM_Servo_TC_COUNTER_MODE         << PWM_Servo_UPDOWN_SHIFT))      |
  82:.\Generated_Source\PSoC4/PWM_Servo.c ****          ((uint32)(PWM_Servo_TC_RUN_MODE             << PWM_Servo_ONESHOT_SHIFT))     |
  83:.\Generated_Source\PSoC4/PWM_Servo.c ****          ((uint32)(PWM_Servo_TC_COMP_CAP_MODE        << PWM_Servo_MODE_SHIFT)));
  84:.\Generated_Source\PSoC4/PWM_Servo.c ****     #endif  /* (PWM_Servo__TIMER == PWM_Servo_CONFIG) */
  85:.\Generated_Source\PSoC4/PWM_Servo.c **** 
  86:.\Generated_Source\PSoC4/PWM_Servo.c ****     /* Set values from customizer to CTRL1 */
  87:.\Generated_Source\PSoC4/PWM_Servo.c ****     #if (PWM_Servo__QUAD == PWM_Servo_CONFIG)
  88:.\Generated_Source\PSoC4/PWM_Servo.c ****         PWM_Servo_TRIG_CONTROL1_REG  =
  89:.\Generated_Source\PSoC4/PWM_Servo.c ****         (((uint32)(PWM_Servo_QUAD_PHIA_SIGNAL_MODE   << PWM_Servo_COUNT_SHIFT))       |
  90:.\Generated_Source\PSoC4/PWM_Servo.c ****          ((uint32)(PWM_Servo_QUAD_INDEX_SIGNAL_MODE  << PWM_Servo_RELOAD_SHIFT))      |
  91:.\Generated_Source\PSoC4/PWM_Servo.c ****          ((uint32)(PWM_Servo_QUAD_STOP_SIGNAL_MODE   << PWM_Servo_STOP_SHIFT))        |
  92:.\Generated_Source\PSoC4/PWM_Servo.c ****          ((uint32)(PWM_Servo_QUAD_PHIB_SIGNAL_MODE   << PWM_Servo_START_SHIFT)));
  93:.\Generated_Source\PSoC4/PWM_Servo.c ****     #endif  /* (PWM_Servo__QUAD == PWM_Servo_CONFIG) */
  94:.\Generated_Source\PSoC4/PWM_Servo.c **** 
  95:.\Generated_Source\PSoC4/PWM_Servo.c ****     #if (PWM_Servo__PWM_SEL == PWM_Servo_CONFIG)
  96:.\Generated_Source\PSoC4/PWM_Servo.c ****         PWM_Servo_TRIG_CONTROL1_REG  =
  57              		.loc 1 96 0
  58 001c 0A4B     		ldr	r3, .L2+4
  59 001e 0C22     		mov	r2, #12
  60 0020 1A60     		str	r2, [r3]
  97:.\Generated_Source\PSoC4/PWM_Servo.c ****         (((uint32)(PWM_Servo_PWM_SWITCH_SIGNAL_MODE  << PWM_Servo_CAPTURE_SHIFT))     |
  98:.\Generated_Source\PSoC4/PWM_Servo.c ****          ((uint32)(PWM_Servo_PWM_COUNT_SIGNAL_MODE   << PWM_Servo_COUNT_SHIFT))       |
  99:.\Generated_Source\PSoC4/PWM_Servo.c ****          ((uint32)(PWM_Servo_PWM_RELOAD_SIGNAL_MODE  << PWM_Servo_RELOAD_SHIFT))      |
 100:.\Generated_Source\PSoC4/PWM_Servo.c ****          ((uint32)(PWM_Servo_PWM_STOP_SIGNAL_MODE    << PWM_Servo_STOP_SHIFT))        |
 101:.\Generated_Source\PSoC4/PWM_Servo.c ****          ((uint32)(PWM_Servo_PWM_START_SIGNAL_MODE   << PWM_Servo_START_SHIFT)));
 102:.\Generated_Source\PSoC4/PWM_Servo.c ****     #endif  /* (PWM_Servo__PWM_SEL == PWM_Servo_CONFIG) */
 103:.\Generated_Source\PSoC4/PWM_Servo.c **** 
 104:.\Generated_Source\PSoC4/PWM_Servo.c ****     #if (PWM_Servo__TIMER == PWM_Servo_CONFIG)
 105:.\Generated_Source\PSoC4/PWM_Servo.c ****         PWM_Servo_TRIG_CONTROL1_REG  =
 106:.\Generated_Source\PSoC4/PWM_Servo.c ****         (((uint32)(PWM_Servo_TC_CAPTURE_SIGNAL_MODE  << PWM_Servo_CAPTURE_SHIFT))     |
 107:.\Generated_Source\PSoC4/PWM_Servo.c ****          ((uint32)(PWM_Servo_TC_COUNT_SIGNAL_MODE    << PWM_Servo_COUNT_SHIFT))       |
 108:.\Generated_Source\PSoC4/PWM_Servo.c ****          ((uint32)(PWM_Servo_TC_RELOAD_SIGNAL_MODE   << PWM_Servo_RELOAD_SHIFT))      |
 109:.\Generated_Source\PSoC4/PWM_Servo.c ****          ((uint32)(PWM_Servo_TC_STOP_SIGNAL_MODE     << PWM_Servo_STOP_SHIFT))        |
 110:.\Generated_Source\PSoC4/PWM_Servo.c ****          ((uint32)(PWM_Servo_TC_START_SIGNAL_MODE    << PWM_Servo_START_SHIFT)));
 111:.\Generated_Source\PSoC4/PWM_Servo.c ****     #endif  /* (PWM_Servo__TIMER == PWM_Servo_CONFIG) */
ARM GAS  C:\Users\Jared\AppData\Local\Temp\cclIiKIu.s 			page 4


 112:.\Generated_Source\PSoC4/PWM_Servo.c **** 
 113:.\Generated_Source\PSoC4/PWM_Servo.c ****     /* Set values from customizer to INTR */
 114:.\Generated_Source\PSoC4/PWM_Servo.c ****     #if (PWM_Servo__QUAD == PWM_Servo_CONFIG)
 115:.\Generated_Source\PSoC4/PWM_Servo.c ****         PWM_Servo_SetInterruptMode(PWM_Servo_QUAD_INTERRUPT_MASK);
 116:.\Generated_Source\PSoC4/PWM_Servo.c ****     #endif  /* (PWM_Servo__QUAD == PWM_Servo_CONFIG) */
 117:.\Generated_Source\PSoC4/PWM_Servo.c **** 
 118:.\Generated_Source\PSoC4/PWM_Servo.c ****     #if (PWM_Servo__PWM_SEL == PWM_Servo_CONFIG)
 119:.\Generated_Source\PSoC4/PWM_Servo.c ****         PWM_Servo_SetInterruptMode(PWM_Servo_PWM_INTERRUPT_MASK);
  61              		.loc 1 119 0
  62 0022 0020     		mov	r0, #0
  63 0024 FFF7FEFF 		bl	PWM_Servo_SetInterruptMode
 120:.\Generated_Source\PSoC4/PWM_Servo.c ****     #endif  /* (PWM_Servo__PWM_SEL == PWM_Servo_CONFIG) */
 121:.\Generated_Source\PSoC4/PWM_Servo.c **** 
 122:.\Generated_Source\PSoC4/PWM_Servo.c ****     #if (PWM_Servo__TIMER == PWM_Servo_CONFIG)
 123:.\Generated_Source\PSoC4/PWM_Servo.c ****         PWM_Servo_SetInterruptMode(PWM_Servo_TC_INTERRUPT_MASK);
 124:.\Generated_Source\PSoC4/PWM_Servo.c ****     #endif  /* (PWM_Servo__TIMER == PWM_Servo_CONFIG) */
 125:.\Generated_Source\PSoC4/PWM_Servo.c **** 
 126:.\Generated_Source\PSoC4/PWM_Servo.c ****     /* Set other values from customizer */
 127:.\Generated_Source\PSoC4/PWM_Servo.c ****     #if (PWM_Servo__TIMER == PWM_Servo_CONFIG)
 128:.\Generated_Source\PSoC4/PWM_Servo.c ****         PWM_Servo_WritePeriod(PWM_Servo_TC_PERIOD_VALUE );
 129:.\Generated_Source\PSoC4/PWM_Servo.c **** 
 130:.\Generated_Source\PSoC4/PWM_Servo.c ****         #if (PWM_Servo__COUNT_DOWN == PWM_Servo_TC_COUNTER_MODE)
 131:.\Generated_Source\PSoC4/PWM_Servo.c ****             PWM_Servo_WriteCounter(PWM_Servo_TC_PERIOD_VALUE );
 132:.\Generated_Source\PSoC4/PWM_Servo.c ****         #endif  /* (PWM_Servo__COUNT_DOWN == PWM_Servo_TC_COUNTER_MODE) */
 133:.\Generated_Source\PSoC4/PWM_Servo.c **** 
 134:.\Generated_Source\PSoC4/PWM_Servo.c ****         #if (PWM_Servo__COMPARE == PWM_Servo_TC_COMP_CAP_MODE)
 135:.\Generated_Source\PSoC4/PWM_Servo.c ****             PWM_Servo_WriteCompare(PWM_Servo_TC_COMPARE_VALUE);
 136:.\Generated_Source\PSoC4/PWM_Servo.c **** 
 137:.\Generated_Source\PSoC4/PWM_Servo.c ****             #if (1u == PWM_Servo_TC_COMPARE_SWAP)
 138:.\Generated_Source\PSoC4/PWM_Servo.c ****                 PWM_Servo_SetCompareSwap(1u);
 139:.\Generated_Source\PSoC4/PWM_Servo.c ****                 PWM_Servo_WriteCompareBuf(PWM_Servo_TC_COMPARE_BUF_VALUE);
 140:.\Generated_Source\PSoC4/PWM_Servo.c ****             #endif  /* (1u == PWM_Servo_TC_COMPARE_SWAP) */
 141:.\Generated_Source\PSoC4/PWM_Servo.c ****         #endif  /* (PWM_Servo__COMPARE == PWM_Servo_TC_COMP_CAP_MODE) */
 142:.\Generated_Source\PSoC4/PWM_Servo.c ****     #endif  /* (PWM_Servo__TIMER == PWM_Servo_CONFIG) */
 143:.\Generated_Source\PSoC4/PWM_Servo.c **** 
 144:.\Generated_Source\PSoC4/PWM_Servo.c ****     #if (PWM_Servo__PWM_SEL == PWM_Servo_CONFIG)
 145:.\Generated_Source\PSoC4/PWM_Servo.c ****         PWM_Servo_WritePeriod(PWM_Servo_PWM_PERIOD_VALUE );
  64              		.loc 1 145 0
  65 0028 084B     		ldr	r3, .L2+8
  66 002a 181C     		mov	r0, r3
  67 002c FFF7FEFF 		bl	PWM_Servo_WritePeriod
 146:.\Generated_Source\PSoC4/PWM_Servo.c ****         PWM_Servo_WriteCompare(PWM_Servo_PWM_COMPARE_VALUE);
  68              		.loc 1 146 0
  69 0030 074B     		ldr	r3, .L2+12
  70 0032 181C     		mov	r0, r3
  71 0034 FFF7FEFF 		bl	PWM_Servo_WriteCompare
 147:.\Generated_Source\PSoC4/PWM_Servo.c **** 
 148:.\Generated_Source\PSoC4/PWM_Servo.c ****         #if (1u == PWM_Servo_PWM_COMPARE_SWAP)
 149:.\Generated_Source\PSoC4/PWM_Servo.c ****             PWM_Servo_SetCompareSwap(1u);
 150:.\Generated_Source\PSoC4/PWM_Servo.c ****             PWM_Servo_WriteCompareBuf(PWM_Servo_PWM_COMPARE_BUF_VALUE);
 151:.\Generated_Source\PSoC4/PWM_Servo.c ****         #endif  /* (1u == PWM_Servo_PWM_COMPARE_SWAP) */
 152:.\Generated_Source\PSoC4/PWM_Servo.c **** 
 153:.\Generated_Source\PSoC4/PWM_Servo.c ****         #if (1u == PWM_Servo_PWM_PERIOD_SWAP)
 154:.\Generated_Source\PSoC4/PWM_Servo.c ****             PWM_Servo_SetPeriodSwap(1u);
 155:.\Generated_Source\PSoC4/PWM_Servo.c ****             PWM_Servo_WritePeriodBuf(PWM_Servo_PWM_PERIOD_BUF_VALUE);
 156:.\Generated_Source\PSoC4/PWM_Servo.c ****         #endif  /* (1u == PWM_Servo_PWM_PERIOD_SWAP) */
 157:.\Generated_Source\PSoC4/PWM_Servo.c **** 
ARM GAS  C:\Users\Jared\AppData\Local\Temp\cclIiKIu.s 			page 5


 158:.\Generated_Source\PSoC4/PWM_Servo.c ****         /* Set values from customizer to CTRL2 */
 159:.\Generated_Source\PSoC4/PWM_Servo.c ****         #if (PWM_Servo__PWM_PR == PWM_Servo_PWM_MODE)
 160:.\Generated_Source\PSoC4/PWM_Servo.c ****             PWM_Servo_TRIG_CONTROL2_REG =
 161:.\Generated_Source\PSoC4/PWM_Servo.c ****                     (PWM_Servo_CC_MATCH_NO_CHANGE    |
 162:.\Generated_Source\PSoC4/PWM_Servo.c ****                     PWM_Servo_OVERLOW_NO_CHANGE      |
 163:.\Generated_Source\PSoC4/PWM_Servo.c ****                     PWM_Servo_UNDERFLOW_NO_CHANGE);
 164:.\Generated_Source\PSoC4/PWM_Servo.c ****         #else
 165:.\Generated_Source\PSoC4/PWM_Servo.c ****             #if (PWM_Servo__LEFT == PWM_Servo_PWM_ALIGN)
 166:.\Generated_Source\PSoC4/PWM_Servo.c ****                 PWM_Servo_TRIG_CONTROL2_REG = PWM_Servo_PWM_MODE_LEFT;
  72              		.loc 1 166 0
  73 0038 064B     		ldr	r3, .L2+16
  74 003a 3122     		mov	r2, #49
  75 003c 1A60     		str	r2, [r3]
 167:.\Generated_Source\PSoC4/PWM_Servo.c ****             #endif  /* ( PWM_Servo_PWM_LEFT == PWM_Servo_PWM_ALIGN) */
 168:.\Generated_Source\PSoC4/PWM_Servo.c **** 
 169:.\Generated_Source\PSoC4/PWM_Servo.c ****             #if (PWM_Servo__RIGHT == PWM_Servo_PWM_ALIGN)
 170:.\Generated_Source\PSoC4/PWM_Servo.c ****                 PWM_Servo_WriteCounter(PWM_Servo_PWM_PERIOD_VALUE);
 171:.\Generated_Source\PSoC4/PWM_Servo.c ****                 PWM_Servo_TRIG_CONTROL2_REG = PWM_Servo_PWM_MODE_RIGHT;
 172:.\Generated_Source\PSoC4/PWM_Servo.c ****             #endif  /* ( PWM_Servo_PWM_RIGHT == PWM_Servo_PWM_ALIGN) */
 173:.\Generated_Source\PSoC4/PWM_Servo.c **** 
 174:.\Generated_Source\PSoC4/PWM_Servo.c ****             #if (PWM_Servo__CENTER == PWM_Servo_PWM_ALIGN)
 175:.\Generated_Source\PSoC4/PWM_Servo.c ****                 PWM_Servo_TRIG_CONTROL2_REG = PWM_Servo_PWM_MODE_CENTER;
 176:.\Generated_Source\PSoC4/PWM_Servo.c ****             #endif  /* ( PWM_Servo_PWM_CENTER == PWM_Servo_PWM_ALIGN) */
 177:.\Generated_Source\PSoC4/PWM_Servo.c **** 
 178:.\Generated_Source\PSoC4/PWM_Servo.c ****             #if (PWM_Servo__ASYMMETRIC == PWM_Servo_PWM_ALIGN)
 179:.\Generated_Source\PSoC4/PWM_Servo.c ****                 PWM_Servo_TRIG_CONTROL2_REG = PWM_Servo_PWM_MODE_ASYM;
 180:.\Generated_Source\PSoC4/PWM_Servo.c ****             #endif  /* (PWM_Servo__ASYMMETRIC == PWM_Servo_PWM_ALIGN) */
 181:.\Generated_Source\PSoC4/PWM_Servo.c ****         #endif  /* (PWM_Servo__PWM_PR == PWM_Servo_PWM_MODE) */
 182:.\Generated_Source\PSoC4/PWM_Servo.c ****     #endif  /* (PWM_Servo__PWM_SEL == PWM_Servo_CONFIG) */
 183:.\Generated_Source\PSoC4/PWM_Servo.c **** }
  76              		.loc 1 183 0
  77 003e BD46     		mov	sp, r7
  78              		@ sp needed for prologue
  79 0040 80BD     		pop	{r7, pc}
  80              	.L3:
  81 0042 C046     		.align	2
  82              	.L2:
  83 0044 40010540 		.word	1074069824
  84 0048 64010540 		.word	1074069860
  85 004c 204E0000 		.word	20000
  86 0050 DC050000 		.word	1500
  87 0054 68010540 		.word	1074069864
  88              		.cfi_endproc
  89              	.LFE0:
  90              		.size	PWM_Servo_Init, .-PWM_Servo_Init
  91              		.section	.text.PWM_Servo_Enable,"ax",%progbits
  92              		.align	2
  93              		.global	PWM_Servo_Enable
  94              		.code	16
  95              		.thumb_func
  96              		.type	PWM_Servo_Enable, %function
  97              	PWM_Servo_Enable:
  98              	.LFB1:
 184:.\Generated_Source\PSoC4/PWM_Servo.c **** 
 185:.\Generated_Source\PSoC4/PWM_Servo.c **** 
 186:.\Generated_Source\PSoC4/PWM_Servo.c **** /*******************************************************************************
 187:.\Generated_Source\PSoC4/PWM_Servo.c **** * Function Name: PWM_Servo_Enable
ARM GAS  C:\Users\Jared\AppData\Local\Temp\cclIiKIu.s 			page 6


 188:.\Generated_Source\PSoC4/PWM_Servo.c **** ********************************************************************************
 189:.\Generated_Source\PSoC4/PWM_Servo.c **** *
 190:.\Generated_Source\PSoC4/PWM_Servo.c **** * Summary:
 191:.\Generated_Source\PSoC4/PWM_Servo.c **** *  Enables the PWM_Servo.
 192:.\Generated_Source\PSoC4/PWM_Servo.c **** *
 193:.\Generated_Source\PSoC4/PWM_Servo.c **** * Parameters:
 194:.\Generated_Source\PSoC4/PWM_Servo.c **** *  None
 195:.\Generated_Source\PSoC4/PWM_Servo.c **** *
 196:.\Generated_Source\PSoC4/PWM_Servo.c **** * Return:
 197:.\Generated_Source\PSoC4/PWM_Servo.c **** *  None
 198:.\Generated_Source\PSoC4/PWM_Servo.c **** *
 199:.\Generated_Source\PSoC4/PWM_Servo.c **** *******************************************************************************/
 200:.\Generated_Source\PSoC4/PWM_Servo.c **** void PWM_Servo_Enable(void)
 201:.\Generated_Source\PSoC4/PWM_Servo.c **** {
  99              		.loc 1 201 0
 100              		.cfi_startproc
 101 0000 90B5     		push	{r4, r7, lr}
 102              	.LCFI2:
 103              		.cfi_def_cfa_offset 12
 104              		.cfi_offset 4, -12
 105              		.cfi_offset 7, -8
 106              		.cfi_offset 14, -4
 107 0002 83B0     		sub	sp, sp, #12
 108              	.LCFI3:
 109              		.cfi_def_cfa_offset 24
 110 0004 00AF     		add	r7, sp, #0
 111              	.LCFI4:
 112              		.cfi_def_cfa_register 7
 202:.\Generated_Source\PSoC4/PWM_Servo.c ****     uint8 enableInterrupts;
 203:.\Generated_Source\PSoC4/PWM_Servo.c **** 
 204:.\Generated_Source\PSoC4/PWM_Servo.c ****     enableInterrupts = CyEnterCriticalSection();
 113              		.loc 1 204 0
 114 0006 FC1D     		add	r4, r7, #7
 115 0008 FFF7FEFF 		bl	CyEnterCriticalSection
 116 000c 031C     		mov	r3, r0
 117 000e 2370     		strb	r3, [r4]
 205:.\Generated_Source\PSoC4/PWM_Servo.c ****     PWM_Servo_BLOCK_CONTROL_REG |= PWM_Servo_MASK;
 118              		.loc 1 205 0
 119 0010 084B     		ldr	r3, .L5
 120 0012 084A     		ldr	r2, .L5
 121 0014 1268     		ldr	r2, [r2]
 122 0016 0221     		mov	r1, #2
 123 0018 0A43     		orr	r2, r1
 124 001a 1A60     		str	r2, [r3]
 206:.\Generated_Source\PSoC4/PWM_Servo.c ****     CyExitCriticalSection(enableInterrupts);
 125              		.loc 1 206 0
 126 001c FB1D     		add	r3, r7, #7
 127 001e 1B78     		ldrb	r3, [r3]
 128 0020 181C     		mov	r0, r3
 129 0022 FFF7FEFF 		bl	CyExitCriticalSection
 207:.\Generated_Source\PSoC4/PWM_Servo.c **** 
 208:.\Generated_Source\PSoC4/PWM_Servo.c ****     /* Start Timer or PWM if start input is absent */
 209:.\Generated_Source\PSoC4/PWM_Servo.c ****     #if (PWM_Servo__PWM_SEL == PWM_Servo_CONFIG)
 210:.\Generated_Source\PSoC4/PWM_Servo.c ****         #if (0u == PWM_Servo_PWM_START_SIGNAL_PRESENT)
 211:.\Generated_Source\PSoC4/PWM_Servo.c ****             PWM_Servo_TriggerCommand(PWM_Servo_MASK, PWM_Servo_CMD_START);
 130              		.loc 1 211 0
 131 0026 0220     		mov	r0, #2
ARM GAS  C:\Users\Jared\AppData\Local\Temp\cclIiKIu.s 			page 7


 132 0028 1821     		mov	r1, #24
 133 002a FFF7FEFF 		bl	PWM_Servo_TriggerCommand
 212:.\Generated_Source\PSoC4/PWM_Servo.c ****         #endif /* (0u == PWM_Servo_PWM_START_SIGNAL_PRESENT) */
 213:.\Generated_Source\PSoC4/PWM_Servo.c ****     #endif /* (PWM_Servo__PWM_SEL == PWM_Servo_CONFIG) */
 214:.\Generated_Source\PSoC4/PWM_Servo.c **** 
 215:.\Generated_Source\PSoC4/PWM_Servo.c ****     #if (PWM_Servo__TIMER == PWM_Servo_CONFIG)
 216:.\Generated_Source\PSoC4/PWM_Servo.c ****         #if (0u == PWM_Servo_TC_START_SIGNAL_PRESENT)
 217:.\Generated_Source\PSoC4/PWM_Servo.c ****             PWM_Servo_TriggerCommand(PWM_Servo_MASK, PWM_Servo_CMD_START);
 218:.\Generated_Source\PSoC4/PWM_Servo.c ****         #endif /* (0u == PWM_Servo_TC_START_SIGNAL_PRESENT) */
 219:.\Generated_Source\PSoC4/PWM_Servo.c ****     #endif /* (PWM_Servo__TIMER == PWM_Servo_CONFIG) */
 220:.\Generated_Source\PSoC4/PWM_Servo.c **** }
 134              		.loc 1 220 0
 135 002e BD46     		mov	sp, r7
 136 0030 03B0     		add	sp, sp, #12
 137              		@ sp needed for prologue
 138 0032 90BD     		pop	{r4, r7, pc}
 139              	.L6:
 140              		.align	2
 141              	.L5:
 142 0034 00000540 		.word	1074069504
 143              		.cfi_endproc
 144              	.LFE1:
 145              		.size	PWM_Servo_Enable, .-PWM_Servo_Enable
 146              		.section	.text.PWM_Servo_Start,"ax",%progbits
 147              		.align	2
 148              		.global	PWM_Servo_Start
 149              		.code	16
 150              		.thumb_func
 151              		.type	PWM_Servo_Start, %function
 152              	PWM_Servo_Start:
 153              	.LFB2:
 221:.\Generated_Source\PSoC4/PWM_Servo.c **** 
 222:.\Generated_Source\PSoC4/PWM_Servo.c **** 
 223:.\Generated_Source\PSoC4/PWM_Servo.c **** /*******************************************************************************
 224:.\Generated_Source\PSoC4/PWM_Servo.c **** * Function Name: PWM_Servo_Start
 225:.\Generated_Source\PSoC4/PWM_Servo.c **** ********************************************************************************
 226:.\Generated_Source\PSoC4/PWM_Servo.c **** *
 227:.\Generated_Source\PSoC4/PWM_Servo.c **** * Summary:
 228:.\Generated_Source\PSoC4/PWM_Servo.c **** *  Initializes the PWM_Servo with default customizer
 229:.\Generated_Source\PSoC4/PWM_Servo.c **** *  values when called the first time and enables the PWM_Servo.
 230:.\Generated_Source\PSoC4/PWM_Servo.c **** *  For subsequent calls the configuration is left unchanged and the component is
 231:.\Generated_Source\PSoC4/PWM_Servo.c **** *  just enabled.
 232:.\Generated_Source\PSoC4/PWM_Servo.c **** *
 233:.\Generated_Source\PSoC4/PWM_Servo.c **** * Parameters:
 234:.\Generated_Source\PSoC4/PWM_Servo.c **** *  None
 235:.\Generated_Source\PSoC4/PWM_Servo.c **** *
 236:.\Generated_Source\PSoC4/PWM_Servo.c **** * Return:
 237:.\Generated_Source\PSoC4/PWM_Servo.c **** *  None
 238:.\Generated_Source\PSoC4/PWM_Servo.c **** *
 239:.\Generated_Source\PSoC4/PWM_Servo.c **** * Global variables:
 240:.\Generated_Source\PSoC4/PWM_Servo.c **** *  PWM_Servo_initVar: global variable is used to indicate initial
 241:.\Generated_Source\PSoC4/PWM_Servo.c **** *  configuration of this component.  The variable is initialized to zero and set
 242:.\Generated_Source\PSoC4/PWM_Servo.c **** *  to 1 the first time PWM_Servo_Start() is called. This allows
 243:.\Generated_Source\PSoC4/PWM_Servo.c **** *  enabling/disabling a component without re-initialization in all subsequent
 244:.\Generated_Source\PSoC4/PWM_Servo.c **** *  calls to the PWM_Servo_Start() routine.
 245:.\Generated_Source\PSoC4/PWM_Servo.c **** *
 246:.\Generated_Source\PSoC4/PWM_Servo.c **** *******************************************************************************/
ARM GAS  C:\Users\Jared\AppData\Local\Temp\cclIiKIu.s 			page 8


 247:.\Generated_Source\PSoC4/PWM_Servo.c **** void PWM_Servo_Start(void)
 248:.\Generated_Source\PSoC4/PWM_Servo.c **** {
 154              		.loc 1 248 0
 155              		.cfi_startproc
 156 0000 80B5     		push	{r7, lr}
 157              	.LCFI5:
 158              		.cfi_def_cfa_offset 8
 159              		.cfi_offset 7, -8
 160              		.cfi_offset 14, -4
 161 0002 00AF     		add	r7, sp, #0
 162              	.LCFI6:
 163              		.cfi_def_cfa_register 7
 249:.\Generated_Source\PSoC4/PWM_Servo.c ****     if (0u == PWM_Servo_initVar)
 164              		.loc 1 249 0
 165 0004 064B     		ldr	r3, .L9
 166 0006 1B78     		ldrb	r3, [r3]
 167 0008 002B     		cmp	r3, #0
 168 000a 04D1     		bne	.L8
 250:.\Generated_Source\PSoC4/PWM_Servo.c ****     {
 251:.\Generated_Source\PSoC4/PWM_Servo.c ****         PWM_Servo_Init();
 169              		.loc 1 251 0
 170 000c FFF7FEFF 		bl	PWM_Servo_Init
 252:.\Generated_Source\PSoC4/PWM_Servo.c ****         PWM_Servo_initVar = 1u;
 171              		.loc 1 252 0
 172 0010 034B     		ldr	r3, .L9
 173 0012 0122     		mov	r2, #1
 174 0014 1A70     		strb	r2, [r3]
 175              	.L8:
 253:.\Generated_Source\PSoC4/PWM_Servo.c ****     }
 254:.\Generated_Source\PSoC4/PWM_Servo.c **** 
 255:.\Generated_Source\PSoC4/PWM_Servo.c ****     PWM_Servo_Enable();
 176              		.loc 1 255 0
 177 0016 FFF7FEFF 		bl	PWM_Servo_Enable
 256:.\Generated_Source\PSoC4/PWM_Servo.c **** }
 178              		.loc 1 256 0
 179 001a BD46     		mov	sp, r7
 180              		@ sp needed for prologue
 181 001c 80BD     		pop	{r7, pc}
 182              	.L10:
 183 001e C046     		.align	2
 184              	.L9:
 185 0020 00000000 		.word	PWM_Servo_initVar
 186              		.cfi_endproc
 187              	.LFE2:
 188              		.size	PWM_Servo_Start, .-PWM_Servo_Start
 189              		.section	.text.PWM_Servo_Stop,"ax",%progbits
 190              		.align	2
 191              		.global	PWM_Servo_Stop
 192              		.code	16
 193              		.thumb_func
 194              		.type	PWM_Servo_Stop, %function
 195              	PWM_Servo_Stop:
 196              	.LFB3:
 257:.\Generated_Source\PSoC4/PWM_Servo.c **** 
 258:.\Generated_Source\PSoC4/PWM_Servo.c **** 
 259:.\Generated_Source\PSoC4/PWM_Servo.c **** /*******************************************************************************
 260:.\Generated_Source\PSoC4/PWM_Servo.c **** * Function Name: PWM_Servo_Stop
ARM GAS  C:\Users\Jared\AppData\Local\Temp\cclIiKIu.s 			page 9


 261:.\Generated_Source\PSoC4/PWM_Servo.c **** ********************************************************************************
 262:.\Generated_Source\PSoC4/PWM_Servo.c **** *
 263:.\Generated_Source\PSoC4/PWM_Servo.c **** * Summary:
 264:.\Generated_Source\PSoC4/PWM_Servo.c **** *  Disables the PWM_Servo.
 265:.\Generated_Source\PSoC4/PWM_Servo.c **** *
 266:.\Generated_Source\PSoC4/PWM_Servo.c **** * Parameters:
 267:.\Generated_Source\PSoC4/PWM_Servo.c **** *  None
 268:.\Generated_Source\PSoC4/PWM_Servo.c **** *
 269:.\Generated_Source\PSoC4/PWM_Servo.c **** * Return:
 270:.\Generated_Source\PSoC4/PWM_Servo.c **** *  None
 271:.\Generated_Source\PSoC4/PWM_Servo.c **** *
 272:.\Generated_Source\PSoC4/PWM_Servo.c **** *******************************************************************************/
 273:.\Generated_Source\PSoC4/PWM_Servo.c **** void PWM_Servo_Stop(void)
 274:.\Generated_Source\PSoC4/PWM_Servo.c **** {
 197              		.loc 1 274 0
 198              		.cfi_startproc
 199 0000 90B5     		push	{r4, r7, lr}
 200              	.LCFI7:
 201              		.cfi_def_cfa_offset 12
 202              		.cfi_offset 4, -12
 203              		.cfi_offset 7, -8
 204              		.cfi_offset 14, -4
 205 0002 83B0     		sub	sp, sp, #12
 206              	.LCFI8:
 207              		.cfi_def_cfa_offset 24
 208 0004 00AF     		add	r7, sp, #0
 209              	.LCFI9:
 210              		.cfi_def_cfa_register 7
 275:.\Generated_Source\PSoC4/PWM_Servo.c ****     uint8 enableInterrupts;
 276:.\Generated_Source\PSoC4/PWM_Servo.c **** 
 277:.\Generated_Source\PSoC4/PWM_Servo.c ****     enableInterrupts = CyEnterCriticalSection();
 211              		.loc 1 277 0
 212 0006 FC1D     		add	r4, r7, #7
 213 0008 FFF7FEFF 		bl	CyEnterCriticalSection
 214 000c 031C     		mov	r3, r0
 215 000e 2370     		strb	r3, [r4]
 278:.\Generated_Source\PSoC4/PWM_Servo.c **** 
 279:.\Generated_Source\PSoC4/PWM_Servo.c ****     PWM_Servo_BLOCK_CONTROL_REG &= (uint32)~PWM_Servo_MASK;
 216              		.loc 1 279 0
 217 0010 064B     		ldr	r3, .L12
 218 0012 064A     		ldr	r2, .L12
 219 0014 1268     		ldr	r2, [r2]
 220 0016 0221     		mov	r1, #2
 221 0018 8A43     		bic	r2, r1
 222 001a 1A60     		str	r2, [r3]
 280:.\Generated_Source\PSoC4/PWM_Servo.c **** 
 281:.\Generated_Source\PSoC4/PWM_Servo.c ****     CyExitCriticalSection(enableInterrupts);
 223              		.loc 1 281 0
 224 001c FB1D     		add	r3, r7, #7
 225 001e 1B78     		ldrb	r3, [r3]
 226 0020 181C     		mov	r0, r3
 227 0022 FFF7FEFF 		bl	CyExitCriticalSection
 282:.\Generated_Source\PSoC4/PWM_Servo.c **** }
 228              		.loc 1 282 0
 229 0026 BD46     		mov	sp, r7
 230 0028 03B0     		add	sp, sp, #12
 231              		@ sp needed for prologue
ARM GAS  C:\Users\Jared\AppData\Local\Temp\cclIiKIu.s 			page 10


 232 002a 90BD     		pop	{r4, r7, pc}
 233              	.L13:
 234              		.align	2
 235              	.L12:
 236 002c 00000540 		.word	1074069504
 237              		.cfi_endproc
 238              	.LFE3:
 239              		.size	PWM_Servo_Stop, .-PWM_Servo_Stop
 240              		.section	.text.PWM_Servo_SetMode,"ax",%progbits
 241              		.align	2
 242              		.global	PWM_Servo_SetMode
 243              		.code	16
 244              		.thumb_func
 245              		.type	PWM_Servo_SetMode, %function
 246              	PWM_Servo_SetMode:
 247              	.LFB4:
 283:.\Generated_Source\PSoC4/PWM_Servo.c **** 
 284:.\Generated_Source\PSoC4/PWM_Servo.c **** 
 285:.\Generated_Source\PSoC4/PWM_Servo.c **** /*******************************************************************************
 286:.\Generated_Source\PSoC4/PWM_Servo.c **** * Function Name: PWM_Servo_SetMode
 287:.\Generated_Source\PSoC4/PWM_Servo.c **** ********************************************************************************
 288:.\Generated_Source\PSoC4/PWM_Servo.c **** *
 289:.\Generated_Source\PSoC4/PWM_Servo.c **** * Summary:
 290:.\Generated_Source\PSoC4/PWM_Servo.c **** *  Sets the operation mode of the PWM_Servo. This function is used when
 291:.\Generated_Source\PSoC4/PWM_Servo.c **** *  configured as a generic PWM_Servo and the actual mode of operation is
 292:.\Generated_Source\PSoC4/PWM_Servo.c **** *  set at runtime. The mode must be set while the component is disabled.
 293:.\Generated_Source\PSoC4/PWM_Servo.c **** *
 294:.\Generated_Source\PSoC4/PWM_Servo.c **** * Parameters:
 295:.\Generated_Source\PSoC4/PWM_Servo.c **** *  mode: Mode for the PWM_Servo to operate in
 296:.\Generated_Source\PSoC4/PWM_Servo.c **** *   Values:
 297:.\Generated_Source\PSoC4/PWM_Servo.c **** *   - PWM_Servo_MODE_TIMER_COMPARE - Timer / Counter with
 298:.\Generated_Source\PSoC4/PWM_Servo.c **** *                                                 compare capability
 299:.\Generated_Source\PSoC4/PWM_Servo.c **** *         - PWM_Servo_MODE_TIMER_CAPTURE - Timer / Counter with
 300:.\Generated_Source\PSoC4/PWM_Servo.c **** *                                                 capture capability
 301:.\Generated_Source\PSoC4/PWM_Servo.c **** *         - PWM_Servo_MODE_QUAD - Quadrature decoder
 302:.\Generated_Source\PSoC4/PWM_Servo.c **** *         - PWM_Servo_MODE_PWM - PWM
 303:.\Generated_Source\PSoC4/PWM_Servo.c **** *         - PWM_Servo_MODE_PWM_DT - PWM with dead time
 304:.\Generated_Source\PSoC4/PWM_Servo.c **** *         - PWM_Servo_MODE_PWM_PR - PWM with pseudo random capability
 305:.\Generated_Source\PSoC4/PWM_Servo.c **** *
 306:.\Generated_Source\PSoC4/PWM_Servo.c **** * Return:
 307:.\Generated_Source\PSoC4/PWM_Servo.c **** *  None
 308:.\Generated_Source\PSoC4/PWM_Servo.c **** *
 309:.\Generated_Source\PSoC4/PWM_Servo.c **** *******************************************************************************/
 310:.\Generated_Source\PSoC4/PWM_Servo.c **** void PWM_Servo_SetMode(uint32 mode)
 311:.\Generated_Source\PSoC4/PWM_Servo.c **** {
 248              		.loc 1 311 0
 249              		.cfi_startproc
 250 0000 90B5     		push	{r4, r7, lr}
 251              	.LCFI10:
 252              		.cfi_def_cfa_offset 12
 253              		.cfi_offset 4, -12
 254              		.cfi_offset 7, -8
 255              		.cfi_offset 14, -4
 256 0002 85B0     		sub	sp, sp, #20
 257              	.LCFI11:
 258              		.cfi_def_cfa_offset 32
 259 0004 00AF     		add	r7, sp, #0
ARM GAS  C:\Users\Jared\AppData\Local\Temp\cclIiKIu.s 			page 11


 260              	.LCFI12:
 261              		.cfi_def_cfa_register 7
 262 0006 7860     		str	r0, [r7, #4]
 312:.\Generated_Source\PSoC4/PWM_Servo.c ****     uint8 enableInterrupts;
 313:.\Generated_Source\PSoC4/PWM_Servo.c **** 
 314:.\Generated_Source\PSoC4/PWM_Servo.c ****     enableInterrupts = CyEnterCriticalSection();
 263              		.loc 1 314 0
 264 0008 3C1C     		mov	r4, r7
 265 000a 0F34     		add	r4, r4, #15
 266 000c FFF7FEFF 		bl	CyEnterCriticalSection
 267 0010 031C     		mov	r3, r0
 268 0012 2370     		strb	r3, [r4]
 315:.\Generated_Source\PSoC4/PWM_Servo.c **** 
 316:.\Generated_Source\PSoC4/PWM_Servo.c ****     PWM_Servo_CONTROL_REG &= (uint32)~PWM_Servo_MODE_MASK;
 269              		.loc 1 316 0
 270 0014 0A4B     		ldr	r3, .L15
 271 0016 0A4A     		ldr	r2, .L15
 272 0018 1168     		ldr	r1, [r2]
 273 001a 0A4A     		ldr	r2, .L15+4
 274 001c 0A40     		and	r2, r1
 275 001e 1A60     		str	r2, [r3]
 317:.\Generated_Source\PSoC4/PWM_Servo.c ****     PWM_Servo_CONTROL_REG |= mode;
 276              		.loc 1 317 0
 277 0020 074B     		ldr	r3, .L15
 278 0022 074A     		ldr	r2, .L15
 279 0024 1168     		ldr	r1, [r2]
 280 0026 7A68     		ldr	r2, [r7, #4]
 281 0028 0A43     		orr	r2, r1
 282 002a 1A60     		str	r2, [r3]
 318:.\Generated_Source\PSoC4/PWM_Servo.c **** 
 319:.\Generated_Source\PSoC4/PWM_Servo.c ****     CyExitCriticalSection(enableInterrupts);
 283              		.loc 1 319 0
 284 002c 3B1C     		mov	r3, r7
 285 002e 0F33     		add	r3, r3, #15
 286 0030 1B78     		ldrb	r3, [r3]
 287 0032 181C     		mov	r0, r3
 288 0034 FFF7FEFF 		bl	CyExitCriticalSection
 320:.\Generated_Source\PSoC4/PWM_Servo.c **** }
 289              		.loc 1 320 0
 290 0038 BD46     		mov	sp, r7
 291 003a 05B0     		add	sp, sp, #20
 292              		@ sp needed for prologue
 293 003c 90BD     		pop	{r4, r7, pc}
 294              	.L16:
 295 003e C046     		.align	2
 296              	.L15:
 297 0040 40010540 		.word	1074069824
 298 0044 FFFFFFF8 		.word	-117440513
 299              		.cfi_endproc
 300              	.LFE4:
 301              		.size	PWM_Servo_SetMode, .-PWM_Servo_SetMode
 302              		.section	.text.PWM_Servo_SetQDMode,"ax",%progbits
 303              		.align	2
 304              		.global	PWM_Servo_SetQDMode
 305              		.code	16
 306              		.thumb_func
 307              		.type	PWM_Servo_SetQDMode, %function
ARM GAS  C:\Users\Jared\AppData\Local\Temp\cclIiKIu.s 			page 12


 308              	PWM_Servo_SetQDMode:
 309              	.LFB5:
 321:.\Generated_Source\PSoC4/PWM_Servo.c **** 
 322:.\Generated_Source\PSoC4/PWM_Servo.c **** 
 323:.\Generated_Source\PSoC4/PWM_Servo.c **** /*******************************************************************************
 324:.\Generated_Source\PSoC4/PWM_Servo.c **** * Function Name: PWM_Servo_SetQDMode
 325:.\Generated_Source\PSoC4/PWM_Servo.c **** ********************************************************************************
 326:.\Generated_Source\PSoC4/PWM_Servo.c **** *
 327:.\Generated_Source\PSoC4/PWM_Servo.c **** * Summary:
 328:.\Generated_Source\PSoC4/PWM_Servo.c **** *  Sets the the Quadrature Decoder to one of the 3 supported modes.
 329:.\Generated_Source\PSoC4/PWM_Servo.c **** *  Its functionality is only applicable to Quadrature Decoder operation.
 330:.\Generated_Source\PSoC4/PWM_Servo.c **** *
 331:.\Generated_Source\PSoC4/PWM_Servo.c **** * Parameters:
 332:.\Generated_Source\PSoC4/PWM_Servo.c **** *  qdMode: Quadrature Decoder mode
 333:.\Generated_Source\PSoC4/PWM_Servo.c **** *   Values:
 334:.\Generated_Source\PSoC4/PWM_Servo.c **** *         - PWM_Servo_MODE_X1 - Counts on phi 1 rising
 335:.\Generated_Source\PSoC4/PWM_Servo.c **** *         - PWM_Servo_MODE_X2 - Counts on both edges of phi1 (2x faster)
 336:.\Generated_Source\PSoC4/PWM_Servo.c **** *         - PWM_Servo_MODE_X4 - Counts on both edges of phi1 and phi2
 337:.\Generated_Source\PSoC4/PWM_Servo.c **** *                                        (4x faster)
 338:.\Generated_Source\PSoC4/PWM_Servo.c **** *
 339:.\Generated_Source\PSoC4/PWM_Servo.c **** * Return:
 340:.\Generated_Source\PSoC4/PWM_Servo.c **** *  None
 341:.\Generated_Source\PSoC4/PWM_Servo.c **** *
 342:.\Generated_Source\PSoC4/PWM_Servo.c **** *******************************************************************************/
 343:.\Generated_Source\PSoC4/PWM_Servo.c **** void PWM_Servo_SetQDMode(uint32 qdMode)
 344:.\Generated_Source\PSoC4/PWM_Servo.c **** {
 310              		.loc 1 344 0
 311              		.cfi_startproc
 312 0000 90B5     		push	{r4, r7, lr}
 313              	.LCFI13:
 314              		.cfi_def_cfa_offset 12
 315              		.cfi_offset 4, -12
 316              		.cfi_offset 7, -8
 317              		.cfi_offset 14, -4
 318 0002 85B0     		sub	sp, sp, #20
 319              	.LCFI14:
 320              		.cfi_def_cfa_offset 32
 321 0004 00AF     		add	r7, sp, #0
 322              	.LCFI15:
 323              		.cfi_def_cfa_register 7
 324 0006 7860     		str	r0, [r7, #4]
 345:.\Generated_Source\PSoC4/PWM_Servo.c ****     uint8 enableInterrupts;
 346:.\Generated_Source\PSoC4/PWM_Servo.c **** 
 347:.\Generated_Source\PSoC4/PWM_Servo.c ****     enableInterrupts = CyEnterCriticalSection();
 325              		.loc 1 347 0
 326 0008 3C1C     		mov	r4, r7
 327 000a 0F34     		add	r4, r4, #15
 328 000c FFF7FEFF 		bl	CyEnterCriticalSection
 329 0010 031C     		mov	r3, r0
 330 0012 2370     		strb	r3, [r4]
 348:.\Generated_Source\PSoC4/PWM_Servo.c **** 
 349:.\Generated_Source\PSoC4/PWM_Servo.c ****     PWM_Servo_CONTROL_REG &= (uint32)~PWM_Servo_QUAD_MODE_MASK;
 331              		.loc 1 349 0
 332 0014 0A4B     		ldr	r3, .L18
 333 0016 0A4A     		ldr	r2, .L18
 334 0018 1168     		ldr	r1, [r2]
 335 001a 0A4A     		ldr	r2, .L18+4
ARM GAS  C:\Users\Jared\AppData\Local\Temp\cclIiKIu.s 			page 13


 336 001c 0A40     		and	r2, r1
 337 001e 1A60     		str	r2, [r3]
 350:.\Generated_Source\PSoC4/PWM_Servo.c ****     PWM_Servo_CONTROL_REG |= qdMode;
 338              		.loc 1 350 0
 339 0020 074B     		ldr	r3, .L18
 340 0022 074A     		ldr	r2, .L18
 341 0024 1168     		ldr	r1, [r2]
 342 0026 7A68     		ldr	r2, [r7, #4]
 343 0028 0A43     		orr	r2, r1
 344 002a 1A60     		str	r2, [r3]
 351:.\Generated_Source\PSoC4/PWM_Servo.c **** 
 352:.\Generated_Source\PSoC4/PWM_Servo.c ****     CyExitCriticalSection(enableInterrupts);
 345              		.loc 1 352 0
 346 002c 3B1C     		mov	r3, r7
 347 002e 0F33     		add	r3, r3, #15
 348 0030 1B78     		ldrb	r3, [r3]
 349 0032 181C     		mov	r0, r3
 350 0034 FFF7FEFF 		bl	CyExitCriticalSection
 353:.\Generated_Source\PSoC4/PWM_Servo.c **** }
 351              		.loc 1 353 0
 352 0038 BD46     		mov	sp, r7
 353 003a 05B0     		add	sp, sp, #20
 354              		@ sp needed for prologue
 355 003c 90BD     		pop	{r4, r7, pc}
 356              	.L19:
 357 003e C046     		.align	2
 358              	.L18:
 359 0040 40010540 		.word	1074069824
 360 0044 FFFF8FFF 		.word	-7340033
 361              		.cfi_endproc
 362              	.LFE5:
 363              		.size	PWM_Servo_SetQDMode, .-PWM_Servo_SetQDMode
 364              		.section	.text.PWM_Servo_SetPrescaler,"ax",%progbits
 365              		.align	2
 366              		.global	PWM_Servo_SetPrescaler
 367              		.code	16
 368              		.thumb_func
 369              		.type	PWM_Servo_SetPrescaler, %function
 370              	PWM_Servo_SetPrescaler:
 371              	.LFB6:
 354:.\Generated_Source\PSoC4/PWM_Servo.c **** 
 355:.\Generated_Source\PSoC4/PWM_Servo.c **** 
 356:.\Generated_Source\PSoC4/PWM_Servo.c **** /*******************************************************************************
 357:.\Generated_Source\PSoC4/PWM_Servo.c **** * Function Name: PWM_Servo_SetPrescaler
 358:.\Generated_Source\PSoC4/PWM_Servo.c **** ********************************************************************************
 359:.\Generated_Source\PSoC4/PWM_Servo.c **** *
 360:.\Generated_Source\PSoC4/PWM_Servo.c **** * Summary:
 361:.\Generated_Source\PSoC4/PWM_Servo.c **** *  Sets the prescaler value that is applied to the clock input.  Not applicable
 362:.\Generated_Source\PSoC4/PWM_Servo.c **** *  to a PWM with the dead time mode or Quadrature Decoder mode.
 363:.\Generated_Source\PSoC4/PWM_Servo.c **** *
 364:.\Generated_Source\PSoC4/PWM_Servo.c **** * Parameters:
 365:.\Generated_Source\PSoC4/PWM_Servo.c **** *  prescaler: Prescaler divider value
 366:.\Generated_Source\PSoC4/PWM_Servo.c **** *   Values:
 367:.\Generated_Source\PSoC4/PWM_Servo.c **** *         - PWM_Servo_PRESCALE_DIVBY1    - Divide by 1 (no prescaling)
 368:.\Generated_Source\PSoC4/PWM_Servo.c **** *         - PWM_Servo_PRESCALE_DIVBY2    - Divide by 2
 369:.\Generated_Source\PSoC4/PWM_Servo.c **** *         - PWM_Servo_PRESCALE_DIVBY4    - Divide by 4
 370:.\Generated_Source\PSoC4/PWM_Servo.c **** *         - PWM_Servo_PRESCALE_DIVBY8    - Divide by 8
ARM GAS  C:\Users\Jared\AppData\Local\Temp\cclIiKIu.s 			page 14


 371:.\Generated_Source\PSoC4/PWM_Servo.c **** *         - PWM_Servo_PRESCALE_DIVBY16   - Divide by 16
 372:.\Generated_Source\PSoC4/PWM_Servo.c **** *         - PWM_Servo_PRESCALE_DIVBY32   - Divide by 32
 373:.\Generated_Source\PSoC4/PWM_Servo.c **** *         - PWM_Servo_PRESCALE_DIVBY64   - Divide by 64
 374:.\Generated_Source\PSoC4/PWM_Servo.c **** *         - PWM_Servo_PRESCALE_DIVBY128  - Divide by 128
 375:.\Generated_Source\PSoC4/PWM_Servo.c **** *
 376:.\Generated_Source\PSoC4/PWM_Servo.c **** * Return:
 377:.\Generated_Source\PSoC4/PWM_Servo.c **** *  None
 378:.\Generated_Source\PSoC4/PWM_Servo.c **** *
 379:.\Generated_Source\PSoC4/PWM_Servo.c **** *******************************************************************************/
 380:.\Generated_Source\PSoC4/PWM_Servo.c **** void PWM_Servo_SetPrescaler(uint32 prescaler)
 381:.\Generated_Source\PSoC4/PWM_Servo.c **** {
 372              		.loc 1 381 0
 373              		.cfi_startproc
 374 0000 90B5     		push	{r4, r7, lr}
 375              	.LCFI16:
 376              		.cfi_def_cfa_offset 12
 377              		.cfi_offset 4, -12
 378              		.cfi_offset 7, -8
 379              		.cfi_offset 14, -4
 380 0002 85B0     		sub	sp, sp, #20
 381              	.LCFI17:
 382              		.cfi_def_cfa_offset 32
 383 0004 00AF     		add	r7, sp, #0
 384              	.LCFI18:
 385              		.cfi_def_cfa_register 7
 386 0006 7860     		str	r0, [r7, #4]
 382:.\Generated_Source\PSoC4/PWM_Servo.c ****     uint8 enableInterrupts;
 383:.\Generated_Source\PSoC4/PWM_Servo.c **** 
 384:.\Generated_Source\PSoC4/PWM_Servo.c ****     enableInterrupts = CyEnterCriticalSection();
 387              		.loc 1 384 0
 388 0008 3C1C     		mov	r4, r7
 389 000a 0F34     		add	r4, r4, #15
 390 000c FFF7FEFF 		bl	CyEnterCriticalSection
 391 0010 031C     		mov	r3, r0
 392 0012 2370     		strb	r3, [r4]
 385:.\Generated_Source\PSoC4/PWM_Servo.c **** 
 386:.\Generated_Source\PSoC4/PWM_Servo.c ****     PWM_Servo_CONTROL_REG &= (uint32)~PWM_Servo_PRESCALER_MASK;
 393              		.loc 1 386 0
 394 0014 0A4B     		ldr	r3, .L21
 395 0016 0A4A     		ldr	r2, .L21
 396 0018 1168     		ldr	r1, [r2]
 397 001a 0A4A     		ldr	r2, .L21+4
 398 001c 0A40     		and	r2, r1
 399 001e 1A60     		str	r2, [r3]
 387:.\Generated_Source\PSoC4/PWM_Servo.c ****     PWM_Servo_CONTROL_REG |= prescaler;
 400              		.loc 1 387 0
 401 0020 074B     		ldr	r3, .L21
 402 0022 074A     		ldr	r2, .L21
 403 0024 1168     		ldr	r1, [r2]
 404 0026 7A68     		ldr	r2, [r7, #4]
 405 0028 0A43     		orr	r2, r1
 406 002a 1A60     		str	r2, [r3]
 388:.\Generated_Source\PSoC4/PWM_Servo.c **** 
 389:.\Generated_Source\PSoC4/PWM_Servo.c ****     CyExitCriticalSection(enableInterrupts);
 407              		.loc 1 389 0
 408 002c 3B1C     		mov	r3, r7
 409 002e 0F33     		add	r3, r3, #15
ARM GAS  C:\Users\Jared\AppData\Local\Temp\cclIiKIu.s 			page 15


 410 0030 1B78     		ldrb	r3, [r3]
 411 0032 181C     		mov	r0, r3
 412 0034 FFF7FEFF 		bl	CyExitCriticalSection
 390:.\Generated_Source\PSoC4/PWM_Servo.c **** }
 413              		.loc 1 390 0
 414 0038 BD46     		mov	sp, r7
 415 003a 05B0     		add	sp, sp, #20
 416              		@ sp needed for prologue
 417 003c 90BD     		pop	{r4, r7, pc}
 418              	.L22:
 419 003e C046     		.align	2
 420              	.L21:
 421 0040 40010540 		.word	1074069824
 422 0044 FF00FFFF 		.word	-65281
 423              		.cfi_endproc
 424              	.LFE6:
 425              		.size	PWM_Servo_SetPrescaler, .-PWM_Servo_SetPrescaler
 426              		.section	.text.PWM_Servo_SetOneShot,"ax",%progbits
 427              		.align	2
 428              		.global	PWM_Servo_SetOneShot
 429              		.code	16
 430              		.thumb_func
 431              		.type	PWM_Servo_SetOneShot, %function
 432              	PWM_Servo_SetOneShot:
 433              	.LFB7:
 391:.\Generated_Source\PSoC4/PWM_Servo.c **** 
 392:.\Generated_Source\PSoC4/PWM_Servo.c **** 
 393:.\Generated_Source\PSoC4/PWM_Servo.c **** /*******************************************************************************
 394:.\Generated_Source\PSoC4/PWM_Servo.c **** * Function Name: PWM_Servo_SetOneShot
 395:.\Generated_Source\PSoC4/PWM_Servo.c **** ********************************************************************************
 396:.\Generated_Source\PSoC4/PWM_Servo.c **** *
 397:.\Generated_Source\PSoC4/PWM_Servo.c **** * Summary:
 398:.\Generated_Source\PSoC4/PWM_Servo.c **** *  Writes the register that controls whether the PWM_Servo runs
 399:.\Generated_Source\PSoC4/PWM_Servo.c **** *  continuously or stops when terminal count is reached.  By default the
 400:.\Generated_Source\PSoC4/PWM_Servo.c **** *  PWM_Servo operates in the continuous mode.
 401:.\Generated_Source\PSoC4/PWM_Servo.c **** *
 402:.\Generated_Source\PSoC4/PWM_Servo.c **** * Parameters:
 403:.\Generated_Source\PSoC4/PWM_Servo.c **** *  oneShotEnable
 404:.\Generated_Source\PSoC4/PWM_Servo.c **** *   Values:
 405:.\Generated_Source\PSoC4/PWM_Servo.c **** *     - 0 - Continuous
 406:.\Generated_Source\PSoC4/PWM_Servo.c **** *     - 1 - Enable One Shot
 407:.\Generated_Source\PSoC4/PWM_Servo.c **** *
 408:.\Generated_Source\PSoC4/PWM_Servo.c **** * Return:
 409:.\Generated_Source\PSoC4/PWM_Servo.c **** *  None
 410:.\Generated_Source\PSoC4/PWM_Servo.c **** *
 411:.\Generated_Source\PSoC4/PWM_Servo.c **** *******************************************************************************/
 412:.\Generated_Source\PSoC4/PWM_Servo.c **** void PWM_Servo_SetOneShot(uint32 oneShotEnable)
 413:.\Generated_Source\PSoC4/PWM_Servo.c **** {
 434              		.loc 1 413 0
 435              		.cfi_startproc
 436 0000 90B5     		push	{r4, r7, lr}
 437              	.LCFI19:
 438              		.cfi_def_cfa_offset 12
 439              		.cfi_offset 4, -12
 440              		.cfi_offset 7, -8
 441              		.cfi_offset 14, -4
 442 0002 85B0     		sub	sp, sp, #20
ARM GAS  C:\Users\Jared\AppData\Local\Temp\cclIiKIu.s 			page 16


 443              	.LCFI20:
 444              		.cfi_def_cfa_offset 32
 445 0004 00AF     		add	r7, sp, #0
 446              	.LCFI21:
 447              		.cfi_def_cfa_register 7
 448 0006 7860     		str	r0, [r7, #4]
 414:.\Generated_Source\PSoC4/PWM_Servo.c ****     uint8 enableInterrupts;
 415:.\Generated_Source\PSoC4/PWM_Servo.c **** 
 416:.\Generated_Source\PSoC4/PWM_Servo.c ****     enableInterrupts = CyEnterCriticalSection();
 449              		.loc 1 416 0
 450 0008 3C1C     		mov	r4, r7
 451 000a 0F34     		add	r4, r4, #15
 452 000c FFF7FEFF 		bl	CyEnterCriticalSection
 453 0010 031C     		mov	r3, r0
 454 0012 2370     		strb	r3, [r4]
 417:.\Generated_Source\PSoC4/PWM_Servo.c **** 
 418:.\Generated_Source\PSoC4/PWM_Servo.c ****     PWM_Servo_CONTROL_REG &= (uint32)~PWM_Servo_ONESHOT_MASK;
 455              		.loc 1 418 0
 456 0014 0B4B     		ldr	r3, .L24
 457 0016 0B4A     		ldr	r2, .L24
 458 0018 1168     		ldr	r1, [r2]
 459 001a 0B4A     		ldr	r2, .L24+4
 460 001c 0A40     		and	r2, r1
 461 001e 1A60     		str	r2, [r3]
 419:.\Generated_Source\PSoC4/PWM_Servo.c ****     PWM_Servo_CONTROL_REG |= ((uint32)((oneShotEnable & PWM_Servo_1BIT_MASK) <<
 462              		.loc 1 419 0
 463 0020 084B     		ldr	r3, .L24
 464 0022 084A     		ldr	r2, .L24
 465 0024 1168     		ldr	r1, [r2]
 466 0026 7868     		ldr	r0, [r7, #4]
 467 0028 0122     		mov	r2, #1
 468 002a 0240     		and	r2, r0
 469 002c 9204     		lsl	r2, r2, #18
 470 002e 0A43     		orr	r2, r1
 471 0030 1A60     		str	r2, [r3]
 420:.\Generated_Source\PSoC4/PWM_Servo.c ****                                                                PWM_Servo_ONESHOT_SHIFT));
 421:.\Generated_Source\PSoC4/PWM_Servo.c **** 
 422:.\Generated_Source\PSoC4/PWM_Servo.c ****     CyExitCriticalSection(enableInterrupts);
 472              		.loc 1 422 0
 473 0032 3B1C     		mov	r3, r7
 474 0034 0F33     		add	r3, r3, #15
 475 0036 1B78     		ldrb	r3, [r3]
 476 0038 181C     		mov	r0, r3
 477 003a FFF7FEFF 		bl	CyExitCriticalSection
 423:.\Generated_Source\PSoC4/PWM_Servo.c **** }
 478              		.loc 1 423 0
 479 003e BD46     		mov	sp, r7
 480 0040 05B0     		add	sp, sp, #20
 481              		@ sp needed for prologue
 482 0042 90BD     		pop	{r4, r7, pc}
 483              	.L25:
 484              		.align	2
 485              	.L24:
 486 0044 40010540 		.word	1074069824
 487 0048 FFFFFBFF 		.word	-262145
 488              		.cfi_endproc
 489              	.LFE7:
ARM GAS  C:\Users\Jared\AppData\Local\Temp\cclIiKIu.s 			page 17


 490              		.size	PWM_Servo_SetOneShot, .-PWM_Servo_SetOneShot
 491              		.section	.text.PWM_Servo_SetPWMMode,"ax",%progbits
 492              		.align	2
 493              		.global	PWM_Servo_SetPWMMode
 494              		.code	16
 495              		.thumb_func
 496              		.type	PWM_Servo_SetPWMMode, %function
 497              	PWM_Servo_SetPWMMode:
 498              	.LFB8:
 424:.\Generated_Source\PSoC4/PWM_Servo.c **** 
 425:.\Generated_Source\PSoC4/PWM_Servo.c **** 
 426:.\Generated_Source\PSoC4/PWM_Servo.c **** /*******************************************************************************
 427:.\Generated_Source\PSoC4/PWM_Servo.c **** * Function Name: PWM_Servo_SetPWMMode
 428:.\Generated_Source\PSoC4/PWM_Servo.c **** ********************************************************************************
 429:.\Generated_Source\PSoC4/PWM_Servo.c **** *
 430:.\Generated_Source\PSoC4/PWM_Servo.c **** * Summary:
 431:.\Generated_Source\PSoC4/PWM_Servo.c **** *  Writes the control register that determines what mode of operation the PWM
 432:.\Generated_Source\PSoC4/PWM_Servo.c **** *  output lines are driven in.  There is a setting for what to do on a
 433:.\Generated_Source\PSoC4/PWM_Servo.c **** *  comparison match (CC_MATCH), on an overflow (OVERFLOW) and on an underflow
 434:.\Generated_Source\PSoC4/PWM_Servo.c **** *  (UNDERFLOW).  The value for each of the three must be ORed together to form
 435:.\Generated_Source\PSoC4/PWM_Servo.c **** *  the mode.
 436:.\Generated_Source\PSoC4/PWM_Servo.c **** *
 437:.\Generated_Source\PSoC4/PWM_Servo.c **** * Parameters:
 438:.\Generated_Source\PSoC4/PWM_Servo.c **** *  modeMask: A combination of three mode settings.  Mask must include a value
 439:.\Generated_Source\PSoC4/PWM_Servo.c **** *  for each of the three or use one of the preconfigured PWM settings.
 440:.\Generated_Source\PSoC4/PWM_Servo.c **** *   Values:
 441:.\Generated_Source\PSoC4/PWM_Servo.c **** *     - CC_MATCH_SET        - Set on comparison match
 442:.\Generated_Source\PSoC4/PWM_Servo.c **** *     - CC_MATCH_CLEAR      - Clear on comparison match
 443:.\Generated_Source\PSoC4/PWM_Servo.c **** *     - CC_MATCH_INVERT     - Invert on comparison match
 444:.\Generated_Source\PSoC4/PWM_Servo.c **** *     - CC_MATCH_NO_CHANGE  - No change on comparison match
 445:.\Generated_Source\PSoC4/PWM_Servo.c **** *     - OVERLOW_SET         - Set on overflow
 446:.\Generated_Source\PSoC4/PWM_Servo.c **** *     - OVERLOW_CLEAR       - Clear on  overflow
 447:.\Generated_Source\PSoC4/PWM_Servo.c **** *     - OVERLOW_INVERT      - Invert on overflow
 448:.\Generated_Source\PSoC4/PWM_Servo.c **** *     - OVERLOW_NO_CHANGE   - No change on overflow
 449:.\Generated_Source\PSoC4/PWM_Servo.c **** *     - UNDERFLOW_SET       - Set on underflow
 450:.\Generated_Source\PSoC4/PWM_Servo.c **** *     - UNDERFLOW_CLEAR     - Clear on underflow
 451:.\Generated_Source\PSoC4/PWM_Servo.c **** *     - UNDERFLOW_INVERT    - Invert on underflow
 452:.\Generated_Source\PSoC4/PWM_Servo.c **** *     - UNDERFLOW_NO_CHANGE - No change on underflow
 453:.\Generated_Source\PSoC4/PWM_Servo.c **** *     - PWM_MODE_LEFT       - Setting for left aligned PWM.  Should be combined
 454:.\Generated_Source\PSoC4/PWM_Servo.c **** *                             with up counting mode
 455:.\Generated_Source\PSoC4/PWM_Servo.c **** *     - PWM_MODE_RIGHT      - Setting for right aligned PWM.  Should be combined
 456:.\Generated_Source\PSoC4/PWM_Servo.c **** *                             with down counting mode
 457:.\Generated_Source\PSoC4/PWM_Servo.c **** *     - PWM_MODE_CENTER     - Setting for center aligned PWM.  Should be
 458:.\Generated_Source\PSoC4/PWM_Servo.c **** *                             combined with up/down 0 mode
 459:.\Generated_Source\PSoC4/PWM_Servo.c **** *     - PWM_MODE_ASYM       - Setting for asymmetric PWM.  Should be combined
 460:.\Generated_Source\PSoC4/PWM_Servo.c **** *                             with up/down 1 mode
 461:.\Generated_Source\PSoC4/PWM_Servo.c **** *
 462:.\Generated_Source\PSoC4/PWM_Servo.c **** * Return:
 463:.\Generated_Source\PSoC4/PWM_Servo.c **** *  None
 464:.\Generated_Source\PSoC4/PWM_Servo.c **** *
 465:.\Generated_Source\PSoC4/PWM_Servo.c **** *******************************************************************************/
 466:.\Generated_Source\PSoC4/PWM_Servo.c **** void PWM_Servo_SetPWMMode(uint32 modeMask)
 467:.\Generated_Source\PSoC4/PWM_Servo.c **** {
 499              		.loc 1 467 0
 500              		.cfi_startproc
 501 0000 80B5     		push	{r7, lr}
 502              	.LCFI22:
ARM GAS  C:\Users\Jared\AppData\Local\Temp\cclIiKIu.s 			page 18


 503              		.cfi_def_cfa_offset 8
 504              		.cfi_offset 7, -8
 505              		.cfi_offset 14, -4
 506 0002 82B0     		sub	sp, sp, #8
 507              	.LCFI23:
 508              		.cfi_def_cfa_offset 16
 509 0004 00AF     		add	r7, sp, #0
 510              	.LCFI24:
 511              		.cfi_def_cfa_register 7
 512 0006 7860     		str	r0, [r7, #4]
 468:.\Generated_Source\PSoC4/PWM_Servo.c ****     PWM_Servo_TRIG_CONTROL2_REG = (modeMask & PWM_Servo_6BIT_MASK);
 513              		.loc 1 468 0
 514 0008 034B     		ldr	r3, .L27
 515 000a 7968     		ldr	r1, [r7, #4]
 516 000c 3F22     		mov	r2, #63
 517 000e 0A40     		and	r2, r1
 518 0010 1A60     		str	r2, [r3]
 469:.\Generated_Source\PSoC4/PWM_Servo.c **** }
 519              		.loc 1 469 0
 520 0012 BD46     		mov	sp, r7
 521 0014 02B0     		add	sp, sp, #8
 522              		@ sp needed for prologue
 523 0016 80BD     		pop	{r7, pc}
 524              	.L28:
 525              		.align	2
 526              	.L27:
 527 0018 68010540 		.word	1074069864
 528              		.cfi_endproc
 529              	.LFE8:
 530              		.size	PWM_Servo_SetPWMMode, .-PWM_Servo_SetPWMMode
 531              		.section	.text.PWM_Servo_SetPWMSyncKill,"ax",%progbits
 532              		.align	2
 533              		.global	PWM_Servo_SetPWMSyncKill
 534              		.code	16
 535              		.thumb_func
 536              		.type	PWM_Servo_SetPWMSyncKill, %function
 537              	PWM_Servo_SetPWMSyncKill:
 538              	.LFB9:
 470:.\Generated_Source\PSoC4/PWM_Servo.c **** 
 471:.\Generated_Source\PSoC4/PWM_Servo.c **** 
 472:.\Generated_Source\PSoC4/PWM_Servo.c **** 
 473:.\Generated_Source\PSoC4/PWM_Servo.c **** /*******************************************************************************
 474:.\Generated_Source\PSoC4/PWM_Servo.c **** * Function Name: PWM_Servo_SetPWMSyncKill
 475:.\Generated_Source\PSoC4/PWM_Servo.c **** ********************************************************************************
 476:.\Generated_Source\PSoC4/PWM_Servo.c **** *
 477:.\Generated_Source\PSoC4/PWM_Servo.c **** * Summary:
 478:.\Generated_Source\PSoC4/PWM_Servo.c **** *  Writes the register that controls whether the PWM kill signal (stop input)
 479:.\Generated_Source\PSoC4/PWM_Servo.c **** *  causes asynchronous or synchronous kill operation.  By default the kill
 480:.\Generated_Source\PSoC4/PWM_Servo.c **** *  operation is asynchronous.  This functionality is only applicable to the PWM
 481:.\Generated_Source\PSoC4/PWM_Servo.c **** *  and PWM with dead time modes.
 482:.\Generated_Source\PSoC4/PWM_Servo.c **** *
 483:.\Generated_Source\PSoC4/PWM_Servo.c **** *  For Synchronous mode the kill signal disables both the line and line_n
 484:.\Generated_Source\PSoC4/PWM_Servo.c **** *  signals until the next terminal count.
 485:.\Generated_Source\PSoC4/PWM_Servo.c **** *
 486:.\Generated_Source\PSoC4/PWM_Servo.c **** *  For Asynchronous mode the kill signal disables both the line and line_n
 487:.\Generated_Source\PSoC4/PWM_Servo.c **** *  signals when the kill signal is present.  This mode should only be used
 488:.\Generated_Source\PSoC4/PWM_Servo.c **** *  when the kill signal (stop input) is configured in the pass through mode
ARM GAS  C:\Users\Jared\AppData\Local\Temp\cclIiKIu.s 			page 19


 489:.\Generated_Source\PSoC4/PWM_Servo.c **** *  (Level sensitive signal).
 490:.\Generated_Source\PSoC4/PWM_Servo.c **** 
 491:.\Generated_Source\PSoC4/PWM_Servo.c **** *
 492:.\Generated_Source\PSoC4/PWM_Servo.c **** * Parameters:
 493:.\Generated_Source\PSoC4/PWM_Servo.c **** *  syncKillEnable
 494:.\Generated_Source\PSoC4/PWM_Servo.c **** *   Values:
 495:.\Generated_Source\PSoC4/PWM_Servo.c **** *     - 0 - Asynchronous
 496:.\Generated_Source\PSoC4/PWM_Servo.c **** *     - 1 - Synchronous
 497:.\Generated_Source\PSoC4/PWM_Servo.c **** *
 498:.\Generated_Source\PSoC4/PWM_Servo.c **** * Return:
 499:.\Generated_Source\PSoC4/PWM_Servo.c **** *  None
 500:.\Generated_Source\PSoC4/PWM_Servo.c **** *
 501:.\Generated_Source\PSoC4/PWM_Servo.c **** *******************************************************************************/
 502:.\Generated_Source\PSoC4/PWM_Servo.c **** void PWM_Servo_SetPWMSyncKill(uint32 syncKillEnable)
 503:.\Generated_Source\PSoC4/PWM_Servo.c **** {
 539              		.loc 1 503 0
 540              		.cfi_startproc
 541 0000 90B5     		push	{r4, r7, lr}
 542              	.LCFI25:
 543              		.cfi_def_cfa_offset 12
 544              		.cfi_offset 4, -12
 545              		.cfi_offset 7, -8
 546              		.cfi_offset 14, -4
 547 0002 85B0     		sub	sp, sp, #20
 548              	.LCFI26:
 549              		.cfi_def_cfa_offset 32
 550 0004 00AF     		add	r7, sp, #0
 551              	.LCFI27:
 552              		.cfi_def_cfa_register 7
 553 0006 7860     		str	r0, [r7, #4]
 504:.\Generated_Source\PSoC4/PWM_Servo.c ****     uint8 enableInterrupts;
 505:.\Generated_Source\PSoC4/PWM_Servo.c **** 
 506:.\Generated_Source\PSoC4/PWM_Servo.c ****     enableInterrupts = CyEnterCriticalSection();
 554              		.loc 1 506 0
 555 0008 3C1C     		mov	r4, r7
 556 000a 0F34     		add	r4, r4, #15
 557 000c FFF7FEFF 		bl	CyEnterCriticalSection
 558 0010 031C     		mov	r3, r0
 559 0012 2370     		strb	r3, [r4]
 507:.\Generated_Source\PSoC4/PWM_Servo.c **** 
 508:.\Generated_Source\PSoC4/PWM_Servo.c ****     PWM_Servo_CONTROL_REG &= (uint32)~PWM_Servo_PWM_SYNC_KILL_MASK;
 560              		.loc 1 508 0
 561 0014 0B4B     		ldr	r3, .L30
 562 0016 0B4A     		ldr	r2, .L30
 563 0018 1268     		ldr	r2, [r2]
 564 001a 0421     		mov	r1, #4
 565 001c 8A43     		bic	r2, r1
 566 001e 1A60     		str	r2, [r3]
 509:.\Generated_Source\PSoC4/PWM_Servo.c ****     PWM_Servo_CONTROL_REG |= ((uint32)((syncKillEnable & PWM_Servo_1BIT_MASK)  <<
 567              		.loc 1 509 0
 568 0020 084B     		ldr	r3, .L30
 569 0022 084A     		ldr	r2, .L30
 570 0024 1168     		ldr	r1, [r2]
 571 0026 7868     		ldr	r0, [r7, #4]
 572 0028 0122     		mov	r2, #1
 573 002a 0240     		and	r2, r0
 574 002c 9200     		lsl	r2, r2, #2
ARM GAS  C:\Users\Jared\AppData\Local\Temp\cclIiKIu.s 			page 20


 575 002e 0A43     		orr	r2, r1
 576 0030 1A60     		str	r2, [r3]
 510:.\Generated_Source\PSoC4/PWM_Servo.c ****                                                PWM_Servo_PWM_SYNC_KILL_SHIFT));
 511:.\Generated_Source\PSoC4/PWM_Servo.c **** 
 512:.\Generated_Source\PSoC4/PWM_Servo.c ****     CyExitCriticalSection(enableInterrupts);
 577              		.loc 1 512 0
 578 0032 3B1C     		mov	r3, r7
 579 0034 0F33     		add	r3, r3, #15
 580 0036 1B78     		ldrb	r3, [r3]
 581 0038 181C     		mov	r0, r3
 582 003a FFF7FEFF 		bl	CyExitCriticalSection
 513:.\Generated_Source\PSoC4/PWM_Servo.c **** }
 583              		.loc 1 513 0
 584 003e BD46     		mov	sp, r7
 585 0040 05B0     		add	sp, sp, #20
 586              		@ sp needed for prologue
 587 0042 90BD     		pop	{r4, r7, pc}
 588              	.L31:
 589              		.align	2
 590              	.L30:
 591 0044 40010540 		.word	1074069824
 592              		.cfi_endproc
 593              	.LFE9:
 594              		.size	PWM_Servo_SetPWMSyncKill, .-PWM_Servo_SetPWMSyncKill
 595              		.section	.text.PWM_Servo_SetPWMStopOnKill,"ax",%progbits
 596              		.align	2
 597              		.global	PWM_Servo_SetPWMStopOnKill
 598              		.code	16
 599              		.thumb_func
 600              		.type	PWM_Servo_SetPWMStopOnKill, %function
 601              	PWM_Servo_SetPWMStopOnKill:
 602              	.LFB10:
 514:.\Generated_Source\PSoC4/PWM_Servo.c **** 
 515:.\Generated_Source\PSoC4/PWM_Servo.c **** 
 516:.\Generated_Source\PSoC4/PWM_Servo.c **** /*******************************************************************************
 517:.\Generated_Source\PSoC4/PWM_Servo.c **** * Function Name: PWM_Servo_SetPWMStopOnKill
 518:.\Generated_Source\PSoC4/PWM_Servo.c **** ********************************************************************************
 519:.\Generated_Source\PSoC4/PWM_Servo.c **** *
 520:.\Generated_Source\PSoC4/PWM_Servo.c **** * Summary:
 521:.\Generated_Source\PSoC4/PWM_Servo.c **** *  Writes the register that controls whether the PWM kill signal (stop input)
 522:.\Generated_Source\PSoC4/PWM_Servo.c **** *  causes the PWM counter to stop.  By default the kill operation does not stop
 523:.\Generated_Source\PSoC4/PWM_Servo.c **** *  the counter.  This functionality is only applicable to the three PWM modes.
 524:.\Generated_Source\PSoC4/PWM_Servo.c **** *
 525:.\Generated_Source\PSoC4/PWM_Servo.c **** *
 526:.\Generated_Source\PSoC4/PWM_Servo.c **** * Parameters:
 527:.\Generated_Source\PSoC4/PWM_Servo.c **** *  stopOnKillEnable
 528:.\Generated_Source\PSoC4/PWM_Servo.c **** *   Values:
 529:.\Generated_Source\PSoC4/PWM_Servo.c **** *     - 0 - Don't stop
 530:.\Generated_Source\PSoC4/PWM_Servo.c **** *     - 1 - Stop
 531:.\Generated_Source\PSoC4/PWM_Servo.c **** *
 532:.\Generated_Source\PSoC4/PWM_Servo.c **** * Return:
 533:.\Generated_Source\PSoC4/PWM_Servo.c **** *  None
 534:.\Generated_Source\PSoC4/PWM_Servo.c **** *
 535:.\Generated_Source\PSoC4/PWM_Servo.c **** *******************************************************************************/
 536:.\Generated_Source\PSoC4/PWM_Servo.c **** void PWM_Servo_SetPWMStopOnKill(uint32 stopOnKillEnable)
 537:.\Generated_Source\PSoC4/PWM_Servo.c **** {
 603              		.loc 1 537 0
ARM GAS  C:\Users\Jared\AppData\Local\Temp\cclIiKIu.s 			page 21


 604              		.cfi_startproc
 605 0000 90B5     		push	{r4, r7, lr}
 606              	.LCFI28:
 607              		.cfi_def_cfa_offset 12
 608              		.cfi_offset 4, -12
 609              		.cfi_offset 7, -8
 610              		.cfi_offset 14, -4
 611 0002 85B0     		sub	sp, sp, #20
 612              	.LCFI29:
 613              		.cfi_def_cfa_offset 32
 614 0004 00AF     		add	r7, sp, #0
 615              	.LCFI30:
 616              		.cfi_def_cfa_register 7
 617 0006 7860     		str	r0, [r7, #4]
 538:.\Generated_Source\PSoC4/PWM_Servo.c ****     uint8 enableInterrupts;
 539:.\Generated_Source\PSoC4/PWM_Servo.c **** 
 540:.\Generated_Source\PSoC4/PWM_Servo.c ****     enableInterrupts = CyEnterCriticalSection();
 618              		.loc 1 540 0
 619 0008 3C1C     		mov	r4, r7
 620 000a 0F34     		add	r4, r4, #15
 621 000c FFF7FEFF 		bl	CyEnterCriticalSection
 622 0010 031C     		mov	r3, r0
 623 0012 2370     		strb	r3, [r4]
 541:.\Generated_Source\PSoC4/PWM_Servo.c **** 
 542:.\Generated_Source\PSoC4/PWM_Servo.c ****     PWM_Servo_CONTROL_REG &= (uint32)~PWM_Servo_PWM_STOP_KILL_MASK;
 624              		.loc 1 542 0
 625 0014 0B4B     		ldr	r3, .L33
 626 0016 0B4A     		ldr	r2, .L33
 627 0018 1268     		ldr	r2, [r2]
 628 001a 0821     		mov	r1, #8
 629 001c 8A43     		bic	r2, r1
 630 001e 1A60     		str	r2, [r3]
 543:.\Generated_Source\PSoC4/PWM_Servo.c ****     PWM_Servo_CONTROL_REG |= ((uint32)((stopOnKillEnable & PWM_Servo_1BIT_MASK)  <<
 631              		.loc 1 543 0
 632 0020 084B     		ldr	r3, .L33
 633 0022 084A     		ldr	r2, .L33
 634 0024 1168     		ldr	r1, [r2]
 635 0026 7868     		ldr	r0, [r7, #4]
 636 0028 0122     		mov	r2, #1
 637 002a 0240     		and	r2, r0
 638 002c D200     		lsl	r2, r2, #3
 639 002e 0A43     		orr	r2, r1
 640 0030 1A60     		str	r2, [r3]
 544:.\Generated_Source\PSoC4/PWM_Servo.c ****                                                          PWM_Servo_PWM_STOP_KILL_SHIFT));
 545:.\Generated_Source\PSoC4/PWM_Servo.c **** 
 546:.\Generated_Source\PSoC4/PWM_Servo.c ****     CyExitCriticalSection(enableInterrupts);
 641              		.loc 1 546 0
 642 0032 3B1C     		mov	r3, r7
 643 0034 0F33     		add	r3, r3, #15
 644 0036 1B78     		ldrb	r3, [r3]
 645 0038 181C     		mov	r0, r3
 646 003a FFF7FEFF 		bl	CyExitCriticalSection
 547:.\Generated_Source\PSoC4/PWM_Servo.c **** }
 647              		.loc 1 547 0
 648 003e BD46     		mov	sp, r7
 649 0040 05B0     		add	sp, sp, #20
 650              		@ sp needed for prologue
ARM GAS  C:\Users\Jared\AppData\Local\Temp\cclIiKIu.s 			page 22


 651 0042 90BD     		pop	{r4, r7, pc}
 652              	.L34:
 653              		.align	2
 654              	.L33:
 655 0044 40010540 		.word	1074069824
 656              		.cfi_endproc
 657              	.LFE10:
 658              		.size	PWM_Servo_SetPWMStopOnKill, .-PWM_Servo_SetPWMStopOnKill
 659              		.section	.text.PWM_Servo_SetPWMDeadTime,"ax",%progbits
 660              		.align	2
 661              		.global	PWM_Servo_SetPWMDeadTime
 662              		.code	16
 663              		.thumb_func
 664              		.type	PWM_Servo_SetPWMDeadTime, %function
 665              	PWM_Servo_SetPWMDeadTime:
 666              	.LFB11:
 548:.\Generated_Source\PSoC4/PWM_Servo.c **** 
 549:.\Generated_Source\PSoC4/PWM_Servo.c **** 
 550:.\Generated_Source\PSoC4/PWM_Servo.c **** /*******************************************************************************
 551:.\Generated_Source\PSoC4/PWM_Servo.c **** * Function Name: PWM_Servo_SetPWMDeadTime
 552:.\Generated_Source\PSoC4/PWM_Servo.c **** ********************************************************************************
 553:.\Generated_Source\PSoC4/PWM_Servo.c **** *
 554:.\Generated_Source\PSoC4/PWM_Servo.c **** * Summary:
 555:.\Generated_Source\PSoC4/PWM_Servo.c **** *  Writes the dead time control value.  This value delays the rising edge of
 556:.\Generated_Source\PSoC4/PWM_Servo.c **** *  both the line and line_n signals the designated number of cycles resulting
 557:.\Generated_Source\PSoC4/PWM_Servo.c **** *  in both signals being inactive for that many cycles.  This functionality is
 558:.\Generated_Source\PSoC4/PWM_Servo.c **** *  only applicable to the PWM in the dead time mode.
 559:.\Generated_Source\PSoC4/PWM_Servo.c **** 
 560:.\Generated_Source\PSoC4/PWM_Servo.c **** *
 561:.\Generated_Source\PSoC4/PWM_Servo.c **** * Parameters:
 562:.\Generated_Source\PSoC4/PWM_Servo.c **** *  Dead time to insert
 563:.\Generated_Source\PSoC4/PWM_Servo.c **** *   Values: 0 to 255
 564:.\Generated_Source\PSoC4/PWM_Servo.c **** *
 565:.\Generated_Source\PSoC4/PWM_Servo.c **** * Return:
 566:.\Generated_Source\PSoC4/PWM_Servo.c **** *  None
 567:.\Generated_Source\PSoC4/PWM_Servo.c **** *
 568:.\Generated_Source\PSoC4/PWM_Servo.c **** *******************************************************************************/
 569:.\Generated_Source\PSoC4/PWM_Servo.c **** void PWM_Servo_SetPWMDeadTime(uint32 deadTime)
 570:.\Generated_Source\PSoC4/PWM_Servo.c **** {
 667              		.loc 1 570 0
 668              		.cfi_startproc
 669 0000 90B5     		push	{r4, r7, lr}
 670              	.LCFI31:
 671              		.cfi_def_cfa_offset 12
 672              		.cfi_offset 4, -12
 673              		.cfi_offset 7, -8
 674              		.cfi_offset 14, -4
 675 0002 85B0     		sub	sp, sp, #20
 676              	.LCFI32:
 677              		.cfi_def_cfa_offset 32
 678 0004 00AF     		add	r7, sp, #0
 679              	.LCFI33:
 680              		.cfi_def_cfa_register 7
 681 0006 7860     		str	r0, [r7, #4]
 571:.\Generated_Source\PSoC4/PWM_Servo.c ****     uint8 enableInterrupts;
 572:.\Generated_Source\PSoC4/PWM_Servo.c **** 
 573:.\Generated_Source\PSoC4/PWM_Servo.c ****     enableInterrupts = CyEnterCriticalSection();
ARM GAS  C:\Users\Jared\AppData\Local\Temp\cclIiKIu.s 			page 23


 682              		.loc 1 573 0
 683 0008 3C1C     		mov	r4, r7
 684 000a 0F34     		add	r4, r4, #15
 685 000c FFF7FEFF 		bl	CyEnterCriticalSection
 686 0010 031C     		mov	r3, r0
 687 0012 2370     		strb	r3, [r4]
 574:.\Generated_Source\PSoC4/PWM_Servo.c **** 
 575:.\Generated_Source\PSoC4/PWM_Servo.c ****     PWM_Servo_CONTROL_REG &= (uint32)~PWM_Servo_PRESCALER_MASK;
 688              		.loc 1 575 0
 689 0014 0B4B     		ldr	r3, .L36
 690 0016 0B4A     		ldr	r2, .L36
 691 0018 1168     		ldr	r1, [r2]
 692 001a 0B4A     		ldr	r2, .L36+4
 693 001c 0A40     		and	r2, r1
 694 001e 1A60     		str	r2, [r3]
 576:.\Generated_Source\PSoC4/PWM_Servo.c ****     PWM_Servo_CONTROL_REG |= ((uint32)((deadTime & PWM_Servo_8BIT_MASK) <<
 695              		.loc 1 576 0
 696 0020 084B     		ldr	r3, .L36
 697 0022 084A     		ldr	r2, .L36
 698 0024 1168     		ldr	r1, [r2]
 699 0026 7A68     		ldr	r2, [r7, #4]
 700 0028 1202     		lsl	r2, r2, #8
 701 002a 1204     		lsl	r2, r2, #16
 702 002c 120C     		lsr	r2, r2, #16
 703 002e 0A43     		orr	r2, r1
 704 0030 1A60     		str	r2, [r3]
 577:.\Generated_Source\PSoC4/PWM_Servo.c ****                                                           PWM_Servo_PRESCALER_SHIFT));
 578:.\Generated_Source\PSoC4/PWM_Servo.c **** 
 579:.\Generated_Source\PSoC4/PWM_Servo.c ****     CyExitCriticalSection(enableInterrupts);
 705              		.loc 1 579 0
 706 0032 3B1C     		mov	r3, r7
 707 0034 0F33     		add	r3, r3, #15
 708 0036 1B78     		ldrb	r3, [r3]
 709 0038 181C     		mov	r0, r3
 710 003a FFF7FEFF 		bl	CyExitCriticalSection
 580:.\Generated_Source\PSoC4/PWM_Servo.c **** }
 711              		.loc 1 580 0
 712 003e BD46     		mov	sp, r7
 713 0040 05B0     		add	sp, sp, #20
 714              		@ sp needed for prologue
 715 0042 90BD     		pop	{r4, r7, pc}
 716              	.L37:
 717              		.align	2
 718              	.L36:
 719 0044 40010540 		.word	1074069824
 720 0048 FF00FFFF 		.word	-65281
 721              		.cfi_endproc
 722              	.LFE11:
 723              		.size	PWM_Servo_SetPWMDeadTime, .-PWM_Servo_SetPWMDeadTime
 724              		.section	.text.PWM_Servo_SetPWMInvert,"ax",%progbits
 725              		.align	2
 726              		.global	PWM_Servo_SetPWMInvert
 727              		.code	16
 728              		.thumb_func
 729              		.type	PWM_Servo_SetPWMInvert, %function
 730              	PWM_Servo_SetPWMInvert:
 731              	.LFB12:
ARM GAS  C:\Users\Jared\AppData\Local\Temp\cclIiKIu.s 			page 24


 581:.\Generated_Source\PSoC4/PWM_Servo.c **** 
 582:.\Generated_Source\PSoC4/PWM_Servo.c **** 
 583:.\Generated_Source\PSoC4/PWM_Servo.c **** /*******************************************************************************
 584:.\Generated_Source\PSoC4/PWM_Servo.c **** * Function Name: PWM_Servo_SetPWMInvert
 585:.\Generated_Source\PSoC4/PWM_Servo.c **** ********************************************************************************
 586:.\Generated_Source\PSoC4/PWM_Servo.c **** *
 587:.\Generated_Source\PSoC4/PWM_Servo.c **** * Summary:
 588:.\Generated_Source\PSoC4/PWM_Servo.c **** *  Writes the bits that control whether the line and line_n outputs are
 589:.\Generated_Source\PSoC4/PWM_Servo.c **** *  inverted from their normal output values.  This functionality is only
 590:.\Generated_Source\PSoC4/PWM_Servo.c **** *  applicable to the three PWM modes.
 591:.\Generated_Source\PSoC4/PWM_Servo.c **** *
 592:.\Generated_Source\PSoC4/PWM_Servo.c **** * Parameters:
 593:.\Generated_Source\PSoC4/PWM_Servo.c **** *  mask: Mask of outputs to invert.
 594:.\Generated_Source\PSoC4/PWM_Servo.c **** *   Values:
 595:.\Generated_Source\PSoC4/PWM_Servo.c **** *         - PWM_Servo_INVERT_LINE   - Inverts the line output
 596:.\Generated_Source\PSoC4/PWM_Servo.c **** *         - PWM_Servo_INVERT_LINE_N - Inverts the line_n output
 597:.\Generated_Source\PSoC4/PWM_Servo.c **** *
 598:.\Generated_Source\PSoC4/PWM_Servo.c **** * Return:
 599:.\Generated_Source\PSoC4/PWM_Servo.c **** *  None
 600:.\Generated_Source\PSoC4/PWM_Servo.c **** *
 601:.\Generated_Source\PSoC4/PWM_Servo.c **** *******************************************************************************/
 602:.\Generated_Source\PSoC4/PWM_Servo.c **** void PWM_Servo_SetPWMInvert(uint32 mask)
 603:.\Generated_Source\PSoC4/PWM_Servo.c **** {
 732              		.loc 1 603 0
 733              		.cfi_startproc
 734 0000 90B5     		push	{r4, r7, lr}
 735              	.LCFI34:
 736              		.cfi_def_cfa_offset 12
 737              		.cfi_offset 4, -12
 738              		.cfi_offset 7, -8
 739              		.cfi_offset 14, -4
 740 0002 85B0     		sub	sp, sp, #20
 741              	.LCFI35:
 742              		.cfi_def_cfa_offset 32
 743 0004 00AF     		add	r7, sp, #0
 744              	.LCFI36:
 745              		.cfi_def_cfa_register 7
 746 0006 7860     		str	r0, [r7, #4]
 604:.\Generated_Source\PSoC4/PWM_Servo.c ****     uint8 enableInterrupts;
 605:.\Generated_Source\PSoC4/PWM_Servo.c **** 
 606:.\Generated_Source\PSoC4/PWM_Servo.c ****     enableInterrupts = CyEnterCriticalSection();
 747              		.loc 1 606 0
 748 0008 3C1C     		mov	r4, r7
 749 000a 0F34     		add	r4, r4, #15
 750 000c FFF7FEFF 		bl	CyEnterCriticalSection
 751 0010 031C     		mov	r3, r0
 752 0012 2370     		strb	r3, [r4]
 607:.\Generated_Source\PSoC4/PWM_Servo.c **** 
 608:.\Generated_Source\PSoC4/PWM_Servo.c ****     PWM_Servo_CONTROL_REG &= (uint32)~PWM_Servo_INV_OUT_MASK;
 753              		.loc 1 608 0
 754 0014 0A4B     		ldr	r3, .L39
 755 0016 0A4A     		ldr	r2, .L39
 756 0018 1168     		ldr	r1, [r2]
 757 001a 0A4A     		ldr	r2, .L39+4
 758 001c 0A40     		and	r2, r1
 759 001e 1A60     		str	r2, [r3]
 609:.\Generated_Source\PSoC4/PWM_Servo.c ****     PWM_Servo_CONTROL_REG |= mask;
ARM GAS  C:\Users\Jared\AppData\Local\Temp\cclIiKIu.s 			page 25


 760              		.loc 1 609 0
 761 0020 074B     		ldr	r3, .L39
 762 0022 074A     		ldr	r2, .L39
 763 0024 1168     		ldr	r1, [r2]
 764 0026 7A68     		ldr	r2, [r7, #4]
 765 0028 0A43     		orr	r2, r1
 766 002a 1A60     		str	r2, [r3]
 610:.\Generated_Source\PSoC4/PWM_Servo.c **** 
 611:.\Generated_Source\PSoC4/PWM_Servo.c ****     CyExitCriticalSection(enableInterrupts);
 767              		.loc 1 611 0
 768 002c 3B1C     		mov	r3, r7
 769 002e 0F33     		add	r3, r3, #15
 770 0030 1B78     		ldrb	r3, [r3]
 771 0032 181C     		mov	r0, r3
 772 0034 FFF7FEFF 		bl	CyExitCriticalSection
 612:.\Generated_Source\PSoC4/PWM_Servo.c **** }
 773              		.loc 1 612 0
 774 0038 BD46     		mov	sp, r7
 775 003a 05B0     		add	sp, sp, #20
 776              		@ sp needed for prologue
 777 003c 90BD     		pop	{r4, r7, pc}
 778              	.L40:
 779 003e C046     		.align	2
 780              	.L39:
 781 0040 40010540 		.word	1074069824
 782 0044 FFFFCFFF 		.word	-3145729
 783              		.cfi_endproc
 784              	.LFE12:
 785              		.size	PWM_Servo_SetPWMInvert, .-PWM_Servo_SetPWMInvert
 786              		.section	.text.PWM_Servo_WriteCounter,"ax",%progbits
 787              		.align	2
 788              		.global	PWM_Servo_WriteCounter
 789              		.code	16
 790              		.thumb_func
 791              		.type	PWM_Servo_WriteCounter, %function
 792              	PWM_Servo_WriteCounter:
 793              	.LFB13:
 613:.\Generated_Source\PSoC4/PWM_Servo.c **** 
 614:.\Generated_Source\PSoC4/PWM_Servo.c **** 
 615:.\Generated_Source\PSoC4/PWM_Servo.c **** 
 616:.\Generated_Source\PSoC4/PWM_Servo.c **** /*******************************************************************************
 617:.\Generated_Source\PSoC4/PWM_Servo.c **** * Function Name: PWM_Servo_WriteCounter
 618:.\Generated_Source\PSoC4/PWM_Servo.c **** ********************************************************************************
 619:.\Generated_Source\PSoC4/PWM_Servo.c **** *
 620:.\Generated_Source\PSoC4/PWM_Servo.c **** * Summary:
 621:.\Generated_Source\PSoC4/PWM_Servo.c **** *  Writes a new 16bit counter value directly into the counter register, thus
 622:.\Generated_Source\PSoC4/PWM_Servo.c **** *  setting the counter (not the period) to the value written. It is not
 623:.\Generated_Source\PSoC4/PWM_Servo.c **** *  advised to write to this field when the counter is running.
 624:.\Generated_Source\PSoC4/PWM_Servo.c **** *
 625:.\Generated_Source\PSoC4/PWM_Servo.c **** * Parameters:
 626:.\Generated_Source\PSoC4/PWM_Servo.c **** *  count: value to write
 627:.\Generated_Source\PSoC4/PWM_Servo.c **** *
 628:.\Generated_Source\PSoC4/PWM_Servo.c **** * Return:
 629:.\Generated_Source\PSoC4/PWM_Servo.c **** *  None
 630:.\Generated_Source\PSoC4/PWM_Servo.c **** *
 631:.\Generated_Source\PSoC4/PWM_Servo.c **** *******************************************************************************/
 632:.\Generated_Source\PSoC4/PWM_Servo.c **** void PWM_Servo_WriteCounter(uint32 count)
ARM GAS  C:\Users\Jared\AppData\Local\Temp\cclIiKIu.s 			page 26


 633:.\Generated_Source\PSoC4/PWM_Servo.c **** {
 794              		.loc 1 633 0
 795              		.cfi_startproc
 796 0000 80B5     		push	{r7, lr}
 797              	.LCFI37:
 798              		.cfi_def_cfa_offset 8
 799              		.cfi_offset 7, -8
 800              		.cfi_offset 14, -4
 801 0002 82B0     		sub	sp, sp, #8
 802              	.LCFI38:
 803              		.cfi_def_cfa_offset 16
 804 0004 00AF     		add	r7, sp, #0
 805              	.LCFI39:
 806              		.cfi_def_cfa_register 7
 807 0006 7860     		str	r0, [r7, #4]
 634:.\Generated_Source\PSoC4/PWM_Servo.c ****     PWM_Servo_COUNTER_REG = (count & PWM_Servo_16BIT_MASK);
 808              		.loc 1 634 0
 809 0008 034B     		ldr	r3, .L42
 810 000a 7A68     		ldr	r2, [r7, #4]
 811 000c 1204     		lsl	r2, r2, #16
 812 000e 120C     		lsr	r2, r2, #16
 813 0010 1A60     		str	r2, [r3]
 635:.\Generated_Source\PSoC4/PWM_Servo.c **** }
 814              		.loc 1 635 0
 815 0012 BD46     		mov	sp, r7
 816 0014 02B0     		add	sp, sp, #8
 817              		@ sp needed for prologue
 818 0016 80BD     		pop	{r7, pc}
 819              	.L43:
 820              		.align	2
 821              	.L42:
 822 0018 48010540 		.word	1074069832
 823              		.cfi_endproc
 824              	.LFE13:
 825              		.size	PWM_Servo_WriteCounter, .-PWM_Servo_WriteCounter
 826              		.section	.text.PWM_Servo_ReadCounter,"ax",%progbits
 827              		.align	2
 828              		.global	PWM_Servo_ReadCounter
 829              		.code	16
 830              		.thumb_func
 831              		.type	PWM_Servo_ReadCounter, %function
 832              	PWM_Servo_ReadCounter:
 833              	.LFB14:
 636:.\Generated_Source\PSoC4/PWM_Servo.c **** 
 637:.\Generated_Source\PSoC4/PWM_Servo.c **** 
 638:.\Generated_Source\PSoC4/PWM_Servo.c **** /*******************************************************************************
 639:.\Generated_Source\PSoC4/PWM_Servo.c **** * Function Name: PWM_Servo_ReadCounter
 640:.\Generated_Source\PSoC4/PWM_Servo.c **** ********************************************************************************
 641:.\Generated_Source\PSoC4/PWM_Servo.c **** *
 642:.\Generated_Source\PSoC4/PWM_Servo.c **** * Summary:
 643:.\Generated_Source\PSoC4/PWM_Servo.c **** *  Reads the current counter value.
 644:.\Generated_Source\PSoC4/PWM_Servo.c **** *
 645:.\Generated_Source\PSoC4/PWM_Servo.c **** * Parameters:
 646:.\Generated_Source\PSoC4/PWM_Servo.c **** *  None
 647:.\Generated_Source\PSoC4/PWM_Servo.c **** *
 648:.\Generated_Source\PSoC4/PWM_Servo.c **** * Return:
 649:.\Generated_Source\PSoC4/PWM_Servo.c **** *  Current counter value
ARM GAS  C:\Users\Jared\AppData\Local\Temp\cclIiKIu.s 			page 27


 650:.\Generated_Source\PSoC4/PWM_Servo.c **** *
 651:.\Generated_Source\PSoC4/PWM_Servo.c **** *******************************************************************************/
 652:.\Generated_Source\PSoC4/PWM_Servo.c **** uint32 PWM_Servo_ReadCounter(void)
 653:.\Generated_Source\PSoC4/PWM_Servo.c **** {
 834              		.loc 1 653 0
 835              		.cfi_startproc
 836 0000 80B5     		push	{r7, lr}
 837              	.LCFI40:
 838              		.cfi_def_cfa_offset 8
 839              		.cfi_offset 7, -8
 840              		.cfi_offset 14, -4
 841 0002 00AF     		add	r7, sp, #0
 842              	.LCFI41:
 843              		.cfi_def_cfa_register 7
 654:.\Generated_Source\PSoC4/PWM_Servo.c ****     return (PWM_Servo_COUNTER_REG & PWM_Servo_16BIT_MASK);
 844              		.loc 1 654 0
 845 0004 034B     		ldr	r3, .L46
 846 0006 1B68     		ldr	r3, [r3]
 847 0008 1B04     		lsl	r3, r3, #16
 848 000a 1B0C     		lsr	r3, r3, #16
 655:.\Generated_Source\PSoC4/PWM_Servo.c **** }
 849              		.loc 1 655 0
 850 000c 181C     		mov	r0, r3
 851 000e BD46     		mov	sp, r7
 852              		@ sp needed for prologue
 853 0010 80BD     		pop	{r7, pc}
 854              	.L47:
 855 0012 C046     		.align	2
 856              	.L46:
 857 0014 48010540 		.word	1074069832
 858              		.cfi_endproc
 859              	.LFE14:
 860              		.size	PWM_Servo_ReadCounter, .-PWM_Servo_ReadCounter
 861              		.section	.text.PWM_Servo_SetCounterMode,"ax",%progbits
 862              		.align	2
 863              		.global	PWM_Servo_SetCounterMode
 864              		.code	16
 865              		.thumb_func
 866              		.type	PWM_Servo_SetCounterMode, %function
 867              	PWM_Servo_SetCounterMode:
 868              	.LFB15:
 656:.\Generated_Source\PSoC4/PWM_Servo.c **** 
 657:.\Generated_Source\PSoC4/PWM_Servo.c **** 
 658:.\Generated_Source\PSoC4/PWM_Servo.c **** /*******************************************************************************
 659:.\Generated_Source\PSoC4/PWM_Servo.c **** * Function Name: PWM_Servo_SetCounterMode
 660:.\Generated_Source\PSoC4/PWM_Servo.c **** ********************************************************************************
 661:.\Generated_Source\PSoC4/PWM_Servo.c **** *
 662:.\Generated_Source\PSoC4/PWM_Servo.c **** * Summary:
 663:.\Generated_Source\PSoC4/PWM_Servo.c **** *  Sets the counter mode.  Applicable to all modes except Quadrature Decoder
 664:.\Generated_Source\PSoC4/PWM_Servo.c **** *  and the PWM with a pseudo random output.
 665:.\Generated_Source\PSoC4/PWM_Servo.c **** *
 666:.\Generated_Source\PSoC4/PWM_Servo.c **** * Parameters:
 667:.\Generated_Source\PSoC4/PWM_Servo.c **** *  counterMode: Enumerated counter type values
 668:.\Generated_Source\PSoC4/PWM_Servo.c **** *   Values:
 669:.\Generated_Source\PSoC4/PWM_Servo.c **** *     - PWM_Servo_COUNT_UP       - Counts up
 670:.\Generated_Source\PSoC4/PWM_Servo.c **** *     - PWM_Servo_COUNT_DOWN     - Counts down
 671:.\Generated_Source\PSoC4/PWM_Servo.c **** *     - PWM_Servo_COUNT_UPDOWN0  - Counts up and down. Terminal count
ARM GAS  C:\Users\Jared\AppData\Local\Temp\cclIiKIu.s 			page 28


 672:.\Generated_Source\PSoC4/PWM_Servo.c **** *                                         generated when counter reaches 0
 673:.\Generated_Source\PSoC4/PWM_Servo.c **** *     - PWM_Servo_COUNT_UPDOWN1  - Counts up and down. Terminal count
 674:.\Generated_Source\PSoC4/PWM_Servo.c **** *                                         generated both when counter reaches 0
 675:.\Generated_Source\PSoC4/PWM_Servo.c **** *                                         and period
 676:.\Generated_Source\PSoC4/PWM_Servo.c **** *
 677:.\Generated_Source\PSoC4/PWM_Servo.c **** * Return:
 678:.\Generated_Source\PSoC4/PWM_Servo.c **** *  None
 679:.\Generated_Source\PSoC4/PWM_Servo.c **** *
 680:.\Generated_Source\PSoC4/PWM_Servo.c **** *******************************************************************************/
 681:.\Generated_Source\PSoC4/PWM_Servo.c **** void PWM_Servo_SetCounterMode(uint32 counterMode)
 682:.\Generated_Source\PSoC4/PWM_Servo.c **** {
 869              		.loc 1 682 0
 870              		.cfi_startproc
 871 0000 90B5     		push	{r4, r7, lr}
 872              	.LCFI42:
 873              		.cfi_def_cfa_offset 12
 874              		.cfi_offset 4, -12
 875              		.cfi_offset 7, -8
 876              		.cfi_offset 14, -4
 877 0002 85B0     		sub	sp, sp, #20
 878              	.LCFI43:
 879              		.cfi_def_cfa_offset 32
 880 0004 00AF     		add	r7, sp, #0
 881              	.LCFI44:
 882              		.cfi_def_cfa_register 7
 883 0006 7860     		str	r0, [r7, #4]
 683:.\Generated_Source\PSoC4/PWM_Servo.c ****     uint8 enableInterrupts;
 684:.\Generated_Source\PSoC4/PWM_Servo.c **** 
 685:.\Generated_Source\PSoC4/PWM_Servo.c ****     enableInterrupts = CyEnterCriticalSection();
 884              		.loc 1 685 0
 885 0008 3C1C     		mov	r4, r7
 886 000a 0F34     		add	r4, r4, #15
 887 000c FFF7FEFF 		bl	CyEnterCriticalSection
 888 0010 031C     		mov	r3, r0
 889 0012 2370     		strb	r3, [r4]
 686:.\Generated_Source\PSoC4/PWM_Servo.c **** 
 687:.\Generated_Source\PSoC4/PWM_Servo.c ****     PWM_Servo_CONTROL_REG &= (uint32)~PWM_Servo_UPDOWN_MASK;
 890              		.loc 1 687 0
 891 0014 0A4B     		ldr	r3, .L49
 892 0016 0A4A     		ldr	r2, .L49
 893 0018 1168     		ldr	r1, [r2]
 894 001a 0A4A     		ldr	r2, .L49+4
 895 001c 0A40     		and	r2, r1
 896 001e 1A60     		str	r2, [r3]
 688:.\Generated_Source\PSoC4/PWM_Servo.c ****     PWM_Servo_CONTROL_REG |= counterMode;
 897              		.loc 1 688 0
 898 0020 074B     		ldr	r3, .L49
 899 0022 074A     		ldr	r2, .L49
 900 0024 1168     		ldr	r1, [r2]
 901 0026 7A68     		ldr	r2, [r7, #4]
 902 0028 0A43     		orr	r2, r1
 903 002a 1A60     		str	r2, [r3]
 689:.\Generated_Source\PSoC4/PWM_Servo.c **** 
 690:.\Generated_Source\PSoC4/PWM_Servo.c ****     CyExitCriticalSection(enableInterrupts);
 904              		.loc 1 690 0
 905 002c 3B1C     		mov	r3, r7
 906 002e 0F33     		add	r3, r3, #15
ARM GAS  C:\Users\Jared\AppData\Local\Temp\cclIiKIu.s 			page 29


 907 0030 1B78     		ldrb	r3, [r3]
 908 0032 181C     		mov	r0, r3
 909 0034 FFF7FEFF 		bl	CyExitCriticalSection
 691:.\Generated_Source\PSoC4/PWM_Servo.c **** }
 910              		.loc 1 691 0
 911 0038 BD46     		mov	sp, r7
 912 003a 05B0     		add	sp, sp, #20
 913              		@ sp needed for prologue
 914 003c 90BD     		pop	{r4, r7, pc}
 915              	.L50:
 916 003e C046     		.align	2
 917              	.L49:
 918 0040 40010540 		.word	1074069824
 919 0044 FFFFFCFF 		.word	-196609
 920              		.cfi_endproc
 921              	.LFE15:
 922              		.size	PWM_Servo_SetCounterMode, .-PWM_Servo_SetCounterMode
 923              		.section	.text.PWM_Servo_WritePeriod,"ax",%progbits
 924              		.align	2
 925              		.global	PWM_Servo_WritePeriod
 926              		.code	16
 927              		.thumb_func
 928              		.type	PWM_Servo_WritePeriod, %function
 929              	PWM_Servo_WritePeriod:
 930              	.LFB16:
 692:.\Generated_Source\PSoC4/PWM_Servo.c **** 
 693:.\Generated_Source\PSoC4/PWM_Servo.c **** 
 694:.\Generated_Source\PSoC4/PWM_Servo.c **** /*******************************************************************************
 695:.\Generated_Source\PSoC4/PWM_Servo.c **** * Function Name: PWM_Servo_WritePeriod
 696:.\Generated_Source\PSoC4/PWM_Servo.c **** ********************************************************************************
 697:.\Generated_Source\PSoC4/PWM_Servo.c **** *
 698:.\Generated_Source\PSoC4/PWM_Servo.c **** * Summary:
 699:.\Generated_Source\PSoC4/PWM_Servo.c **** *  Writes the 16 bit period register with the new period value.
 700:.\Generated_Source\PSoC4/PWM_Servo.c **** *  To cause the counter to count for N cycles this register should be written
 701:.\Generated_Source\PSoC4/PWM_Servo.c **** *  with N-1 (counts from 0 to period inclusive).
 702:.\Generated_Source\PSoC4/PWM_Servo.c **** *
 703:.\Generated_Source\PSoC4/PWM_Servo.c **** * Parameters:
 704:.\Generated_Source\PSoC4/PWM_Servo.c **** *  period: Period value
 705:.\Generated_Source\PSoC4/PWM_Servo.c **** *
 706:.\Generated_Source\PSoC4/PWM_Servo.c **** * Return:
 707:.\Generated_Source\PSoC4/PWM_Servo.c **** *  None
 708:.\Generated_Source\PSoC4/PWM_Servo.c **** *
 709:.\Generated_Source\PSoC4/PWM_Servo.c **** *******************************************************************************/
 710:.\Generated_Source\PSoC4/PWM_Servo.c **** void PWM_Servo_WritePeriod(uint32 period)
 711:.\Generated_Source\PSoC4/PWM_Servo.c **** {
 931              		.loc 1 711 0
 932              		.cfi_startproc
 933 0000 80B5     		push	{r7, lr}
 934              	.LCFI45:
 935              		.cfi_def_cfa_offset 8
 936              		.cfi_offset 7, -8
 937              		.cfi_offset 14, -4
 938 0002 82B0     		sub	sp, sp, #8
 939              	.LCFI46:
 940              		.cfi_def_cfa_offset 16
 941 0004 00AF     		add	r7, sp, #0
 942              	.LCFI47:
ARM GAS  C:\Users\Jared\AppData\Local\Temp\cclIiKIu.s 			page 30


 943              		.cfi_def_cfa_register 7
 944 0006 7860     		str	r0, [r7, #4]
 712:.\Generated_Source\PSoC4/PWM_Servo.c ****     PWM_Servo_PERIOD_REG = (period & PWM_Servo_16BIT_MASK);
 945              		.loc 1 712 0
 946 0008 034B     		ldr	r3, .L52
 947 000a 7A68     		ldr	r2, [r7, #4]
 948 000c 1204     		lsl	r2, r2, #16
 949 000e 120C     		lsr	r2, r2, #16
 950 0010 1A60     		str	r2, [r3]
 713:.\Generated_Source\PSoC4/PWM_Servo.c **** }
 951              		.loc 1 713 0
 952 0012 BD46     		mov	sp, r7
 953 0014 02B0     		add	sp, sp, #8
 954              		@ sp needed for prologue
 955 0016 80BD     		pop	{r7, pc}
 956              	.L53:
 957              		.align	2
 958              	.L52:
 959 0018 54010540 		.word	1074069844
 960              		.cfi_endproc
 961              	.LFE16:
 962              		.size	PWM_Servo_WritePeriod, .-PWM_Servo_WritePeriod
 963              		.section	.text.PWM_Servo_ReadPeriod,"ax",%progbits
 964              		.align	2
 965              		.global	PWM_Servo_ReadPeriod
 966              		.code	16
 967              		.thumb_func
 968              		.type	PWM_Servo_ReadPeriod, %function
 969              	PWM_Servo_ReadPeriod:
 970              	.LFB17:
 714:.\Generated_Source\PSoC4/PWM_Servo.c **** 
 715:.\Generated_Source\PSoC4/PWM_Servo.c **** 
 716:.\Generated_Source\PSoC4/PWM_Servo.c **** /*******************************************************************************
 717:.\Generated_Source\PSoC4/PWM_Servo.c **** * Function Name: PWM_Servo_ReadPeriod
 718:.\Generated_Source\PSoC4/PWM_Servo.c **** ********************************************************************************
 719:.\Generated_Source\PSoC4/PWM_Servo.c **** *
 720:.\Generated_Source\PSoC4/PWM_Servo.c **** * Summary:
 721:.\Generated_Source\PSoC4/PWM_Servo.c **** *  Reads the 16 bit period register.
 722:.\Generated_Source\PSoC4/PWM_Servo.c **** *
 723:.\Generated_Source\PSoC4/PWM_Servo.c **** * Parameters:
 724:.\Generated_Source\PSoC4/PWM_Servo.c **** *  None
 725:.\Generated_Source\PSoC4/PWM_Servo.c **** *
 726:.\Generated_Source\PSoC4/PWM_Servo.c **** * Return:
 727:.\Generated_Source\PSoC4/PWM_Servo.c **** *  Period value
 728:.\Generated_Source\PSoC4/PWM_Servo.c **** *
 729:.\Generated_Source\PSoC4/PWM_Servo.c **** *******************************************************************************/
 730:.\Generated_Source\PSoC4/PWM_Servo.c **** uint32 PWM_Servo_ReadPeriod(void)
 731:.\Generated_Source\PSoC4/PWM_Servo.c **** {
 971              		.loc 1 731 0
 972              		.cfi_startproc
 973 0000 80B5     		push	{r7, lr}
 974              	.LCFI48:
 975              		.cfi_def_cfa_offset 8
 976              		.cfi_offset 7, -8
 977              		.cfi_offset 14, -4
 978 0002 00AF     		add	r7, sp, #0
 979              	.LCFI49:
ARM GAS  C:\Users\Jared\AppData\Local\Temp\cclIiKIu.s 			page 31


 980              		.cfi_def_cfa_register 7
 732:.\Generated_Source\PSoC4/PWM_Servo.c ****     return (PWM_Servo_PERIOD_REG & PWM_Servo_16BIT_MASK);
 981              		.loc 1 732 0
 982 0004 034B     		ldr	r3, .L56
 983 0006 1B68     		ldr	r3, [r3]
 984 0008 1B04     		lsl	r3, r3, #16
 985 000a 1B0C     		lsr	r3, r3, #16
 733:.\Generated_Source\PSoC4/PWM_Servo.c **** }
 986              		.loc 1 733 0
 987 000c 181C     		mov	r0, r3
 988 000e BD46     		mov	sp, r7
 989              		@ sp needed for prologue
 990 0010 80BD     		pop	{r7, pc}
 991              	.L57:
 992 0012 C046     		.align	2
 993              	.L56:
 994 0014 54010540 		.word	1074069844
 995              		.cfi_endproc
 996              	.LFE17:
 997              		.size	PWM_Servo_ReadPeriod, .-PWM_Servo_ReadPeriod
 998              		.section	.text.PWM_Servo_SetCompareSwap,"ax",%progbits
 999              		.align	2
 1000              		.global	PWM_Servo_SetCompareSwap
 1001              		.code	16
 1002              		.thumb_func
 1003              		.type	PWM_Servo_SetCompareSwap, %function
 1004              	PWM_Servo_SetCompareSwap:
 1005              	.LFB18:
 734:.\Generated_Source\PSoC4/PWM_Servo.c **** 
 735:.\Generated_Source\PSoC4/PWM_Servo.c **** 
 736:.\Generated_Source\PSoC4/PWM_Servo.c **** /*******************************************************************************
 737:.\Generated_Source\PSoC4/PWM_Servo.c **** * Function Name: PWM_Servo_SetCompareSwap
 738:.\Generated_Source\PSoC4/PWM_Servo.c **** ********************************************************************************
 739:.\Generated_Source\PSoC4/PWM_Servo.c **** *
 740:.\Generated_Source\PSoC4/PWM_Servo.c **** * Summary:
 741:.\Generated_Source\PSoC4/PWM_Servo.c **** *  Writes the register that controls whether the compare registers are
 742:.\Generated_Source\PSoC4/PWM_Servo.c **** *  swapped. When enabled in the Timer/Counter mode(without capture) the swap
 743:.\Generated_Source\PSoC4/PWM_Servo.c **** *  occurs at a TC event. In the PWM mode the swap occurs at the next TC event
 744:.\Generated_Source\PSoC4/PWM_Servo.c **** *  following a hardware switch event.
 745:.\Generated_Source\PSoC4/PWM_Servo.c **** *
 746:.\Generated_Source\PSoC4/PWM_Servo.c **** * Parameters:
 747:.\Generated_Source\PSoC4/PWM_Servo.c **** *  swapEnable
 748:.\Generated_Source\PSoC4/PWM_Servo.c **** *   Values:
 749:.\Generated_Source\PSoC4/PWM_Servo.c **** *     - 0 - Disable swap
 750:.\Generated_Source\PSoC4/PWM_Servo.c **** *     - 1 - Enable swap
 751:.\Generated_Source\PSoC4/PWM_Servo.c **** *
 752:.\Generated_Source\PSoC4/PWM_Servo.c **** * Return:
 753:.\Generated_Source\PSoC4/PWM_Servo.c **** *  None
 754:.\Generated_Source\PSoC4/PWM_Servo.c **** *
 755:.\Generated_Source\PSoC4/PWM_Servo.c **** *******************************************************************************/
 756:.\Generated_Source\PSoC4/PWM_Servo.c **** void PWM_Servo_SetCompareSwap(uint32 swapEnable)
 757:.\Generated_Source\PSoC4/PWM_Servo.c **** {
 1006              		.loc 1 757 0
 1007              		.cfi_startproc
 1008 0000 90B5     		push	{r4, r7, lr}
 1009              	.LCFI50:
 1010              		.cfi_def_cfa_offset 12
ARM GAS  C:\Users\Jared\AppData\Local\Temp\cclIiKIu.s 			page 32


 1011              		.cfi_offset 4, -12
 1012              		.cfi_offset 7, -8
 1013              		.cfi_offset 14, -4
 1014 0002 85B0     		sub	sp, sp, #20
 1015              	.LCFI51:
 1016              		.cfi_def_cfa_offset 32
 1017 0004 00AF     		add	r7, sp, #0
 1018              	.LCFI52:
 1019              		.cfi_def_cfa_register 7
 1020 0006 7860     		str	r0, [r7, #4]
 758:.\Generated_Source\PSoC4/PWM_Servo.c ****     uint8 enableInterrupts;
 759:.\Generated_Source\PSoC4/PWM_Servo.c **** 
 760:.\Generated_Source\PSoC4/PWM_Servo.c ****     enableInterrupts = CyEnterCriticalSection();
 1021              		.loc 1 760 0
 1022 0008 3C1C     		mov	r4, r7
 1023 000a 0F34     		add	r4, r4, #15
 1024 000c FFF7FEFF 		bl	CyEnterCriticalSection
 1025 0010 031C     		mov	r3, r0
 1026 0012 2370     		strb	r3, [r4]
 761:.\Generated_Source\PSoC4/PWM_Servo.c **** 
 762:.\Generated_Source\PSoC4/PWM_Servo.c ****     PWM_Servo_CONTROL_REG &= (uint32)~PWM_Servo_RELOAD_CC_MASK;
 1027              		.loc 1 762 0
 1028 0014 0B4B     		ldr	r3, .L59
 1029 0016 0B4A     		ldr	r2, .L59
 1030 0018 1268     		ldr	r2, [r2]
 1031 001a 0121     		mov	r1, #1
 1032 001c 8A43     		bic	r2, r1
 1033 001e 1A60     		str	r2, [r3]
 763:.\Generated_Source\PSoC4/PWM_Servo.c ****     PWM_Servo_CONTROL_REG |= (swapEnable & PWM_Servo_1BIT_MASK);
 1034              		.loc 1 763 0
 1035 0020 084B     		ldr	r3, .L59
 1036 0022 084A     		ldr	r2, .L59
 1037 0024 1168     		ldr	r1, [r2]
 1038 0026 7868     		ldr	r0, [r7, #4]
 1039 0028 0122     		mov	r2, #1
 1040 002a 0240     		and	r2, r0
 1041 002c 0A43     		orr	r2, r1
 1042 002e 1A60     		str	r2, [r3]
 764:.\Generated_Source\PSoC4/PWM_Servo.c **** 
 765:.\Generated_Source\PSoC4/PWM_Servo.c ****     CyExitCriticalSection(enableInterrupts);
 1043              		.loc 1 765 0
 1044 0030 3B1C     		mov	r3, r7
 1045 0032 0F33     		add	r3, r3, #15
 1046 0034 1B78     		ldrb	r3, [r3]
 1047 0036 181C     		mov	r0, r3
 1048 0038 FFF7FEFF 		bl	CyExitCriticalSection
 766:.\Generated_Source\PSoC4/PWM_Servo.c **** }
 1049              		.loc 1 766 0
 1050 003c BD46     		mov	sp, r7
 1051 003e 05B0     		add	sp, sp, #20
 1052              		@ sp needed for prologue
 1053 0040 90BD     		pop	{r4, r7, pc}
 1054              	.L60:
 1055 0042 C046     		.align	2
 1056              	.L59:
 1057 0044 40010540 		.word	1074069824
 1058              		.cfi_endproc
ARM GAS  C:\Users\Jared\AppData\Local\Temp\cclIiKIu.s 			page 33


 1059              	.LFE18:
 1060              		.size	PWM_Servo_SetCompareSwap, .-PWM_Servo_SetCompareSwap
 1061              		.section	.text.PWM_Servo_WritePeriodBuf,"ax",%progbits
 1062              		.align	2
 1063              		.global	PWM_Servo_WritePeriodBuf
 1064              		.code	16
 1065              		.thumb_func
 1066              		.type	PWM_Servo_WritePeriodBuf, %function
 1067              	PWM_Servo_WritePeriodBuf:
 1068              	.LFB19:
 767:.\Generated_Source\PSoC4/PWM_Servo.c **** 
 768:.\Generated_Source\PSoC4/PWM_Servo.c **** 
 769:.\Generated_Source\PSoC4/PWM_Servo.c **** /*******************************************************************************
 770:.\Generated_Source\PSoC4/PWM_Servo.c **** * Function Name: PWM_Servo_WritePeriodBuf
 771:.\Generated_Source\PSoC4/PWM_Servo.c **** ********************************************************************************
 772:.\Generated_Source\PSoC4/PWM_Servo.c **** *
 773:.\Generated_Source\PSoC4/PWM_Servo.c **** * Summary:
 774:.\Generated_Source\PSoC4/PWM_Servo.c **** *  Writes the 16 bit period buf register with the new period value.
 775:.\Generated_Source\PSoC4/PWM_Servo.c **** *
 776:.\Generated_Source\PSoC4/PWM_Servo.c **** * Parameters:
 777:.\Generated_Source\PSoC4/PWM_Servo.c **** *  periodBuf: Period value
 778:.\Generated_Source\PSoC4/PWM_Servo.c **** *
 779:.\Generated_Source\PSoC4/PWM_Servo.c **** * Return:
 780:.\Generated_Source\PSoC4/PWM_Servo.c **** *  None
 781:.\Generated_Source\PSoC4/PWM_Servo.c **** *
 782:.\Generated_Source\PSoC4/PWM_Servo.c **** *******************************************************************************/
 783:.\Generated_Source\PSoC4/PWM_Servo.c **** void PWM_Servo_WritePeriodBuf(uint32 periodBuf)
 784:.\Generated_Source\PSoC4/PWM_Servo.c **** {
 1069              		.loc 1 784 0
 1070              		.cfi_startproc
 1071 0000 80B5     		push	{r7, lr}
 1072              	.LCFI53:
 1073              		.cfi_def_cfa_offset 8
 1074              		.cfi_offset 7, -8
 1075              		.cfi_offset 14, -4
 1076 0002 82B0     		sub	sp, sp, #8
 1077              	.LCFI54:
 1078              		.cfi_def_cfa_offset 16
 1079 0004 00AF     		add	r7, sp, #0
 1080              	.LCFI55:
 1081              		.cfi_def_cfa_register 7
 1082 0006 7860     		str	r0, [r7, #4]
 785:.\Generated_Source\PSoC4/PWM_Servo.c ****     PWM_Servo_PERIOD_BUF_REG = (periodBuf & PWM_Servo_16BIT_MASK);
 1083              		.loc 1 785 0
 1084 0008 034B     		ldr	r3, .L62
 1085 000a 7A68     		ldr	r2, [r7, #4]
 1086 000c 1204     		lsl	r2, r2, #16
 1087 000e 120C     		lsr	r2, r2, #16
 1088 0010 1A60     		str	r2, [r3]
 786:.\Generated_Source\PSoC4/PWM_Servo.c **** }
 1089              		.loc 1 786 0
 1090 0012 BD46     		mov	sp, r7
 1091 0014 02B0     		add	sp, sp, #8
 1092              		@ sp needed for prologue
 1093 0016 80BD     		pop	{r7, pc}
 1094              	.L63:
 1095              		.align	2
ARM GAS  C:\Users\Jared\AppData\Local\Temp\cclIiKIu.s 			page 34


 1096              	.L62:
 1097 0018 58010540 		.word	1074069848
 1098              		.cfi_endproc
 1099              	.LFE19:
 1100              		.size	PWM_Servo_WritePeriodBuf, .-PWM_Servo_WritePeriodBuf
 1101              		.section	.text.PWM_Servo_ReadPeriodBuf,"ax",%progbits
 1102              		.align	2
 1103              		.global	PWM_Servo_ReadPeriodBuf
 1104              		.code	16
 1105              		.thumb_func
 1106              		.type	PWM_Servo_ReadPeriodBuf, %function
 1107              	PWM_Servo_ReadPeriodBuf:
 1108              	.LFB20:
 787:.\Generated_Source\PSoC4/PWM_Servo.c **** 
 788:.\Generated_Source\PSoC4/PWM_Servo.c **** 
 789:.\Generated_Source\PSoC4/PWM_Servo.c **** /*******************************************************************************
 790:.\Generated_Source\PSoC4/PWM_Servo.c **** * Function Name: PWM_Servo_ReadPeriodBuf
 791:.\Generated_Source\PSoC4/PWM_Servo.c **** ********************************************************************************
 792:.\Generated_Source\PSoC4/PWM_Servo.c **** *
 793:.\Generated_Source\PSoC4/PWM_Servo.c **** * Summary:
 794:.\Generated_Source\PSoC4/PWM_Servo.c **** *  Reads the 16 bit period buf register.
 795:.\Generated_Source\PSoC4/PWM_Servo.c **** *
 796:.\Generated_Source\PSoC4/PWM_Servo.c **** * Parameters:
 797:.\Generated_Source\PSoC4/PWM_Servo.c **** *  None
 798:.\Generated_Source\PSoC4/PWM_Servo.c **** *
 799:.\Generated_Source\PSoC4/PWM_Servo.c **** * Return:
 800:.\Generated_Source\PSoC4/PWM_Servo.c **** *  Period value
 801:.\Generated_Source\PSoC4/PWM_Servo.c **** *
 802:.\Generated_Source\PSoC4/PWM_Servo.c **** *******************************************************************************/
 803:.\Generated_Source\PSoC4/PWM_Servo.c **** uint32 PWM_Servo_ReadPeriodBuf(void)
 804:.\Generated_Source\PSoC4/PWM_Servo.c **** {
 1109              		.loc 1 804 0
 1110              		.cfi_startproc
 1111 0000 80B5     		push	{r7, lr}
 1112              	.LCFI56:
 1113              		.cfi_def_cfa_offset 8
 1114              		.cfi_offset 7, -8
 1115              		.cfi_offset 14, -4
 1116 0002 00AF     		add	r7, sp, #0
 1117              	.LCFI57:
 1118              		.cfi_def_cfa_register 7
 805:.\Generated_Source\PSoC4/PWM_Servo.c ****     return (PWM_Servo_PERIOD_BUF_REG & PWM_Servo_16BIT_MASK);
 1119              		.loc 1 805 0
 1120 0004 034B     		ldr	r3, .L66
 1121 0006 1B68     		ldr	r3, [r3]
 1122 0008 1B04     		lsl	r3, r3, #16
 1123 000a 1B0C     		lsr	r3, r3, #16
 806:.\Generated_Source\PSoC4/PWM_Servo.c **** }
 1124              		.loc 1 806 0
 1125 000c 181C     		mov	r0, r3
 1126 000e BD46     		mov	sp, r7
 1127              		@ sp needed for prologue
 1128 0010 80BD     		pop	{r7, pc}
 1129              	.L67:
 1130 0012 C046     		.align	2
 1131              	.L66:
 1132 0014 58010540 		.word	1074069848
ARM GAS  C:\Users\Jared\AppData\Local\Temp\cclIiKIu.s 			page 35


 1133              		.cfi_endproc
 1134              	.LFE20:
 1135              		.size	PWM_Servo_ReadPeriodBuf, .-PWM_Servo_ReadPeriodBuf
 1136              		.section	.text.PWM_Servo_SetPeriodSwap,"ax",%progbits
 1137              		.align	2
 1138              		.global	PWM_Servo_SetPeriodSwap
 1139              		.code	16
 1140              		.thumb_func
 1141              		.type	PWM_Servo_SetPeriodSwap, %function
 1142              	PWM_Servo_SetPeriodSwap:
 1143              	.LFB21:
 807:.\Generated_Source\PSoC4/PWM_Servo.c **** 
 808:.\Generated_Source\PSoC4/PWM_Servo.c **** 
 809:.\Generated_Source\PSoC4/PWM_Servo.c **** /*******************************************************************************
 810:.\Generated_Source\PSoC4/PWM_Servo.c **** * Function Name: PWM_Servo_SetPeriodSwap
 811:.\Generated_Source\PSoC4/PWM_Servo.c **** ********************************************************************************
 812:.\Generated_Source\PSoC4/PWM_Servo.c **** *
 813:.\Generated_Source\PSoC4/PWM_Servo.c **** * Summary:
 814:.\Generated_Source\PSoC4/PWM_Servo.c **** *  Writes the register that controls whether the period registers are
 815:.\Generated_Source\PSoC4/PWM_Servo.c **** *  swapped. When enabled in Timer/Counter mode the swap occurs at a TC event.
 816:.\Generated_Source\PSoC4/PWM_Servo.c **** *  In the PWM mode the swap occurs at the next TC event following a hardware
 817:.\Generated_Source\PSoC4/PWM_Servo.c **** *  switch event.
 818:.\Generated_Source\PSoC4/PWM_Servo.c **** *
 819:.\Generated_Source\PSoC4/PWM_Servo.c **** * Parameters:
 820:.\Generated_Source\PSoC4/PWM_Servo.c **** *  swapEnable
 821:.\Generated_Source\PSoC4/PWM_Servo.c **** *   Values:
 822:.\Generated_Source\PSoC4/PWM_Servo.c **** *     - 0 - Disable swap
 823:.\Generated_Source\PSoC4/PWM_Servo.c **** *     - 1 - Enable swap
 824:.\Generated_Source\PSoC4/PWM_Servo.c **** *
 825:.\Generated_Source\PSoC4/PWM_Servo.c **** * Return:
 826:.\Generated_Source\PSoC4/PWM_Servo.c **** *  None
 827:.\Generated_Source\PSoC4/PWM_Servo.c **** *
 828:.\Generated_Source\PSoC4/PWM_Servo.c **** *******************************************************************************/
 829:.\Generated_Source\PSoC4/PWM_Servo.c **** void PWM_Servo_SetPeriodSwap(uint32 swapEnable)
 830:.\Generated_Source\PSoC4/PWM_Servo.c **** {
 1144              		.loc 1 830 0
 1145              		.cfi_startproc
 1146 0000 90B5     		push	{r4, r7, lr}
 1147              	.LCFI58:
 1148              		.cfi_def_cfa_offset 12
 1149              		.cfi_offset 4, -12
 1150              		.cfi_offset 7, -8
 1151              		.cfi_offset 14, -4
 1152 0002 85B0     		sub	sp, sp, #20
 1153              	.LCFI59:
 1154              		.cfi_def_cfa_offset 32
 1155 0004 00AF     		add	r7, sp, #0
 1156              	.LCFI60:
 1157              		.cfi_def_cfa_register 7
 1158 0006 7860     		str	r0, [r7, #4]
 831:.\Generated_Source\PSoC4/PWM_Servo.c ****     uint8 enableInterrupts;
 832:.\Generated_Source\PSoC4/PWM_Servo.c **** 
 833:.\Generated_Source\PSoC4/PWM_Servo.c ****     enableInterrupts = CyEnterCriticalSection();
 1159              		.loc 1 833 0
 1160 0008 3C1C     		mov	r4, r7
 1161 000a 0F34     		add	r4, r4, #15
 1162 000c FFF7FEFF 		bl	CyEnterCriticalSection
ARM GAS  C:\Users\Jared\AppData\Local\Temp\cclIiKIu.s 			page 36


 1163 0010 031C     		mov	r3, r0
 1164 0012 2370     		strb	r3, [r4]
 834:.\Generated_Source\PSoC4/PWM_Servo.c **** 
 835:.\Generated_Source\PSoC4/PWM_Servo.c ****     PWM_Servo_CONTROL_REG &= (uint32)~PWM_Servo_RELOAD_PERIOD_MASK;
 1165              		.loc 1 835 0
 1166 0014 0B4B     		ldr	r3, .L69
 1167 0016 0B4A     		ldr	r2, .L69
 1168 0018 1268     		ldr	r2, [r2]
 1169 001a 0221     		mov	r1, #2
 1170 001c 8A43     		bic	r2, r1
 1171 001e 1A60     		str	r2, [r3]
 836:.\Generated_Source\PSoC4/PWM_Servo.c ****     PWM_Servo_CONTROL_REG |= ((uint32)((swapEnable & PWM_Servo_1BIT_MASK) <<
 1172              		.loc 1 836 0
 1173 0020 084B     		ldr	r3, .L69
 1174 0022 084A     		ldr	r2, .L69
 1175 0024 1168     		ldr	r1, [r2]
 1176 0026 7868     		ldr	r0, [r7, #4]
 1177 0028 0122     		mov	r2, #1
 1178 002a 0240     		and	r2, r0
 1179 002c 5200     		lsl	r2, r2, #1
 1180 002e 0A43     		orr	r2, r1
 1181 0030 1A60     		str	r2, [r3]
 837:.\Generated_Source\PSoC4/PWM_Servo.c ****                                                             PWM_Servo_RELOAD_PERIOD_SHIFT));
 838:.\Generated_Source\PSoC4/PWM_Servo.c **** 
 839:.\Generated_Source\PSoC4/PWM_Servo.c ****     CyExitCriticalSection(enableInterrupts);
 1182              		.loc 1 839 0
 1183 0032 3B1C     		mov	r3, r7
 1184 0034 0F33     		add	r3, r3, #15
 1185 0036 1B78     		ldrb	r3, [r3]
 1186 0038 181C     		mov	r0, r3
 1187 003a FFF7FEFF 		bl	CyExitCriticalSection
 840:.\Generated_Source\PSoC4/PWM_Servo.c **** }
 1188              		.loc 1 840 0
 1189 003e BD46     		mov	sp, r7
 1190 0040 05B0     		add	sp, sp, #20
 1191              		@ sp needed for prologue
 1192 0042 90BD     		pop	{r4, r7, pc}
 1193              	.L70:
 1194              		.align	2
 1195              	.L69:
 1196 0044 40010540 		.word	1074069824
 1197              		.cfi_endproc
 1198              	.LFE21:
 1199              		.size	PWM_Servo_SetPeriodSwap, .-PWM_Servo_SetPeriodSwap
 1200              		.section	.text.PWM_Servo_WriteCompare,"ax",%progbits
 1201              		.align	2
 1202              		.global	PWM_Servo_WriteCompare
 1203              		.code	16
 1204              		.thumb_func
 1205              		.type	PWM_Servo_WriteCompare, %function
 1206              	PWM_Servo_WriteCompare:
 1207              	.LFB22:
 841:.\Generated_Source\PSoC4/PWM_Servo.c **** 
 842:.\Generated_Source\PSoC4/PWM_Servo.c **** 
 843:.\Generated_Source\PSoC4/PWM_Servo.c **** /*******************************************************************************
 844:.\Generated_Source\PSoC4/PWM_Servo.c **** * Function Name: PWM_Servo_WriteCompare
 845:.\Generated_Source\PSoC4/PWM_Servo.c **** ********************************************************************************
ARM GAS  C:\Users\Jared\AppData\Local\Temp\cclIiKIu.s 			page 37


 846:.\Generated_Source\PSoC4/PWM_Servo.c **** *
 847:.\Generated_Source\PSoC4/PWM_Servo.c **** * Summary:
 848:.\Generated_Source\PSoC4/PWM_Servo.c **** *  Writes the 16 bit compare register with the new compare value. Not
 849:.\Generated_Source\PSoC4/PWM_Servo.c **** *  applicable for Timer/Counter with Capture or in Quadrature Decoder modes.
 850:.\Generated_Source\PSoC4/PWM_Servo.c **** *
 851:.\Generated_Source\PSoC4/PWM_Servo.c **** * Parameters:
 852:.\Generated_Source\PSoC4/PWM_Servo.c **** *  compare: Compare value
 853:.\Generated_Source\PSoC4/PWM_Servo.c **** *
 854:.\Generated_Source\PSoC4/PWM_Servo.c **** * Return:
 855:.\Generated_Source\PSoC4/PWM_Servo.c **** *  None
 856:.\Generated_Source\PSoC4/PWM_Servo.c **** *
 857:.\Generated_Source\PSoC4/PWM_Servo.c **** *******************************************************************************/
 858:.\Generated_Source\PSoC4/PWM_Servo.c **** void PWM_Servo_WriteCompare(uint32 compare)
 859:.\Generated_Source\PSoC4/PWM_Servo.c **** {
 1208              		.loc 1 859 0
 1209              		.cfi_startproc
 1210 0000 80B5     		push	{r7, lr}
 1211              	.LCFI61:
 1212              		.cfi_def_cfa_offset 8
 1213              		.cfi_offset 7, -8
 1214              		.cfi_offset 14, -4
 1215 0002 82B0     		sub	sp, sp, #8
 1216              	.LCFI62:
 1217              		.cfi_def_cfa_offset 16
 1218 0004 00AF     		add	r7, sp, #0
 1219              	.LCFI63:
 1220              		.cfi_def_cfa_register 7
 1221 0006 7860     		str	r0, [r7, #4]
 860:.\Generated_Source\PSoC4/PWM_Servo.c ****     #if (PWM_Servo_CY_TCPWM_V2)
 861:.\Generated_Source\PSoC4/PWM_Servo.c ****         uint32 currentMode;
 862:.\Generated_Source\PSoC4/PWM_Servo.c ****     #endif /* (PWM_Servo_CY_TCPWM_V2) */
 863:.\Generated_Source\PSoC4/PWM_Servo.c **** 
 864:.\Generated_Source\PSoC4/PWM_Servo.c ****     #if (PWM_Servo_CY_TCPWM_V2)
 865:.\Generated_Source\PSoC4/PWM_Servo.c ****         currentMode = ((PWM_Servo_CONTROL_REG & PWM_Servo_UPDOWN_MASK) >> PWM_Servo_UPDOWN_SHIFT);
 866:.\Generated_Source\PSoC4/PWM_Servo.c **** 
 867:.\Generated_Source\PSoC4/PWM_Servo.c ****         if (PWM_Servo__COUNT_DOWN == currentMode)
 868:.\Generated_Source\PSoC4/PWM_Servo.c ****         {
 869:.\Generated_Source\PSoC4/PWM_Servo.c ****             PWM_Servo_COMP_CAP_REG = ((compare + 1u) & PWM_Servo_16BIT_MASK);
 870:.\Generated_Source\PSoC4/PWM_Servo.c ****         }
 871:.\Generated_Source\PSoC4/PWM_Servo.c ****         else if (PWM_Servo__COUNT_UP == currentMode)
 872:.\Generated_Source\PSoC4/PWM_Servo.c ****         {
 873:.\Generated_Source\PSoC4/PWM_Servo.c ****             PWM_Servo_COMP_CAP_REG = ((compare - 1u) & PWM_Servo_16BIT_MASK);
 874:.\Generated_Source\PSoC4/PWM_Servo.c ****         }
 875:.\Generated_Source\PSoC4/PWM_Servo.c ****         else
 876:.\Generated_Source\PSoC4/PWM_Servo.c ****         {
 877:.\Generated_Source\PSoC4/PWM_Servo.c ****             PWM_Servo_COMP_CAP_REG = (compare & PWM_Servo_16BIT_MASK);
 878:.\Generated_Source\PSoC4/PWM_Servo.c ****         }
 879:.\Generated_Source\PSoC4/PWM_Servo.c ****     #else
 880:.\Generated_Source\PSoC4/PWM_Servo.c ****         PWM_Servo_COMP_CAP_REG = (compare & PWM_Servo_16BIT_MASK);
 1222              		.loc 1 880 0
 1223 0008 034B     		ldr	r3, .L72
 1224 000a 7A68     		ldr	r2, [r7, #4]
 1225 000c 1204     		lsl	r2, r2, #16
 1226 000e 120C     		lsr	r2, r2, #16
 1227 0010 1A60     		str	r2, [r3]
 881:.\Generated_Source\PSoC4/PWM_Servo.c ****     #endif /* (PWM_Servo_CY_TCPWM_V2) */
 882:.\Generated_Source\PSoC4/PWM_Servo.c **** }
ARM GAS  C:\Users\Jared\AppData\Local\Temp\cclIiKIu.s 			page 38


 1228              		.loc 1 882 0
 1229 0012 BD46     		mov	sp, r7
 1230 0014 02B0     		add	sp, sp, #8
 1231              		@ sp needed for prologue
 1232 0016 80BD     		pop	{r7, pc}
 1233              	.L73:
 1234              		.align	2
 1235              	.L72:
 1236 0018 4C010540 		.word	1074069836
 1237              		.cfi_endproc
 1238              	.LFE22:
 1239              		.size	PWM_Servo_WriteCompare, .-PWM_Servo_WriteCompare
 1240              		.section	.text.PWM_Servo_ReadCompare,"ax",%progbits
 1241              		.align	2
 1242              		.global	PWM_Servo_ReadCompare
 1243              		.code	16
 1244              		.thumb_func
 1245              		.type	PWM_Servo_ReadCompare, %function
 1246              	PWM_Servo_ReadCompare:
 1247              	.LFB23:
 883:.\Generated_Source\PSoC4/PWM_Servo.c **** 
 884:.\Generated_Source\PSoC4/PWM_Servo.c **** 
 885:.\Generated_Source\PSoC4/PWM_Servo.c **** /*******************************************************************************
 886:.\Generated_Source\PSoC4/PWM_Servo.c **** * Function Name: PWM_Servo_ReadCompare
 887:.\Generated_Source\PSoC4/PWM_Servo.c **** ********************************************************************************
 888:.\Generated_Source\PSoC4/PWM_Servo.c **** *
 889:.\Generated_Source\PSoC4/PWM_Servo.c **** * Summary:
 890:.\Generated_Source\PSoC4/PWM_Servo.c **** *  Reads the compare register. Not applicable for Timer/Counter with Capture
 891:.\Generated_Source\PSoC4/PWM_Servo.c **** *  or in Quadrature Decoder modes.
 892:.\Generated_Source\PSoC4/PWM_Servo.c **** *
 893:.\Generated_Source\PSoC4/PWM_Servo.c **** * Parameters:
 894:.\Generated_Source\PSoC4/PWM_Servo.c **** *  None
 895:.\Generated_Source\PSoC4/PWM_Servo.c **** *
 896:.\Generated_Source\PSoC4/PWM_Servo.c **** * Return:
 897:.\Generated_Source\PSoC4/PWM_Servo.c **** *  Compare value
 898:.\Generated_Source\PSoC4/PWM_Servo.c **** *
 899:.\Generated_Source\PSoC4/PWM_Servo.c **** *******************************************************************************/
 900:.\Generated_Source\PSoC4/PWM_Servo.c **** uint32 PWM_Servo_ReadCompare(void)
 901:.\Generated_Source\PSoC4/PWM_Servo.c **** {
 1248              		.loc 1 901 0
 1249              		.cfi_startproc
 1250 0000 80B5     		push	{r7, lr}
 1251              	.LCFI64:
 1252              		.cfi_def_cfa_offset 8
 1253              		.cfi_offset 7, -8
 1254              		.cfi_offset 14, -4
 1255 0002 00AF     		add	r7, sp, #0
 1256              	.LCFI65:
 1257              		.cfi_def_cfa_register 7
 902:.\Generated_Source\PSoC4/PWM_Servo.c ****     #if (PWM_Servo_CY_TCPWM_V2)
 903:.\Generated_Source\PSoC4/PWM_Servo.c ****         uint32 currentMode;
 904:.\Generated_Source\PSoC4/PWM_Servo.c ****         uint32 regVal;
 905:.\Generated_Source\PSoC4/PWM_Servo.c ****     #endif /* (PWM_Servo_CY_TCPWM_V2) */
 906:.\Generated_Source\PSoC4/PWM_Servo.c **** 
 907:.\Generated_Source\PSoC4/PWM_Servo.c ****     #if (PWM_Servo_CY_TCPWM_V2)
 908:.\Generated_Source\PSoC4/PWM_Servo.c ****         currentMode = ((PWM_Servo_CONTROL_REG & PWM_Servo_UPDOWN_MASK) >> PWM_Servo_UPDOWN_SHIFT);
 909:.\Generated_Source\PSoC4/PWM_Servo.c **** 
ARM GAS  C:\Users\Jared\AppData\Local\Temp\cclIiKIu.s 			page 39


 910:.\Generated_Source\PSoC4/PWM_Servo.c ****         if (PWM_Servo__COUNT_DOWN == currentMode)
 911:.\Generated_Source\PSoC4/PWM_Servo.c ****         {
 912:.\Generated_Source\PSoC4/PWM_Servo.c ****             regVal = ((PWM_Servo_COMP_CAP_REG - 1u) & PWM_Servo_16BIT_MASK);
 913:.\Generated_Source\PSoC4/PWM_Servo.c ****         }
 914:.\Generated_Source\PSoC4/PWM_Servo.c ****         else if (PWM_Servo__COUNT_UP == currentMode)
 915:.\Generated_Source\PSoC4/PWM_Servo.c ****         {
 916:.\Generated_Source\PSoC4/PWM_Servo.c ****             regVal = ((PWM_Servo_COMP_CAP_REG + 1u) & PWM_Servo_16BIT_MASK);
 917:.\Generated_Source\PSoC4/PWM_Servo.c ****         }
 918:.\Generated_Source\PSoC4/PWM_Servo.c ****         else
 919:.\Generated_Source\PSoC4/PWM_Servo.c ****         {
 920:.\Generated_Source\PSoC4/PWM_Servo.c ****             regVal = (PWM_Servo_COMP_CAP_REG & PWM_Servo_16BIT_MASK);
 921:.\Generated_Source\PSoC4/PWM_Servo.c ****         }
 922:.\Generated_Source\PSoC4/PWM_Servo.c ****         return (regVal);
 923:.\Generated_Source\PSoC4/PWM_Servo.c ****     #else
 924:.\Generated_Source\PSoC4/PWM_Servo.c ****         return (PWM_Servo_COMP_CAP_REG & PWM_Servo_16BIT_MASK);
 1258              		.loc 1 924 0
 1259 0004 034B     		ldr	r3, .L76
 1260 0006 1B68     		ldr	r3, [r3]
 1261 0008 1B04     		lsl	r3, r3, #16
 1262 000a 1B0C     		lsr	r3, r3, #16
 925:.\Generated_Source\PSoC4/PWM_Servo.c ****     #endif /* (PWM_Servo_CY_TCPWM_V2) */
 926:.\Generated_Source\PSoC4/PWM_Servo.c **** }
 1263              		.loc 1 926 0
 1264 000c 181C     		mov	r0, r3
 1265 000e BD46     		mov	sp, r7
 1266              		@ sp needed for prologue
 1267 0010 80BD     		pop	{r7, pc}
 1268              	.L77:
 1269 0012 C046     		.align	2
 1270              	.L76:
 1271 0014 4C010540 		.word	1074069836
 1272              		.cfi_endproc
 1273              	.LFE23:
 1274              		.size	PWM_Servo_ReadCompare, .-PWM_Servo_ReadCompare
 1275              		.section	.text.PWM_Servo_WriteCompareBuf,"ax",%progbits
 1276              		.align	2
 1277              		.global	PWM_Servo_WriteCompareBuf
 1278              		.code	16
 1279              		.thumb_func
 1280              		.type	PWM_Servo_WriteCompareBuf, %function
 1281              	PWM_Servo_WriteCompareBuf:
 1282              	.LFB24:
 927:.\Generated_Source\PSoC4/PWM_Servo.c **** 
 928:.\Generated_Source\PSoC4/PWM_Servo.c **** 
 929:.\Generated_Source\PSoC4/PWM_Servo.c **** /*******************************************************************************
 930:.\Generated_Source\PSoC4/PWM_Servo.c **** * Function Name: PWM_Servo_WriteCompareBuf
 931:.\Generated_Source\PSoC4/PWM_Servo.c **** ********************************************************************************
 932:.\Generated_Source\PSoC4/PWM_Servo.c **** *
 933:.\Generated_Source\PSoC4/PWM_Servo.c **** * Summary:
 934:.\Generated_Source\PSoC4/PWM_Servo.c **** *  Writes the 16 bit compare buffer register with the new compare value. Not
 935:.\Generated_Source\PSoC4/PWM_Servo.c **** *  applicable for Timer/Counter with Capture or in Quadrature Decoder modes.
 936:.\Generated_Source\PSoC4/PWM_Servo.c **** *
 937:.\Generated_Source\PSoC4/PWM_Servo.c **** * Parameters:
 938:.\Generated_Source\PSoC4/PWM_Servo.c **** *  compareBuf: Compare value
 939:.\Generated_Source\PSoC4/PWM_Servo.c **** *
 940:.\Generated_Source\PSoC4/PWM_Servo.c **** * Return:
 941:.\Generated_Source\PSoC4/PWM_Servo.c **** *  None
ARM GAS  C:\Users\Jared\AppData\Local\Temp\cclIiKIu.s 			page 40


 942:.\Generated_Source\PSoC4/PWM_Servo.c **** *
 943:.\Generated_Source\PSoC4/PWM_Servo.c **** *******************************************************************************/
 944:.\Generated_Source\PSoC4/PWM_Servo.c **** void PWM_Servo_WriteCompareBuf(uint32 compareBuf)
 945:.\Generated_Source\PSoC4/PWM_Servo.c **** {
 1283              		.loc 1 945 0
 1284              		.cfi_startproc
 1285 0000 80B5     		push	{r7, lr}
 1286              	.LCFI66:
 1287              		.cfi_def_cfa_offset 8
 1288              		.cfi_offset 7, -8
 1289              		.cfi_offset 14, -4
 1290 0002 82B0     		sub	sp, sp, #8
 1291              	.LCFI67:
 1292              		.cfi_def_cfa_offset 16
 1293 0004 00AF     		add	r7, sp, #0
 1294              	.LCFI68:
 1295              		.cfi_def_cfa_register 7
 1296 0006 7860     		str	r0, [r7, #4]
 946:.\Generated_Source\PSoC4/PWM_Servo.c ****     #if (PWM_Servo_CY_TCPWM_V2)
 947:.\Generated_Source\PSoC4/PWM_Servo.c ****         uint32 currentMode;
 948:.\Generated_Source\PSoC4/PWM_Servo.c ****     #endif /* (PWM_Servo_CY_TCPWM_V2) */
 949:.\Generated_Source\PSoC4/PWM_Servo.c **** 
 950:.\Generated_Source\PSoC4/PWM_Servo.c ****     #if (PWM_Servo_CY_TCPWM_V2)
 951:.\Generated_Source\PSoC4/PWM_Servo.c ****         currentMode = ((PWM_Servo_CONTROL_REG & PWM_Servo_UPDOWN_MASK) >> PWM_Servo_UPDOWN_SHIFT);
 952:.\Generated_Source\PSoC4/PWM_Servo.c **** 
 953:.\Generated_Source\PSoC4/PWM_Servo.c ****         if (PWM_Servo__COUNT_DOWN == currentMode)
 954:.\Generated_Source\PSoC4/PWM_Servo.c ****         {
 955:.\Generated_Source\PSoC4/PWM_Servo.c ****             PWM_Servo_COMP_CAP_BUF_REG = ((compareBuf + 1u) & PWM_Servo_16BIT_MASK);
 956:.\Generated_Source\PSoC4/PWM_Servo.c ****         }
 957:.\Generated_Source\PSoC4/PWM_Servo.c ****         else if (PWM_Servo__COUNT_UP == currentMode)
 958:.\Generated_Source\PSoC4/PWM_Servo.c ****         {
 959:.\Generated_Source\PSoC4/PWM_Servo.c ****             PWM_Servo_COMP_CAP_BUF_REG = ((compareBuf - 1u) & PWM_Servo_16BIT_MASK);
 960:.\Generated_Source\PSoC4/PWM_Servo.c ****         }
 961:.\Generated_Source\PSoC4/PWM_Servo.c ****         else
 962:.\Generated_Source\PSoC4/PWM_Servo.c ****         {
 963:.\Generated_Source\PSoC4/PWM_Servo.c ****             PWM_Servo_COMP_CAP_BUF_REG = (compareBuf & PWM_Servo_16BIT_MASK);
 964:.\Generated_Source\PSoC4/PWM_Servo.c ****         }
 965:.\Generated_Source\PSoC4/PWM_Servo.c ****     #else
 966:.\Generated_Source\PSoC4/PWM_Servo.c ****         PWM_Servo_COMP_CAP_BUF_REG = (compareBuf & PWM_Servo_16BIT_MASK);
 1297              		.loc 1 966 0
 1298 0008 034B     		ldr	r3, .L79
 1299 000a 7A68     		ldr	r2, [r7, #4]
 1300 000c 1204     		lsl	r2, r2, #16
 1301 000e 120C     		lsr	r2, r2, #16
 1302 0010 1A60     		str	r2, [r3]
 967:.\Generated_Source\PSoC4/PWM_Servo.c ****     #endif /* (PWM_Servo_CY_TCPWM_V2) */
 968:.\Generated_Source\PSoC4/PWM_Servo.c **** }
 1303              		.loc 1 968 0
 1304 0012 BD46     		mov	sp, r7
 1305 0014 02B0     		add	sp, sp, #8
 1306              		@ sp needed for prologue
 1307 0016 80BD     		pop	{r7, pc}
 1308              	.L80:
 1309              		.align	2
 1310              	.L79:
 1311 0018 50010540 		.word	1074069840
 1312              		.cfi_endproc
ARM GAS  C:\Users\Jared\AppData\Local\Temp\cclIiKIu.s 			page 41


 1313              	.LFE24:
 1314              		.size	PWM_Servo_WriteCompareBuf, .-PWM_Servo_WriteCompareBuf
 1315              		.section	.text.PWM_Servo_ReadCompareBuf,"ax",%progbits
 1316              		.align	2
 1317              		.global	PWM_Servo_ReadCompareBuf
 1318              		.code	16
 1319              		.thumb_func
 1320              		.type	PWM_Servo_ReadCompareBuf, %function
 1321              	PWM_Servo_ReadCompareBuf:
 1322              	.LFB25:
 969:.\Generated_Source\PSoC4/PWM_Servo.c **** 
 970:.\Generated_Source\PSoC4/PWM_Servo.c **** 
 971:.\Generated_Source\PSoC4/PWM_Servo.c **** /*******************************************************************************
 972:.\Generated_Source\PSoC4/PWM_Servo.c **** * Function Name: PWM_Servo_ReadCompareBuf
 973:.\Generated_Source\PSoC4/PWM_Servo.c **** ********************************************************************************
 974:.\Generated_Source\PSoC4/PWM_Servo.c **** *
 975:.\Generated_Source\PSoC4/PWM_Servo.c **** * Summary:
 976:.\Generated_Source\PSoC4/PWM_Servo.c **** *  Reads the compare buffer register. Not applicable for Timer/Counter with
 977:.\Generated_Source\PSoC4/PWM_Servo.c **** *  Capture or in Quadrature Decoder modes.
 978:.\Generated_Source\PSoC4/PWM_Servo.c **** *
 979:.\Generated_Source\PSoC4/PWM_Servo.c **** * Parameters:
 980:.\Generated_Source\PSoC4/PWM_Servo.c **** *  None
 981:.\Generated_Source\PSoC4/PWM_Servo.c **** *
 982:.\Generated_Source\PSoC4/PWM_Servo.c **** * Return:
 983:.\Generated_Source\PSoC4/PWM_Servo.c **** *  Compare buffer value
 984:.\Generated_Source\PSoC4/PWM_Servo.c **** *
 985:.\Generated_Source\PSoC4/PWM_Servo.c **** *******************************************************************************/
 986:.\Generated_Source\PSoC4/PWM_Servo.c **** uint32 PWM_Servo_ReadCompareBuf(void)
 987:.\Generated_Source\PSoC4/PWM_Servo.c **** {
 1323              		.loc 1 987 0
 1324              		.cfi_startproc
 1325 0000 80B5     		push	{r7, lr}
 1326              	.LCFI69:
 1327              		.cfi_def_cfa_offset 8
 1328              		.cfi_offset 7, -8
 1329              		.cfi_offset 14, -4
 1330 0002 00AF     		add	r7, sp, #0
 1331              	.LCFI70:
 1332              		.cfi_def_cfa_register 7
 988:.\Generated_Source\PSoC4/PWM_Servo.c ****     #if (PWM_Servo_CY_TCPWM_V2)
 989:.\Generated_Source\PSoC4/PWM_Servo.c ****         uint32 currentMode;
 990:.\Generated_Source\PSoC4/PWM_Servo.c ****         uint32 regVal;
 991:.\Generated_Source\PSoC4/PWM_Servo.c ****     #endif /* (PWM_Servo_CY_TCPWM_V2) */
 992:.\Generated_Source\PSoC4/PWM_Servo.c **** 
 993:.\Generated_Source\PSoC4/PWM_Servo.c ****     #if (PWM_Servo_CY_TCPWM_V2)
 994:.\Generated_Source\PSoC4/PWM_Servo.c ****         currentMode = ((PWM_Servo_CONTROL_REG & PWM_Servo_UPDOWN_MASK) >> PWM_Servo_UPDOWN_SHIFT);
 995:.\Generated_Source\PSoC4/PWM_Servo.c **** 
 996:.\Generated_Source\PSoC4/PWM_Servo.c ****         if (PWM_Servo__COUNT_DOWN == currentMode)
 997:.\Generated_Source\PSoC4/PWM_Servo.c ****         {
 998:.\Generated_Source\PSoC4/PWM_Servo.c ****             regVal = ((PWM_Servo_COMP_CAP_BUF_REG - 1u) & PWM_Servo_16BIT_MASK);
 999:.\Generated_Source\PSoC4/PWM_Servo.c ****         }
1000:.\Generated_Source\PSoC4/PWM_Servo.c ****         else if (PWM_Servo__COUNT_UP == currentMode)
1001:.\Generated_Source\PSoC4/PWM_Servo.c ****         {
1002:.\Generated_Source\PSoC4/PWM_Servo.c ****             regVal = ((PWM_Servo_COMP_CAP_BUF_REG + 1u) & PWM_Servo_16BIT_MASK);
1003:.\Generated_Source\PSoC4/PWM_Servo.c ****         }
1004:.\Generated_Source\PSoC4/PWM_Servo.c ****         else
1005:.\Generated_Source\PSoC4/PWM_Servo.c ****         {
ARM GAS  C:\Users\Jared\AppData\Local\Temp\cclIiKIu.s 			page 42


1006:.\Generated_Source\PSoC4/PWM_Servo.c ****             regVal = (PWM_Servo_COMP_CAP_BUF_REG & PWM_Servo_16BIT_MASK);
1007:.\Generated_Source\PSoC4/PWM_Servo.c ****         }
1008:.\Generated_Source\PSoC4/PWM_Servo.c ****         return (regVal);
1009:.\Generated_Source\PSoC4/PWM_Servo.c ****     #else
1010:.\Generated_Source\PSoC4/PWM_Servo.c ****         return (PWM_Servo_COMP_CAP_BUF_REG & PWM_Servo_16BIT_MASK);
 1333              		.loc 1 1010 0
 1334 0004 034B     		ldr	r3, .L83
 1335 0006 1B68     		ldr	r3, [r3]
 1336 0008 1B04     		lsl	r3, r3, #16
 1337 000a 1B0C     		lsr	r3, r3, #16
1011:.\Generated_Source\PSoC4/PWM_Servo.c ****     #endif /* (PWM_Servo_CY_TCPWM_V2) */
1012:.\Generated_Source\PSoC4/PWM_Servo.c **** }
 1338              		.loc 1 1012 0
 1339 000c 181C     		mov	r0, r3
 1340 000e BD46     		mov	sp, r7
 1341              		@ sp needed for prologue
 1342 0010 80BD     		pop	{r7, pc}
 1343              	.L84:
 1344 0012 C046     		.align	2
 1345              	.L83:
 1346 0014 50010540 		.word	1074069840
 1347              		.cfi_endproc
 1348              	.LFE25:
 1349              		.size	PWM_Servo_ReadCompareBuf, .-PWM_Servo_ReadCompareBuf
 1350              		.section	.text.PWM_Servo_ReadCapture,"ax",%progbits
 1351              		.align	2
 1352              		.global	PWM_Servo_ReadCapture
 1353              		.code	16
 1354              		.thumb_func
 1355              		.type	PWM_Servo_ReadCapture, %function
 1356              	PWM_Servo_ReadCapture:
 1357              	.LFB26:
1013:.\Generated_Source\PSoC4/PWM_Servo.c **** 
1014:.\Generated_Source\PSoC4/PWM_Servo.c **** 
1015:.\Generated_Source\PSoC4/PWM_Servo.c **** /*******************************************************************************
1016:.\Generated_Source\PSoC4/PWM_Servo.c **** * Function Name: PWM_Servo_ReadCapture
1017:.\Generated_Source\PSoC4/PWM_Servo.c **** ********************************************************************************
1018:.\Generated_Source\PSoC4/PWM_Servo.c **** *
1019:.\Generated_Source\PSoC4/PWM_Servo.c **** * Summary:
1020:.\Generated_Source\PSoC4/PWM_Servo.c **** *  Reads the captured counter value. This API is applicable only for
1021:.\Generated_Source\PSoC4/PWM_Servo.c **** *  Timer/Counter with the capture mode and Quadrature Decoder modes.
1022:.\Generated_Source\PSoC4/PWM_Servo.c **** *
1023:.\Generated_Source\PSoC4/PWM_Servo.c **** * Parameters:
1024:.\Generated_Source\PSoC4/PWM_Servo.c **** *  None
1025:.\Generated_Source\PSoC4/PWM_Servo.c **** *
1026:.\Generated_Source\PSoC4/PWM_Servo.c **** * Return:
1027:.\Generated_Source\PSoC4/PWM_Servo.c **** *  Capture value
1028:.\Generated_Source\PSoC4/PWM_Servo.c **** *
1029:.\Generated_Source\PSoC4/PWM_Servo.c **** *******************************************************************************/
1030:.\Generated_Source\PSoC4/PWM_Servo.c **** uint32 PWM_Servo_ReadCapture(void)
1031:.\Generated_Source\PSoC4/PWM_Servo.c **** {
 1358              		.loc 1 1031 0
 1359              		.cfi_startproc
 1360 0000 80B5     		push	{r7, lr}
 1361              	.LCFI71:
 1362              		.cfi_def_cfa_offset 8
 1363              		.cfi_offset 7, -8
ARM GAS  C:\Users\Jared\AppData\Local\Temp\cclIiKIu.s 			page 43


 1364              		.cfi_offset 14, -4
 1365 0002 00AF     		add	r7, sp, #0
 1366              	.LCFI72:
 1367              		.cfi_def_cfa_register 7
1032:.\Generated_Source\PSoC4/PWM_Servo.c ****     return (PWM_Servo_COMP_CAP_REG & PWM_Servo_16BIT_MASK);
 1368              		.loc 1 1032 0
 1369 0004 034B     		ldr	r3, .L87
 1370 0006 1B68     		ldr	r3, [r3]
 1371 0008 1B04     		lsl	r3, r3, #16
 1372 000a 1B0C     		lsr	r3, r3, #16
1033:.\Generated_Source\PSoC4/PWM_Servo.c **** }
 1373              		.loc 1 1033 0
 1374 000c 181C     		mov	r0, r3
 1375 000e BD46     		mov	sp, r7
 1376              		@ sp needed for prologue
 1377 0010 80BD     		pop	{r7, pc}
 1378              	.L88:
 1379 0012 C046     		.align	2
 1380              	.L87:
 1381 0014 4C010540 		.word	1074069836
 1382              		.cfi_endproc
 1383              	.LFE26:
 1384              		.size	PWM_Servo_ReadCapture, .-PWM_Servo_ReadCapture
 1385              		.section	.text.PWM_Servo_ReadCaptureBuf,"ax",%progbits
 1386              		.align	2
 1387              		.global	PWM_Servo_ReadCaptureBuf
 1388              		.code	16
 1389              		.thumb_func
 1390              		.type	PWM_Servo_ReadCaptureBuf, %function
 1391              	PWM_Servo_ReadCaptureBuf:
 1392              	.LFB27:
1034:.\Generated_Source\PSoC4/PWM_Servo.c **** 
1035:.\Generated_Source\PSoC4/PWM_Servo.c **** 
1036:.\Generated_Source\PSoC4/PWM_Servo.c **** /*******************************************************************************
1037:.\Generated_Source\PSoC4/PWM_Servo.c **** * Function Name: PWM_Servo_ReadCaptureBuf
1038:.\Generated_Source\PSoC4/PWM_Servo.c **** ********************************************************************************
1039:.\Generated_Source\PSoC4/PWM_Servo.c **** *
1040:.\Generated_Source\PSoC4/PWM_Servo.c **** * Summary:
1041:.\Generated_Source\PSoC4/PWM_Servo.c **** *  Reads the capture buffer register. This API is applicable only for
1042:.\Generated_Source\PSoC4/PWM_Servo.c **** *  Timer/Counter with the capture mode and Quadrature Decoder modes.
1043:.\Generated_Source\PSoC4/PWM_Servo.c **** *
1044:.\Generated_Source\PSoC4/PWM_Servo.c **** * Parameters:
1045:.\Generated_Source\PSoC4/PWM_Servo.c **** *  None
1046:.\Generated_Source\PSoC4/PWM_Servo.c **** *
1047:.\Generated_Source\PSoC4/PWM_Servo.c **** * Return:
1048:.\Generated_Source\PSoC4/PWM_Servo.c **** *  Capture buffer value
1049:.\Generated_Source\PSoC4/PWM_Servo.c **** *
1050:.\Generated_Source\PSoC4/PWM_Servo.c **** *******************************************************************************/
1051:.\Generated_Source\PSoC4/PWM_Servo.c **** uint32 PWM_Servo_ReadCaptureBuf(void)
1052:.\Generated_Source\PSoC4/PWM_Servo.c **** {
 1393              		.loc 1 1052 0
 1394              		.cfi_startproc
 1395 0000 80B5     		push	{r7, lr}
 1396              	.LCFI73:
 1397              		.cfi_def_cfa_offset 8
 1398              		.cfi_offset 7, -8
 1399              		.cfi_offset 14, -4
ARM GAS  C:\Users\Jared\AppData\Local\Temp\cclIiKIu.s 			page 44


 1400 0002 00AF     		add	r7, sp, #0
 1401              	.LCFI74:
 1402              		.cfi_def_cfa_register 7
1053:.\Generated_Source\PSoC4/PWM_Servo.c ****     return (PWM_Servo_COMP_CAP_BUF_REG & PWM_Servo_16BIT_MASK);
 1403              		.loc 1 1053 0
 1404 0004 034B     		ldr	r3, .L91
 1405 0006 1B68     		ldr	r3, [r3]
 1406 0008 1B04     		lsl	r3, r3, #16
 1407 000a 1B0C     		lsr	r3, r3, #16
1054:.\Generated_Source\PSoC4/PWM_Servo.c **** }
 1408              		.loc 1 1054 0
 1409 000c 181C     		mov	r0, r3
 1410 000e BD46     		mov	sp, r7
 1411              		@ sp needed for prologue
 1412 0010 80BD     		pop	{r7, pc}
 1413              	.L92:
 1414 0012 C046     		.align	2
 1415              	.L91:
 1416 0014 50010540 		.word	1074069840
 1417              		.cfi_endproc
 1418              	.LFE27:
 1419              		.size	PWM_Servo_ReadCaptureBuf, .-PWM_Servo_ReadCaptureBuf
 1420              		.section	.text.PWM_Servo_SetCaptureMode,"ax",%progbits
 1421              		.align	2
 1422              		.global	PWM_Servo_SetCaptureMode
 1423              		.code	16
 1424              		.thumb_func
 1425              		.type	PWM_Servo_SetCaptureMode, %function
 1426              	PWM_Servo_SetCaptureMode:
 1427              	.LFB28:
1055:.\Generated_Source\PSoC4/PWM_Servo.c **** 
1056:.\Generated_Source\PSoC4/PWM_Servo.c **** 
1057:.\Generated_Source\PSoC4/PWM_Servo.c **** /*******************************************************************************
1058:.\Generated_Source\PSoC4/PWM_Servo.c **** * Function Name: PWM_Servo_SetCaptureMode
1059:.\Generated_Source\PSoC4/PWM_Servo.c **** ********************************************************************************
1060:.\Generated_Source\PSoC4/PWM_Servo.c **** *
1061:.\Generated_Source\PSoC4/PWM_Servo.c **** * Summary:
1062:.\Generated_Source\PSoC4/PWM_Servo.c **** *  Sets the capture trigger mode. For PWM mode this is the switch input.
1063:.\Generated_Source\PSoC4/PWM_Servo.c **** *  This input is not applicable to the Timer/Counter without Capture and
1064:.\Generated_Source\PSoC4/PWM_Servo.c **** *  Quadrature Decoder modes.
1065:.\Generated_Source\PSoC4/PWM_Servo.c **** *
1066:.\Generated_Source\PSoC4/PWM_Servo.c **** * Parameters:
1067:.\Generated_Source\PSoC4/PWM_Servo.c **** *  triggerMode: Enumerated trigger mode value
1068:.\Generated_Source\PSoC4/PWM_Servo.c **** *   Values:
1069:.\Generated_Source\PSoC4/PWM_Servo.c **** *     - PWM_Servo_TRIG_LEVEL     - Level
1070:.\Generated_Source\PSoC4/PWM_Servo.c **** *     - PWM_Servo_TRIG_RISING    - Rising edge
1071:.\Generated_Source\PSoC4/PWM_Servo.c **** *     - PWM_Servo_TRIG_FALLING   - Falling edge
1072:.\Generated_Source\PSoC4/PWM_Servo.c **** *     - PWM_Servo_TRIG_BOTH      - Both rising and falling edge
1073:.\Generated_Source\PSoC4/PWM_Servo.c **** *
1074:.\Generated_Source\PSoC4/PWM_Servo.c **** * Return:
1075:.\Generated_Source\PSoC4/PWM_Servo.c **** *  None
1076:.\Generated_Source\PSoC4/PWM_Servo.c **** *
1077:.\Generated_Source\PSoC4/PWM_Servo.c **** *******************************************************************************/
1078:.\Generated_Source\PSoC4/PWM_Servo.c **** void PWM_Servo_SetCaptureMode(uint32 triggerMode)
1079:.\Generated_Source\PSoC4/PWM_Servo.c **** {
 1428              		.loc 1 1079 0
 1429              		.cfi_startproc
ARM GAS  C:\Users\Jared\AppData\Local\Temp\cclIiKIu.s 			page 45


 1430 0000 90B5     		push	{r4, r7, lr}
 1431              	.LCFI75:
 1432              		.cfi_def_cfa_offset 12
 1433              		.cfi_offset 4, -12
 1434              		.cfi_offset 7, -8
 1435              		.cfi_offset 14, -4
 1436 0002 85B0     		sub	sp, sp, #20
 1437              	.LCFI76:
 1438              		.cfi_def_cfa_offset 32
 1439 0004 00AF     		add	r7, sp, #0
 1440              	.LCFI77:
 1441              		.cfi_def_cfa_register 7
 1442 0006 7860     		str	r0, [r7, #4]
1080:.\Generated_Source\PSoC4/PWM_Servo.c ****     uint8 enableInterrupts;
1081:.\Generated_Source\PSoC4/PWM_Servo.c **** 
1082:.\Generated_Source\PSoC4/PWM_Servo.c ****     enableInterrupts = CyEnterCriticalSection();
 1443              		.loc 1 1082 0
 1444 0008 3C1C     		mov	r4, r7
 1445 000a 0F34     		add	r4, r4, #15
 1446 000c FFF7FEFF 		bl	CyEnterCriticalSection
 1447 0010 031C     		mov	r3, r0
 1448 0012 2370     		strb	r3, [r4]
1083:.\Generated_Source\PSoC4/PWM_Servo.c **** 
1084:.\Generated_Source\PSoC4/PWM_Servo.c ****     PWM_Servo_TRIG_CONTROL1_REG &= (uint32)~PWM_Servo_CAPTURE_MASK;
 1449              		.loc 1 1084 0
 1450 0014 0A4B     		ldr	r3, .L94
 1451 0016 0A4A     		ldr	r2, .L94
 1452 0018 1268     		ldr	r2, [r2]
 1453 001a 0321     		mov	r1, #3
 1454 001c 8A43     		bic	r2, r1
 1455 001e 1A60     		str	r2, [r3]
1085:.\Generated_Source\PSoC4/PWM_Servo.c ****     PWM_Servo_TRIG_CONTROL1_REG |= triggerMode;
 1456              		.loc 1 1085 0
 1457 0020 074B     		ldr	r3, .L94
 1458 0022 074A     		ldr	r2, .L94
 1459 0024 1168     		ldr	r1, [r2]
 1460 0026 7A68     		ldr	r2, [r7, #4]
 1461 0028 0A43     		orr	r2, r1
 1462 002a 1A60     		str	r2, [r3]
1086:.\Generated_Source\PSoC4/PWM_Servo.c **** 
1087:.\Generated_Source\PSoC4/PWM_Servo.c ****     CyExitCriticalSection(enableInterrupts);
 1463              		.loc 1 1087 0
 1464 002c 3B1C     		mov	r3, r7
 1465 002e 0F33     		add	r3, r3, #15
 1466 0030 1B78     		ldrb	r3, [r3]
 1467 0032 181C     		mov	r0, r3
 1468 0034 FFF7FEFF 		bl	CyExitCriticalSection
1088:.\Generated_Source\PSoC4/PWM_Servo.c **** }
 1469              		.loc 1 1088 0
 1470 0038 BD46     		mov	sp, r7
 1471 003a 05B0     		add	sp, sp, #20
 1472              		@ sp needed for prologue
 1473 003c 90BD     		pop	{r4, r7, pc}
 1474              	.L95:
 1475 003e C046     		.align	2
 1476              	.L94:
 1477 0040 64010540 		.word	1074069860
ARM GAS  C:\Users\Jared\AppData\Local\Temp\cclIiKIu.s 			page 46


 1478              		.cfi_endproc
 1479              	.LFE28:
 1480              		.size	PWM_Servo_SetCaptureMode, .-PWM_Servo_SetCaptureMode
 1481              		.section	.text.PWM_Servo_SetReloadMode,"ax",%progbits
 1482              		.align	2
 1483              		.global	PWM_Servo_SetReloadMode
 1484              		.code	16
 1485              		.thumb_func
 1486              		.type	PWM_Servo_SetReloadMode, %function
 1487              	PWM_Servo_SetReloadMode:
 1488              	.LFB29:
1089:.\Generated_Source\PSoC4/PWM_Servo.c **** 
1090:.\Generated_Source\PSoC4/PWM_Servo.c **** 
1091:.\Generated_Source\PSoC4/PWM_Servo.c **** /*******************************************************************************
1092:.\Generated_Source\PSoC4/PWM_Servo.c **** * Function Name: PWM_Servo_SetReloadMode
1093:.\Generated_Source\PSoC4/PWM_Servo.c **** ********************************************************************************
1094:.\Generated_Source\PSoC4/PWM_Servo.c **** *
1095:.\Generated_Source\PSoC4/PWM_Servo.c **** * Summary:
1096:.\Generated_Source\PSoC4/PWM_Servo.c **** *  Sets the reload trigger mode. For Quadrature Decoder mode this is the index
1097:.\Generated_Source\PSoC4/PWM_Servo.c **** *  input.
1098:.\Generated_Source\PSoC4/PWM_Servo.c **** *
1099:.\Generated_Source\PSoC4/PWM_Servo.c **** * Parameters:
1100:.\Generated_Source\PSoC4/PWM_Servo.c **** *  triggerMode: Enumerated trigger mode value
1101:.\Generated_Source\PSoC4/PWM_Servo.c **** *   Values:
1102:.\Generated_Source\PSoC4/PWM_Servo.c **** *     - PWM_Servo_TRIG_LEVEL     - Level
1103:.\Generated_Source\PSoC4/PWM_Servo.c **** *     - PWM_Servo_TRIG_RISING    - Rising edge
1104:.\Generated_Source\PSoC4/PWM_Servo.c **** *     - PWM_Servo_TRIG_FALLING   - Falling edge
1105:.\Generated_Source\PSoC4/PWM_Servo.c **** *     - PWM_Servo_TRIG_BOTH      - Both rising and falling edge
1106:.\Generated_Source\PSoC4/PWM_Servo.c **** *
1107:.\Generated_Source\PSoC4/PWM_Servo.c **** * Return:
1108:.\Generated_Source\PSoC4/PWM_Servo.c **** *  None
1109:.\Generated_Source\PSoC4/PWM_Servo.c **** *
1110:.\Generated_Source\PSoC4/PWM_Servo.c **** *******************************************************************************/
1111:.\Generated_Source\PSoC4/PWM_Servo.c **** void PWM_Servo_SetReloadMode(uint32 triggerMode)
1112:.\Generated_Source\PSoC4/PWM_Servo.c **** {
 1489              		.loc 1 1112 0
 1490              		.cfi_startproc
 1491 0000 90B5     		push	{r4, r7, lr}
 1492              	.LCFI78:
 1493              		.cfi_def_cfa_offset 12
 1494              		.cfi_offset 4, -12
 1495              		.cfi_offset 7, -8
 1496              		.cfi_offset 14, -4
 1497 0002 85B0     		sub	sp, sp, #20
 1498              	.LCFI79:
 1499              		.cfi_def_cfa_offset 32
 1500 0004 00AF     		add	r7, sp, #0
 1501              	.LCFI80:
 1502              		.cfi_def_cfa_register 7
 1503 0006 7860     		str	r0, [r7, #4]
1113:.\Generated_Source\PSoC4/PWM_Servo.c ****     uint8 enableInterrupts;
1114:.\Generated_Source\PSoC4/PWM_Servo.c **** 
1115:.\Generated_Source\PSoC4/PWM_Servo.c ****     enableInterrupts = CyEnterCriticalSection();
 1504              		.loc 1 1115 0
 1505 0008 3C1C     		mov	r4, r7
 1506 000a 0F34     		add	r4, r4, #15
 1507 000c FFF7FEFF 		bl	CyEnterCriticalSection
ARM GAS  C:\Users\Jared\AppData\Local\Temp\cclIiKIu.s 			page 47


 1508 0010 031C     		mov	r3, r0
 1509 0012 2370     		strb	r3, [r4]
1116:.\Generated_Source\PSoC4/PWM_Servo.c **** 
1117:.\Generated_Source\PSoC4/PWM_Servo.c ****     PWM_Servo_TRIG_CONTROL1_REG &= (uint32)~PWM_Servo_RELOAD_MASK;
 1510              		.loc 1 1117 0
 1511 0014 0A4B     		ldr	r3, .L97
 1512 0016 0A4A     		ldr	r2, .L97
 1513 0018 1268     		ldr	r2, [r2]
 1514 001a 3021     		mov	r1, #48
 1515 001c 8A43     		bic	r2, r1
 1516 001e 1A60     		str	r2, [r3]
1118:.\Generated_Source\PSoC4/PWM_Servo.c ****     PWM_Servo_TRIG_CONTROL1_REG |= ((uint32)(triggerMode << PWM_Servo_RELOAD_SHIFT));
 1517              		.loc 1 1118 0
 1518 0020 074B     		ldr	r3, .L97
 1519 0022 074A     		ldr	r2, .L97
 1520 0024 1168     		ldr	r1, [r2]
 1521 0026 7A68     		ldr	r2, [r7, #4]
 1522 0028 1201     		lsl	r2, r2, #4
 1523 002a 0A43     		orr	r2, r1
 1524 002c 1A60     		str	r2, [r3]
1119:.\Generated_Source\PSoC4/PWM_Servo.c **** 
1120:.\Generated_Source\PSoC4/PWM_Servo.c ****     CyExitCriticalSection(enableInterrupts);
 1525              		.loc 1 1120 0
 1526 002e 3B1C     		mov	r3, r7
 1527 0030 0F33     		add	r3, r3, #15
 1528 0032 1B78     		ldrb	r3, [r3]
 1529 0034 181C     		mov	r0, r3
 1530 0036 FFF7FEFF 		bl	CyExitCriticalSection
1121:.\Generated_Source\PSoC4/PWM_Servo.c **** }
 1531              		.loc 1 1121 0
 1532 003a BD46     		mov	sp, r7
 1533 003c 05B0     		add	sp, sp, #20
 1534              		@ sp needed for prologue
 1535 003e 90BD     		pop	{r4, r7, pc}
 1536              	.L98:
 1537              		.align	2
 1538              	.L97:
 1539 0040 64010540 		.word	1074069860
 1540              		.cfi_endproc
 1541              	.LFE29:
 1542              		.size	PWM_Servo_SetReloadMode, .-PWM_Servo_SetReloadMode
 1543              		.section	.text.PWM_Servo_SetStartMode,"ax",%progbits
 1544              		.align	2
 1545              		.global	PWM_Servo_SetStartMode
 1546              		.code	16
 1547              		.thumb_func
 1548              		.type	PWM_Servo_SetStartMode, %function
 1549              	PWM_Servo_SetStartMode:
 1550              	.LFB30:
1122:.\Generated_Source\PSoC4/PWM_Servo.c **** 
1123:.\Generated_Source\PSoC4/PWM_Servo.c **** 
1124:.\Generated_Source\PSoC4/PWM_Servo.c **** /*******************************************************************************
1125:.\Generated_Source\PSoC4/PWM_Servo.c **** * Function Name: PWM_Servo_SetStartMode
1126:.\Generated_Source\PSoC4/PWM_Servo.c **** ********************************************************************************
1127:.\Generated_Source\PSoC4/PWM_Servo.c **** *
1128:.\Generated_Source\PSoC4/PWM_Servo.c **** * Summary:
1129:.\Generated_Source\PSoC4/PWM_Servo.c **** *  Sets the start trigger mode. For Quadrature Decoder mode this is the
ARM GAS  C:\Users\Jared\AppData\Local\Temp\cclIiKIu.s 			page 48


1130:.\Generated_Source\PSoC4/PWM_Servo.c **** *  phiB input.
1131:.\Generated_Source\PSoC4/PWM_Servo.c **** *
1132:.\Generated_Source\PSoC4/PWM_Servo.c **** * Parameters:
1133:.\Generated_Source\PSoC4/PWM_Servo.c **** *  triggerMode: Enumerated trigger mode value
1134:.\Generated_Source\PSoC4/PWM_Servo.c **** *   Values:
1135:.\Generated_Source\PSoC4/PWM_Servo.c **** *     - PWM_Servo_TRIG_LEVEL     - Level
1136:.\Generated_Source\PSoC4/PWM_Servo.c **** *     - PWM_Servo_TRIG_RISING    - Rising edge
1137:.\Generated_Source\PSoC4/PWM_Servo.c **** *     - PWM_Servo_TRIG_FALLING   - Falling edge
1138:.\Generated_Source\PSoC4/PWM_Servo.c **** *     - PWM_Servo_TRIG_BOTH      - Both rising and falling edge
1139:.\Generated_Source\PSoC4/PWM_Servo.c **** *
1140:.\Generated_Source\PSoC4/PWM_Servo.c **** * Return:
1141:.\Generated_Source\PSoC4/PWM_Servo.c **** *  None
1142:.\Generated_Source\PSoC4/PWM_Servo.c **** *
1143:.\Generated_Source\PSoC4/PWM_Servo.c **** *******************************************************************************/
1144:.\Generated_Source\PSoC4/PWM_Servo.c **** void PWM_Servo_SetStartMode(uint32 triggerMode)
1145:.\Generated_Source\PSoC4/PWM_Servo.c **** {
 1551              		.loc 1 1145 0
 1552              		.cfi_startproc
 1553 0000 90B5     		push	{r4, r7, lr}
 1554              	.LCFI81:
 1555              		.cfi_def_cfa_offset 12
 1556              		.cfi_offset 4, -12
 1557              		.cfi_offset 7, -8
 1558              		.cfi_offset 14, -4
 1559 0002 85B0     		sub	sp, sp, #20
 1560              	.LCFI82:
 1561              		.cfi_def_cfa_offset 32
 1562 0004 00AF     		add	r7, sp, #0
 1563              	.LCFI83:
 1564              		.cfi_def_cfa_register 7
 1565 0006 7860     		str	r0, [r7, #4]
1146:.\Generated_Source\PSoC4/PWM_Servo.c ****     uint8 enableInterrupts;
1147:.\Generated_Source\PSoC4/PWM_Servo.c **** 
1148:.\Generated_Source\PSoC4/PWM_Servo.c ****     enableInterrupts = CyEnterCriticalSection();
 1566              		.loc 1 1148 0
 1567 0008 3C1C     		mov	r4, r7
 1568 000a 0F34     		add	r4, r4, #15
 1569 000c FFF7FEFF 		bl	CyEnterCriticalSection
 1570 0010 031C     		mov	r3, r0
 1571 0012 2370     		strb	r3, [r4]
1149:.\Generated_Source\PSoC4/PWM_Servo.c **** 
1150:.\Generated_Source\PSoC4/PWM_Servo.c ****     PWM_Servo_TRIG_CONTROL1_REG &= (uint32)~PWM_Servo_START_MASK;
 1572              		.loc 1 1150 0
 1573 0014 0A4B     		ldr	r3, .L100
 1574 0016 0A4A     		ldr	r2, .L100
 1575 0018 1168     		ldr	r1, [r2]
 1576 001a 0A4A     		ldr	r2, .L100+4
 1577 001c 0A40     		and	r2, r1
 1578 001e 1A60     		str	r2, [r3]
1151:.\Generated_Source\PSoC4/PWM_Servo.c ****     PWM_Servo_TRIG_CONTROL1_REG |= ((uint32)(triggerMode << PWM_Servo_START_SHIFT));
 1579              		.loc 1 1151 0
 1580 0020 074B     		ldr	r3, .L100
 1581 0022 074A     		ldr	r2, .L100
 1582 0024 1168     		ldr	r1, [r2]
 1583 0026 7A68     		ldr	r2, [r7, #4]
 1584 0028 1202     		lsl	r2, r2, #8
 1585 002a 0A43     		orr	r2, r1
ARM GAS  C:\Users\Jared\AppData\Local\Temp\cclIiKIu.s 			page 49


 1586 002c 1A60     		str	r2, [r3]
1152:.\Generated_Source\PSoC4/PWM_Servo.c **** 
1153:.\Generated_Source\PSoC4/PWM_Servo.c ****     CyExitCriticalSection(enableInterrupts);
 1587              		.loc 1 1153 0
 1588 002e 3B1C     		mov	r3, r7
 1589 0030 0F33     		add	r3, r3, #15
 1590 0032 1B78     		ldrb	r3, [r3]
 1591 0034 181C     		mov	r0, r3
 1592 0036 FFF7FEFF 		bl	CyExitCriticalSection
1154:.\Generated_Source\PSoC4/PWM_Servo.c **** }
 1593              		.loc 1 1154 0
 1594 003a BD46     		mov	sp, r7
 1595 003c 05B0     		add	sp, sp, #20
 1596              		@ sp needed for prologue
 1597 003e 90BD     		pop	{r4, r7, pc}
 1598              	.L101:
 1599              		.align	2
 1600              	.L100:
 1601 0040 64010540 		.word	1074069860
 1602 0044 FFFCFFFF 		.word	-769
 1603              		.cfi_endproc
 1604              	.LFE30:
 1605              		.size	PWM_Servo_SetStartMode, .-PWM_Servo_SetStartMode
 1606              		.section	.text.PWM_Servo_SetStopMode,"ax",%progbits
 1607              		.align	2
 1608              		.global	PWM_Servo_SetStopMode
 1609              		.code	16
 1610              		.thumb_func
 1611              		.type	PWM_Servo_SetStopMode, %function
 1612              	PWM_Servo_SetStopMode:
 1613              	.LFB31:
1155:.\Generated_Source\PSoC4/PWM_Servo.c **** 
1156:.\Generated_Source\PSoC4/PWM_Servo.c **** 
1157:.\Generated_Source\PSoC4/PWM_Servo.c **** /*******************************************************************************
1158:.\Generated_Source\PSoC4/PWM_Servo.c **** * Function Name: PWM_Servo_SetStopMode
1159:.\Generated_Source\PSoC4/PWM_Servo.c **** ********************************************************************************
1160:.\Generated_Source\PSoC4/PWM_Servo.c **** *
1161:.\Generated_Source\PSoC4/PWM_Servo.c **** * Summary:
1162:.\Generated_Source\PSoC4/PWM_Servo.c **** *  Sets the stop trigger mode. For PWM mode this is the kill input.
1163:.\Generated_Source\PSoC4/PWM_Servo.c **** *
1164:.\Generated_Source\PSoC4/PWM_Servo.c **** * Parameters:
1165:.\Generated_Source\PSoC4/PWM_Servo.c **** *  triggerMode: Enumerated trigger mode value
1166:.\Generated_Source\PSoC4/PWM_Servo.c **** *   Values:
1167:.\Generated_Source\PSoC4/PWM_Servo.c **** *     - PWM_Servo_TRIG_LEVEL     - Level
1168:.\Generated_Source\PSoC4/PWM_Servo.c **** *     - PWM_Servo_TRIG_RISING    - Rising edge
1169:.\Generated_Source\PSoC4/PWM_Servo.c **** *     - PWM_Servo_TRIG_FALLING   - Falling edge
1170:.\Generated_Source\PSoC4/PWM_Servo.c **** *     - PWM_Servo_TRIG_BOTH      - Both rising and falling edge
1171:.\Generated_Source\PSoC4/PWM_Servo.c **** *
1172:.\Generated_Source\PSoC4/PWM_Servo.c **** * Return:
1173:.\Generated_Source\PSoC4/PWM_Servo.c **** *  None
1174:.\Generated_Source\PSoC4/PWM_Servo.c **** *
1175:.\Generated_Source\PSoC4/PWM_Servo.c **** *******************************************************************************/
1176:.\Generated_Source\PSoC4/PWM_Servo.c **** void PWM_Servo_SetStopMode(uint32 triggerMode)
1177:.\Generated_Source\PSoC4/PWM_Servo.c **** {
 1614              		.loc 1 1177 0
 1615              		.cfi_startproc
 1616 0000 90B5     		push	{r4, r7, lr}
ARM GAS  C:\Users\Jared\AppData\Local\Temp\cclIiKIu.s 			page 50


 1617              	.LCFI84:
 1618              		.cfi_def_cfa_offset 12
 1619              		.cfi_offset 4, -12
 1620              		.cfi_offset 7, -8
 1621              		.cfi_offset 14, -4
 1622 0002 85B0     		sub	sp, sp, #20
 1623              	.LCFI85:
 1624              		.cfi_def_cfa_offset 32
 1625 0004 00AF     		add	r7, sp, #0
 1626              	.LCFI86:
 1627              		.cfi_def_cfa_register 7
 1628 0006 7860     		str	r0, [r7, #4]
1178:.\Generated_Source\PSoC4/PWM_Servo.c ****     uint8 enableInterrupts;
1179:.\Generated_Source\PSoC4/PWM_Servo.c **** 
1180:.\Generated_Source\PSoC4/PWM_Servo.c ****     enableInterrupts = CyEnterCriticalSection();
 1629              		.loc 1 1180 0
 1630 0008 3C1C     		mov	r4, r7
 1631 000a 0F34     		add	r4, r4, #15
 1632 000c FFF7FEFF 		bl	CyEnterCriticalSection
 1633 0010 031C     		mov	r3, r0
 1634 0012 2370     		strb	r3, [r4]
1181:.\Generated_Source\PSoC4/PWM_Servo.c **** 
1182:.\Generated_Source\PSoC4/PWM_Servo.c ****     PWM_Servo_TRIG_CONTROL1_REG &= (uint32)~PWM_Servo_STOP_MASK;
 1635              		.loc 1 1182 0
 1636 0014 0A4B     		ldr	r3, .L103
 1637 0016 0A4A     		ldr	r2, .L103
 1638 0018 1268     		ldr	r2, [r2]
 1639 001a C021     		mov	r1, #192
 1640 001c 8A43     		bic	r2, r1
 1641 001e 1A60     		str	r2, [r3]
1183:.\Generated_Source\PSoC4/PWM_Servo.c ****     PWM_Servo_TRIG_CONTROL1_REG |= ((uint32)(triggerMode << PWM_Servo_STOP_SHIFT));
 1642              		.loc 1 1183 0
 1643 0020 074B     		ldr	r3, .L103
 1644 0022 074A     		ldr	r2, .L103
 1645 0024 1168     		ldr	r1, [r2]
 1646 0026 7A68     		ldr	r2, [r7, #4]
 1647 0028 9201     		lsl	r2, r2, #6
 1648 002a 0A43     		orr	r2, r1
 1649 002c 1A60     		str	r2, [r3]
1184:.\Generated_Source\PSoC4/PWM_Servo.c **** 
1185:.\Generated_Source\PSoC4/PWM_Servo.c ****     CyExitCriticalSection(enableInterrupts);
 1650              		.loc 1 1185 0
 1651 002e 3B1C     		mov	r3, r7
 1652 0030 0F33     		add	r3, r3, #15
 1653 0032 1B78     		ldrb	r3, [r3]
 1654 0034 181C     		mov	r0, r3
 1655 0036 FFF7FEFF 		bl	CyExitCriticalSection
1186:.\Generated_Source\PSoC4/PWM_Servo.c **** }
 1656              		.loc 1 1186 0
 1657 003a BD46     		mov	sp, r7
 1658 003c 05B0     		add	sp, sp, #20
 1659              		@ sp needed for prologue
 1660 003e 90BD     		pop	{r4, r7, pc}
 1661              	.L104:
 1662              		.align	2
 1663              	.L103:
 1664 0040 64010540 		.word	1074069860
ARM GAS  C:\Users\Jared\AppData\Local\Temp\cclIiKIu.s 			page 51


 1665              		.cfi_endproc
 1666              	.LFE31:
 1667              		.size	PWM_Servo_SetStopMode, .-PWM_Servo_SetStopMode
 1668              		.section	.text.PWM_Servo_SetCountMode,"ax",%progbits
 1669              		.align	2
 1670              		.global	PWM_Servo_SetCountMode
 1671              		.code	16
 1672              		.thumb_func
 1673              		.type	PWM_Servo_SetCountMode, %function
 1674              	PWM_Servo_SetCountMode:
 1675              	.LFB32:
1187:.\Generated_Source\PSoC4/PWM_Servo.c **** 
1188:.\Generated_Source\PSoC4/PWM_Servo.c **** 
1189:.\Generated_Source\PSoC4/PWM_Servo.c **** /*******************************************************************************
1190:.\Generated_Source\PSoC4/PWM_Servo.c **** * Function Name: PWM_Servo_SetCountMode
1191:.\Generated_Source\PSoC4/PWM_Servo.c **** ********************************************************************************
1192:.\Generated_Source\PSoC4/PWM_Servo.c **** *
1193:.\Generated_Source\PSoC4/PWM_Servo.c **** * Summary:
1194:.\Generated_Source\PSoC4/PWM_Servo.c **** *  Sets the count trigger mode. For Quadrature Decoder mode this is the phiA
1195:.\Generated_Source\PSoC4/PWM_Servo.c **** *  input.
1196:.\Generated_Source\PSoC4/PWM_Servo.c **** *
1197:.\Generated_Source\PSoC4/PWM_Servo.c **** * Parameters:
1198:.\Generated_Source\PSoC4/PWM_Servo.c **** *  triggerMode: Enumerated trigger mode value
1199:.\Generated_Source\PSoC4/PWM_Servo.c **** *   Values:
1200:.\Generated_Source\PSoC4/PWM_Servo.c **** *     - PWM_Servo_TRIG_LEVEL     - Level
1201:.\Generated_Source\PSoC4/PWM_Servo.c **** *     - PWM_Servo_TRIG_RISING    - Rising edge
1202:.\Generated_Source\PSoC4/PWM_Servo.c **** *     - PWM_Servo_TRIG_FALLING   - Falling edge
1203:.\Generated_Source\PSoC4/PWM_Servo.c **** *     - PWM_Servo_TRIG_BOTH      - Both rising and falling edge
1204:.\Generated_Source\PSoC4/PWM_Servo.c **** *
1205:.\Generated_Source\PSoC4/PWM_Servo.c **** * Return:
1206:.\Generated_Source\PSoC4/PWM_Servo.c **** *  None
1207:.\Generated_Source\PSoC4/PWM_Servo.c **** *
1208:.\Generated_Source\PSoC4/PWM_Servo.c **** *******************************************************************************/
1209:.\Generated_Source\PSoC4/PWM_Servo.c **** void PWM_Servo_SetCountMode(uint32 triggerMode)
1210:.\Generated_Source\PSoC4/PWM_Servo.c **** {
 1676              		.loc 1 1210 0
 1677              		.cfi_startproc
 1678 0000 90B5     		push	{r4, r7, lr}
 1679              	.LCFI87:
 1680              		.cfi_def_cfa_offset 12
 1681              		.cfi_offset 4, -12
 1682              		.cfi_offset 7, -8
 1683              		.cfi_offset 14, -4
 1684 0002 85B0     		sub	sp, sp, #20
 1685              	.LCFI88:
 1686              		.cfi_def_cfa_offset 32
 1687 0004 00AF     		add	r7, sp, #0
 1688              	.LCFI89:
 1689              		.cfi_def_cfa_register 7
 1690 0006 7860     		str	r0, [r7, #4]
1211:.\Generated_Source\PSoC4/PWM_Servo.c ****     uint8 enableInterrupts;
1212:.\Generated_Source\PSoC4/PWM_Servo.c **** 
1213:.\Generated_Source\PSoC4/PWM_Servo.c ****     enableInterrupts = CyEnterCriticalSection();
 1691              		.loc 1 1213 0
 1692 0008 3C1C     		mov	r4, r7
 1693 000a 0F34     		add	r4, r4, #15
 1694 000c FFF7FEFF 		bl	CyEnterCriticalSection
ARM GAS  C:\Users\Jared\AppData\Local\Temp\cclIiKIu.s 			page 52


 1695 0010 031C     		mov	r3, r0
 1696 0012 2370     		strb	r3, [r4]
1214:.\Generated_Source\PSoC4/PWM_Servo.c **** 
1215:.\Generated_Source\PSoC4/PWM_Servo.c ****     PWM_Servo_TRIG_CONTROL1_REG &= (uint32)~PWM_Servo_COUNT_MASK;
 1697              		.loc 1 1215 0
 1698 0014 0A4B     		ldr	r3, .L106
 1699 0016 0A4A     		ldr	r2, .L106
 1700 0018 1268     		ldr	r2, [r2]
 1701 001a 0C21     		mov	r1, #12
 1702 001c 8A43     		bic	r2, r1
 1703 001e 1A60     		str	r2, [r3]
1216:.\Generated_Source\PSoC4/PWM_Servo.c ****     PWM_Servo_TRIG_CONTROL1_REG |= ((uint32)(triggerMode << PWM_Servo_COUNT_SHIFT));
 1704              		.loc 1 1216 0
 1705 0020 074B     		ldr	r3, .L106
 1706 0022 074A     		ldr	r2, .L106
 1707 0024 1168     		ldr	r1, [r2]
 1708 0026 7A68     		ldr	r2, [r7, #4]
 1709 0028 9200     		lsl	r2, r2, #2
 1710 002a 0A43     		orr	r2, r1
 1711 002c 1A60     		str	r2, [r3]
1217:.\Generated_Source\PSoC4/PWM_Servo.c **** 
1218:.\Generated_Source\PSoC4/PWM_Servo.c ****     CyExitCriticalSection(enableInterrupts);
 1712              		.loc 1 1218 0
 1713 002e 3B1C     		mov	r3, r7
 1714 0030 0F33     		add	r3, r3, #15
 1715 0032 1B78     		ldrb	r3, [r3]
 1716 0034 181C     		mov	r0, r3
 1717 0036 FFF7FEFF 		bl	CyExitCriticalSection
1219:.\Generated_Source\PSoC4/PWM_Servo.c **** }
 1718              		.loc 1 1219 0
 1719 003a BD46     		mov	sp, r7
 1720 003c 05B0     		add	sp, sp, #20
 1721              		@ sp needed for prologue
 1722 003e 90BD     		pop	{r4, r7, pc}
 1723              	.L107:
 1724              		.align	2
 1725              	.L106:
 1726 0040 64010540 		.word	1074069860
 1727              		.cfi_endproc
 1728              	.LFE32:
 1729              		.size	PWM_Servo_SetCountMode, .-PWM_Servo_SetCountMode
 1730              		.section	.text.PWM_Servo_TriggerCommand,"ax",%progbits
 1731              		.align	2
 1732              		.global	PWM_Servo_TriggerCommand
 1733              		.code	16
 1734              		.thumb_func
 1735              		.type	PWM_Servo_TriggerCommand, %function
 1736              	PWM_Servo_TriggerCommand:
 1737              	.LFB33:
1220:.\Generated_Source\PSoC4/PWM_Servo.c **** 
1221:.\Generated_Source\PSoC4/PWM_Servo.c **** 
1222:.\Generated_Source\PSoC4/PWM_Servo.c **** /*******************************************************************************
1223:.\Generated_Source\PSoC4/PWM_Servo.c **** * Function Name: PWM_Servo_TriggerCommand
1224:.\Generated_Source\PSoC4/PWM_Servo.c **** ********************************************************************************
1225:.\Generated_Source\PSoC4/PWM_Servo.c **** *
1226:.\Generated_Source\PSoC4/PWM_Servo.c **** * Summary:
1227:.\Generated_Source\PSoC4/PWM_Servo.c **** *  Triggers the designated command to occur on the designated TCPWM instances.
ARM GAS  C:\Users\Jared\AppData\Local\Temp\cclIiKIu.s 			page 53


1228:.\Generated_Source\PSoC4/PWM_Servo.c **** *  The mask can be used to apply this command simultaneously to more than one
1229:.\Generated_Source\PSoC4/PWM_Servo.c **** *  instance.  This allows multiple TCPWM instances to be synchronized.
1230:.\Generated_Source\PSoC4/PWM_Servo.c **** *
1231:.\Generated_Source\PSoC4/PWM_Servo.c **** * Parameters:
1232:.\Generated_Source\PSoC4/PWM_Servo.c **** *  mask: A combination of mask bits for each instance of the TCPWM that the
1233:.\Generated_Source\PSoC4/PWM_Servo.c **** *        command should apply to.  This function from one instance can be used
1234:.\Generated_Source\PSoC4/PWM_Servo.c **** *        to apply the command to any of the instances in the design.
1235:.\Generated_Source\PSoC4/PWM_Servo.c **** *        The mask value for a specific instance is available with the MASK
1236:.\Generated_Source\PSoC4/PWM_Servo.c **** *        define.
1237:.\Generated_Source\PSoC4/PWM_Servo.c **** *  command: Enumerated command values. Capture command only applicable for
1238:.\Generated_Source\PSoC4/PWM_Servo.c **** *           Timer/Counter with Capture and PWM modes.
1239:.\Generated_Source\PSoC4/PWM_Servo.c **** *   Values:
1240:.\Generated_Source\PSoC4/PWM_Servo.c **** *     - PWM_Servo_CMD_CAPTURE    - Trigger Capture command
1241:.\Generated_Source\PSoC4/PWM_Servo.c **** *     - PWM_Servo_CMD_RELOAD     - Trigger Reload command
1242:.\Generated_Source\PSoC4/PWM_Servo.c **** *     - PWM_Servo_CMD_STOP       - Trigger Stop command
1243:.\Generated_Source\PSoC4/PWM_Servo.c **** *     - PWM_Servo_CMD_START      - Trigger Start command
1244:.\Generated_Source\PSoC4/PWM_Servo.c **** *
1245:.\Generated_Source\PSoC4/PWM_Servo.c **** * Return:
1246:.\Generated_Source\PSoC4/PWM_Servo.c **** *  None
1247:.\Generated_Source\PSoC4/PWM_Servo.c **** *
1248:.\Generated_Source\PSoC4/PWM_Servo.c **** *******************************************************************************/
1249:.\Generated_Source\PSoC4/PWM_Servo.c **** void PWM_Servo_TriggerCommand(uint32 mask, uint32 command)
1250:.\Generated_Source\PSoC4/PWM_Servo.c **** {
 1738              		.loc 1 1250 0
 1739              		.cfi_startproc
 1740 0000 90B5     		push	{r4, r7, lr}
 1741              	.LCFI90:
 1742              		.cfi_def_cfa_offset 12
 1743              		.cfi_offset 4, -12
 1744              		.cfi_offset 7, -8
 1745              		.cfi_offset 14, -4
 1746 0002 85B0     		sub	sp, sp, #20
 1747              	.LCFI91:
 1748              		.cfi_def_cfa_offset 32
 1749 0004 00AF     		add	r7, sp, #0
 1750              	.LCFI92:
 1751              		.cfi_def_cfa_register 7
 1752 0006 7860     		str	r0, [r7, #4]
 1753 0008 3960     		str	r1, [r7]
1251:.\Generated_Source\PSoC4/PWM_Servo.c ****     uint8 enableInterrupts;
1252:.\Generated_Source\PSoC4/PWM_Servo.c **** 
1253:.\Generated_Source\PSoC4/PWM_Servo.c ****     enableInterrupts = CyEnterCriticalSection();
 1754              		.loc 1 1253 0
 1755 000a 3C1C     		mov	r4, r7
 1756 000c 0F34     		add	r4, r4, #15
 1757 000e FFF7FEFF 		bl	CyEnterCriticalSection
 1758 0012 031C     		mov	r3, r0
 1759 0014 2370     		strb	r3, [r4]
1254:.\Generated_Source\PSoC4/PWM_Servo.c **** 
1255:.\Generated_Source\PSoC4/PWM_Servo.c ****     PWM_Servo_COMMAND_REG = ((uint32)(mask << command));
 1760              		.loc 1 1255 0
 1761 0016 084B     		ldr	r3, .L109
 1762 0018 3A68     		ldr	r2, [r7]
 1763 001a 7968     		ldr	r1, [r7, #4]
 1764 001c 081C     		mov	r0, r1
 1765 001e 9040     		lsl	r0, r0, r2
 1766 0020 021C     		mov	r2, r0
ARM GAS  C:\Users\Jared\AppData\Local\Temp\cclIiKIu.s 			page 54


 1767 0022 1A60     		str	r2, [r3]
1256:.\Generated_Source\PSoC4/PWM_Servo.c **** 
1257:.\Generated_Source\PSoC4/PWM_Servo.c ****     CyExitCriticalSection(enableInterrupts);
 1768              		.loc 1 1257 0
 1769 0024 3B1C     		mov	r3, r7
 1770 0026 0F33     		add	r3, r3, #15
 1771 0028 1B78     		ldrb	r3, [r3]
 1772 002a 181C     		mov	r0, r3
 1773 002c FFF7FEFF 		bl	CyExitCriticalSection
1258:.\Generated_Source\PSoC4/PWM_Servo.c **** }
 1774              		.loc 1 1258 0
 1775 0030 BD46     		mov	sp, r7
 1776 0032 05B0     		add	sp, sp, #20
 1777              		@ sp needed for prologue
 1778 0034 90BD     		pop	{r4, r7, pc}
 1779              	.L110:
 1780 0036 C046     		.align	2
 1781              	.L109:
 1782 0038 08000540 		.word	1074069512
 1783              		.cfi_endproc
 1784              	.LFE33:
 1785              		.size	PWM_Servo_TriggerCommand, .-PWM_Servo_TriggerCommand
 1786              		.section	.text.PWM_Servo_ReadStatus,"ax",%progbits
 1787              		.align	2
 1788              		.global	PWM_Servo_ReadStatus
 1789              		.code	16
 1790              		.thumb_func
 1791              		.type	PWM_Servo_ReadStatus, %function
 1792              	PWM_Servo_ReadStatus:
 1793              	.LFB34:
1259:.\Generated_Source\PSoC4/PWM_Servo.c **** 
1260:.\Generated_Source\PSoC4/PWM_Servo.c **** 
1261:.\Generated_Source\PSoC4/PWM_Servo.c **** /*******************************************************************************
1262:.\Generated_Source\PSoC4/PWM_Servo.c **** * Function Name: PWM_Servo_ReadStatus
1263:.\Generated_Source\PSoC4/PWM_Servo.c **** ********************************************************************************
1264:.\Generated_Source\PSoC4/PWM_Servo.c **** *
1265:.\Generated_Source\PSoC4/PWM_Servo.c **** * Summary:
1266:.\Generated_Source\PSoC4/PWM_Servo.c **** *  Reads the status of the PWM_Servo.
1267:.\Generated_Source\PSoC4/PWM_Servo.c **** *
1268:.\Generated_Source\PSoC4/PWM_Servo.c **** * Parameters:
1269:.\Generated_Source\PSoC4/PWM_Servo.c **** *  None
1270:.\Generated_Source\PSoC4/PWM_Servo.c **** *
1271:.\Generated_Source\PSoC4/PWM_Servo.c **** * Return:
1272:.\Generated_Source\PSoC4/PWM_Servo.c **** *  Status
1273:.\Generated_Source\PSoC4/PWM_Servo.c **** *   Values:
1274:.\Generated_Source\PSoC4/PWM_Servo.c **** *     - PWM_Servo_STATUS_DOWN    - Set if counting down
1275:.\Generated_Source\PSoC4/PWM_Servo.c **** *     - PWM_Servo_STATUS_RUNNING - Set if counter is running
1276:.\Generated_Source\PSoC4/PWM_Servo.c **** *
1277:.\Generated_Source\PSoC4/PWM_Servo.c **** *******************************************************************************/
1278:.\Generated_Source\PSoC4/PWM_Servo.c **** uint32 PWM_Servo_ReadStatus(void)
1279:.\Generated_Source\PSoC4/PWM_Servo.c **** {
 1794              		.loc 1 1279 0
 1795              		.cfi_startproc
 1796 0000 80B5     		push	{r7, lr}
 1797              	.LCFI93:
 1798              		.cfi_def_cfa_offset 8
 1799              		.cfi_offset 7, -8
ARM GAS  C:\Users\Jared\AppData\Local\Temp\cclIiKIu.s 			page 55


 1800              		.cfi_offset 14, -4
 1801 0002 00AF     		add	r7, sp, #0
 1802              	.LCFI94:
 1803              		.cfi_def_cfa_register 7
1280:.\Generated_Source\PSoC4/PWM_Servo.c ****     return ((PWM_Servo_STATUS_REG >> PWM_Servo_RUNNING_STATUS_SHIFT) |
 1804              		.loc 1 1280 0
 1805 0004 054B     		ldr	r3, .L113
 1806 0006 1B68     		ldr	r3, [r3]
 1807 0008 9A0F     		lsr	r2, r3, #30
1281:.\Generated_Source\PSoC4/PWM_Servo.c ****             (PWM_Servo_STATUS_REG & PWM_Servo_STATUS_DOWN));
 1808              		.loc 1 1281 0
 1809 000a 044B     		ldr	r3, .L113
 1810 000c 1968     		ldr	r1, [r3]
 1811 000e 0123     		mov	r3, #1
 1812 0010 0B40     		and	r3, r1
1280:.\Generated_Source\PSoC4/PWM_Servo.c ****     return ((PWM_Servo_STATUS_REG >> PWM_Servo_RUNNING_STATUS_SHIFT) |
 1813              		.loc 1 1280 0
 1814 0012 1343     		orr	r3, r2
1282:.\Generated_Source\PSoC4/PWM_Servo.c **** }
 1815              		.loc 1 1282 0
 1816 0014 181C     		mov	r0, r3
 1817 0016 BD46     		mov	sp, r7
 1818              		@ sp needed for prologue
 1819 0018 80BD     		pop	{r7, pc}
 1820              	.L114:
 1821 001a C046     		.align	2
 1822              	.L113:
 1823 001c 44010540 		.word	1074069828
 1824              		.cfi_endproc
 1825              	.LFE34:
 1826              		.size	PWM_Servo_ReadStatus, .-PWM_Servo_ReadStatus
 1827              		.section	.text.PWM_Servo_SetInterruptMode,"ax",%progbits
 1828              		.align	2
 1829              		.global	PWM_Servo_SetInterruptMode
 1830              		.code	16
 1831              		.thumb_func
 1832              		.type	PWM_Servo_SetInterruptMode, %function
 1833              	PWM_Servo_SetInterruptMode:
 1834              	.LFB35:
1283:.\Generated_Source\PSoC4/PWM_Servo.c **** 
1284:.\Generated_Source\PSoC4/PWM_Servo.c **** 
1285:.\Generated_Source\PSoC4/PWM_Servo.c **** /*******************************************************************************
1286:.\Generated_Source\PSoC4/PWM_Servo.c **** * Function Name: PWM_Servo_SetInterruptMode
1287:.\Generated_Source\PSoC4/PWM_Servo.c **** ********************************************************************************
1288:.\Generated_Source\PSoC4/PWM_Servo.c **** *
1289:.\Generated_Source\PSoC4/PWM_Servo.c **** * Summary:
1290:.\Generated_Source\PSoC4/PWM_Servo.c **** *  Sets the interrupt mask to control which interrupt
1291:.\Generated_Source\PSoC4/PWM_Servo.c **** *  requests generate the interrupt signal.
1292:.\Generated_Source\PSoC4/PWM_Servo.c **** *
1293:.\Generated_Source\PSoC4/PWM_Servo.c **** * Parameters:
1294:.\Generated_Source\PSoC4/PWM_Servo.c **** *   interruptMask: Mask of bits to be enabled
1295:.\Generated_Source\PSoC4/PWM_Servo.c **** *   Values:
1296:.\Generated_Source\PSoC4/PWM_Servo.c **** *     - PWM_Servo_INTR_MASK_TC       - Terminal count mask
1297:.\Generated_Source\PSoC4/PWM_Servo.c **** *     - PWM_Servo_INTR_MASK_CC_MATCH - Compare count / capture mask
1298:.\Generated_Source\PSoC4/PWM_Servo.c **** *
1299:.\Generated_Source\PSoC4/PWM_Servo.c **** * Return:
1300:.\Generated_Source\PSoC4/PWM_Servo.c **** *  None
ARM GAS  C:\Users\Jared\AppData\Local\Temp\cclIiKIu.s 			page 56


1301:.\Generated_Source\PSoC4/PWM_Servo.c **** *
1302:.\Generated_Source\PSoC4/PWM_Servo.c **** *******************************************************************************/
1303:.\Generated_Source\PSoC4/PWM_Servo.c **** void PWM_Servo_SetInterruptMode(uint32 interruptMask)
1304:.\Generated_Source\PSoC4/PWM_Servo.c **** {
 1835              		.loc 1 1304 0
 1836              		.cfi_startproc
 1837 0000 80B5     		push	{r7, lr}
 1838              	.LCFI95:
 1839              		.cfi_def_cfa_offset 8
 1840              		.cfi_offset 7, -8
 1841              		.cfi_offset 14, -4
 1842 0002 82B0     		sub	sp, sp, #8
 1843              	.LCFI96:
 1844              		.cfi_def_cfa_offset 16
 1845 0004 00AF     		add	r7, sp, #0
 1846              	.LCFI97:
 1847              		.cfi_def_cfa_register 7
 1848 0006 7860     		str	r0, [r7, #4]
1305:.\Generated_Source\PSoC4/PWM_Servo.c ****     PWM_Servo_INTERRUPT_MASK_REG =  interruptMask;
 1849              		.loc 1 1305 0
 1850 0008 024B     		ldr	r3, .L116
 1851 000a 7A68     		ldr	r2, [r7, #4]
 1852 000c 1A60     		str	r2, [r3]
1306:.\Generated_Source\PSoC4/PWM_Servo.c **** }
 1853              		.loc 1 1306 0
 1854 000e BD46     		mov	sp, r7
 1855 0010 02B0     		add	sp, sp, #8
 1856              		@ sp needed for prologue
 1857 0012 80BD     		pop	{r7, pc}
 1858              	.L117:
 1859              		.align	2
 1860              	.L116:
 1861 0014 78010540 		.word	1074069880
 1862              		.cfi_endproc
 1863              	.LFE35:
 1864              		.size	PWM_Servo_SetInterruptMode, .-PWM_Servo_SetInterruptMode
 1865              		.section	.text.PWM_Servo_GetInterruptSourceMasked,"ax",%progbits
 1866              		.align	2
 1867              		.global	PWM_Servo_GetInterruptSourceMasked
 1868              		.code	16
 1869              		.thumb_func
 1870              		.type	PWM_Servo_GetInterruptSourceMasked, %function
 1871              	PWM_Servo_GetInterruptSourceMasked:
 1872              	.LFB36:
1307:.\Generated_Source\PSoC4/PWM_Servo.c **** 
1308:.\Generated_Source\PSoC4/PWM_Servo.c **** 
1309:.\Generated_Source\PSoC4/PWM_Servo.c **** /*******************************************************************************
1310:.\Generated_Source\PSoC4/PWM_Servo.c **** * Function Name: PWM_Servo_GetInterruptSourceMasked
1311:.\Generated_Source\PSoC4/PWM_Servo.c **** ********************************************************************************
1312:.\Generated_Source\PSoC4/PWM_Servo.c **** *
1313:.\Generated_Source\PSoC4/PWM_Servo.c **** * Summary:
1314:.\Generated_Source\PSoC4/PWM_Servo.c **** *  Gets the interrupt requests masked by the interrupt mask.
1315:.\Generated_Source\PSoC4/PWM_Servo.c **** *
1316:.\Generated_Source\PSoC4/PWM_Servo.c **** * Parameters:
1317:.\Generated_Source\PSoC4/PWM_Servo.c **** *   None
1318:.\Generated_Source\PSoC4/PWM_Servo.c **** *
1319:.\Generated_Source\PSoC4/PWM_Servo.c **** * Return:
ARM GAS  C:\Users\Jared\AppData\Local\Temp\cclIiKIu.s 			page 57


1320:.\Generated_Source\PSoC4/PWM_Servo.c **** *  Masked interrupt source
1321:.\Generated_Source\PSoC4/PWM_Servo.c **** *   Values:
1322:.\Generated_Source\PSoC4/PWM_Servo.c **** *     - PWM_Servo_INTR_MASK_TC       - Terminal count mask
1323:.\Generated_Source\PSoC4/PWM_Servo.c **** *     - PWM_Servo_INTR_MASK_CC_MATCH - Compare count / capture mask
1324:.\Generated_Source\PSoC4/PWM_Servo.c **** *
1325:.\Generated_Source\PSoC4/PWM_Servo.c **** *******************************************************************************/
1326:.\Generated_Source\PSoC4/PWM_Servo.c **** uint32 PWM_Servo_GetInterruptSourceMasked(void)
1327:.\Generated_Source\PSoC4/PWM_Servo.c **** {
 1873              		.loc 1 1327 0
 1874              		.cfi_startproc
 1875 0000 80B5     		push	{r7, lr}
 1876              	.LCFI98:
 1877              		.cfi_def_cfa_offset 8
 1878              		.cfi_offset 7, -8
 1879              		.cfi_offset 14, -4
 1880 0002 00AF     		add	r7, sp, #0
 1881              	.LCFI99:
 1882              		.cfi_def_cfa_register 7
1328:.\Generated_Source\PSoC4/PWM_Servo.c ****     return (PWM_Servo_INTERRUPT_MASKED_REG);
 1883              		.loc 1 1328 0
 1884 0004 024B     		ldr	r3, .L120
 1885 0006 1B68     		ldr	r3, [r3]
1329:.\Generated_Source\PSoC4/PWM_Servo.c **** }
 1886              		.loc 1 1329 0
 1887 0008 181C     		mov	r0, r3
 1888 000a BD46     		mov	sp, r7
 1889              		@ sp needed for prologue
 1890 000c 80BD     		pop	{r7, pc}
 1891              	.L121:
 1892 000e C046     		.align	2
 1893              	.L120:
 1894 0010 7C010540 		.word	1074069884
 1895              		.cfi_endproc
 1896              	.LFE36:
 1897              		.size	PWM_Servo_GetInterruptSourceMasked, .-PWM_Servo_GetInterruptSourceMasked
 1898              		.section	.text.PWM_Servo_GetInterruptSource,"ax",%progbits
 1899              		.align	2
 1900              		.global	PWM_Servo_GetInterruptSource
 1901              		.code	16
 1902              		.thumb_func
 1903              		.type	PWM_Servo_GetInterruptSource, %function
 1904              	PWM_Servo_GetInterruptSource:
 1905              	.LFB37:
1330:.\Generated_Source\PSoC4/PWM_Servo.c **** 
1331:.\Generated_Source\PSoC4/PWM_Servo.c **** 
1332:.\Generated_Source\PSoC4/PWM_Servo.c **** /*******************************************************************************
1333:.\Generated_Source\PSoC4/PWM_Servo.c **** * Function Name: PWM_Servo_GetInterruptSource
1334:.\Generated_Source\PSoC4/PWM_Servo.c **** ********************************************************************************
1335:.\Generated_Source\PSoC4/PWM_Servo.c **** *
1336:.\Generated_Source\PSoC4/PWM_Servo.c **** * Summary:
1337:.\Generated_Source\PSoC4/PWM_Servo.c **** *  Gets the interrupt requests (without masking).
1338:.\Generated_Source\PSoC4/PWM_Servo.c **** *
1339:.\Generated_Source\PSoC4/PWM_Servo.c **** * Parameters:
1340:.\Generated_Source\PSoC4/PWM_Servo.c **** *  None
1341:.\Generated_Source\PSoC4/PWM_Servo.c **** *
1342:.\Generated_Source\PSoC4/PWM_Servo.c **** * Return:
1343:.\Generated_Source\PSoC4/PWM_Servo.c **** *  Interrupt request value
ARM GAS  C:\Users\Jared\AppData\Local\Temp\cclIiKIu.s 			page 58


1344:.\Generated_Source\PSoC4/PWM_Servo.c **** *   Values:
1345:.\Generated_Source\PSoC4/PWM_Servo.c **** *     - PWM_Servo_INTR_MASK_TC       - Terminal count mask
1346:.\Generated_Source\PSoC4/PWM_Servo.c **** *     - PWM_Servo_INTR_MASK_CC_MATCH - Compare count / capture mask
1347:.\Generated_Source\PSoC4/PWM_Servo.c **** *
1348:.\Generated_Source\PSoC4/PWM_Servo.c **** *******************************************************************************/
1349:.\Generated_Source\PSoC4/PWM_Servo.c **** uint32 PWM_Servo_GetInterruptSource(void)
1350:.\Generated_Source\PSoC4/PWM_Servo.c **** {
 1906              		.loc 1 1350 0
 1907              		.cfi_startproc
 1908 0000 80B5     		push	{r7, lr}
 1909              	.LCFI100:
 1910              		.cfi_def_cfa_offset 8
 1911              		.cfi_offset 7, -8
 1912              		.cfi_offset 14, -4
 1913 0002 00AF     		add	r7, sp, #0
 1914              	.LCFI101:
 1915              		.cfi_def_cfa_register 7
1351:.\Generated_Source\PSoC4/PWM_Servo.c ****     return (PWM_Servo_INTERRUPT_REQ_REG);
 1916              		.loc 1 1351 0
 1917 0004 024B     		ldr	r3, .L124
 1918 0006 1B68     		ldr	r3, [r3]
1352:.\Generated_Source\PSoC4/PWM_Servo.c **** }
 1919              		.loc 1 1352 0
 1920 0008 181C     		mov	r0, r3
 1921 000a BD46     		mov	sp, r7
 1922              		@ sp needed for prologue
 1923 000c 80BD     		pop	{r7, pc}
 1924              	.L125:
 1925 000e C046     		.align	2
 1926              	.L124:
 1927 0010 70010540 		.word	1074069872
 1928              		.cfi_endproc
 1929              	.LFE37:
 1930              		.size	PWM_Servo_GetInterruptSource, .-PWM_Servo_GetInterruptSource
 1931              		.section	.text.PWM_Servo_ClearInterrupt,"ax",%progbits
 1932              		.align	2
 1933              		.global	PWM_Servo_ClearInterrupt
 1934              		.code	16
 1935              		.thumb_func
 1936              		.type	PWM_Servo_ClearInterrupt, %function
 1937              	PWM_Servo_ClearInterrupt:
 1938              	.LFB38:
1353:.\Generated_Source\PSoC4/PWM_Servo.c **** 
1354:.\Generated_Source\PSoC4/PWM_Servo.c **** 
1355:.\Generated_Source\PSoC4/PWM_Servo.c **** /*******************************************************************************
1356:.\Generated_Source\PSoC4/PWM_Servo.c **** * Function Name: PWM_Servo_ClearInterrupt
1357:.\Generated_Source\PSoC4/PWM_Servo.c **** ********************************************************************************
1358:.\Generated_Source\PSoC4/PWM_Servo.c **** *
1359:.\Generated_Source\PSoC4/PWM_Servo.c **** * Summary:
1360:.\Generated_Source\PSoC4/PWM_Servo.c **** *  Clears the interrupt request.
1361:.\Generated_Source\PSoC4/PWM_Servo.c **** *
1362:.\Generated_Source\PSoC4/PWM_Servo.c **** * Parameters:
1363:.\Generated_Source\PSoC4/PWM_Servo.c **** *   interruptMask: Mask of interrupts to clear
1364:.\Generated_Source\PSoC4/PWM_Servo.c **** *   Values:
1365:.\Generated_Source\PSoC4/PWM_Servo.c **** *     - PWM_Servo_INTR_MASK_TC       - Terminal count mask
1366:.\Generated_Source\PSoC4/PWM_Servo.c **** *     - PWM_Servo_INTR_MASK_CC_MATCH - Compare count / capture mask
1367:.\Generated_Source\PSoC4/PWM_Servo.c **** *
ARM GAS  C:\Users\Jared\AppData\Local\Temp\cclIiKIu.s 			page 59


1368:.\Generated_Source\PSoC4/PWM_Servo.c **** * Return:
1369:.\Generated_Source\PSoC4/PWM_Servo.c **** *  None
1370:.\Generated_Source\PSoC4/PWM_Servo.c **** *
1371:.\Generated_Source\PSoC4/PWM_Servo.c **** *******************************************************************************/
1372:.\Generated_Source\PSoC4/PWM_Servo.c **** void PWM_Servo_ClearInterrupt(uint32 interruptMask)
1373:.\Generated_Source\PSoC4/PWM_Servo.c **** {
 1939              		.loc 1 1373 0
 1940              		.cfi_startproc
 1941 0000 80B5     		push	{r7, lr}
 1942              	.LCFI102:
 1943              		.cfi_def_cfa_offset 8
 1944              		.cfi_offset 7, -8
 1945              		.cfi_offset 14, -4
 1946 0002 82B0     		sub	sp, sp, #8
 1947              	.LCFI103:
 1948              		.cfi_def_cfa_offset 16
 1949 0004 00AF     		add	r7, sp, #0
 1950              	.LCFI104:
 1951              		.cfi_def_cfa_register 7
 1952 0006 7860     		str	r0, [r7, #4]
1374:.\Generated_Source\PSoC4/PWM_Servo.c ****     PWM_Servo_INTERRUPT_REQ_REG = interruptMask;
 1953              		.loc 1 1374 0
 1954 0008 024B     		ldr	r3, .L127
 1955 000a 7A68     		ldr	r2, [r7, #4]
 1956 000c 1A60     		str	r2, [r3]
1375:.\Generated_Source\PSoC4/PWM_Servo.c **** }
 1957              		.loc 1 1375 0
 1958 000e BD46     		mov	sp, r7
 1959 0010 02B0     		add	sp, sp, #8
 1960              		@ sp needed for prologue
 1961 0012 80BD     		pop	{r7, pc}
 1962              	.L128:
 1963              		.align	2
 1964              	.L127:
 1965 0014 70010540 		.word	1074069872
 1966              		.cfi_endproc
 1967              	.LFE38:
 1968              		.size	PWM_Servo_ClearInterrupt, .-PWM_Servo_ClearInterrupt
 1969              		.section	.text.PWM_Servo_SetInterrupt,"ax",%progbits
 1970              		.align	2
 1971              		.global	PWM_Servo_SetInterrupt
 1972              		.code	16
 1973              		.thumb_func
 1974              		.type	PWM_Servo_SetInterrupt, %function
 1975              	PWM_Servo_SetInterrupt:
 1976              	.LFB39:
1376:.\Generated_Source\PSoC4/PWM_Servo.c **** 
1377:.\Generated_Source\PSoC4/PWM_Servo.c **** 
1378:.\Generated_Source\PSoC4/PWM_Servo.c **** /*******************************************************************************
1379:.\Generated_Source\PSoC4/PWM_Servo.c **** * Function Name: PWM_Servo_SetInterrupt
1380:.\Generated_Source\PSoC4/PWM_Servo.c **** ********************************************************************************
1381:.\Generated_Source\PSoC4/PWM_Servo.c **** *
1382:.\Generated_Source\PSoC4/PWM_Servo.c **** * Summary:
1383:.\Generated_Source\PSoC4/PWM_Servo.c **** *  Sets a software interrupt request.
1384:.\Generated_Source\PSoC4/PWM_Servo.c **** *
1385:.\Generated_Source\PSoC4/PWM_Servo.c **** * Parameters:
1386:.\Generated_Source\PSoC4/PWM_Servo.c **** *   interruptMask: Mask of interrupts to set
ARM GAS  C:\Users\Jared\AppData\Local\Temp\cclIiKIu.s 			page 60


1387:.\Generated_Source\PSoC4/PWM_Servo.c **** *   Values:
1388:.\Generated_Source\PSoC4/PWM_Servo.c **** *     - PWM_Servo_INTR_MASK_TC       - Terminal count mask
1389:.\Generated_Source\PSoC4/PWM_Servo.c **** *     - PWM_Servo_INTR_MASK_CC_MATCH - Compare count / capture mask
1390:.\Generated_Source\PSoC4/PWM_Servo.c **** *
1391:.\Generated_Source\PSoC4/PWM_Servo.c **** * Return:
1392:.\Generated_Source\PSoC4/PWM_Servo.c **** *  None
1393:.\Generated_Source\PSoC4/PWM_Servo.c **** *
1394:.\Generated_Source\PSoC4/PWM_Servo.c **** *******************************************************************************/
1395:.\Generated_Source\PSoC4/PWM_Servo.c **** void PWM_Servo_SetInterrupt(uint32 interruptMask)
1396:.\Generated_Source\PSoC4/PWM_Servo.c **** {
 1977              		.loc 1 1396 0
 1978              		.cfi_startproc
 1979 0000 80B5     		push	{r7, lr}
 1980              	.LCFI105:
 1981              		.cfi_def_cfa_offset 8
 1982              		.cfi_offset 7, -8
 1983              		.cfi_offset 14, -4
 1984 0002 82B0     		sub	sp, sp, #8
 1985              	.LCFI106:
 1986              		.cfi_def_cfa_offset 16
 1987 0004 00AF     		add	r7, sp, #0
 1988              	.LCFI107:
 1989              		.cfi_def_cfa_register 7
 1990 0006 7860     		str	r0, [r7, #4]
1397:.\Generated_Source\PSoC4/PWM_Servo.c ****     PWM_Servo_INTERRUPT_SET_REG = interruptMask;
 1991              		.loc 1 1397 0
 1992 0008 024B     		ldr	r3, .L130
 1993 000a 7A68     		ldr	r2, [r7, #4]
 1994 000c 1A60     		str	r2, [r3]
1398:.\Generated_Source\PSoC4/PWM_Servo.c **** }
 1995              		.loc 1 1398 0
 1996 000e BD46     		mov	sp, r7
 1997 0010 02B0     		add	sp, sp, #8
 1998              		@ sp needed for prologue
 1999 0012 80BD     		pop	{r7, pc}
 2000              	.L131:
 2001              		.align	2
 2002              	.L130:
 2003 0014 74010540 		.word	1074069876
 2004              		.cfi_endproc
 2005              	.LFE39:
 2006              		.size	PWM_Servo_SetInterrupt, .-PWM_Servo_SetInterrupt
 2007              		.text
 2008              	.Letext0:
 2009              		.file 2 ".\\Generated_Source\\PSoC4\\cytypes.h"