ARM GAS  C:\Users\Jared\AppData\Local\Temp\ccqgopA5.s 			page 1


   1              		.cpu cortex-m0
   2              		.fpu softvfp
   3              		.eabi_attribute 20, 1
   4              		.eabi_attribute 21, 1
   5              		.eabi_attribute 23, 3
   6              		.eabi_attribute 24, 1
   7              		.eabi_attribute 25, 1
   8              		.eabi_attribute 26, 1
   9              		.eabi_attribute 30, 6
  10              		.eabi_attribute 34, 0
  11              		.eabi_attribute 18, 4
  12              		.code	16
  13              		.file	"Timer1.c"
  14              		.text
  15              	.Ltext0:
  16              		.cfi_sections	.debug_frame
  17              		.global	Timer1_initVar
  18              		.bss
  19              		.type	Timer1_initVar, %object
  20              		.size	Timer1_initVar, 1
  21              	Timer1_initVar:
  22 0000 00       		.space	1
  23              		.section	.text.Timer1_Init,"ax",%progbits
  24              		.align	2
  25              		.global	Timer1_Init
  26              		.code	16
  27              		.thumb_func
  28              		.type	Timer1_Init, %function
  29              	Timer1_Init:
  30              	.LFB0:
  31              		.file 1 ".\\Generated_Source\\PSoC4\\Timer1.c"
   1:.\Generated_Source\PSoC4/Timer1.c **** /*******************************************************************************
   2:.\Generated_Source\PSoC4/Timer1.c **** * File Name: Timer1.c
   3:.\Generated_Source\PSoC4/Timer1.c **** * Version 1.10
   4:.\Generated_Source\PSoC4/Timer1.c **** *
   5:.\Generated_Source\PSoC4/Timer1.c **** * Description:
   6:.\Generated_Source\PSoC4/Timer1.c **** *  This file provides the source code to the API for the Timer1
   7:.\Generated_Source\PSoC4/Timer1.c **** *  component
   8:.\Generated_Source\PSoC4/Timer1.c **** *
   9:.\Generated_Source\PSoC4/Timer1.c **** * Note:
  10:.\Generated_Source\PSoC4/Timer1.c **** *  None
  11:.\Generated_Source\PSoC4/Timer1.c **** *
  12:.\Generated_Source\PSoC4/Timer1.c **** ********************************************************************************
  13:.\Generated_Source\PSoC4/Timer1.c **** * Copyright 2013-2014, Cypress Semiconductor Corporation.  All rights reserved.
  14:.\Generated_Source\PSoC4/Timer1.c **** * You may use this file only in accordance with the license, terms, conditions,
  15:.\Generated_Source\PSoC4/Timer1.c **** * disclaimers, and limitations in the end user license agreement accompanying
  16:.\Generated_Source\PSoC4/Timer1.c **** * the software package with which this file was provided.
  17:.\Generated_Source\PSoC4/Timer1.c **** *******************************************************************************/
  18:.\Generated_Source\PSoC4/Timer1.c **** 
  19:.\Generated_Source\PSoC4/Timer1.c **** #include "Timer1.h"
  20:.\Generated_Source\PSoC4/Timer1.c **** #include "CyLib.h"
  21:.\Generated_Source\PSoC4/Timer1.c **** 
  22:.\Generated_Source\PSoC4/Timer1.c **** uint8 Timer1_initVar = 0u;
  23:.\Generated_Source\PSoC4/Timer1.c **** 
  24:.\Generated_Source\PSoC4/Timer1.c **** 
  25:.\Generated_Source\PSoC4/Timer1.c **** /*******************************************************************************
  26:.\Generated_Source\PSoC4/Timer1.c **** * Function Name: Timer1_Init
ARM GAS  C:\Users\Jared\AppData\Local\Temp\ccqgopA5.s 			page 2


  27:.\Generated_Source\PSoC4/Timer1.c **** ********************************************************************************
  28:.\Generated_Source\PSoC4/Timer1.c **** *
  29:.\Generated_Source\PSoC4/Timer1.c **** * Summary:
  30:.\Generated_Source\PSoC4/Timer1.c **** *  Initialize/Restore default Timer1 configuration.
  31:.\Generated_Source\PSoC4/Timer1.c **** *
  32:.\Generated_Source\PSoC4/Timer1.c **** * Parameters:
  33:.\Generated_Source\PSoC4/Timer1.c **** *  None
  34:.\Generated_Source\PSoC4/Timer1.c **** *
  35:.\Generated_Source\PSoC4/Timer1.c **** * Return:
  36:.\Generated_Source\PSoC4/Timer1.c **** *  None
  37:.\Generated_Source\PSoC4/Timer1.c **** *
  38:.\Generated_Source\PSoC4/Timer1.c **** *******************************************************************************/
  39:.\Generated_Source\PSoC4/Timer1.c **** void Timer1_Init(void)
  40:.\Generated_Source\PSoC4/Timer1.c **** {
  32              		.loc 1 40 0
  33              		.cfi_startproc
  34 0000 80B5     		push	{r7, lr}
  35              	.LCFI0:
  36              		.cfi_def_cfa_offset 8
  37              		.cfi_offset 7, -8
  38              		.cfi_offset 14, -4
  39 0002 00AF     		add	r7, sp, #0
  40              	.LCFI1:
  41              		.cfi_def_cfa_register 7
  41:.\Generated_Source\PSoC4/Timer1.c **** 
  42:.\Generated_Source\PSoC4/Timer1.c ****     /* Set values from customizer to CTRL */
  43:.\Generated_Source\PSoC4/Timer1.c ****     #if (Timer1__QUAD == Timer1_CONFIG)
  44:.\Generated_Source\PSoC4/Timer1.c ****         Timer1_CONTROL_REG =
  45:.\Generated_Source\PSoC4/Timer1.c ****         (((uint32)(Timer1_QUAD_ENCODING_MODES     << Timer1_QUAD_MODE_SHIFT))       |
  46:.\Generated_Source\PSoC4/Timer1.c ****          ((uint32)(Timer1_CONFIG                  << Timer1_MODE_SHIFT)));
  47:.\Generated_Source\PSoC4/Timer1.c ****     #endif  /* (Timer1__QUAD == Timer1_CONFIG) */
  48:.\Generated_Source\PSoC4/Timer1.c **** 
  49:.\Generated_Source\PSoC4/Timer1.c ****     #if (Timer1__PWM_SEL == Timer1_CONFIG)
  50:.\Generated_Source\PSoC4/Timer1.c ****         Timer1_CONTROL_REG =
  51:.\Generated_Source\PSoC4/Timer1.c ****         (((uint32)(Timer1_PWM_STOP_EVENT          << Timer1_PWM_STOP_KILL_SHIFT))    |
  52:.\Generated_Source\PSoC4/Timer1.c ****          ((uint32)(Timer1_PWM_OUT_INVERT          << Timer1_INV_OUT_SHIFT))         |
  53:.\Generated_Source\PSoC4/Timer1.c ****          ((uint32)(Timer1_PWM_OUT_N_INVERT        << Timer1_INV_COMPL_OUT_SHIFT))     |
  54:.\Generated_Source\PSoC4/Timer1.c ****          ((uint32)(Timer1_PWM_MODE                << Timer1_MODE_SHIFT)));
  55:.\Generated_Source\PSoC4/Timer1.c **** 
  56:.\Generated_Source\PSoC4/Timer1.c ****         #if (Timer1__PWM_PR == Timer1_PWM_MODE)
  57:.\Generated_Source\PSoC4/Timer1.c ****             Timer1_CONTROL_REG |=
  58:.\Generated_Source\PSoC4/Timer1.c ****             ((uint32)(Timer1_PWM_RUN_MODE         << Timer1_ONESHOT_SHIFT));
  59:.\Generated_Source\PSoC4/Timer1.c **** 
  60:.\Generated_Source\PSoC4/Timer1.c ****             Timer1_WriteCounter(Timer1_PWM_PR_INIT_VALUE);
  61:.\Generated_Source\PSoC4/Timer1.c ****         #else
  62:.\Generated_Source\PSoC4/Timer1.c ****             Timer1_CONTROL_REG |=
  63:.\Generated_Source\PSoC4/Timer1.c ****             (((uint32)(Timer1_PWM_ALIGN           << Timer1_UPDOWN_SHIFT))          |
  64:.\Generated_Source\PSoC4/Timer1.c ****              ((uint32)(Timer1_PWM_KILL_EVENT      << Timer1_PWM_SYNC_KILL_SHIFT)));
  65:.\Generated_Source\PSoC4/Timer1.c ****         #endif  /* (Timer1__PWM_PR == Timer1_PWM_MODE) */
  66:.\Generated_Source\PSoC4/Timer1.c **** 
  67:.\Generated_Source\PSoC4/Timer1.c ****         #if (Timer1__PWM_DT == Timer1_PWM_MODE)
  68:.\Generated_Source\PSoC4/Timer1.c ****             Timer1_CONTROL_REG |=
  69:.\Generated_Source\PSoC4/Timer1.c ****             ((uint32)(Timer1_PWM_DEAD_TIME_CYCLE  << Timer1_PRESCALER_SHIFT));
  70:.\Generated_Source\PSoC4/Timer1.c ****         #endif  /* (Timer1__PWM_DT == Timer1_PWM_MODE) */
  71:.\Generated_Source\PSoC4/Timer1.c **** 
  72:.\Generated_Source\PSoC4/Timer1.c ****         #if (Timer1__PWM == Timer1_PWM_MODE)
  73:.\Generated_Source\PSoC4/Timer1.c ****             Timer1_CONTROL_REG |=
ARM GAS  C:\Users\Jared\AppData\Local\Temp\ccqgopA5.s 			page 3


  74:.\Generated_Source\PSoC4/Timer1.c ****             ((uint32)Timer1_PWM_PRESCALER         << Timer1_PRESCALER_SHIFT);
  75:.\Generated_Source\PSoC4/Timer1.c ****         #endif  /* (Timer1__PWM == Timer1_PWM_MODE) */
  76:.\Generated_Source\PSoC4/Timer1.c ****     #endif  /* (Timer1__PWM_SEL == Timer1_CONFIG) */
  77:.\Generated_Source\PSoC4/Timer1.c **** 
  78:.\Generated_Source\PSoC4/Timer1.c ****     #if (Timer1__TIMER == Timer1_CONFIG)
  79:.\Generated_Source\PSoC4/Timer1.c ****         Timer1_CONTROL_REG =
  42              		.loc 1 79 0
  43 0004 0A4B     		ldr	r3, .L2
  44 0006 0B4A     		ldr	r2, .L2+4
  45 0008 1A60     		str	r2, [r3]
  80:.\Generated_Source\PSoC4/Timer1.c ****         (((uint32)(Timer1_TC_PRESCALER            << Timer1_PRESCALER_SHIFT))   |
  81:.\Generated_Source\PSoC4/Timer1.c ****          ((uint32)(Timer1_TC_COUNTER_MODE         << Timer1_UPDOWN_SHIFT))      |
  82:.\Generated_Source\PSoC4/Timer1.c ****          ((uint32)(Timer1_TC_RUN_MODE             << Timer1_ONESHOT_SHIFT))     |
  83:.\Generated_Source\PSoC4/Timer1.c ****          ((uint32)(Timer1_TC_COMP_CAP_MODE        << Timer1_MODE_SHIFT)));
  84:.\Generated_Source\PSoC4/Timer1.c ****     #endif  /* (Timer1__TIMER == Timer1_CONFIG) */
  85:.\Generated_Source\PSoC4/Timer1.c **** 
  86:.\Generated_Source\PSoC4/Timer1.c ****     /* Set values from customizer to CTRL1 */
  87:.\Generated_Source\PSoC4/Timer1.c ****     #if (Timer1__QUAD == Timer1_CONFIG)
  88:.\Generated_Source\PSoC4/Timer1.c ****         Timer1_TRIG_CONTROL1_REG  =
  89:.\Generated_Source\PSoC4/Timer1.c ****         (((uint32)(Timer1_QUAD_PHIA_SIGNAL_MODE   << Timer1_COUNT_SHIFT))       |
  90:.\Generated_Source\PSoC4/Timer1.c ****          ((uint32)(Timer1_QUAD_INDEX_SIGNAL_MODE  << Timer1_RELOAD_SHIFT))      |
  91:.\Generated_Source\PSoC4/Timer1.c ****          ((uint32)(Timer1_QUAD_STOP_SIGNAL_MODE   << Timer1_STOP_SHIFT))        |
  92:.\Generated_Source\PSoC4/Timer1.c ****          ((uint32)(Timer1_QUAD_PHIB_SIGNAL_MODE   << Timer1_START_SHIFT)));
  93:.\Generated_Source\PSoC4/Timer1.c ****     #endif  /* (Timer1__QUAD == Timer1_CONFIG) */
  94:.\Generated_Source\PSoC4/Timer1.c **** 
  95:.\Generated_Source\PSoC4/Timer1.c ****     #if (Timer1__PWM_SEL == Timer1_CONFIG)
  96:.\Generated_Source\PSoC4/Timer1.c ****         Timer1_TRIG_CONTROL1_REG  =
  97:.\Generated_Source\PSoC4/Timer1.c ****         (((uint32)(Timer1_PWM_SWITCH_SIGNAL_MODE  << Timer1_CAPTURE_SHIFT))     |
  98:.\Generated_Source\PSoC4/Timer1.c ****          ((uint32)(Timer1_PWM_COUNT_SIGNAL_MODE   << Timer1_COUNT_SHIFT))       |
  99:.\Generated_Source\PSoC4/Timer1.c ****          ((uint32)(Timer1_PWM_RELOAD_SIGNAL_MODE  << Timer1_RELOAD_SHIFT))      |
 100:.\Generated_Source\PSoC4/Timer1.c ****          ((uint32)(Timer1_PWM_STOP_SIGNAL_MODE    << Timer1_STOP_SHIFT))        |
 101:.\Generated_Source\PSoC4/Timer1.c ****          ((uint32)(Timer1_PWM_START_SIGNAL_MODE   << Timer1_START_SHIFT)));
 102:.\Generated_Source\PSoC4/Timer1.c ****     #endif  /* (Timer1__PWM_SEL == Timer1_CONFIG) */
 103:.\Generated_Source\PSoC4/Timer1.c **** 
 104:.\Generated_Source\PSoC4/Timer1.c ****     #if (Timer1__TIMER == Timer1_CONFIG)
 105:.\Generated_Source\PSoC4/Timer1.c ****         Timer1_TRIG_CONTROL1_REG  =
  46              		.loc 1 105 0
  47 000a 0B4B     		ldr	r3, .L2+8
  48 000c 0C22     		mov	r2, #12
  49 000e 1A60     		str	r2, [r3]
 106:.\Generated_Source\PSoC4/Timer1.c ****         (((uint32)(Timer1_TC_CAPTURE_SIGNAL_MODE  << Timer1_CAPTURE_SHIFT))     |
 107:.\Generated_Source\PSoC4/Timer1.c ****          ((uint32)(Timer1_TC_COUNT_SIGNAL_MODE    << Timer1_COUNT_SHIFT))       |
 108:.\Generated_Source\PSoC4/Timer1.c ****          ((uint32)(Timer1_TC_RELOAD_SIGNAL_MODE   << Timer1_RELOAD_SHIFT))      |
 109:.\Generated_Source\PSoC4/Timer1.c ****          ((uint32)(Timer1_TC_STOP_SIGNAL_MODE     << Timer1_STOP_SHIFT))        |
 110:.\Generated_Source\PSoC4/Timer1.c ****          ((uint32)(Timer1_TC_START_SIGNAL_MODE    << Timer1_START_SHIFT)));
 111:.\Generated_Source\PSoC4/Timer1.c ****     #endif  /* (Timer1__TIMER == Timer1_CONFIG) */
 112:.\Generated_Source\PSoC4/Timer1.c **** 
 113:.\Generated_Source\PSoC4/Timer1.c ****     /* Set values from customizer to INTR */
 114:.\Generated_Source\PSoC4/Timer1.c ****     #if (Timer1__QUAD == Timer1_CONFIG)
 115:.\Generated_Source\PSoC4/Timer1.c ****         Timer1_SetInterruptMode(Timer1_QUAD_INTERRUPT_MASK);
 116:.\Generated_Source\PSoC4/Timer1.c ****     #endif  /* (Timer1__QUAD == Timer1_CONFIG) */
 117:.\Generated_Source\PSoC4/Timer1.c **** 
 118:.\Generated_Source\PSoC4/Timer1.c ****     #if (Timer1__PWM_SEL == Timer1_CONFIG)
 119:.\Generated_Source\PSoC4/Timer1.c ****         Timer1_SetInterruptMode(Timer1_PWM_INTERRUPT_MASK);
 120:.\Generated_Source\PSoC4/Timer1.c ****     #endif  /* (Timer1__PWM_SEL == Timer1_CONFIG) */
 121:.\Generated_Source\PSoC4/Timer1.c **** 
 122:.\Generated_Source\PSoC4/Timer1.c ****     #if (Timer1__TIMER == Timer1_CONFIG)
ARM GAS  C:\Users\Jared\AppData\Local\Temp\ccqgopA5.s 			page 4


 123:.\Generated_Source\PSoC4/Timer1.c ****         Timer1_SetInterruptMode(Timer1_TC_INTERRUPT_MASK);
  50              		.loc 1 123 0
  51 0010 0120     		mov	r0, #1
  52 0012 FFF7FEFF 		bl	Timer1_SetInterruptMode
 124:.\Generated_Source\PSoC4/Timer1.c ****     #endif  /* (Timer1__TIMER == Timer1_CONFIG) */
 125:.\Generated_Source\PSoC4/Timer1.c **** 
 126:.\Generated_Source\PSoC4/Timer1.c ****     /* Set other values from customizer */
 127:.\Generated_Source\PSoC4/Timer1.c ****     #if (Timer1__TIMER == Timer1_CONFIG)
 128:.\Generated_Source\PSoC4/Timer1.c ****         Timer1_WritePeriod(Timer1_TC_PERIOD_VALUE );
  53              		.loc 1 128 0
  54 0016 FA23     		mov	r3, #250
  55 0018 9B00     		lsl	r3, r3, #2
  56 001a 181C     		mov	r0, r3
  57 001c FFF7FEFF 		bl	Timer1_WritePeriod
 129:.\Generated_Source\PSoC4/Timer1.c **** 
 130:.\Generated_Source\PSoC4/Timer1.c ****         #if (Timer1__COUNT_DOWN == Timer1_TC_COUNTER_MODE)
 131:.\Generated_Source\PSoC4/Timer1.c ****             Timer1_WriteCounter(Timer1_TC_PERIOD_VALUE );
  58              		.loc 1 131 0
  59 0020 FA23     		mov	r3, #250
  60 0022 9B00     		lsl	r3, r3, #2
  61 0024 181C     		mov	r0, r3
  62 0026 FFF7FEFF 		bl	Timer1_WriteCounter
 132:.\Generated_Source\PSoC4/Timer1.c ****         #endif  /* (Timer1__COUNT_DOWN == Timer1_TC_COUNTER_MODE) */
 133:.\Generated_Source\PSoC4/Timer1.c **** 
 134:.\Generated_Source\PSoC4/Timer1.c ****         #if (Timer1__COMPARE == Timer1_TC_COMP_CAP_MODE)
 135:.\Generated_Source\PSoC4/Timer1.c ****             Timer1_WriteCompare(Timer1_TC_COMPARE_VALUE);
 136:.\Generated_Source\PSoC4/Timer1.c **** 
 137:.\Generated_Source\PSoC4/Timer1.c ****             #if (1u == Timer1_TC_COMPARE_SWAP)
 138:.\Generated_Source\PSoC4/Timer1.c ****                 Timer1_SetCompareSwap(1u);
 139:.\Generated_Source\PSoC4/Timer1.c ****                 Timer1_WriteCompareBuf(Timer1_TC_COMPARE_BUF_VALUE);
 140:.\Generated_Source\PSoC4/Timer1.c ****             #endif  /* (1u == Timer1_TC_COMPARE_SWAP) */
 141:.\Generated_Source\PSoC4/Timer1.c ****         #endif  /* (Timer1__COMPARE == Timer1_TC_COMP_CAP_MODE) */
 142:.\Generated_Source\PSoC4/Timer1.c ****     #endif  /* (Timer1__TIMER == Timer1_CONFIG) */
 143:.\Generated_Source\PSoC4/Timer1.c **** 
 144:.\Generated_Source\PSoC4/Timer1.c ****     #if (Timer1__PWM_SEL == Timer1_CONFIG)
 145:.\Generated_Source\PSoC4/Timer1.c ****         Timer1_WritePeriod(Timer1_PWM_PERIOD_VALUE );
 146:.\Generated_Source\PSoC4/Timer1.c ****         Timer1_WriteCompare(Timer1_PWM_COMPARE_VALUE);
 147:.\Generated_Source\PSoC4/Timer1.c **** 
 148:.\Generated_Source\PSoC4/Timer1.c ****         #if (1u == Timer1_PWM_COMPARE_SWAP)
 149:.\Generated_Source\PSoC4/Timer1.c ****             Timer1_SetCompareSwap(1u);
 150:.\Generated_Source\PSoC4/Timer1.c ****             Timer1_WriteCompareBuf(Timer1_PWM_COMPARE_BUF_VALUE);
 151:.\Generated_Source\PSoC4/Timer1.c ****         #endif  /* (1u == Timer1_PWM_COMPARE_SWAP) */
 152:.\Generated_Source\PSoC4/Timer1.c **** 
 153:.\Generated_Source\PSoC4/Timer1.c ****         #if (1u == Timer1_PWM_PERIOD_SWAP)
 154:.\Generated_Source\PSoC4/Timer1.c ****             Timer1_SetPeriodSwap(1u);
 155:.\Generated_Source\PSoC4/Timer1.c ****             Timer1_WritePeriodBuf(Timer1_PWM_PERIOD_BUF_VALUE);
 156:.\Generated_Source\PSoC4/Timer1.c ****         #endif  /* (1u == Timer1_PWM_PERIOD_SWAP) */
 157:.\Generated_Source\PSoC4/Timer1.c **** 
 158:.\Generated_Source\PSoC4/Timer1.c ****         /* Set values from customizer to CTRL2 */
 159:.\Generated_Source\PSoC4/Timer1.c ****         #if (Timer1__PWM_PR == Timer1_PWM_MODE)
 160:.\Generated_Source\PSoC4/Timer1.c ****             Timer1_TRIG_CONTROL2_REG =
 161:.\Generated_Source\PSoC4/Timer1.c ****                     (Timer1_CC_MATCH_NO_CHANGE    |
 162:.\Generated_Source\PSoC4/Timer1.c ****                     Timer1_OVERLOW_NO_CHANGE      |
 163:.\Generated_Source\PSoC4/Timer1.c ****                     Timer1_UNDERFLOW_NO_CHANGE);
 164:.\Generated_Source\PSoC4/Timer1.c ****         #else
 165:.\Generated_Source\PSoC4/Timer1.c ****             #if (Timer1__LEFT == Timer1_PWM_ALIGN)
 166:.\Generated_Source\PSoC4/Timer1.c ****                 Timer1_TRIG_CONTROL2_REG = Timer1_PWM_MODE_LEFT;
ARM GAS  C:\Users\Jared\AppData\Local\Temp\ccqgopA5.s 			page 5


 167:.\Generated_Source\PSoC4/Timer1.c ****             #endif  /* ( Timer1_PWM_LEFT == Timer1_PWM_ALIGN) */
 168:.\Generated_Source\PSoC4/Timer1.c **** 
 169:.\Generated_Source\PSoC4/Timer1.c ****             #if (Timer1__RIGHT == Timer1_PWM_ALIGN)
 170:.\Generated_Source\PSoC4/Timer1.c ****                 Timer1_WriteCounter(Timer1_PWM_PERIOD_VALUE);
 171:.\Generated_Source\PSoC4/Timer1.c ****                 Timer1_TRIG_CONTROL2_REG = Timer1_PWM_MODE_RIGHT;
 172:.\Generated_Source\PSoC4/Timer1.c ****             #endif  /* ( Timer1_PWM_RIGHT == Timer1_PWM_ALIGN) */
 173:.\Generated_Source\PSoC4/Timer1.c **** 
 174:.\Generated_Source\PSoC4/Timer1.c ****             #if (Timer1__CENTER == Timer1_PWM_ALIGN)
 175:.\Generated_Source\PSoC4/Timer1.c ****                 Timer1_TRIG_CONTROL2_REG = Timer1_PWM_MODE_CENTER;
 176:.\Generated_Source\PSoC4/Timer1.c ****             #endif  /* ( Timer1_PWM_CENTER == Timer1_PWM_ALIGN) */
 177:.\Generated_Source\PSoC4/Timer1.c **** 
 178:.\Generated_Source\PSoC4/Timer1.c ****             #if (Timer1__ASYMMETRIC == Timer1_PWM_ALIGN)
 179:.\Generated_Source\PSoC4/Timer1.c ****                 Timer1_TRIG_CONTROL2_REG = Timer1_PWM_MODE_ASYM;
 180:.\Generated_Source\PSoC4/Timer1.c ****             #endif  /* (Timer1__ASYMMETRIC == Timer1_PWM_ALIGN) */
 181:.\Generated_Source\PSoC4/Timer1.c ****         #endif  /* (Timer1__PWM_PR == Timer1_PWM_MODE) */
 182:.\Generated_Source\PSoC4/Timer1.c ****     #endif  /* (Timer1__PWM_SEL == Timer1_CONFIG) */
 183:.\Generated_Source\PSoC4/Timer1.c **** }
  63              		.loc 1 183 0
  64 002a BD46     		mov	sp, r7
  65              		@ sp needed for prologue
  66 002c 80BD     		pop	{r7, pc}
  67              	.L3:
  68 002e C046     		.align	2
  69              	.L2:
  70 0030 00010540 		.word	1074069760
  71 0034 00000102 		.word	33619968
  72 0038 24010540 		.word	1074069796
  73              		.cfi_endproc
  74              	.LFE0:
  75              		.size	Timer1_Init, .-Timer1_Init
  76              		.section	.text.Timer1_Enable,"ax",%progbits
  77              		.align	2
  78              		.global	Timer1_Enable
  79              		.code	16
  80              		.thumb_func
  81              		.type	Timer1_Enable, %function
  82              	Timer1_Enable:
  83              	.LFB1:
 184:.\Generated_Source\PSoC4/Timer1.c **** 
 185:.\Generated_Source\PSoC4/Timer1.c **** 
 186:.\Generated_Source\PSoC4/Timer1.c **** /*******************************************************************************
 187:.\Generated_Source\PSoC4/Timer1.c **** * Function Name: Timer1_Enable
 188:.\Generated_Source\PSoC4/Timer1.c **** ********************************************************************************
 189:.\Generated_Source\PSoC4/Timer1.c **** *
 190:.\Generated_Source\PSoC4/Timer1.c **** * Summary:
 191:.\Generated_Source\PSoC4/Timer1.c **** *  Enables the Timer1.
 192:.\Generated_Source\PSoC4/Timer1.c **** *
 193:.\Generated_Source\PSoC4/Timer1.c **** * Parameters:
 194:.\Generated_Source\PSoC4/Timer1.c **** *  None
 195:.\Generated_Source\PSoC4/Timer1.c **** *
 196:.\Generated_Source\PSoC4/Timer1.c **** * Return:
 197:.\Generated_Source\PSoC4/Timer1.c **** *  None
 198:.\Generated_Source\PSoC4/Timer1.c **** *
 199:.\Generated_Source\PSoC4/Timer1.c **** *******************************************************************************/
 200:.\Generated_Source\PSoC4/Timer1.c **** void Timer1_Enable(void)
 201:.\Generated_Source\PSoC4/Timer1.c **** {
  84              		.loc 1 201 0
ARM GAS  C:\Users\Jared\AppData\Local\Temp\ccqgopA5.s 			page 6


  85              		.cfi_startproc
  86 0000 90B5     		push	{r4, r7, lr}
  87              	.LCFI2:
  88              		.cfi_def_cfa_offset 12
  89              		.cfi_offset 4, -12
  90              		.cfi_offset 7, -8
  91              		.cfi_offset 14, -4
  92 0002 83B0     		sub	sp, sp, #12
  93              	.LCFI3:
  94              		.cfi_def_cfa_offset 24
  95 0004 00AF     		add	r7, sp, #0
  96              	.LCFI4:
  97              		.cfi_def_cfa_register 7
 202:.\Generated_Source\PSoC4/Timer1.c ****     uint8 enableInterrupts;
 203:.\Generated_Source\PSoC4/Timer1.c **** 
 204:.\Generated_Source\PSoC4/Timer1.c ****     enableInterrupts = CyEnterCriticalSection();
  98              		.loc 1 204 0
  99 0006 FC1D     		add	r4, r7, #7
 100 0008 FFF7FEFF 		bl	CyEnterCriticalSection
 101 000c 031C     		mov	r3, r0
 102 000e 2370     		strb	r3, [r4]
 205:.\Generated_Source\PSoC4/Timer1.c ****     Timer1_BLOCK_CONTROL_REG |= Timer1_MASK;
 103              		.loc 1 205 0
 104 0010 084B     		ldr	r3, .L5
 105 0012 084A     		ldr	r2, .L5
 106 0014 1268     		ldr	r2, [r2]
 107 0016 0121     		mov	r1, #1
 108 0018 0A43     		orr	r2, r1
 109 001a 1A60     		str	r2, [r3]
 206:.\Generated_Source\PSoC4/Timer1.c ****     CyExitCriticalSection(enableInterrupts);
 110              		.loc 1 206 0
 111 001c FB1D     		add	r3, r7, #7
 112 001e 1B78     		ldrb	r3, [r3]
 113 0020 181C     		mov	r0, r3
 114 0022 FFF7FEFF 		bl	CyExitCriticalSection
 207:.\Generated_Source\PSoC4/Timer1.c **** 
 208:.\Generated_Source\PSoC4/Timer1.c ****     /* Start Timer or PWM if start input is absent */
 209:.\Generated_Source\PSoC4/Timer1.c ****     #if (Timer1__PWM_SEL == Timer1_CONFIG)
 210:.\Generated_Source\PSoC4/Timer1.c ****         #if (0u == Timer1_PWM_START_SIGNAL_PRESENT)
 211:.\Generated_Source\PSoC4/Timer1.c ****             Timer1_TriggerCommand(Timer1_MASK, Timer1_CMD_START);
 212:.\Generated_Source\PSoC4/Timer1.c ****         #endif /* (0u == Timer1_PWM_START_SIGNAL_PRESENT) */
 213:.\Generated_Source\PSoC4/Timer1.c ****     #endif /* (Timer1__PWM_SEL == Timer1_CONFIG) */
 214:.\Generated_Source\PSoC4/Timer1.c **** 
 215:.\Generated_Source\PSoC4/Timer1.c ****     #if (Timer1__TIMER == Timer1_CONFIG)
 216:.\Generated_Source\PSoC4/Timer1.c ****         #if (0u == Timer1_TC_START_SIGNAL_PRESENT)
 217:.\Generated_Source\PSoC4/Timer1.c ****             Timer1_TriggerCommand(Timer1_MASK, Timer1_CMD_START);
 115              		.loc 1 217 0
 116 0026 0120     		mov	r0, #1
 117 0028 1821     		mov	r1, #24
 118 002a FFF7FEFF 		bl	Timer1_TriggerCommand
 218:.\Generated_Source\PSoC4/Timer1.c ****         #endif /* (0u == Timer1_TC_START_SIGNAL_PRESENT) */
 219:.\Generated_Source\PSoC4/Timer1.c ****     #endif /* (Timer1__TIMER == Timer1_CONFIG) */
 220:.\Generated_Source\PSoC4/Timer1.c **** }
 119              		.loc 1 220 0
 120 002e BD46     		mov	sp, r7
 121 0030 03B0     		add	sp, sp, #12
 122              		@ sp needed for prologue
ARM GAS  C:\Users\Jared\AppData\Local\Temp\ccqgopA5.s 			page 7


 123 0032 90BD     		pop	{r4, r7, pc}
 124              	.L6:
 125              		.align	2
 126              	.L5:
 127 0034 00000540 		.word	1074069504
 128              		.cfi_endproc
 129              	.LFE1:
 130              		.size	Timer1_Enable, .-Timer1_Enable
 131              		.section	.text.Timer1_Start,"ax",%progbits
 132              		.align	2
 133              		.global	Timer1_Start
 134              		.code	16
 135              		.thumb_func
 136              		.type	Timer1_Start, %function
 137              	Timer1_Start:
 138              	.LFB2:
 221:.\Generated_Source\PSoC4/Timer1.c **** 
 222:.\Generated_Source\PSoC4/Timer1.c **** 
 223:.\Generated_Source\PSoC4/Timer1.c **** /*******************************************************************************
 224:.\Generated_Source\PSoC4/Timer1.c **** * Function Name: Timer1_Start
 225:.\Generated_Source\PSoC4/Timer1.c **** ********************************************************************************
 226:.\Generated_Source\PSoC4/Timer1.c **** *
 227:.\Generated_Source\PSoC4/Timer1.c **** * Summary:
 228:.\Generated_Source\PSoC4/Timer1.c **** *  Initializes the Timer1 with default customizer
 229:.\Generated_Source\PSoC4/Timer1.c **** *  values when called the first time and enables the Timer1.
 230:.\Generated_Source\PSoC4/Timer1.c **** *  For subsequent calls the configuration is left unchanged and the component is
 231:.\Generated_Source\PSoC4/Timer1.c **** *  just enabled.
 232:.\Generated_Source\PSoC4/Timer1.c **** *
 233:.\Generated_Source\PSoC4/Timer1.c **** * Parameters:
 234:.\Generated_Source\PSoC4/Timer1.c **** *  None
 235:.\Generated_Source\PSoC4/Timer1.c **** *
 236:.\Generated_Source\PSoC4/Timer1.c **** * Return:
 237:.\Generated_Source\PSoC4/Timer1.c **** *  None
 238:.\Generated_Source\PSoC4/Timer1.c **** *
 239:.\Generated_Source\PSoC4/Timer1.c **** * Global variables:
 240:.\Generated_Source\PSoC4/Timer1.c **** *  Timer1_initVar: global variable is used to indicate initial
 241:.\Generated_Source\PSoC4/Timer1.c **** *  configuration of this component.  The variable is initialized to zero and set
 242:.\Generated_Source\PSoC4/Timer1.c **** *  to 1 the first time Timer1_Start() is called. This allows
 243:.\Generated_Source\PSoC4/Timer1.c **** *  enabling/disabling a component without re-initialization in all subsequent
 244:.\Generated_Source\PSoC4/Timer1.c **** *  calls to the Timer1_Start() routine.
 245:.\Generated_Source\PSoC4/Timer1.c **** *
 246:.\Generated_Source\PSoC4/Timer1.c **** *******************************************************************************/
 247:.\Generated_Source\PSoC4/Timer1.c **** void Timer1_Start(void)
 248:.\Generated_Source\PSoC4/Timer1.c **** {
 139              		.loc 1 248 0
 140              		.cfi_startproc
 141 0000 80B5     		push	{r7, lr}
 142              	.LCFI5:
 143              		.cfi_def_cfa_offset 8
 144              		.cfi_offset 7, -8
 145              		.cfi_offset 14, -4
 146 0002 00AF     		add	r7, sp, #0
 147              	.LCFI6:
 148              		.cfi_def_cfa_register 7
 249:.\Generated_Source\PSoC4/Timer1.c ****     if (0u == Timer1_initVar)
 149              		.loc 1 249 0
 150 0004 064B     		ldr	r3, .L9
ARM GAS  C:\Users\Jared\AppData\Local\Temp\ccqgopA5.s 			page 8


 151 0006 1B78     		ldrb	r3, [r3]
 152 0008 002B     		cmp	r3, #0
 153 000a 04D1     		bne	.L8
 250:.\Generated_Source\PSoC4/Timer1.c ****     {
 251:.\Generated_Source\PSoC4/Timer1.c ****         Timer1_Init();
 154              		.loc 1 251 0
 155 000c FFF7FEFF 		bl	Timer1_Init
 252:.\Generated_Source\PSoC4/Timer1.c ****         Timer1_initVar = 1u;
 156              		.loc 1 252 0
 157 0010 034B     		ldr	r3, .L9
 158 0012 0122     		mov	r2, #1
 159 0014 1A70     		strb	r2, [r3]
 160              	.L8:
 253:.\Generated_Source\PSoC4/Timer1.c ****     }
 254:.\Generated_Source\PSoC4/Timer1.c **** 
 255:.\Generated_Source\PSoC4/Timer1.c ****     Timer1_Enable();
 161              		.loc 1 255 0
 162 0016 FFF7FEFF 		bl	Timer1_Enable
 256:.\Generated_Source\PSoC4/Timer1.c **** }
 163              		.loc 1 256 0
 164 001a BD46     		mov	sp, r7
 165              		@ sp needed for prologue
 166 001c 80BD     		pop	{r7, pc}
 167              	.L10:
 168 001e C046     		.align	2
 169              	.L9:
 170 0020 00000000 		.word	Timer1_initVar
 171              		.cfi_endproc
 172              	.LFE2:
 173              		.size	Timer1_Start, .-Timer1_Start
 174              		.section	.text.Timer1_Stop,"ax",%progbits
 175              		.align	2
 176              		.global	Timer1_Stop
 177              		.code	16
 178              		.thumb_func
 179              		.type	Timer1_Stop, %function
 180              	Timer1_Stop:
 181              	.LFB3:
 257:.\Generated_Source\PSoC4/Timer1.c **** 
 258:.\Generated_Source\PSoC4/Timer1.c **** 
 259:.\Generated_Source\PSoC4/Timer1.c **** /*******************************************************************************
 260:.\Generated_Source\PSoC4/Timer1.c **** * Function Name: Timer1_Stop
 261:.\Generated_Source\PSoC4/Timer1.c **** ********************************************************************************
 262:.\Generated_Source\PSoC4/Timer1.c **** *
 263:.\Generated_Source\PSoC4/Timer1.c **** * Summary:
 264:.\Generated_Source\PSoC4/Timer1.c **** *  Disables the Timer1.
 265:.\Generated_Source\PSoC4/Timer1.c **** *
 266:.\Generated_Source\PSoC4/Timer1.c **** * Parameters:
 267:.\Generated_Source\PSoC4/Timer1.c **** *  None
 268:.\Generated_Source\PSoC4/Timer1.c **** *
 269:.\Generated_Source\PSoC4/Timer1.c **** * Return:
 270:.\Generated_Source\PSoC4/Timer1.c **** *  None
 271:.\Generated_Source\PSoC4/Timer1.c **** *
 272:.\Generated_Source\PSoC4/Timer1.c **** *******************************************************************************/
 273:.\Generated_Source\PSoC4/Timer1.c **** void Timer1_Stop(void)
 274:.\Generated_Source\PSoC4/Timer1.c **** {
 182              		.loc 1 274 0
ARM GAS  C:\Users\Jared\AppData\Local\Temp\ccqgopA5.s 			page 9


 183              		.cfi_startproc
 184 0000 90B5     		push	{r4, r7, lr}
 185              	.LCFI7:
 186              		.cfi_def_cfa_offset 12
 187              		.cfi_offset 4, -12
 188              		.cfi_offset 7, -8
 189              		.cfi_offset 14, -4
 190 0002 83B0     		sub	sp, sp, #12
 191              	.LCFI8:
 192              		.cfi_def_cfa_offset 24
 193 0004 00AF     		add	r7, sp, #0
 194              	.LCFI9:
 195              		.cfi_def_cfa_register 7
 275:.\Generated_Source\PSoC4/Timer1.c ****     uint8 enableInterrupts;
 276:.\Generated_Source\PSoC4/Timer1.c **** 
 277:.\Generated_Source\PSoC4/Timer1.c ****     enableInterrupts = CyEnterCriticalSection();
 196              		.loc 1 277 0
 197 0006 FC1D     		add	r4, r7, #7
 198 0008 FFF7FEFF 		bl	CyEnterCriticalSection
 199 000c 031C     		mov	r3, r0
 200 000e 2370     		strb	r3, [r4]
 278:.\Generated_Source\PSoC4/Timer1.c **** 
 279:.\Generated_Source\PSoC4/Timer1.c ****     Timer1_BLOCK_CONTROL_REG &= (uint32)~Timer1_MASK;
 201              		.loc 1 279 0
 202 0010 064B     		ldr	r3, .L12
 203 0012 064A     		ldr	r2, .L12
 204 0014 1268     		ldr	r2, [r2]
 205 0016 0121     		mov	r1, #1
 206 0018 8A43     		bic	r2, r1
 207 001a 1A60     		str	r2, [r3]
 280:.\Generated_Source\PSoC4/Timer1.c **** 
 281:.\Generated_Source\PSoC4/Timer1.c ****     CyExitCriticalSection(enableInterrupts);
 208              		.loc 1 281 0
 209 001c FB1D     		add	r3, r7, #7
 210 001e 1B78     		ldrb	r3, [r3]
 211 0020 181C     		mov	r0, r3
 212 0022 FFF7FEFF 		bl	CyExitCriticalSection
 282:.\Generated_Source\PSoC4/Timer1.c **** }
 213              		.loc 1 282 0
 214 0026 BD46     		mov	sp, r7
 215 0028 03B0     		add	sp, sp, #12
 216              		@ sp needed for prologue
 217 002a 90BD     		pop	{r4, r7, pc}
 218              	.L13:
 219              		.align	2
 220              	.L12:
 221 002c 00000540 		.word	1074069504
 222              		.cfi_endproc
 223              	.LFE3:
 224              		.size	Timer1_Stop, .-Timer1_Stop
 225              		.section	.text.Timer1_SetMode,"ax",%progbits
 226              		.align	2
 227              		.global	Timer1_SetMode
 228              		.code	16
 229              		.thumb_func
 230              		.type	Timer1_SetMode, %function
 231              	Timer1_SetMode:
ARM GAS  C:\Users\Jared\AppData\Local\Temp\ccqgopA5.s 			page 10


 232              	.LFB4:
 283:.\Generated_Source\PSoC4/Timer1.c **** 
 284:.\Generated_Source\PSoC4/Timer1.c **** 
 285:.\Generated_Source\PSoC4/Timer1.c **** /*******************************************************************************
 286:.\Generated_Source\PSoC4/Timer1.c **** * Function Name: Timer1_SetMode
 287:.\Generated_Source\PSoC4/Timer1.c **** ********************************************************************************
 288:.\Generated_Source\PSoC4/Timer1.c **** *
 289:.\Generated_Source\PSoC4/Timer1.c **** * Summary:
 290:.\Generated_Source\PSoC4/Timer1.c **** *  Sets the operation mode of the Timer1. This function is used when
 291:.\Generated_Source\PSoC4/Timer1.c **** *  configured as a generic Timer1 and the actual mode of operation is
 292:.\Generated_Source\PSoC4/Timer1.c **** *  set at runtime. The mode must be set while the component is disabled.
 293:.\Generated_Source\PSoC4/Timer1.c **** *
 294:.\Generated_Source\PSoC4/Timer1.c **** * Parameters:
 295:.\Generated_Source\PSoC4/Timer1.c **** *  mode: Mode for the Timer1 to operate in
 296:.\Generated_Source\PSoC4/Timer1.c **** *   Values:
 297:.\Generated_Source\PSoC4/Timer1.c **** *   - Timer1_MODE_TIMER_COMPARE - Timer / Counter with
 298:.\Generated_Source\PSoC4/Timer1.c **** *                                                 compare capability
 299:.\Generated_Source\PSoC4/Timer1.c **** *         - Timer1_MODE_TIMER_CAPTURE - Timer / Counter with
 300:.\Generated_Source\PSoC4/Timer1.c **** *                                                 capture capability
 301:.\Generated_Source\PSoC4/Timer1.c **** *         - Timer1_MODE_QUAD - Quadrature decoder
 302:.\Generated_Source\PSoC4/Timer1.c **** *         - Timer1_MODE_PWM - PWM
 303:.\Generated_Source\PSoC4/Timer1.c **** *         - Timer1_MODE_PWM_DT - PWM with dead time
 304:.\Generated_Source\PSoC4/Timer1.c **** *         - Timer1_MODE_PWM_PR - PWM with pseudo random capability
 305:.\Generated_Source\PSoC4/Timer1.c **** *
 306:.\Generated_Source\PSoC4/Timer1.c **** * Return:
 307:.\Generated_Source\PSoC4/Timer1.c **** *  None
 308:.\Generated_Source\PSoC4/Timer1.c **** *
 309:.\Generated_Source\PSoC4/Timer1.c **** *******************************************************************************/
 310:.\Generated_Source\PSoC4/Timer1.c **** void Timer1_SetMode(uint32 mode)
 311:.\Generated_Source\PSoC4/Timer1.c **** {
 233              		.loc 1 311 0
 234              		.cfi_startproc
 235 0000 90B5     		push	{r4, r7, lr}
 236              	.LCFI10:
 237              		.cfi_def_cfa_offset 12
 238              		.cfi_offset 4, -12
 239              		.cfi_offset 7, -8
 240              		.cfi_offset 14, -4
 241 0002 85B0     		sub	sp, sp, #20
 242              	.LCFI11:
 243              		.cfi_def_cfa_offset 32
 244 0004 00AF     		add	r7, sp, #0
 245              	.LCFI12:
 246              		.cfi_def_cfa_register 7
 247 0006 7860     		str	r0, [r7, #4]
 312:.\Generated_Source\PSoC4/Timer1.c ****     uint8 enableInterrupts;
 313:.\Generated_Source\PSoC4/Timer1.c **** 
 314:.\Generated_Source\PSoC4/Timer1.c ****     enableInterrupts = CyEnterCriticalSection();
 248              		.loc 1 314 0
 249 0008 3C1C     		mov	r4, r7
 250 000a 0F34     		add	r4, r4, #15
 251 000c FFF7FEFF 		bl	CyEnterCriticalSection
 252 0010 031C     		mov	r3, r0
 253 0012 2370     		strb	r3, [r4]
 315:.\Generated_Source\PSoC4/Timer1.c **** 
 316:.\Generated_Source\PSoC4/Timer1.c ****     Timer1_CONTROL_REG &= (uint32)~Timer1_MODE_MASK;
 254              		.loc 1 316 0
ARM GAS  C:\Users\Jared\AppData\Local\Temp\ccqgopA5.s 			page 11


 255 0014 0A4B     		ldr	r3, .L15
 256 0016 0A4A     		ldr	r2, .L15
 257 0018 1168     		ldr	r1, [r2]
 258 001a 0A4A     		ldr	r2, .L15+4
 259 001c 0A40     		and	r2, r1
 260 001e 1A60     		str	r2, [r3]
 317:.\Generated_Source\PSoC4/Timer1.c ****     Timer1_CONTROL_REG |= mode;
 261              		.loc 1 317 0
 262 0020 074B     		ldr	r3, .L15
 263 0022 074A     		ldr	r2, .L15
 264 0024 1168     		ldr	r1, [r2]
 265 0026 7A68     		ldr	r2, [r7, #4]
 266 0028 0A43     		orr	r2, r1
 267 002a 1A60     		str	r2, [r3]
 318:.\Generated_Source\PSoC4/Timer1.c **** 
 319:.\Generated_Source\PSoC4/Timer1.c ****     CyExitCriticalSection(enableInterrupts);
 268              		.loc 1 319 0
 269 002c 3B1C     		mov	r3, r7
 270 002e 0F33     		add	r3, r3, #15
 271 0030 1B78     		ldrb	r3, [r3]
 272 0032 181C     		mov	r0, r3
 273 0034 FFF7FEFF 		bl	CyExitCriticalSection
 320:.\Generated_Source\PSoC4/Timer1.c **** }
 274              		.loc 1 320 0
 275 0038 BD46     		mov	sp, r7
 276 003a 05B0     		add	sp, sp, #20
 277              		@ sp needed for prologue
 278 003c 90BD     		pop	{r4, r7, pc}
 279              	.L16:
 280 003e C046     		.align	2
 281              	.L15:
 282 0040 00010540 		.word	1074069760
 283 0044 FFFFFFF8 		.word	-117440513
 284              		.cfi_endproc
 285              	.LFE4:
 286              		.size	Timer1_SetMode, .-Timer1_SetMode
 287              		.section	.text.Timer1_SetQDMode,"ax",%progbits
 288              		.align	2
 289              		.global	Timer1_SetQDMode
 290              		.code	16
 291              		.thumb_func
 292              		.type	Timer1_SetQDMode, %function
 293              	Timer1_SetQDMode:
 294              	.LFB5:
 321:.\Generated_Source\PSoC4/Timer1.c **** 
 322:.\Generated_Source\PSoC4/Timer1.c **** 
 323:.\Generated_Source\PSoC4/Timer1.c **** /*******************************************************************************
 324:.\Generated_Source\PSoC4/Timer1.c **** * Function Name: Timer1_SetQDMode
 325:.\Generated_Source\PSoC4/Timer1.c **** ********************************************************************************
 326:.\Generated_Source\PSoC4/Timer1.c **** *
 327:.\Generated_Source\PSoC4/Timer1.c **** * Summary:
 328:.\Generated_Source\PSoC4/Timer1.c **** *  Sets the the Quadrature Decoder to one of the 3 supported modes.
 329:.\Generated_Source\PSoC4/Timer1.c **** *  Its functionality is only applicable to Quadrature Decoder operation.
 330:.\Generated_Source\PSoC4/Timer1.c **** *
 331:.\Generated_Source\PSoC4/Timer1.c **** * Parameters:
 332:.\Generated_Source\PSoC4/Timer1.c **** *  qdMode: Quadrature Decoder mode
 333:.\Generated_Source\PSoC4/Timer1.c **** *   Values:
ARM GAS  C:\Users\Jared\AppData\Local\Temp\ccqgopA5.s 			page 12


 334:.\Generated_Source\PSoC4/Timer1.c **** *         - Timer1_MODE_X1 - Counts on phi 1 rising
 335:.\Generated_Source\PSoC4/Timer1.c **** *         - Timer1_MODE_X2 - Counts on both edges of phi1 (2x faster)
 336:.\Generated_Source\PSoC4/Timer1.c **** *         - Timer1_MODE_X4 - Counts on both edges of phi1 and phi2
 337:.\Generated_Source\PSoC4/Timer1.c **** *                                        (4x faster)
 338:.\Generated_Source\PSoC4/Timer1.c **** *
 339:.\Generated_Source\PSoC4/Timer1.c **** * Return:
 340:.\Generated_Source\PSoC4/Timer1.c **** *  None
 341:.\Generated_Source\PSoC4/Timer1.c **** *
 342:.\Generated_Source\PSoC4/Timer1.c **** *******************************************************************************/
 343:.\Generated_Source\PSoC4/Timer1.c **** void Timer1_SetQDMode(uint32 qdMode)
 344:.\Generated_Source\PSoC4/Timer1.c **** {
 295              		.loc 1 344 0
 296              		.cfi_startproc
 297 0000 90B5     		push	{r4, r7, lr}
 298              	.LCFI13:
 299              		.cfi_def_cfa_offset 12
 300              		.cfi_offset 4, -12
 301              		.cfi_offset 7, -8
 302              		.cfi_offset 14, -4
 303 0002 85B0     		sub	sp, sp, #20
 304              	.LCFI14:
 305              		.cfi_def_cfa_offset 32
 306 0004 00AF     		add	r7, sp, #0
 307              	.LCFI15:
 308              		.cfi_def_cfa_register 7
 309 0006 7860     		str	r0, [r7, #4]
 345:.\Generated_Source\PSoC4/Timer1.c ****     uint8 enableInterrupts;
 346:.\Generated_Source\PSoC4/Timer1.c **** 
 347:.\Generated_Source\PSoC4/Timer1.c ****     enableInterrupts = CyEnterCriticalSection();
 310              		.loc 1 347 0
 311 0008 3C1C     		mov	r4, r7
 312 000a 0F34     		add	r4, r4, #15
 313 000c FFF7FEFF 		bl	CyEnterCriticalSection
 314 0010 031C     		mov	r3, r0
 315 0012 2370     		strb	r3, [r4]
 348:.\Generated_Source\PSoC4/Timer1.c **** 
 349:.\Generated_Source\PSoC4/Timer1.c ****     Timer1_CONTROL_REG &= (uint32)~Timer1_QUAD_MODE_MASK;
 316              		.loc 1 349 0
 317 0014 0A4B     		ldr	r3, .L18
 318 0016 0A4A     		ldr	r2, .L18
 319 0018 1168     		ldr	r1, [r2]
 320 001a 0A4A     		ldr	r2, .L18+4
 321 001c 0A40     		and	r2, r1
 322 001e 1A60     		str	r2, [r3]
 350:.\Generated_Source\PSoC4/Timer1.c ****     Timer1_CONTROL_REG |= qdMode;
 323              		.loc 1 350 0
 324 0020 074B     		ldr	r3, .L18
 325 0022 074A     		ldr	r2, .L18
 326 0024 1168     		ldr	r1, [r2]
 327 0026 7A68     		ldr	r2, [r7, #4]
 328 0028 0A43     		orr	r2, r1
 329 002a 1A60     		str	r2, [r3]
 351:.\Generated_Source\PSoC4/Timer1.c **** 
 352:.\Generated_Source\PSoC4/Timer1.c ****     CyExitCriticalSection(enableInterrupts);
 330              		.loc 1 352 0
 331 002c 3B1C     		mov	r3, r7
 332 002e 0F33     		add	r3, r3, #15
ARM GAS  C:\Users\Jared\AppData\Local\Temp\ccqgopA5.s 			page 13


 333 0030 1B78     		ldrb	r3, [r3]
 334 0032 181C     		mov	r0, r3
 335 0034 FFF7FEFF 		bl	CyExitCriticalSection
 353:.\Generated_Source\PSoC4/Timer1.c **** }
 336              		.loc 1 353 0
 337 0038 BD46     		mov	sp, r7
 338 003a 05B0     		add	sp, sp, #20
 339              		@ sp needed for prologue
 340 003c 90BD     		pop	{r4, r7, pc}
 341              	.L19:
 342 003e C046     		.align	2
 343              	.L18:
 344 0040 00010540 		.word	1074069760
 345 0044 FFFF8FFF 		.word	-7340033
 346              		.cfi_endproc
 347              	.LFE5:
 348              		.size	Timer1_SetQDMode, .-Timer1_SetQDMode
 349              		.section	.text.Timer1_SetPrescaler,"ax",%progbits
 350              		.align	2
 351              		.global	Timer1_SetPrescaler
 352              		.code	16
 353              		.thumb_func
 354              		.type	Timer1_SetPrescaler, %function
 355              	Timer1_SetPrescaler:
 356              	.LFB6:
 354:.\Generated_Source\PSoC4/Timer1.c **** 
 355:.\Generated_Source\PSoC4/Timer1.c **** 
 356:.\Generated_Source\PSoC4/Timer1.c **** /*******************************************************************************
 357:.\Generated_Source\PSoC4/Timer1.c **** * Function Name: Timer1_SetPrescaler
 358:.\Generated_Source\PSoC4/Timer1.c **** ********************************************************************************
 359:.\Generated_Source\PSoC4/Timer1.c **** *
 360:.\Generated_Source\PSoC4/Timer1.c **** * Summary:
 361:.\Generated_Source\PSoC4/Timer1.c **** *  Sets the prescaler value that is applied to the clock input.  Not applicable
 362:.\Generated_Source\PSoC4/Timer1.c **** *  to a PWM with the dead time mode or Quadrature Decoder mode.
 363:.\Generated_Source\PSoC4/Timer1.c **** *
 364:.\Generated_Source\PSoC4/Timer1.c **** * Parameters:
 365:.\Generated_Source\PSoC4/Timer1.c **** *  prescaler: Prescaler divider value
 366:.\Generated_Source\PSoC4/Timer1.c **** *   Values:
 367:.\Generated_Source\PSoC4/Timer1.c **** *         - Timer1_PRESCALE_DIVBY1    - Divide by 1 (no prescaling)
 368:.\Generated_Source\PSoC4/Timer1.c **** *         - Timer1_PRESCALE_DIVBY2    - Divide by 2
 369:.\Generated_Source\PSoC4/Timer1.c **** *         - Timer1_PRESCALE_DIVBY4    - Divide by 4
 370:.\Generated_Source\PSoC4/Timer1.c **** *         - Timer1_PRESCALE_DIVBY8    - Divide by 8
 371:.\Generated_Source\PSoC4/Timer1.c **** *         - Timer1_PRESCALE_DIVBY16   - Divide by 16
 372:.\Generated_Source\PSoC4/Timer1.c **** *         - Timer1_PRESCALE_DIVBY32   - Divide by 32
 373:.\Generated_Source\PSoC4/Timer1.c **** *         - Timer1_PRESCALE_DIVBY64   - Divide by 64
 374:.\Generated_Source\PSoC4/Timer1.c **** *         - Timer1_PRESCALE_DIVBY128  - Divide by 128
 375:.\Generated_Source\PSoC4/Timer1.c **** *
 376:.\Generated_Source\PSoC4/Timer1.c **** * Return:
 377:.\Generated_Source\PSoC4/Timer1.c **** *  None
 378:.\Generated_Source\PSoC4/Timer1.c **** *
 379:.\Generated_Source\PSoC4/Timer1.c **** *******************************************************************************/
 380:.\Generated_Source\PSoC4/Timer1.c **** void Timer1_SetPrescaler(uint32 prescaler)
 381:.\Generated_Source\PSoC4/Timer1.c **** {
 357              		.loc 1 381 0
 358              		.cfi_startproc
 359 0000 90B5     		push	{r4, r7, lr}
 360              	.LCFI16:
ARM GAS  C:\Users\Jared\AppData\Local\Temp\ccqgopA5.s 			page 14


 361              		.cfi_def_cfa_offset 12
 362              		.cfi_offset 4, -12
 363              		.cfi_offset 7, -8
 364              		.cfi_offset 14, -4
 365 0002 85B0     		sub	sp, sp, #20
 366              	.LCFI17:
 367              		.cfi_def_cfa_offset 32
 368 0004 00AF     		add	r7, sp, #0
 369              	.LCFI18:
 370              		.cfi_def_cfa_register 7
 371 0006 7860     		str	r0, [r7, #4]
 382:.\Generated_Source\PSoC4/Timer1.c ****     uint8 enableInterrupts;
 383:.\Generated_Source\PSoC4/Timer1.c **** 
 384:.\Generated_Source\PSoC4/Timer1.c ****     enableInterrupts = CyEnterCriticalSection();
 372              		.loc 1 384 0
 373 0008 3C1C     		mov	r4, r7
 374 000a 0F34     		add	r4, r4, #15
 375 000c FFF7FEFF 		bl	CyEnterCriticalSection
 376 0010 031C     		mov	r3, r0
 377 0012 2370     		strb	r3, [r4]
 385:.\Generated_Source\PSoC4/Timer1.c **** 
 386:.\Generated_Source\PSoC4/Timer1.c ****     Timer1_CONTROL_REG &= (uint32)~Timer1_PRESCALER_MASK;
 378              		.loc 1 386 0
 379 0014 0A4B     		ldr	r3, .L21
 380 0016 0A4A     		ldr	r2, .L21
 381 0018 1168     		ldr	r1, [r2]
 382 001a 0A4A     		ldr	r2, .L21+4
 383 001c 0A40     		and	r2, r1
 384 001e 1A60     		str	r2, [r3]
 387:.\Generated_Source\PSoC4/Timer1.c ****     Timer1_CONTROL_REG |= prescaler;
 385              		.loc 1 387 0
 386 0020 074B     		ldr	r3, .L21
 387 0022 074A     		ldr	r2, .L21
 388 0024 1168     		ldr	r1, [r2]
 389 0026 7A68     		ldr	r2, [r7, #4]
 390 0028 0A43     		orr	r2, r1
 391 002a 1A60     		str	r2, [r3]
 388:.\Generated_Source\PSoC4/Timer1.c **** 
 389:.\Generated_Source\PSoC4/Timer1.c ****     CyExitCriticalSection(enableInterrupts);
 392              		.loc 1 389 0
 393 002c 3B1C     		mov	r3, r7
 394 002e 0F33     		add	r3, r3, #15
 395 0030 1B78     		ldrb	r3, [r3]
 396 0032 181C     		mov	r0, r3
 397 0034 FFF7FEFF 		bl	CyExitCriticalSection
 390:.\Generated_Source\PSoC4/Timer1.c **** }
 398              		.loc 1 390 0
 399 0038 BD46     		mov	sp, r7
 400 003a 05B0     		add	sp, sp, #20
 401              		@ sp needed for prologue
 402 003c 90BD     		pop	{r4, r7, pc}
 403              	.L22:
 404 003e C046     		.align	2
 405              	.L21:
 406 0040 00010540 		.word	1074069760
 407 0044 FF00FFFF 		.word	-65281
 408              		.cfi_endproc
ARM GAS  C:\Users\Jared\AppData\Local\Temp\ccqgopA5.s 			page 15


 409              	.LFE6:
 410              		.size	Timer1_SetPrescaler, .-Timer1_SetPrescaler
 411              		.section	.text.Timer1_SetOneShot,"ax",%progbits
 412              		.align	2
 413              		.global	Timer1_SetOneShot
 414              		.code	16
 415              		.thumb_func
 416              		.type	Timer1_SetOneShot, %function
 417              	Timer1_SetOneShot:
 418              	.LFB7:
 391:.\Generated_Source\PSoC4/Timer1.c **** 
 392:.\Generated_Source\PSoC4/Timer1.c **** 
 393:.\Generated_Source\PSoC4/Timer1.c **** /*******************************************************************************
 394:.\Generated_Source\PSoC4/Timer1.c **** * Function Name: Timer1_SetOneShot
 395:.\Generated_Source\PSoC4/Timer1.c **** ********************************************************************************
 396:.\Generated_Source\PSoC4/Timer1.c **** *
 397:.\Generated_Source\PSoC4/Timer1.c **** * Summary:
 398:.\Generated_Source\PSoC4/Timer1.c **** *  Writes the register that controls whether the Timer1 runs
 399:.\Generated_Source\PSoC4/Timer1.c **** *  continuously or stops when terminal count is reached.  By default the
 400:.\Generated_Source\PSoC4/Timer1.c **** *  Timer1 operates in the continuous mode.
 401:.\Generated_Source\PSoC4/Timer1.c **** *
 402:.\Generated_Source\PSoC4/Timer1.c **** * Parameters:
 403:.\Generated_Source\PSoC4/Timer1.c **** *  oneShotEnable
 404:.\Generated_Source\PSoC4/Timer1.c **** *   Values:
 405:.\Generated_Source\PSoC4/Timer1.c **** *     - 0 - Continuous
 406:.\Generated_Source\PSoC4/Timer1.c **** *     - 1 - Enable One Shot
 407:.\Generated_Source\PSoC4/Timer1.c **** *
 408:.\Generated_Source\PSoC4/Timer1.c **** * Return:
 409:.\Generated_Source\PSoC4/Timer1.c **** *  None
 410:.\Generated_Source\PSoC4/Timer1.c **** *
 411:.\Generated_Source\PSoC4/Timer1.c **** *******************************************************************************/
 412:.\Generated_Source\PSoC4/Timer1.c **** void Timer1_SetOneShot(uint32 oneShotEnable)
 413:.\Generated_Source\PSoC4/Timer1.c **** {
 419              		.loc 1 413 0
 420              		.cfi_startproc
 421 0000 90B5     		push	{r4, r7, lr}
 422              	.LCFI19:
 423              		.cfi_def_cfa_offset 12
 424              		.cfi_offset 4, -12
 425              		.cfi_offset 7, -8
 426              		.cfi_offset 14, -4
 427 0002 85B0     		sub	sp, sp, #20
 428              	.LCFI20:
 429              		.cfi_def_cfa_offset 32
 430 0004 00AF     		add	r7, sp, #0
 431              	.LCFI21:
 432              		.cfi_def_cfa_register 7
 433 0006 7860     		str	r0, [r7, #4]
 414:.\Generated_Source\PSoC4/Timer1.c ****     uint8 enableInterrupts;
 415:.\Generated_Source\PSoC4/Timer1.c **** 
 416:.\Generated_Source\PSoC4/Timer1.c ****     enableInterrupts = CyEnterCriticalSection();
 434              		.loc 1 416 0
 435 0008 3C1C     		mov	r4, r7
 436 000a 0F34     		add	r4, r4, #15
 437 000c FFF7FEFF 		bl	CyEnterCriticalSection
 438 0010 031C     		mov	r3, r0
 439 0012 2370     		strb	r3, [r4]
ARM GAS  C:\Users\Jared\AppData\Local\Temp\ccqgopA5.s 			page 16


 417:.\Generated_Source\PSoC4/Timer1.c **** 
 418:.\Generated_Source\PSoC4/Timer1.c ****     Timer1_CONTROL_REG &= (uint32)~Timer1_ONESHOT_MASK;
 440              		.loc 1 418 0
 441 0014 0B4B     		ldr	r3, .L24
 442 0016 0B4A     		ldr	r2, .L24
 443 0018 1168     		ldr	r1, [r2]
 444 001a 0B4A     		ldr	r2, .L24+4
 445 001c 0A40     		and	r2, r1
 446 001e 1A60     		str	r2, [r3]
 419:.\Generated_Source\PSoC4/Timer1.c ****     Timer1_CONTROL_REG |= ((uint32)((oneShotEnable & Timer1_1BIT_MASK) <<
 447              		.loc 1 419 0
 448 0020 084B     		ldr	r3, .L24
 449 0022 084A     		ldr	r2, .L24
 450 0024 1168     		ldr	r1, [r2]
 451 0026 7868     		ldr	r0, [r7, #4]
 452 0028 0122     		mov	r2, #1
 453 002a 0240     		and	r2, r0
 454 002c 9204     		lsl	r2, r2, #18
 455 002e 0A43     		orr	r2, r1
 456 0030 1A60     		str	r2, [r3]
 420:.\Generated_Source\PSoC4/Timer1.c ****                                                                Timer1_ONESHOT_SHIFT));
 421:.\Generated_Source\PSoC4/Timer1.c **** 
 422:.\Generated_Source\PSoC4/Timer1.c ****     CyExitCriticalSection(enableInterrupts);
 457              		.loc 1 422 0
 458 0032 3B1C     		mov	r3, r7
 459 0034 0F33     		add	r3, r3, #15
 460 0036 1B78     		ldrb	r3, [r3]
 461 0038 181C     		mov	r0, r3
 462 003a FFF7FEFF 		bl	CyExitCriticalSection
 423:.\Generated_Source\PSoC4/Timer1.c **** }
 463              		.loc 1 423 0
 464 003e BD46     		mov	sp, r7
 465 0040 05B0     		add	sp, sp, #20
 466              		@ sp needed for prologue
 467 0042 90BD     		pop	{r4, r7, pc}
 468              	.L25:
 469              		.align	2
 470              	.L24:
 471 0044 00010540 		.word	1074069760
 472 0048 FFFFFBFF 		.word	-262145
 473              		.cfi_endproc
 474              	.LFE7:
 475              		.size	Timer1_SetOneShot, .-Timer1_SetOneShot
 476              		.section	.text.Timer1_SetPWMMode,"ax",%progbits
 477              		.align	2
 478              		.global	Timer1_SetPWMMode
 479              		.code	16
 480              		.thumb_func
 481              		.type	Timer1_SetPWMMode, %function
 482              	Timer1_SetPWMMode:
 483              	.LFB8:
 424:.\Generated_Source\PSoC4/Timer1.c **** 
 425:.\Generated_Source\PSoC4/Timer1.c **** 
 426:.\Generated_Source\PSoC4/Timer1.c **** /*******************************************************************************
 427:.\Generated_Source\PSoC4/Timer1.c **** * Function Name: Timer1_SetPWMMode
 428:.\Generated_Source\PSoC4/Timer1.c **** ********************************************************************************
 429:.\Generated_Source\PSoC4/Timer1.c **** *
ARM GAS  C:\Users\Jared\AppData\Local\Temp\ccqgopA5.s 			page 17


 430:.\Generated_Source\PSoC4/Timer1.c **** * Summary:
 431:.\Generated_Source\PSoC4/Timer1.c **** *  Writes the control register that determines what mode of operation the PWM
 432:.\Generated_Source\PSoC4/Timer1.c **** *  output lines are driven in.  There is a setting for what to do on a
 433:.\Generated_Source\PSoC4/Timer1.c **** *  comparison match (CC_MATCH), on an overflow (OVERFLOW) and on an underflow
 434:.\Generated_Source\PSoC4/Timer1.c **** *  (UNDERFLOW).  The value for each of the three must be ORed together to form
 435:.\Generated_Source\PSoC4/Timer1.c **** *  the mode.
 436:.\Generated_Source\PSoC4/Timer1.c **** *
 437:.\Generated_Source\PSoC4/Timer1.c **** * Parameters:
 438:.\Generated_Source\PSoC4/Timer1.c **** *  modeMask: A combination of three mode settings.  Mask must include a value
 439:.\Generated_Source\PSoC4/Timer1.c **** *  for each of the three or use one of the preconfigured PWM settings.
 440:.\Generated_Source\PSoC4/Timer1.c **** *   Values:
 441:.\Generated_Source\PSoC4/Timer1.c **** *     - CC_MATCH_SET        - Set on comparison match
 442:.\Generated_Source\PSoC4/Timer1.c **** *     - CC_MATCH_CLEAR      - Clear on comparison match
 443:.\Generated_Source\PSoC4/Timer1.c **** *     - CC_MATCH_INVERT     - Invert on comparison match
 444:.\Generated_Source\PSoC4/Timer1.c **** *     - CC_MATCH_NO_CHANGE  - No change on comparison match
 445:.\Generated_Source\PSoC4/Timer1.c **** *     - OVERLOW_SET         - Set on overflow
 446:.\Generated_Source\PSoC4/Timer1.c **** *     - OVERLOW_CLEAR       - Clear on  overflow
 447:.\Generated_Source\PSoC4/Timer1.c **** *     - OVERLOW_INVERT      - Invert on overflow
 448:.\Generated_Source\PSoC4/Timer1.c **** *     - OVERLOW_NO_CHANGE   - No change on overflow
 449:.\Generated_Source\PSoC4/Timer1.c **** *     - UNDERFLOW_SET       - Set on underflow
 450:.\Generated_Source\PSoC4/Timer1.c **** *     - UNDERFLOW_CLEAR     - Clear on underflow
 451:.\Generated_Source\PSoC4/Timer1.c **** *     - UNDERFLOW_INVERT    - Invert on underflow
 452:.\Generated_Source\PSoC4/Timer1.c **** *     - UNDERFLOW_NO_CHANGE - No change on underflow
 453:.\Generated_Source\PSoC4/Timer1.c **** *     - PWM_MODE_LEFT       - Setting for left aligned PWM.  Should be combined
 454:.\Generated_Source\PSoC4/Timer1.c **** *                             with up counting mode
 455:.\Generated_Source\PSoC4/Timer1.c **** *     - PWM_MODE_RIGHT      - Setting for right aligned PWM.  Should be combined
 456:.\Generated_Source\PSoC4/Timer1.c **** *                             with down counting mode
 457:.\Generated_Source\PSoC4/Timer1.c **** *     - PWM_MODE_CENTER     - Setting for center aligned PWM.  Should be
 458:.\Generated_Source\PSoC4/Timer1.c **** *                             combined with up/down 0 mode
 459:.\Generated_Source\PSoC4/Timer1.c **** *     - PWM_MODE_ASYM       - Setting for asymmetric PWM.  Should be combined
 460:.\Generated_Source\PSoC4/Timer1.c **** *                             with up/down 1 mode
 461:.\Generated_Source\PSoC4/Timer1.c **** *
 462:.\Generated_Source\PSoC4/Timer1.c **** * Return:
 463:.\Generated_Source\PSoC4/Timer1.c **** *  None
 464:.\Generated_Source\PSoC4/Timer1.c **** *
 465:.\Generated_Source\PSoC4/Timer1.c **** *******************************************************************************/
 466:.\Generated_Source\PSoC4/Timer1.c **** void Timer1_SetPWMMode(uint32 modeMask)
 467:.\Generated_Source\PSoC4/Timer1.c **** {
 484              		.loc 1 467 0
 485              		.cfi_startproc
 486 0000 80B5     		push	{r7, lr}
 487              	.LCFI22:
 488              		.cfi_def_cfa_offset 8
 489              		.cfi_offset 7, -8
 490              		.cfi_offset 14, -4
 491 0002 82B0     		sub	sp, sp, #8
 492              	.LCFI23:
 493              		.cfi_def_cfa_offset 16
 494 0004 00AF     		add	r7, sp, #0
 495              	.LCFI24:
 496              		.cfi_def_cfa_register 7
 497 0006 7860     		str	r0, [r7, #4]
 468:.\Generated_Source\PSoC4/Timer1.c ****     Timer1_TRIG_CONTROL2_REG = (modeMask & Timer1_6BIT_MASK);
 498              		.loc 1 468 0
 499 0008 034B     		ldr	r3, .L27
 500 000a 7968     		ldr	r1, [r7, #4]
 501 000c 3F22     		mov	r2, #63
ARM GAS  C:\Users\Jared\AppData\Local\Temp\ccqgopA5.s 			page 18


 502 000e 0A40     		and	r2, r1
 503 0010 1A60     		str	r2, [r3]
 469:.\Generated_Source\PSoC4/Timer1.c **** }
 504              		.loc 1 469 0
 505 0012 BD46     		mov	sp, r7
 506 0014 02B0     		add	sp, sp, #8
 507              		@ sp needed for prologue
 508 0016 80BD     		pop	{r7, pc}
 509              	.L28:
 510              		.align	2
 511              	.L27:
 512 0018 28010540 		.word	1074069800
 513              		.cfi_endproc
 514              	.LFE8:
 515              		.size	Timer1_SetPWMMode, .-Timer1_SetPWMMode
 516              		.section	.text.Timer1_SetPWMSyncKill,"ax",%progbits
 517              		.align	2
 518              		.global	Timer1_SetPWMSyncKill
 519              		.code	16
 520              		.thumb_func
 521              		.type	Timer1_SetPWMSyncKill, %function
 522              	Timer1_SetPWMSyncKill:
 523              	.LFB9:
 470:.\Generated_Source\PSoC4/Timer1.c **** 
 471:.\Generated_Source\PSoC4/Timer1.c **** 
 472:.\Generated_Source\PSoC4/Timer1.c **** 
 473:.\Generated_Source\PSoC4/Timer1.c **** /*******************************************************************************
 474:.\Generated_Source\PSoC4/Timer1.c **** * Function Name: Timer1_SetPWMSyncKill
 475:.\Generated_Source\PSoC4/Timer1.c **** ********************************************************************************
 476:.\Generated_Source\PSoC4/Timer1.c **** *
 477:.\Generated_Source\PSoC4/Timer1.c **** * Summary:
 478:.\Generated_Source\PSoC4/Timer1.c **** *  Writes the register that controls whether the PWM kill signal (stop input)
 479:.\Generated_Source\PSoC4/Timer1.c **** *  causes asynchronous or synchronous kill operation.  By default the kill
 480:.\Generated_Source\PSoC4/Timer1.c **** *  operation is asynchronous.  This functionality is only applicable to the PWM
 481:.\Generated_Source\PSoC4/Timer1.c **** *  and PWM with dead time modes.
 482:.\Generated_Source\PSoC4/Timer1.c **** *
 483:.\Generated_Source\PSoC4/Timer1.c **** *  For Synchronous mode the kill signal disables both the line and line_n
 484:.\Generated_Source\PSoC4/Timer1.c **** *  signals until the next terminal count.
 485:.\Generated_Source\PSoC4/Timer1.c **** *
 486:.\Generated_Source\PSoC4/Timer1.c **** *  For Asynchronous mode the kill signal disables both the line and line_n
 487:.\Generated_Source\PSoC4/Timer1.c **** *  signals when the kill signal is present.  This mode should only be used
 488:.\Generated_Source\PSoC4/Timer1.c **** *  when the kill signal (stop input) is configured in the pass through mode
 489:.\Generated_Source\PSoC4/Timer1.c **** *  (Level sensitive signal).
 490:.\Generated_Source\PSoC4/Timer1.c **** 
 491:.\Generated_Source\PSoC4/Timer1.c **** *
 492:.\Generated_Source\PSoC4/Timer1.c **** * Parameters:
 493:.\Generated_Source\PSoC4/Timer1.c **** *  syncKillEnable
 494:.\Generated_Source\PSoC4/Timer1.c **** *   Values:
 495:.\Generated_Source\PSoC4/Timer1.c **** *     - 0 - Asynchronous
 496:.\Generated_Source\PSoC4/Timer1.c **** *     - 1 - Synchronous
 497:.\Generated_Source\PSoC4/Timer1.c **** *
 498:.\Generated_Source\PSoC4/Timer1.c **** * Return:
 499:.\Generated_Source\PSoC4/Timer1.c **** *  None
 500:.\Generated_Source\PSoC4/Timer1.c **** *
 501:.\Generated_Source\PSoC4/Timer1.c **** *******************************************************************************/
 502:.\Generated_Source\PSoC4/Timer1.c **** void Timer1_SetPWMSyncKill(uint32 syncKillEnable)
 503:.\Generated_Source\PSoC4/Timer1.c **** {
ARM GAS  C:\Users\Jared\AppData\Local\Temp\ccqgopA5.s 			page 19


 524              		.loc 1 503 0
 525              		.cfi_startproc
 526 0000 90B5     		push	{r4, r7, lr}
 527              	.LCFI25:
 528              		.cfi_def_cfa_offset 12
 529              		.cfi_offset 4, -12
 530              		.cfi_offset 7, -8
 531              		.cfi_offset 14, -4
 532 0002 85B0     		sub	sp, sp, #20
 533              	.LCFI26:
 534              		.cfi_def_cfa_offset 32
 535 0004 00AF     		add	r7, sp, #0
 536              	.LCFI27:
 537              		.cfi_def_cfa_register 7
 538 0006 7860     		str	r0, [r7, #4]
 504:.\Generated_Source\PSoC4/Timer1.c ****     uint8 enableInterrupts;
 505:.\Generated_Source\PSoC4/Timer1.c **** 
 506:.\Generated_Source\PSoC4/Timer1.c ****     enableInterrupts = CyEnterCriticalSection();
 539              		.loc 1 506 0
 540 0008 3C1C     		mov	r4, r7
 541 000a 0F34     		add	r4, r4, #15
 542 000c FFF7FEFF 		bl	CyEnterCriticalSection
 543 0010 031C     		mov	r3, r0
 544 0012 2370     		strb	r3, [r4]
 507:.\Generated_Source\PSoC4/Timer1.c **** 
 508:.\Generated_Source\PSoC4/Timer1.c ****     Timer1_CONTROL_REG &= (uint32)~Timer1_PWM_SYNC_KILL_MASK;
 545              		.loc 1 508 0
 546 0014 0B4B     		ldr	r3, .L30
 547 0016 0B4A     		ldr	r2, .L30
 548 0018 1268     		ldr	r2, [r2]
 549 001a 0421     		mov	r1, #4
 550 001c 8A43     		bic	r2, r1
 551 001e 1A60     		str	r2, [r3]
 509:.\Generated_Source\PSoC4/Timer1.c ****     Timer1_CONTROL_REG |= ((uint32)((syncKillEnable & Timer1_1BIT_MASK)  <<
 552              		.loc 1 509 0
 553 0020 084B     		ldr	r3, .L30
 554 0022 084A     		ldr	r2, .L30
 555 0024 1168     		ldr	r1, [r2]
 556 0026 7868     		ldr	r0, [r7, #4]
 557 0028 0122     		mov	r2, #1
 558 002a 0240     		and	r2, r0
 559 002c 9200     		lsl	r2, r2, #2
 560 002e 0A43     		orr	r2, r1
 561 0030 1A60     		str	r2, [r3]
 510:.\Generated_Source\PSoC4/Timer1.c ****                                                Timer1_PWM_SYNC_KILL_SHIFT));
 511:.\Generated_Source\PSoC4/Timer1.c **** 
 512:.\Generated_Source\PSoC4/Timer1.c ****     CyExitCriticalSection(enableInterrupts);
 562              		.loc 1 512 0
 563 0032 3B1C     		mov	r3, r7
 564 0034 0F33     		add	r3, r3, #15
 565 0036 1B78     		ldrb	r3, [r3]
 566 0038 181C     		mov	r0, r3
 567 003a FFF7FEFF 		bl	CyExitCriticalSection
 513:.\Generated_Source\PSoC4/Timer1.c **** }
 568              		.loc 1 513 0
 569 003e BD46     		mov	sp, r7
 570 0040 05B0     		add	sp, sp, #20
ARM GAS  C:\Users\Jared\AppData\Local\Temp\ccqgopA5.s 			page 20


 571              		@ sp needed for prologue
 572 0042 90BD     		pop	{r4, r7, pc}
 573              	.L31:
 574              		.align	2
 575              	.L30:
 576 0044 00010540 		.word	1074069760
 577              		.cfi_endproc
 578              	.LFE9:
 579              		.size	Timer1_SetPWMSyncKill, .-Timer1_SetPWMSyncKill
 580              		.section	.text.Timer1_SetPWMStopOnKill,"ax",%progbits
 581              		.align	2
 582              		.global	Timer1_SetPWMStopOnKill
 583              		.code	16
 584              		.thumb_func
 585              		.type	Timer1_SetPWMStopOnKill, %function
 586              	Timer1_SetPWMStopOnKill:
 587              	.LFB10:
 514:.\Generated_Source\PSoC4/Timer1.c **** 
 515:.\Generated_Source\PSoC4/Timer1.c **** 
 516:.\Generated_Source\PSoC4/Timer1.c **** /*******************************************************************************
 517:.\Generated_Source\PSoC4/Timer1.c **** * Function Name: Timer1_SetPWMStopOnKill
 518:.\Generated_Source\PSoC4/Timer1.c **** ********************************************************************************
 519:.\Generated_Source\PSoC4/Timer1.c **** *
 520:.\Generated_Source\PSoC4/Timer1.c **** * Summary:
 521:.\Generated_Source\PSoC4/Timer1.c **** *  Writes the register that controls whether the PWM kill signal (stop input)
 522:.\Generated_Source\PSoC4/Timer1.c **** *  causes the PWM counter to stop.  By default the kill operation does not stop
 523:.\Generated_Source\PSoC4/Timer1.c **** *  the counter.  This functionality is only applicable to the three PWM modes.
 524:.\Generated_Source\PSoC4/Timer1.c **** *
 525:.\Generated_Source\PSoC4/Timer1.c **** *
 526:.\Generated_Source\PSoC4/Timer1.c **** * Parameters:
 527:.\Generated_Source\PSoC4/Timer1.c **** *  stopOnKillEnable
 528:.\Generated_Source\PSoC4/Timer1.c **** *   Values:
 529:.\Generated_Source\PSoC4/Timer1.c **** *     - 0 - Don't stop
 530:.\Generated_Source\PSoC4/Timer1.c **** *     - 1 - Stop
 531:.\Generated_Source\PSoC4/Timer1.c **** *
 532:.\Generated_Source\PSoC4/Timer1.c **** * Return:
 533:.\Generated_Source\PSoC4/Timer1.c **** *  None
 534:.\Generated_Source\PSoC4/Timer1.c **** *
 535:.\Generated_Source\PSoC4/Timer1.c **** *******************************************************************************/
 536:.\Generated_Source\PSoC4/Timer1.c **** void Timer1_SetPWMStopOnKill(uint32 stopOnKillEnable)
 537:.\Generated_Source\PSoC4/Timer1.c **** {
 588              		.loc 1 537 0
 589              		.cfi_startproc
 590 0000 90B5     		push	{r4, r7, lr}
 591              	.LCFI28:
 592              		.cfi_def_cfa_offset 12
 593              		.cfi_offset 4, -12
 594              		.cfi_offset 7, -8
 595              		.cfi_offset 14, -4
 596 0002 85B0     		sub	sp, sp, #20
 597              	.LCFI29:
 598              		.cfi_def_cfa_offset 32
 599 0004 00AF     		add	r7, sp, #0
 600              	.LCFI30:
 601              		.cfi_def_cfa_register 7
 602 0006 7860     		str	r0, [r7, #4]
 538:.\Generated_Source\PSoC4/Timer1.c ****     uint8 enableInterrupts;
ARM GAS  C:\Users\Jared\AppData\Local\Temp\ccqgopA5.s 			page 21


 539:.\Generated_Source\PSoC4/Timer1.c **** 
 540:.\Generated_Source\PSoC4/Timer1.c ****     enableInterrupts = CyEnterCriticalSection();
 603              		.loc 1 540 0
 604 0008 3C1C     		mov	r4, r7
 605 000a 0F34     		add	r4, r4, #15
 606 000c FFF7FEFF 		bl	CyEnterCriticalSection
 607 0010 031C     		mov	r3, r0
 608 0012 2370     		strb	r3, [r4]
 541:.\Generated_Source\PSoC4/Timer1.c **** 
 542:.\Generated_Source\PSoC4/Timer1.c ****     Timer1_CONTROL_REG &= (uint32)~Timer1_PWM_STOP_KILL_MASK;
 609              		.loc 1 542 0
 610 0014 0B4B     		ldr	r3, .L33
 611 0016 0B4A     		ldr	r2, .L33
 612 0018 1268     		ldr	r2, [r2]
 613 001a 0821     		mov	r1, #8
 614 001c 8A43     		bic	r2, r1
 615 001e 1A60     		str	r2, [r3]
 543:.\Generated_Source\PSoC4/Timer1.c ****     Timer1_CONTROL_REG |= ((uint32)((stopOnKillEnable & Timer1_1BIT_MASK)  <<
 616              		.loc 1 543 0
 617 0020 084B     		ldr	r3, .L33
 618 0022 084A     		ldr	r2, .L33
 619 0024 1168     		ldr	r1, [r2]
 620 0026 7868     		ldr	r0, [r7, #4]
 621 0028 0122     		mov	r2, #1
 622 002a 0240     		and	r2, r0
 623 002c D200     		lsl	r2, r2, #3
 624 002e 0A43     		orr	r2, r1
 625 0030 1A60     		str	r2, [r3]
 544:.\Generated_Source\PSoC4/Timer1.c ****                                                          Timer1_PWM_STOP_KILL_SHIFT));
 545:.\Generated_Source\PSoC4/Timer1.c **** 
 546:.\Generated_Source\PSoC4/Timer1.c ****     CyExitCriticalSection(enableInterrupts);
 626              		.loc 1 546 0
 627 0032 3B1C     		mov	r3, r7
 628 0034 0F33     		add	r3, r3, #15
 629 0036 1B78     		ldrb	r3, [r3]
 630 0038 181C     		mov	r0, r3
 631 003a FFF7FEFF 		bl	CyExitCriticalSection
 547:.\Generated_Source\PSoC4/Timer1.c **** }
 632              		.loc 1 547 0
 633 003e BD46     		mov	sp, r7
 634 0040 05B0     		add	sp, sp, #20
 635              		@ sp needed for prologue
 636 0042 90BD     		pop	{r4, r7, pc}
 637              	.L34:
 638              		.align	2
 639              	.L33:
 640 0044 00010540 		.word	1074069760
 641              		.cfi_endproc
 642              	.LFE10:
 643              		.size	Timer1_SetPWMStopOnKill, .-Timer1_SetPWMStopOnKill
 644              		.section	.text.Timer1_SetPWMDeadTime,"ax",%progbits
 645              		.align	2
 646              		.global	Timer1_SetPWMDeadTime
 647              		.code	16
 648              		.thumb_func
 649              		.type	Timer1_SetPWMDeadTime, %function
 650              	Timer1_SetPWMDeadTime:
ARM GAS  C:\Users\Jared\AppData\Local\Temp\ccqgopA5.s 			page 22


 651              	.LFB11:
 548:.\Generated_Source\PSoC4/Timer1.c **** 
 549:.\Generated_Source\PSoC4/Timer1.c **** 
 550:.\Generated_Source\PSoC4/Timer1.c **** /*******************************************************************************
 551:.\Generated_Source\PSoC4/Timer1.c **** * Function Name: Timer1_SetPWMDeadTime
 552:.\Generated_Source\PSoC4/Timer1.c **** ********************************************************************************
 553:.\Generated_Source\PSoC4/Timer1.c **** *
 554:.\Generated_Source\PSoC4/Timer1.c **** * Summary:
 555:.\Generated_Source\PSoC4/Timer1.c **** *  Writes the dead time control value.  This value delays the rising edge of
 556:.\Generated_Source\PSoC4/Timer1.c **** *  both the line and line_n signals the designated number of cycles resulting
 557:.\Generated_Source\PSoC4/Timer1.c **** *  in both signals being inactive for that many cycles.  This functionality is
 558:.\Generated_Source\PSoC4/Timer1.c **** *  only applicable to the PWM in the dead time mode.
 559:.\Generated_Source\PSoC4/Timer1.c **** 
 560:.\Generated_Source\PSoC4/Timer1.c **** *
 561:.\Generated_Source\PSoC4/Timer1.c **** * Parameters:
 562:.\Generated_Source\PSoC4/Timer1.c **** *  Dead time to insert
 563:.\Generated_Source\PSoC4/Timer1.c **** *   Values: 0 to 255
 564:.\Generated_Source\PSoC4/Timer1.c **** *
 565:.\Generated_Source\PSoC4/Timer1.c **** * Return:
 566:.\Generated_Source\PSoC4/Timer1.c **** *  None
 567:.\Generated_Source\PSoC4/Timer1.c **** *
 568:.\Generated_Source\PSoC4/Timer1.c **** *******************************************************************************/
 569:.\Generated_Source\PSoC4/Timer1.c **** void Timer1_SetPWMDeadTime(uint32 deadTime)
 570:.\Generated_Source\PSoC4/Timer1.c **** {
 652              		.loc 1 570 0
 653              		.cfi_startproc
 654 0000 90B5     		push	{r4, r7, lr}
 655              	.LCFI31:
 656              		.cfi_def_cfa_offset 12
 657              		.cfi_offset 4, -12
 658              		.cfi_offset 7, -8
 659              		.cfi_offset 14, -4
 660 0002 85B0     		sub	sp, sp, #20
 661              	.LCFI32:
 662              		.cfi_def_cfa_offset 32
 663 0004 00AF     		add	r7, sp, #0
 664              	.LCFI33:
 665              		.cfi_def_cfa_register 7
 666 0006 7860     		str	r0, [r7, #4]
 571:.\Generated_Source\PSoC4/Timer1.c ****     uint8 enableInterrupts;
 572:.\Generated_Source\PSoC4/Timer1.c **** 
 573:.\Generated_Source\PSoC4/Timer1.c ****     enableInterrupts = CyEnterCriticalSection();
 667              		.loc 1 573 0
 668 0008 3C1C     		mov	r4, r7
 669 000a 0F34     		add	r4, r4, #15
 670 000c FFF7FEFF 		bl	CyEnterCriticalSection
 671 0010 031C     		mov	r3, r0
 672 0012 2370     		strb	r3, [r4]
 574:.\Generated_Source\PSoC4/Timer1.c **** 
 575:.\Generated_Source\PSoC4/Timer1.c ****     Timer1_CONTROL_REG &= (uint32)~Timer1_PRESCALER_MASK;
 673              		.loc 1 575 0
 674 0014 0B4B     		ldr	r3, .L36
 675 0016 0B4A     		ldr	r2, .L36
 676 0018 1168     		ldr	r1, [r2]
 677 001a 0B4A     		ldr	r2, .L36+4
 678 001c 0A40     		and	r2, r1
 679 001e 1A60     		str	r2, [r3]
ARM GAS  C:\Users\Jared\AppData\Local\Temp\ccqgopA5.s 			page 23


 576:.\Generated_Source\PSoC4/Timer1.c ****     Timer1_CONTROL_REG |= ((uint32)((deadTime & Timer1_8BIT_MASK) <<
 680              		.loc 1 576 0
 681 0020 084B     		ldr	r3, .L36
 682 0022 084A     		ldr	r2, .L36
 683 0024 1168     		ldr	r1, [r2]
 684 0026 7A68     		ldr	r2, [r7, #4]
 685 0028 1202     		lsl	r2, r2, #8
 686 002a 1204     		lsl	r2, r2, #16
 687 002c 120C     		lsr	r2, r2, #16
 688 002e 0A43     		orr	r2, r1
 689 0030 1A60     		str	r2, [r3]
 577:.\Generated_Source\PSoC4/Timer1.c ****                                                           Timer1_PRESCALER_SHIFT));
 578:.\Generated_Source\PSoC4/Timer1.c **** 
 579:.\Generated_Source\PSoC4/Timer1.c ****     CyExitCriticalSection(enableInterrupts);
 690              		.loc 1 579 0
 691 0032 3B1C     		mov	r3, r7
 692 0034 0F33     		add	r3, r3, #15
 693 0036 1B78     		ldrb	r3, [r3]
 694 0038 181C     		mov	r0, r3
 695 003a FFF7FEFF 		bl	CyExitCriticalSection
 580:.\Generated_Source\PSoC4/Timer1.c **** }
 696              		.loc 1 580 0
 697 003e BD46     		mov	sp, r7
 698 0040 05B0     		add	sp, sp, #20
 699              		@ sp needed for prologue
 700 0042 90BD     		pop	{r4, r7, pc}
 701              	.L37:
 702              		.align	2
 703              	.L36:
 704 0044 00010540 		.word	1074069760
 705 0048 FF00FFFF 		.word	-65281
 706              		.cfi_endproc
 707              	.LFE11:
 708              		.size	Timer1_SetPWMDeadTime, .-Timer1_SetPWMDeadTime
 709              		.section	.text.Timer1_SetPWMInvert,"ax",%progbits
 710              		.align	2
 711              		.global	Timer1_SetPWMInvert
 712              		.code	16
 713              		.thumb_func
 714              		.type	Timer1_SetPWMInvert, %function
 715              	Timer1_SetPWMInvert:
 716              	.LFB12:
 581:.\Generated_Source\PSoC4/Timer1.c **** 
 582:.\Generated_Source\PSoC4/Timer1.c **** 
 583:.\Generated_Source\PSoC4/Timer1.c **** /*******************************************************************************
 584:.\Generated_Source\PSoC4/Timer1.c **** * Function Name: Timer1_SetPWMInvert
 585:.\Generated_Source\PSoC4/Timer1.c **** ********************************************************************************
 586:.\Generated_Source\PSoC4/Timer1.c **** *
 587:.\Generated_Source\PSoC4/Timer1.c **** * Summary:
 588:.\Generated_Source\PSoC4/Timer1.c **** *  Writes the bits that control whether the line and line_n outputs are
 589:.\Generated_Source\PSoC4/Timer1.c **** *  inverted from their normal output values.  This functionality is only
 590:.\Generated_Source\PSoC4/Timer1.c **** *  applicable to the three PWM modes.
 591:.\Generated_Source\PSoC4/Timer1.c **** *
 592:.\Generated_Source\PSoC4/Timer1.c **** * Parameters:
 593:.\Generated_Source\PSoC4/Timer1.c **** *  mask: Mask of outputs to invert.
 594:.\Generated_Source\PSoC4/Timer1.c **** *   Values:
 595:.\Generated_Source\PSoC4/Timer1.c **** *         - Timer1_INVERT_LINE   - Inverts the line output
ARM GAS  C:\Users\Jared\AppData\Local\Temp\ccqgopA5.s 			page 24


 596:.\Generated_Source\PSoC4/Timer1.c **** *         - Timer1_INVERT_LINE_N - Inverts the line_n output
 597:.\Generated_Source\PSoC4/Timer1.c **** *
 598:.\Generated_Source\PSoC4/Timer1.c **** * Return:
 599:.\Generated_Source\PSoC4/Timer1.c **** *  None
 600:.\Generated_Source\PSoC4/Timer1.c **** *
 601:.\Generated_Source\PSoC4/Timer1.c **** *******************************************************************************/
 602:.\Generated_Source\PSoC4/Timer1.c **** void Timer1_SetPWMInvert(uint32 mask)
 603:.\Generated_Source\PSoC4/Timer1.c **** {
 717              		.loc 1 603 0
 718              		.cfi_startproc
 719 0000 90B5     		push	{r4, r7, lr}
 720              	.LCFI34:
 721              		.cfi_def_cfa_offset 12
 722              		.cfi_offset 4, -12
 723              		.cfi_offset 7, -8
 724              		.cfi_offset 14, -4
 725 0002 85B0     		sub	sp, sp, #20
 726              	.LCFI35:
 727              		.cfi_def_cfa_offset 32
 728 0004 00AF     		add	r7, sp, #0
 729              	.LCFI36:
 730              		.cfi_def_cfa_register 7
 731 0006 7860     		str	r0, [r7, #4]
 604:.\Generated_Source\PSoC4/Timer1.c ****     uint8 enableInterrupts;
 605:.\Generated_Source\PSoC4/Timer1.c **** 
 606:.\Generated_Source\PSoC4/Timer1.c ****     enableInterrupts = CyEnterCriticalSection();
 732              		.loc 1 606 0
 733 0008 3C1C     		mov	r4, r7
 734 000a 0F34     		add	r4, r4, #15
 735 000c FFF7FEFF 		bl	CyEnterCriticalSection
 736 0010 031C     		mov	r3, r0
 737 0012 2370     		strb	r3, [r4]
 607:.\Generated_Source\PSoC4/Timer1.c **** 
 608:.\Generated_Source\PSoC4/Timer1.c ****     Timer1_CONTROL_REG &= (uint32)~Timer1_INV_OUT_MASK;
 738              		.loc 1 608 0
 739 0014 0A4B     		ldr	r3, .L39
 740 0016 0A4A     		ldr	r2, .L39
 741 0018 1168     		ldr	r1, [r2]
 742 001a 0A4A     		ldr	r2, .L39+4
 743 001c 0A40     		and	r2, r1
 744 001e 1A60     		str	r2, [r3]
 609:.\Generated_Source\PSoC4/Timer1.c ****     Timer1_CONTROL_REG |= mask;
 745              		.loc 1 609 0
 746 0020 074B     		ldr	r3, .L39
 747 0022 074A     		ldr	r2, .L39
 748 0024 1168     		ldr	r1, [r2]
 749 0026 7A68     		ldr	r2, [r7, #4]
 750 0028 0A43     		orr	r2, r1
 751 002a 1A60     		str	r2, [r3]
 610:.\Generated_Source\PSoC4/Timer1.c **** 
 611:.\Generated_Source\PSoC4/Timer1.c ****     CyExitCriticalSection(enableInterrupts);
 752              		.loc 1 611 0
 753 002c 3B1C     		mov	r3, r7
 754 002e 0F33     		add	r3, r3, #15
 755 0030 1B78     		ldrb	r3, [r3]
 756 0032 181C     		mov	r0, r3
 757 0034 FFF7FEFF 		bl	CyExitCriticalSection
ARM GAS  C:\Users\Jared\AppData\Local\Temp\ccqgopA5.s 			page 25


 612:.\Generated_Source\PSoC4/Timer1.c **** }
 758              		.loc 1 612 0
 759 0038 BD46     		mov	sp, r7
 760 003a 05B0     		add	sp, sp, #20
 761              		@ sp needed for prologue
 762 003c 90BD     		pop	{r4, r7, pc}
 763              	.L40:
 764 003e C046     		.align	2
 765              	.L39:
 766 0040 00010540 		.word	1074069760
 767 0044 FFFFCFFF 		.word	-3145729
 768              		.cfi_endproc
 769              	.LFE12:
 770              		.size	Timer1_SetPWMInvert, .-Timer1_SetPWMInvert
 771              		.section	.text.Timer1_WriteCounter,"ax",%progbits
 772              		.align	2
 773              		.global	Timer1_WriteCounter
 774              		.code	16
 775              		.thumb_func
 776              		.type	Timer1_WriteCounter, %function
 777              	Timer1_WriteCounter:
 778              	.LFB13:
 613:.\Generated_Source\PSoC4/Timer1.c **** 
 614:.\Generated_Source\PSoC4/Timer1.c **** 
 615:.\Generated_Source\PSoC4/Timer1.c **** 
 616:.\Generated_Source\PSoC4/Timer1.c **** /*******************************************************************************
 617:.\Generated_Source\PSoC4/Timer1.c **** * Function Name: Timer1_WriteCounter
 618:.\Generated_Source\PSoC4/Timer1.c **** ********************************************************************************
 619:.\Generated_Source\PSoC4/Timer1.c **** *
 620:.\Generated_Source\PSoC4/Timer1.c **** * Summary:
 621:.\Generated_Source\PSoC4/Timer1.c **** *  Writes a new 16bit counter value directly into the counter register, thus
 622:.\Generated_Source\PSoC4/Timer1.c **** *  setting the counter (not the period) to the value written. It is not
 623:.\Generated_Source\PSoC4/Timer1.c **** *  advised to write to this field when the counter is running.
 624:.\Generated_Source\PSoC4/Timer1.c **** *
 625:.\Generated_Source\PSoC4/Timer1.c **** * Parameters:
 626:.\Generated_Source\PSoC4/Timer1.c **** *  count: value to write
 627:.\Generated_Source\PSoC4/Timer1.c **** *
 628:.\Generated_Source\PSoC4/Timer1.c **** * Return:
 629:.\Generated_Source\PSoC4/Timer1.c **** *  None
 630:.\Generated_Source\PSoC4/Timer1.c **** *
 631:.\Generated_Source\PSoC4/Timer1.c **** *******************************************************************************/
 632:.\Generated_Source\PSoC4/Timer1.c **** void Timer1_WriteCounter(uint32 count)
 633:.\Generated_Source\PSoC4/Timer1.c **** {
 779              		.loc 1 633 0
 780              		.cfi_startproc
 781 0000 80B5     		push	{r7, lr}
 782              	.LCFI37:
 783              		.cfi_def_cfa_offset 8
 784              		.cfi_offset 7, -8
 785              		.cfi_offset 14, -4
 786 0002 82B0     		sub	sp, sp, #8
 787              	.LCFI38:
 788              		.cfi_def_cfa_offset 16
 789 0004 00AF     		add	r7, sp, #0
 790              	.LCFI39:
 791              		.cfi_def_cfa_register 7
 792 0006 7860     		str	r0, [r7, #4]
ARM GAS  C:\Users\Jared\AppData\Local\Temp\ccqgopA5.s 			page 26


 634:.\Generated_Source\PSoC4/Timer1.c ****     Timer1_COUNTER_REG = (count & Timer1_16BIT_MASK);
 793              		.loc 1 634 0
 794 0008 034B     		ldr	r3, .L42
 795 000a 7A68     		ldr	r2, [r7, #4]
 796 000c 1204     		lsl	r2, r2, #16
 797 000e 120C     		lsr	r2, r2, #16
 798 0010 1A60     		str	r2, [r3]
 635:.\Generated_Source\PSoC4/Timer1.c **** }
 799              		.loc 1 635 0
 800 0012 BD46     		mov	sp, r7
 801 0014 02B0     		add	sp, sp, #8
 802              		@ sp needed for prologue
 803 0016 80BD     		pop	{r7, pc}
 804              	.L43:
 805              		.align	2
 806              	.L42:
 807 0018 08010540 		.word	1074069768
 808              		.cfi_endproc
 809              	.LFE13:
 810              		.size	Timer1_WriteCounter, .-Timer1_WriteCounter
 811              		.section	.text.Timer1_ReadCounter,"ax",%progbits
 812              		.align	2
 813              		.global	Timer1_ReadCounter
 814              		.code	16
 815              		.thumb_func
 816              		.type	Timer1_ReadCounter, %function
 817              	Timer1_ReadCounter:
 818              	.LFB14:
 636:.\Generated_Source\PSoC4/Timer1.c **** 
 637:.\Generated_Source\PSoC4/Timer1.c **** 
 638:.\Generated_Source\PSoC4/Timer1.c **** /*******************************************************************************
 639:.\Generated_Source\PSoC4/Timer1.c **** * Function Name: Timer1_ReadCounter
 640:.\Generated_Source\PSoC4/Timer1.c **** ********************************************************************************
 641:.\Generated_Source\PSoC4/Timer1.c **** *
 642:.\Generated_Source\PSoC4/Timer1.c **** * Summary:
 643:.\Generated_Source\PSoC4/Timer1.c **** *  Reads the current counter value.
 644:.\Generated_Source\PSoC4/Timer1.c **** *
 645:.\Generated_Source\PSoC4/Timer1.c **** * Parameters:
 646:.\Generated_Source\PSoC4/Timer1.c **** *  None
 647:.\Generated_Source\PSoC4/Timer1.c **** *
 648:.\Generated_Source\PSoC4/Timer1.c **** * Return:
 649:.\Generated_Source\PSoC4/Timer1.c **** *  Current counter value
 650:.\Generated_Source\PSoC4/Timer1.c **** *
 651:.\Generated_Source\PSoC4/Timer1.c **** *******************************************************************************/
 652:.\Generated_Source\PSoC4/Timer1.c **** uint32 Timer1_ReadCounter(void)
 653:.\Generated_Source\PSoC4/Timer1.c **** {
 819              		.loc 1 653 0
 820              		.cfi_startproc
 821 0000 80B5     		push	{r7, lr}
 822              	.LCFI40:
 823              		.cfi_def_cfa_offset 8
 824              		.cfi_offset 7, -8
 825              		.cfi_offset 14, -4
 826 0002 00AF     		add	r7, sp, #0
 827              	.LCFI41:
 828              		.cfi_def_cfa_register 7
 654:.\Generated_Source\PSoC4/Timer1.c ****     return (Timer1_COUNTER_REG & Timer1_16BIT_MASK);
ARM GAS  C:\Users\Jared\AppData\Local\Temp\ccqgopA5.s 			page 27


 829              		.loc 1 654 0
 830 0004 034B     		ldr	r3, .L46
 831 0006 1B68     		ldr	r3, [r3]
 832 0008 1B04     		lsl	r3, r3, #16
 833 000a 1B0C     		lsr	r3, r3, #16
 655:.\Generated_Source\PSoC4/Timer1.c **** }
 834              		.loc 1 655 0
 835 000c 181C     		mov	r0, r3
 836 000e BD46     		mov	sp, r7
 837              		@ sp needed for prologue
 838 0010 80BD     		pop	{r7, pc}
 839              	.L47:
 840 0012 C046     		.align	2
 841              	.L46:
 842 0014 08010540 		.word	1074069768
 843              		.cfi_endproc
 844              	.LFE14:
 845              		.size	Timer1_ReadCounter, .-Timer1_ReadCounter
 846              		.section	.text.Timer1_SetCounterMode,"ax",%progbits
 847              		.align	2
 848              		.global	Timer1_SetCounterMode
 849              		.code	16
 850              		.thumb_func
 851              		.type	Timer1_SetCounterMode, %function
 852              	Timer1_SetCounterMode:
 853              	.LFB15:
 656:.\Generated_Source\PSoC4/Timer1.c **** 
 657:.\Generated_Source\PSoC4/Timer1.c **** 
 658:.\Generated_Source\PSoC4/Timer1.c **** /*******************************************************************************
 659:.\Generated_Source\PSoC4/Timer1.c **** * Function Name: Timer1_SetCounterMode
 660:.\Generated_Source\PSoC4/Timer1.c **** ********************************************************************************
 661:.\Generated_Source\PSoC4/Timer1.c **** *
 662:.\Generated_Source\PSoC4/Timer1.c **** * Summary:
 663:.\Generated_Source\PSoC4/Timer1.c **** *  Sets the counter mode.  Applicable to all modes except Quadrature Decoder
 664:.\Generated_Source\PSoC4/Timer1.c **** *  and the PWM with a pseudo random output.
 665:.\Generated_Source\PSoC4/Timer1.c **** *
 666:.\Generated_Source\PSoC4/Timer1.c **** * Parameters:
 667:.\Generated_Source\PSoC4/Timer1.c **** *  counterMode: Enumerated counter type values
 668:.\Generated_Source\PSoC4/Timer1.c **** *   Values:
 669:.\Generated_Source\PSoC4/Timer1.c **** *     - Timer1_COUNT_UP       - Counts up
 670:.\Generated_Source\PSoC4/Timer1.c **** *     - Timer1_COUNT_DOWN     - Counts down
 671:.\Generated_Source\PSoC4/Timer1.c **** *     - Timer1_COUNT_UPDOWN0  - Counts up and down. Terminal count
 672:.\Generated_Source\PSoC4/Timer1.c **** *                                         generated when counter reaches 0
 673:.\Generated_Source\PSoC4/Timer1.c **** *     - Timer1_COUNT_UPDOWN1  - Counts up and down. Terminal count
 674:.\Generated_Source\PSoC4/Timer1.c **** *                                         generated both when counter reaches 0
 675:.\Generated_Source\PSoC4/Timer1.c **** *                                         and period
 676:.\Generated_Source\PSoC4/Timer1.c **** *
 677:.\Generated_Source\PSoC4/Timer1.c **** * Return:
 678:.\Generated_Source\PSoC4/Timer1.c **** *  None
 679:.\Generated_Source\PSoC4/Timer1.c **** *
 680:.\Generated_Source\PSoC4/Timer1.c **** *******************************************************************************/
 681:.\Generated_Source\PSoC4/Timer1.c **** void Timer1_SetCounterMode(uint32 counterMode)
 682:.\Generated_Source\PSoC4/Timer1.c **** {
 854              		.loc 1 682 0
 855              		.cfi_startproc
 856 0000 90B5     		push	{r4, r7, lr}
 857              	.LCFI42:
ARM GAS  C:\Users\Jared\AppData\Local\Temp\ccqgopA5.s 			page 28


 858              		.cfi_def_cfa_offset 12
 859              		.cfi_offset 4, -12
 860              		.cfi_offset 7, -8
 861              		.cfi_offset 14, -4
 862 0002 85B0     		sub	sp, sp, #20
 863              	.LCFI43:
 864              		.cfi_def_cfa_offset 32
 865 0004 00AF     		add	r7, sp, #0
 866              	.LCFI44:
 867              		.cfi_def_cfa_register 7
 868 0006 7860     		str	r0, [r7, #4]
 683:.\Generated_Source\PSoC4/Timer1.c ****     uint8 enableInterrupts;
 684:.\Generated_Source\PSoC4/Timer1.c **** 
 685:.\Generated_Source\PSoC4/Timer1.c ****     enableInterrupts = CyEnterCriticalSection();
 869              		.loc 1 685 0
 870 0008 3C1C     		mov	r4, r7
 871 000a 0F34     		add	r4, r4, #15
 872 000c FFF7FEFF 		bl	CyEnterCriticalSection
 873 0010 031C     		mov	r3, r0
 874 0012 2370     		strb	r3, [r4]
 686:.\Generated_Source\PSoC4/Timer1.c **** 
 687:.\Generated_Source\PSoC4/Timer1.c ****     Timer1_CONTROL_REG &= (uint32)~Timer1_UPDOWN_MASK;
 875              		.loc 1 687 0
 876 0014 0A4B     		ldr	r3, .L49
 877 0016 0A4A     		ldr	r2, .L49
 878 0018 1168     		ldr	r1, [r2]
 879 001a 0A4A     		ldr	r2, .L49+4
 880 001c 0A40     		and	r2, r1
 881 001e 1A60     		str	r2, [r3]
 688:.\Generated_Source\PSoC4/Timer1.c ****     Timer1_CONTROL_REG |= counterMode;
 882              		.loc 1 688 0
 883 0020 074B     		ldr	r3, .L49
 884 0022 074A     		ldr	r2, .L49
 885 0024 1168     		ldr	r1, [r2]
 886 0026 7A68     		ldr	r2, [r7, #4]
 887 0028 0A43     		orr	r2, r1
 888 002a 1A60     		str	r2, [r3]
 689:.\Generated_Source\PSoC4/Timer1.c **** 
 690:.\Generated_Source\PSoC4/Timer1.c ****     CyExitCriticalSection(enableInterrupts);
 889              		.loc 1 690 0
 890 002c 3B1C     		mov	r3, r7
 891 002e 0F33     		add	r3, r3, #15
 892 0030 1B78     		ldrb	r3, [r3]
 893 0032 181C     		mov	r0, r3
 894 0034 FFF7FEFF 		bl	CyExitCriticalSection
 691:.\Generated_Source\PSoC4/Timer1.c **** }
 895              		.loc 1 691 0
 896 0038 BD46     		mov	sp, r7
 897 003a 05B0     		add	sp, sp, #20
 898              		@ sp needed for prologue
 899 003c 90BD     		pop	{r4, r7, pc}
 900              	.L50:
 901 003e C046     		.align	2
 902              	.L49:
 903 0040 00010540 		.word	1074069760
 904 0044 FFFFFCFF 		.word	-196609
 905              		.cfi_endproc
ARM GAS  C:\Users\Jared\AppData\Local\Temp\ccqgopA5.s 			page 29


 906              	.LFE15:
 907              		.size	Timer1_SetCounterMode, .-Timer1_SetCounterMode
 908              		.section	.text.Timer1_WritePeriod,"ax",%progbits
 909              		.align	2
 910              		.global	Timer1_WritePeriod
 911              		.code	16
 912              		.thumb_func
 913              		.type	Timer1_WritePeriod, %function
 914              	Timer1_WritePeriod:
 915              	.LFB16:
 692:.\Generated_Source\PSoC4/Timer1.c **** 
 693:.\Generated_Source\PSoC4/Timer1.c **** 
 694:.\Generated_Source\PSoC4/Timer1.c **** /*******************************************************************************
 695:.\Generated_Source\PSoC4/Timer1.c **** * Function Name: Timer1_WritePeriod
 696:.\Generated_Source\PSoC4/Timer1.c **** ********************************************************************************
 697:.\Generated_Source\PSoC4/Timer1.c **** *
 698:.\Generated_Source\PSoC4/Timer1.c **** * Summary:
 699:.\Generated_Source\PSoC4/Timer1.c **** *  Writes the 16 bit period register with the new period value.
 700:.\Generated_Source\PSoC4/Timer1.c **** *  To cause the counter to count for N cycles this register should be written
 701:.\Generated_Source\PSoC4/Timer1.c **** *  with N-1 (counts from 0 to period inclusive).
 702:.\Generated_Source\PSoC4/Timer1.c **** *
 703:.\Generated_Source\PSoC4/Timer1.c **** * Parameters:
 704:.\Generated_Source\PSoC4/Timer1.c **** *  period: Period value
 705:.\Generated_Source\PSoC4/Timer1.c **** *
 706:.\Generated_Source\PSoC4/Timer1.c **** * Return:
 707:.\Generated_Source\PSoC4/Timer1.c **** *  None
 708:.\Generated_Source\PSoC4/Timer1.c **** *
 709:.\Generated_Source\PSoC4/Timer1.c **** *******************************************************************************/
 710:.\Generated_Source\PSoC4/Timer1.c **** void Timer1_WritePeriod(uint32 period)
 711:.\Generated_Source\PSoC4/Timer1.c **** {
 916              		.loc 1 711 0
 917              		.cfi_startproc
 918 0000 80B5     		push	{r7, lr}
 919              	.LCFI45:
 920              		.cfi_def_cfa_offset 8
 921              		.cfi_offset 7, -8
 922              		.cfi_offset 14, -4
 923 0002 82B0     		sub	sp, sp, #8
 924              	.LCFI46:
 925              		.cfi_def_cfa_offset 16
 926 0004 00AF     		add	r7, sp, #0
 927              	.LCFI47:
 928              		.cfi_def_cfa_register 7
 929 0006 7860     		str	r0, [r7, #4]
 712:.\Generated_Source\PSoC4/Timer1.c ****     Timer1_PERIOD_REG = (period & Timer1_16BIT_MASK);
 930              		.loc 1 712 0
 931 0008 034B     		ldr	r3, .L52
 932 000a 7A68     		ldr	r2, [r7, #4]
 933 000c 1204     		lsl	r2, r2, #16
 934 000e 120C     		lsr	r2, r2, #16
 935 0010 1A60     		str	r2, [r3]
 713:.\Generated_Source\PSoC4/Timer1.c **** }
 936              		.loc 1 713 0
 937 0012 BD46     		mov	sp, r7
 938 0014 02B0     		add	sp, sp, #8
 939              		@ sp needed for prologue
 940 0016 80BD     		pop	{r7, pc}
ARM GAS  C:\Users\Jared\AppData\Local\Temp\ccqgopA5.s 			page 30


 941              	.L53:
 942              		.align	2
 943              	.L52:
 944 0018 14010540 		.word	1074069780
 945              		.cfi_endproc
 946              	.LFE16:
 947              		.size	Timer1_WritePeriod, .-Timer1_WritePeriod
 948              		.section	.text.Timer1_ReadPeriod,"ax",%progbits
 949              		.align	2
 950              		.global	Timer1_ReadPeriod
 951              		.code	16
 952              		.thumb_func
 953              		.type	Timer1_ReadPeriod, %function
 954              	Timer1_ReadPeriod:
 955              	.LFB17:
 714:.\Generated_Source\PSoC4/Timer1.c **** 
 715:.\Generated_Source\PSoC4/Timer1.c **** 
 716:.\Generated_Source\PSoC4/Timer1.c **** /*******************************************************************************
 717:.\Generated_Source\PSoC4/Timer1.c **** * Function Name: Timer1_ReadPeriod
 718:.\Generated_Source\PSoC4/Timer1.c **** ********************************************************************************
 719:.\Generated_Source\PSoC4/Timer1.c **** *
 720:.\Generated_Source\PSoC4/Timer1.c **** * Summary:
 721:.\Generated_Source\PSoC4/Timer1.c **** *  Reads the 16 bit period register.
 722:.\Generated_Source\PSoC4/Timer1.c **** *
 723:.\Generated_Source\PSoC4/Timer1.c **** * Parameters:
 724:.\Generated_Source\PSoC4/Timer1.c **** *  None
 725:.\Generated_Source\PSoC4/Timer1.c **** *
 726:.\Generated_Source\PSoC4/Timer1.c **** * Return:
 727:.\Generated_Source\PSoC4/Timer1.c **** *  Period value
 728:.\Generated_Source\PSoC4/Timer1.c **** *
 729:.\Generated_Source\PSoC4/Timer1.c **** *******************************************************************************/
 730:.\Generated_Source\PSoC4/Timer1.c **** uint32 Timer1_ReadPeriod(void)
 731:.\Generated_Source\PSoC4/Timer1.c **** {
 956              		.loc 1 731 0
 957              		.cfi_startproc
 958 0000 80B5     		push	{r7, lr}
 959              	.LCFI48:
 960              		.cfi_def_cfa_offset 8
 961              		.cfi_offset 7, -8
 962              		.cfi_offset 14, -4
 963 0002 00AF     		add	r7, sp, #0
 964              	.LCFI49:
 965              		.cfi_def_cfa_register 7
 732:.\Generated_Source\PSoC4/Timer1.c ****     return (Timer1_PERIOD_REG & Timer1_16BIT_MASK);
 966              		.loc 1 732 0
 967 0004 034B     		ldr	r3, .L56
 968 0006 1B68     		ldr	r3, [r3]
 969 0008 1B04     		lsl	r3, r3, #16
 970 000a 1B0C     		lsr	r3, r3, #16
 733:.\Generated_Source\PSoC4/Timer1.c **** }
 971              		.loc 1 733 0
 972 000c 181C     		mov	r0, r3
 973 000e BD46     		mov	sp, r7
 974              		@ sp needed for prologue
 975 0010 80BD     		pop	{r7, pc}
 976              	.L57:
 977 0012 C046     		.align	2
ARM GAS  C:\Users\Jared\AppData\Local\Temp\ccqgopA5.s 			page 31


 978              	.L56:
 979 0014 14010540 		.word	1074069780
 980              		.cfi_endproc
 981              	.LFE17:
 982              		.size	Timer1_ReadPeriod, .-Timer1_ReadPeriod
 983              		.section	.text.Timer1_SetCompareSwap,"ax",%progbits
 984              		.align	2
 985              		.global	Timer1_SetCompareSwap
 986              		.code	16
 987              		.thumb_func
 988              		.type	Timer1_SetCompareSwap, %function
 989              	Timer1_SetCompareSwap:
 990              	.LFB18:
 734:.\Generated_Source\PSoC4/Timer1.c **** 
 735:.\Generated_Source\PSoC4/Timer1.c **** 
 736:.\Generated_Source\PSoC4/Timer1.c **** /*******************************************************************************
 737:.\Generated_Source\PSoC4/Timer1.c **** * Function Name: Timer1_SetCompareSwap
 738:.\Generated_Source\PSoC4/Timer1.c **** ********************************************************************************
 739:.\Generated_Source\PSoC4/Timer1.c **** *
 740:.\Generated_Source\PSoC4/Timer1.c **** * Summary:
 741:.\Generated_Source\PSoC4/Timer1.c **** *  Writes the register that controls whether the compare registers are
 742:.\Generated_Source\PSoC4/Timer1.c **** *  swapped. When enabled in the Timer/Counter mode(without capture) the swap
 743:.\Generated_Source\PSoC4/Timer1.c **** *  occurs at a TC event. In the PWM mode the swap occurs at the next TC event
 744:.\Generated_Source\PSoC4/Timer1.c **** *  following a hardware switch event.
 745:.\Generated_Source\PSoC4/Timer1.c **** *
 746:.\Generated_Source\PSoC4/Timer1.c **** * Parameters:
 747:.\Generated_Source\PSoC4/Timer1.c **** *  swapEnable
 748:.\Generated_Source\PSoC4/Timer1.c **** *   Values:
 749:.\Generated_Source\PSoC4/Timer1.c **** *     - 0 - Disable swap
 750:.\Generated_Source\PSoC4/Timer1.c **** *     - 1 - Enable swap
 751:.\Generated_Source\PSoC4/Timer1.c **** *
 752:.\Generated_Source\PSoC4/Timer1.c **** * Return:
 753:.\Generated_Source\PSoC4/Timer1.c **** *  None
 754:.\Generated_Source\PSoC4/Timer1.c **** *
 755:.\Generated_Source\PSoC4/Timer1.c **** *******************************************************************************/
 756:.\Generated_Source\PSoC4/Timer1.c **** void Timer1_SetCompareSwap(uint32 swapEnable)
 757:.\Generated_Source\PSoC4/Timer1.c **** {
 991              		.loc 1 757 0
 992              		.cfi_startproc
 993 0000 90B5     		push	{r4, r7, lr}
 994              	.LCFI50:
 995              		.cfi_def_cfa_offset 12
 996              		.cfi_offset 4, -12
 997              		.cfi_offset 7, -8
 998              		.cfi_offset 14, -4
 999 0002 85B0     		sub	sp, sp, #20
 1000              	.LCFI51:
 1001              		.cfi_def_cfa_offset 32
 1002 0004 00AF     		add	r7, sp, #0
 1003              	.LCFI52:
 1004              		.cfi_def_cfa_register 7
 1005 0006 7860     		str	r0, [r7, #4]
 758:.\Generated_Source\PSoC4/Timer1.c ****     uint8 enableInterrupts;
 759:.\Generated_Source\PSoC4/Timer1.c **** 
 760:.\Generated_Source\PSoC4/Timer1.c ****     enableInterrupts = CyEnterCriticalSection();
 1006              		.loc 1 760 0
 1007 0008 3C1C     		mov	r4, r7
ARM GAS  C:\Users\Jared\AppData\Local\Temp\ccqgopA5.s 			page 32


 1008 000a 0F34     		add	r4, r4, #15
 1009 000c FFF7FEFF 		bl	CyEnterCriticalSection
 1010 0010 031C     		mov	r3, r0
 1011 0012 2370     		strb	r3, [r4]
 761:.\Generated_Source\PSoC4/Timer1.c **** 
 762:.\Generated_Source\PSoC4/Timer1.c ****     Timer1_CONTROL_REG &= (uint32)~Timer1_RELOAD_CC_MASK;
 1012              		.loc 1 762 0
 1013 0014 0B4B     		ldr	r3, .L59
 1014 0016 0B4A     		ldr	r2, .L59
 1015 0018 1268     		ldr	r2, [r2]
 1016 001a 0121     		mov	r1, #1
 1017 001c 8A43     		bic	r2, r1
 1018 001e 1A60     		str	r2, [r3]
 763:.\Generated_Source\PSoC4/Timer1.c ****     Timer1_CONTROL_REG |= (swapEnable & Timer1_1BIT_MASK);
 1019              		.loc 1 763 0
 1020 0020 084B     		ldr	r3, .L59
 1021 0022 084A     		ldr	r2, .L59
 1022 0024 1168     		ldr	r1, [r2]
 1023 0026 7868     		ldr	r0, [r7, #4]
 1024 0028 0122     		mov	r2, #1
 1025 002a 0240     		and	r2, r0
 1026 002c 0A43     		orr	r2, r1
 1027 002e 1A60     		str	r2, [r3]
 764:.\Generated_Source\PSoC4/Timer1.c **** 
 765:.\Generated_Source\PSoC4/Timer1.c ****     CyExitCriticalSection(enableInterrupts);
 1028              		.loc 1 765 0
 1029 0030 3B1C     		mov	r3, r7
 1030 0032 0F33     		add	r3, r3, #15
 1031 0034 1B78     		ldrb	r3, [r3]
 1032 0036 181C     		mov	r0, r3
 1033 0038 FFF7FEFF 		bl	CyExitCriticalSection
 766:.\Generated_Source\PSoC4/Timer1.c **** }
 1034              		.loc 1 766 0
 1035 003c BD46     		mov	sp, r7
 1036 003e 05B0     		add	sp, sp, #20
 1037              		@ sp needed for prologue
 1038 0040 90BD     		pop	{r4, r7, pc}
 1039              	.L60:
 1040 0042 C046     		.align	2
 1041              	.L59:
 1042 0044 00010540 		.word	1074069760
 1043              		.cfi_endproc
 1044              	.LFE18:
 1045              		.size	Timer1_SetCompareSwap, .-Timer1_SetCompareSwap
 1046              		.section	.text.Timer1_WritePeriodBuf,"ax",%progbits
 1047              		.align	2
 1048              		.global	Timer1_WritePeriodBuf
 1049              		.code	16
 1050              		.thumb_func
 1051              		.type	Timer1_WritePeriodBuf, %function
 1052              	Timer1_WritePeriodBuf:
 1053              	.LFB19:
 767:.\Generated_Source\PSoC4/Timer1.c **** 
 768:.\Generated_Source\PSoC4/Timer1.c **** 
 769:.\Generated_Source\PSoC4/Timer1.c **** /*******************************************************************************
 770:.\Generated_Source\PSoC4/Timer1.c **** * Function Name: Timer1_WritePeriodBuf
 771:.\Generated_Source\PSoC4/Timer1.c **** ********************************************************************************
ARM GAS  C:\Users\Jared\AppData\Local\Temp\ccqgopA5.s 			page 33


 772:.\Generated_Source\PSoC4/Timer1.c **** *
 773:.\Generated_Source\PSoC4/Timer1.c **** * Summary:
 774:.\Generated_Source\PSoC4/Timer1.c **** *  Writes the 16 bit period buf register with the new period value.
 775:.\Generated_Source\PSoC4/Timer1.c **** *
 776:.\Generated_Source\PSoC4/Timer1.c **** * Parameters:
 777:.\Generated_Source\PSoC4/Timer1.c **** *  periodBuf: Period value
 778:.\Generated_Source\PSoC4/Timer1.c **** *
 779:.\Generated_Source\PSoC4/Timer1.c **** * Return:
 780:.\Generated_Source\PSoC4/Timer1.c **** *  None
 781:.\Generated_Source\PSoC4/Timer1.c **** *
 782:.\Generated_Source\PSoC4/Timer1.c **** *******************************************************************************/
 783:.\Generated_Source\PSoC4/Timer1.c **** void Timer1_WritePeriodBuf(uint32 periodBuf)
 784:.\Generated_Source\PSoC4/Timer1.c **** {
 1054              		.loc 1 784 0
 1055              		.cfi_startproc
 1056 0000 80B5     		push	{r7, lr}
 1057              	.LCFI53:
 1058              		.cfi_def_cfa_offset 8
 1059              		.cfi_offset 7, -8
 1060              		.cfi_offset 14, -4
 1061 0002 82B0     		sub	sp, sp, #8
 1062              	.LCFI54:
 1063              		.cfi_def_cfa_offset 16
 1064 0004 00AF     		add	r7, sp, #0
 1065              	.LCFI55:
 1066              		.cfi_def_cfa_register 7
 1067 0006 7860     		str	r0, [r7, #4]
 785:.\Generated_Source\PSoC4/Timer1.c ****     Timer1_PERIOD_BUF_REG = (periodBuf & Timer1_16BIT_MASK);
 1068              		.loc 1 785 0
 1069 0008 034B     		ldr	r3, .L62
 1070 000a 7A68     		ldr	r2, [r7, #4]
 1071 000c 1204     		lsl	r2, r2, #16
 1072 000e 120C     		lsr	r2, r2, #16
 1073 0010 1A60     		str	r2, [r3]
 786:.\Generated_Source\PSoC4/Timer1.c **** }
 1074              		.loc 1 786 0
 1075 0012 BD46     		mov	sp, r7
 1076 0014 02B0     		add	sp, sp, #8
 1077              		@ sp needed for prologue
 1078 0016 80BD     		pop	{r7, pc}
 1079              	.L63:
 1080              		.align	2
 1081              	.L62:
 1082 0018 18010540 		.word	1074069784
 1083              		.cfi_endproc
 1084              	.LFE19:
 1085              		.size	Timer1_WritePeriodBuf, .-Timer1_WritePeriodBuf
 1086              		.section	.text.Timer1_ReadPeriodBuf,"ax",%progbits
 1087              		.align	2
 1088              		.global	Timer1_ReadPeriodBuf
 1089              		.code	16
 1090              		.thumb_func
 1091              		.type	Timer1_ReadPeriodBuf, %function
 1092              	Timer1_ReadPeriodBuf:
 1093              	.LFB20:
 787:.\Generated_Source\PSoC4/Timer1.c **** 
 788:.\Generated_Source\PSoC4/Timer1.c **** 
ARM GAS  C:\Users\Jared\AppData\Local\Temp\ccqgopA5.s 			page 34


 789:.\Generated_Source\PSoC4/Timer1.c **** /*******************************************************************************
 790:.\Generated_Source\PSoC4/Timer1.c **** * Function Name: Timer1_ReadPeriodBuf
 791:.\Generated_Source\PSoC4/Timer1.c **** ********************************************************************************
 792:.\Generated_Source\PSoC4/Timer1.c **** *
 793:.\Generated_Source\PSoC4/Timer1.c **** * Summary:
 794:.\Generated_Source\PSoC4/Timer1.c **** *  Reads the 16 bit period buf register.
 795:.\Generated_Source\PSoC4/Timer1.c **** *
 796:.\Generated_Source\PSoC4/Timer1.c **** * Parameters:
 797:.\Generated_Source\PSoC4/Timer1.c **** *  None
 798:.\Generated_Source\PSoC4/Timer1.c **** *
 799:.\Generated_Source\PSoC4/Timer1.c **** * Return:
 800:.\Generated_Source\PSoC4/Timer1.c **** *  Period value
 801:.\Generated_Source\PSoC4/Timer1.c **** *
 802:.\Generated_Source\PSoC4/Timer1.c **** *******************************************************************************/
 803:.\Generated_Source\PSoC4/Timer1.c **** uint32 Timer1_ReadPeriodBuf(void)
 804:.\Generated_Source\PSoC4/Timer1.c **** {
 1094              		.loc 1 804 0
 1095              		.cfi_startproc
 1096 0000 80B5     		push	{r7, lr}
 1097              	.LCFI56:
 1098              		.cfi_def_cfa_offset 8
 1099              		.cfi_offset 7, -8
 1100              		.cfi_offset 14, -4
 1101 0002 00AF     		add	r7, sp, #0
 1102              	.LCFI57:
 1103              		.cfi_def_cfa_register 7
 805:.\Generated_Source\PSoC4/Timer1.c ****     return (Timer1_PERIOD_BUF_REG & Timer1_16BIT_MASK);
 1104              		.loc 1 805 0
 1105 0004 034B     		ldr	r3, .L66
 1106 0006 1B68     		ldr	r3, [r3]
 1107 0008 1B04     		lsl	r3, r3, #16
 1108 000a 1B0C     		lsr	r3, r3, #16
 806:.\Generated_Source\PSoC4/Timer1.c **** }
 1109              		.loc 1 806 0
 1110 000c 181C     		mov	r0, r3
 1111 000e BD46     		mov	sp, r7
 1112              		@ sp needed for prologue
 1113 0010 80BD     		pop	{r7, pc}
 1114              	.L67:
 1115 0012 C046     		.align	2
 1116              	.L66:
 1117 0014 18010540 		.word	1074069784
 1118              		.cfi_endproc
 1119              	.LFE20:
 1120              		.size	Timer1_ReadPeriodBuf, .-Timer1_ReadPeriodBuf
 1121              		.section	.text.Timer1_SetPeriodSwap,"ax",%progbits
 1122              		.align	2
 1123              		.global	Timer1_SetPeriodSwap
 1124              		.code	16
 1125              		.thumb_func
 1126              		.type	Timer1_SetPeriodSwap, %function
 1127              	Timer1_SetPeriodSwap:
 1128              	.LFB21:
 807:.\Generated_Source\PSoC4/Timer1.c **** 
 808:.\Generated_Source\PSoC4/Timer1.c **** 
 809:.\Generated_Source\PSoC4/Timer1.c **** /*******************************************************************************
 810:.\Generated_Source\PSoC4/Timer1.c **** * Function Name: Timer1_SetPeriodSwap
ARM GAS  C:\Users\Jared\AppData\Local\Temp\ccqgopA5.s 			page 35


 811:.\Generated_Source\PSoC4/Timer1.c **** ********************************************************************************
 812:.\Generated_Source\PSoC4/Timer1.c **** *
 813:.\Generated_Source\PSoC4/Timer1.c **** * Summary:
 814:.\Generated_Source\PSoC4/Timer1.c **** *  Writes the register that controls whether the period registers are
 815:.\Generated_Source\PSoC4/Timer1.c **** *  swapped. When enabled in Timer/Counter mode the swap occurs at a TC event.
 816:.\Generated_Source\PSoC4/Timer1.c **** *  In the PWM mode the swap occurs at the next TC event following a hardware
 817:.\Generated_Source\PSoC4/Timer1.c **** *  switch event.
 818:.\Generated_Source\PSoC4/Timer1.c **** *
 819:.\Generated_Source\PSoC4/Timer1.c **** * Parameters:
 820:.\Generated_Source\PSoC4/Timer1.c **** *  swapEnable
 821:.\Generated_Source\PSoC4/Timer1.c **** *   Values:
 822:.\Generated_Source\PSoC4/Timer1.c **** *     - 0 - Disable swap
 823:.\Generated_Source\PSoC4/Timer1.c **** *     - 1 - Enable swap
 824:.\Generated_Source\PSoC4/Timer1.c **** *
 825:.\Generated_Source\PSoC4/Timer1.c **** * Return:
 826:.\Generated_Source\PSoC4/Timer1.c **** *  None
 827:.\Generated_Source\PSoC4/Timer1.c **** *
 828:.\Generated_Source\PSoC4/Timer1.c **** *******************************************************************************/
 829:.\Generated_Source\PSoC4/Timer1.c **** void Timer1_SetPeriodSwap(uint32 swapEnable)
 830:.\Generated_Source\PSoC4/Timer1.c **** {
 1129              		.loc 1 830 0
 1130              		.cfi_startproc
 1131 0000 90B5     		push	{r4, r7, lr}
 1132              	.LCFI58:
 1133              		.cfi_def_cfa_offset 12
 1134              		.cfi_offset 4, -12
 1135              		.cfi_offset 7, -8
 1136              		.cfi_offset 14, -4
 1137 0002 85B0     		sub	sp, sp, #20
 1138              	.LCFI59:
 1139              		.cfi_def_cfa_offset 32
 1140 0004 00AF     		add	r7, sp, #0
 1141              	.LCFI60:
 1142              		.cfi_def_cfa_register 7
 1143 0006 7860     		str	r0, [r7, #4]
 831:.\Generated_Source\PSoC4/Timer1.c ****     uint8 enableInterrupts;
 832:.\Generated_Source\PSoC4/Timer1.c **** 
 833:.\Generated_Source\PSoC4/Timer1.c ****     enableInterrupts = CyEnterCriticalSection();
 1144              		.loc 1 833 0
 1145 0008 3C1C     		mov	r4, r7
 1146 000a 0F34     		add	r4, r4, #15
 1147 000c FFF7FEFF 		bl	CyEnterCriticalSection
 1148 0010 031C     		mov	r3, r0
 1149 0012 2370     		strb	r3, [r4]
 834:.\Generated_Source\PSoC4/Timer1.c **** 
 835:.\Generated_Source\PSoC4/Timer1.c ****     Timer1_CONTROL_REG &= (uint32)~Timer1_RELOAD_PERIOD_MASK;
 1150              		.loc 1 835 0
 1151 0014 0B4B     		ldr	r3, .L69
 1152 0016 0B4A     		ldr	r2, .L69
 1153 0018 1268     		ldr	r2, [r2]
 1154 001a 0221     		mov	r1, #2
 1155 001c 8A43     		bic	r2, r1
 1156 001e 1A60     		str	r2, [r3]
 836:.\Generated_Source\PSoC4/Timer1.c ****     Timer1_CONTROL_REG |= ((uint32)((swapEnable & Timer1_1BIT_MASK) <<
 1157              		.loc 1 836 0
 1158 0020 084B     		ldr	r3, .L69
 1159 0022 084A     		ldr	r2, .L69
ARM GAS  C:\Users\Jared\AppData\Local\Temp\ccqgopA5.s 			page 36


 1160 0024 1168     		ldr	r1, [r2]
 1161 0026 7868     		ldr	r0, [r7, #4]
 1162 0028 0122     		mov	r2, #1
 1163 002a 0240     		and	r2, r0
 1164 002c 5200     		lsl	r2, r2, #1
 1165 002e 0A43     		orr	r2, r1
 1166 0030 1A60     		str	r2, [r3]
 837:.\Generated_Source\PSoC4/Timer1.c ****                                                             Timer1_RELOAD_PERIOD_SHIFT));
 838:.\Generated_Source\PSoC4/Timer1.c **** 
 839:.\Generated_Source\PSoC4/Timer1.c ****     CyExitCriticalSection(enableInterrupts);
 1167              		.loc 1 839 0
 1168 0032 3B1C     		mov	r3, r7
 1169 0034 0F33     		add	r3, r3, #15
 1170 0036 1B78     		ldrb	r3, [r3]
 1171 0038 181C     		mov	r0, r3
 1172 003a FFF7FEFF 		bl	CyExitCriticalSection
 840:.\Generated_Source\PSoC4/Timer1.c **** }
 1173              		.loc 1 840 0
 1174 003e BD46     		mov	sp, r7
 1175 0040 05B0     		add	sp, sp, #20
 1176              		@ sp needed for prologue
 1177 0042 90BD     		pop	{r4, r7, pc}
 1178              	.L70:
 1179              		.align	2
 1180              	.L69:
 1181 0044 00010540 		.word	1074069760
 1182              		.cfi_endproc
 1183              	.LFE21:
 1184              		.size	Timer1_SetPeriodSwap, .-Timer1_SetPeriodSwap
 1185              		.section	.text.Timer1_WriteCompare,"ax",%progbits
 1186              		.align	2
 1187              		.global	Timer1_WriteCompare
 1188              		.code	16
 1189              		.thumb_func
 1190              		.type	Timer1_WriteCompare, %function
 1191              	Timer1_WriteCompare:
 1192              	.LFB22:
 841:.\Generated_Source\PSoC4/Timer1.c **** 
 842:.\Generated_Source\PSoC4/Timer1.c **** 
 843:.\Generated_Source\PSoC4/Timer1.c **** /*******************************************************************************
 844:.\Generated_Source\PSoC4/Timer1.c **** * Function Name: Timer1_WriteCompare
 845:.\Generated_Source\PSoC4/Timer1.c **** ********************************************************************************
 846:.\Generated_Source\PSoC4/Timer1.c **** *
 847:.\Generated_Source\PSoC4/Timer1.c **** * Summary:
 848:.\Generated_Source\PSoC4/Timer1.c **** *  Writes the 16 bit compare register with the new compare value. Not
 849:.\Generated_Source\PSoC4/Timer1.c **** *  applicable for Timer/Counter with Capture or in Quadrature Decoder modes.
 850:.\Generated_Source\PSoC4/Timer1.c **** *
 851:.\Generated_Source\PSoC4/Timer1.c **** * Parameters:
 852:.\Generated_Source\PSoC4/Timer1.c **** *  compare: Compare value
 853:.\Generated_Source\PSoC4/Timer1.c **** *
 854:.\Generated_Source\PSoC4/Timer1.c **** * Return:
 855:.\Generated_Source\PSoC4/Timer1.c **** *  None
 856:.\Generated_Source\PSoC4/Timer1.c **** *
 857:.\Generated_Source\PSoC4/Timer1.c **** *******************************************************************************/
 858:.\Generated_Source\PSoC4/Timer1.c **** void Timer1_WriteCompare(uint32 compare)
 859:.\Generated_Source\PSoC4/Timer1.c **** {
 1193              		.loc 1 859 0
ARM GAS  C:\Users\Jared\AppData\Local\Temp\ccqgopA5.s 			page 37


 1194              		.cfi_startproc
 1195 0000 80B5     		push	{r7, lr}
 1196              	.LCFI61:
 1197              		.cfi_def_cfa_offset 8
 1198              		.cfi_offset 7, -8
 1199              		.cfi_offset 14, -4
 1200 0002 82B0     		sub	sp, sp, #8
 1201              	.LCFI62:
 1202              		.cfi_def_cfa_offset 16
 1203 0004 00AF     		add	r7, sp, #0
 1204              	.LCFI63:
 1205              		.cfi_def_cfa_register 7
 1206 0006 7860     		str	r0, [r7, #4]
 860:.\Generated_Source\PSoC4/Timer1.c ****     #if (Timer1_CY_TCPWM_V2)
 861:.\Generated_Source\PSoC4/Timer1.c ****         uint32 currentMode;
 862:.\Generated_Source\PSoC4/Timer1.c ****     #endif /* (Timer1_CY_TCPWM_V2) */
 863:.\Generated_Source\PSoC4/Timer1.c **** 
 864:.\Generated_Source\PSoC4/Timer1.c ****     #if (Timer1_CY_TCPWM_V2)
 865:.\Generated_Source\PSoC4/Timer1.c ****         currentMode = ((Timer1_CONTROL_REG & Timer1_UPDOWN_MASK) >> Timer1_UPDOWN_SHIFT);
 866:.\Generated_Source\PSoC4/Timer1.c **** 
 867:.\Generated_Source\PSoC4/Timer1.c ****         if (Timer1__COUNT_DOWN == currentMode)
 868:.\Generated_Source\PSoC4/Timer1.c ****         {
 869:.\Generated_Source\PSoC4/Timer1.c ****             Timer1_COMP_CAP_REG = ((compare + 1u) & Timer1_16BIT_MASK);
 870:.\Generated_Source\PSoC4/Timer1.c ****         }
 871:.\Generated_Source\PSoC4/Timer1.c ****         else if (Timer1__COUNT_UP == currentMode)
 872:.\Generated_Source\PSoC4/Timer1.c ****         {
 873:.\Generated_Source\PSoC4/Timer1.c ****             Timer1_COMP_CAP_REG = ((compare - 1u) & Timer1_16BIT_MASK);
 874:.\Generated_Source\PSoC4/Timer1.c ****         }
 875:.\Generated_Source\PSoC4/Timer1.c ****         else
 876:.\Generated_Source\PSoC4/Timer1.c ****         {
 877:.\Generated_Source\PSoC4/Timer1.c ****             Timer1_COMP_CAP_REG = (compare & Timer1_16BIT_MASK);
 878:.\Generated_Source\PSoC4/Timer1.c ****         }
 879:.\Generated_Source\PSoC4/Timer1.c ****     #else
 880:.\Generated_Source\PSoC4/Timer1.c ****         Timer1_COMP_CAP_REG = (compare & Timer1_16BIT_MASK);
 1207              		.loc 1 880 0
 1208 0008 034B     		ldr	r3, .L72
 1209 000a 7A68     		ldr	r2, [r7, #4]
 1210 000c 1204     		lsl	r2, r2, #16
 1211 000e 120C     		lsr	r2, r2, #16
 1212 0010 1A60     		str	r2, [r3]
 881:.\Generated_Source\PSoC4/Timer1.c ****     #endif /* (Timer1_CY_TCPWM_V2) */
 882:.\Generated_Source\PSoC4/Timer1.c **** }
 1213              		.loc 1 882 0
 1214 0012 BD46     		mov	sp, r7
 1215 0014 02B0     		add	sp, sp, #8
 1216              		@ sp needed for prologue
 1217 0016 80BD     		pop	{r7, pc}
 1218              	.L73:
 1219              		.align	2
 1220              	.L72:
 1221 0018 0C010540 		.word	1074069772
 1222              		.cfi_endproc
 1223              	.LFE22:
 1224              		.size	Timer1_WriteCompare, .-Timer1_WriteCompare
 1225              		.section	.text.Timer1_ReadCompare,"ax",%progbits
 1226              		.align	2
 1227              		.global	Timer1_ReadCompare
ARM GAS  C:\Users\Jared\AppData\Local\Temp\ccqgopA5.s 			page 38


 1228              		.code	16
 1229              		.thumb_func
 1230              		.type	Timer1_ReadCompare, %function
 1231              	Timer1_ReadCompare:
 1232              	.LFB23:
 883:.\Generated_Source\PSoC4/Timer1.c **** 
 884:.\Generated_Source\PSoC4/Timer1.c **** 
 885:.\Generated_Source\PSoC4/Timer1.c **** /*******************************************************************************
 886:.\Generated_Source\PSoC4/Timer1.c **** * Function Name: Timer1_ReadCompare
 887:.\Generated_Source\PSoC4/Timer1.c **** ********************************************************************************
 888:.\Generated_Source\PSoC4/Timer1.c **** *
 889:.\Generated_Source\PSoC4/Timer1.c **** * Summary:
 890:.\Generated_Source\PSoC4/Timer1.c **** *  Reads the compare register. Not applicable for Timer/Counter with Capture
 891:.\Generated_Source\PSoC4/Timer1.c **** *  or in Quadrature Decoder modes.
 892:.\Generated_Source\PSoC4/Timer1.c **** *
 893:.\Generated_Source\PSoC4/Timer1.c **** * Parameters:
 894:.\Generated_Source\PSoC4/Timer1.c **** *  None
 895:.\Generated_Source\PSoC4/Timer1.c **** *
 896:.\Generated_Source\PSoC4/Timer1.c **** * Return:
 897:.\Generated_Source\PSoC4/Timer1.c **** *  Compare value
 898:.\Generated_Source\PSoC4/Timer1.c **** *
 899:.\Generated_Source\PSoC4/Timer1.c **** *******************************************************************************/
 900:.\Generated_Source\PSoC4/Timer1.c **** uint32 Timer1_ReadCompare(void)
 901:.\Generated_Source\PSoC4/Timer1.c **** {
 1233              		.loc 1 901 0
 1234              		.cfi_startproc
 1235 0000 80B5     		push	{r7, lr}
 1236              	.LCFI64:
 1237              		.cfi_def_cfa_offset 8
 1238              		.cfi_offset 7, -8
 1239              		.cfi_offset 14, -4
 1240 0002 00AF     		add	r7, sp, #0
 1241              	.LCFI65:
 1242              		.cfi_def_cfa_register 7
 902:.\Generated_Source\PSoC4/Timer1.c ****     #if (Timer1_CY_TCPWM_V2)
 903:.\Generated_Source\PSoC4/Timer1.c ****         uint32 currentMode;
 904:.\Generated_Source\PSoC4/Timer1.c ****         uint32 regVal;
 905:.\Generated_Source\PSoC4/Timer1.c ****     #endif /* (Timer1_CY_TCPWM_V2) */
 906:.\Generated_Source\PSoC4/Timer1.c **** 
 907:.\Generated_Source\PSoC4/Timer1.c ****     #if (Timer1_CY_TCPWM_V2)
 908:.\Generated_Source\PSoC4/Timer1.c ****         currentMode = ((Timer1_CONTROL_REG & Timer1_UPDOWN_MASK) >> Timer1_UPDOWN_SHIFT);
 909:.\Generated_Source\PSoC4/Timer1.c **** 
 910:.\Generated_Source\PSoC4/Timer1.c ****         if (Timer1__COUNT_DOWN == currentMode)
 911:.\Generated_Source\PSoC4/Timer1.c ****         {
 912:.\Generated_Source\PSoC4/Timer1.c ****             regVal = ((Timer1_COMP_CAP_REG - 1u) & Timer1_16BIT_MASK);
 913:.\Generated_Source\PSoC4/Timer1.c ****         }
 914:.\Generated_Source\PSoC4/Timer1.c ****         else if (Timer1__COUNT_UP == currentMode)
 915:.\Generated_Source\PSoC4/Timer1.c ****         {
 916:.\Generated_Source\PSoC4/Timer1.c ****             regVal = ((Timer1_COMP_CAP_REG + 1u) & Timer1_16BIT_MASK);
 917:.\Generated_Source\PSoC4/Timer1.c ****         }
 918:.\Generated_Source\PSoC4/Timer1.c ****         else
 919:.\Generated_Source\PSoC4/Timer1.c ****         {
 920:.\Generated_Source\PSoC4/Timer1.c ****             regVal = (Timer1_COMP_CAP_REG & Timer1_16BIT_MASK);
 921:.\Generated_Source\PSoC4/Timer1.c ****         }
 922:.\Generated_Source\PSoC4/Timer1.c ****         return (regVal);
 923:.\Generated_Source\PSoC4/Timer1.c ****     #else
 924:.\Generated_Source\PSoC4/Timer1.c ****         return (Timer1_COMP_CAP_REG & Timer1_16BIT_MASK);
ARM GAS  C:\Users\Jared\AppData\Local\Temp\ccqgopA5.s 			page 39


 1243              		.loc 1 924 0
 1244 0004 034B     		ldr	r3, .L76
 1245 0006 1B68     		ldr	r3, [r3]
 1246 0008 1B04     		lsl	r3, r3, #16
 1247 000a 1B0C     		lsr	r3, r3, #16
 925:.\Generated_Source\PSoC4/Timer1.c ****     #endif /* (Timer1_CY_TCPWM_V2) */
 926:.\Generated_Source\PSoC4/Timer1.c **** }
 1248              		.loc 1 926 0
 1249 000c 181C     		mov	r0, r3
 1250 000e BD46     		mov	sp, r7
 1251              		@ sp needed for prologue
 1252 0010 80BD     		pop	{r7, pc}
 1253              	.L77:
 1254 0012 C046     		.align	2
 1255              	.L76:
 1256 0014 0C010540 		.word	1074069772
 1257              		.cfi_endproc
 1258              	.LFE23:
 1259              		.size	Timer1_ReadCompare, .-Timer1_ReadCompare
 1260              		.section	.text.Timer1_WriteCompareBuf,"ax",%progbits
 1261              		.align	2
 1262              		.global	Timer1_WriteCompareBuf
 1263              		.code	16
 1264              		.thumb_func
 1265              		.type	Timer1_WriteCompareBuf, %function
 1266              	Timer1_WriteCompareBuf:
 1267              	.LFB24:
 927:.\Generated_Source\PSoC4/Timer1.c **** 
 928:.\Generated_Source\PSoC4/Timer1.c **** 
 929:.\Generated_Source\PSoC4/Timer1.c **** /*******************************************************************************
 930:.\Generated_Source\PSoC4/Timer1.c **** * Function Name: Timer1_WriteCompareBuf
 931:.\Generated_Source\PSoC4/Timer1.c **** ********************************************************************************
 932:.\Generated_Source\PSoC4/Timer1.c **** *
 933:.\Generated_Source\PSoC4/Timer1.c **** * Summary:
 934:.\Generated_Source\PSoC4/Timer1.c **** *  Writes the 16 bit compare buffer register with the new compare value. Not
 935:.\Generated_Source\PSoC4/Timer1.c **** *  applicable for Timer/Counter with Capture or in Quadrature Decoder modes.
 936:.\Generated_Source\PSoC4/Timer1.c **** *
 937:.\Generated_Source\PSoC4/Timer1.c **** * Parameters:
 938:.\Generated_Source\PSoC4/Timer1.c **** *  compareBuf: Compare value
 939:.\Generated_Source\PSoC4/Timer1.c **** *
 940:.\Generated_Source\PSoC4/Timer1.c **** * Return:
 941:.\Generated_Source\PSoC4/Timer1.c **** *  None
 942:.\Generated_Source\PSoC4/Timer1.c **** *
 943:.\Generated_Source\PSoC4/Timer1.c **** *******************************************************************************/
 944:.\Generated_Source\PSoC4/Timer1.c **** void Timer1_WriteCompareBuf(uint32 compareBuf)
 945:.\Generated_Source\PSoC4/Timer1.c **** {
 1268              		.loc 1 945 0
 1269              		.cfi_startproc
 1270 0000 80B5     		push	{r7, lr}
 1271              	.LCFI66:
 1272              		.cfi_def_cfa_offset 8
 1273              		.cfi_offset 7, -8
 1274              		.cfi_offset 14, -4
 1275 0002 82B0     		sub	sp, sp, #8
 1276              	.LCFI67:
 1277              		.cfi_def_cfa_offset 16
 1278 0004 00AF     		add	r7, sp, #0
ARM GAS  C:\Users\Jared\AppData\Local\Temp\ccqgopA5.s 			page 40


 1279              	.LCFI68:
 1280              		.cfi_def_cfa_register 7
 1281 0006 7860     		str	r0, [r7, #4]
 946:.\Generated_Source\PSoC4/Timer1.c ****     #if (Timer1_CY_TCPWM_V2)
 947:.\Generated_Source\PSoC4/Timer1.c ****         uint32 currentMode;
 948:.\Generated_Source\PSoC4/Timer1.c ****     #endif /* (Timer1_CY_TCPWM_V2) */
 949:.\Generated_Source\PSoC4/Timer1.c **** 
 950:.\Generated_Source\PSoC4/Timer1.c ****     #if (Timer1_CY_TCPWM_V2)
 951:.\Generated_Source\PSoC4/Timer1.c ****         currentMode = ((Timer1_CONTROL_REG & Timer1_UPDOWN_MASK) >> Timer1_UPDOWN_SHIFT);
 952:.\Generated_Source\PSoC4/Timer1.c **** 
 953:.\Generated_Source\PSoC4/Timer1.c ****         if (Timer1__COUNT_DOWN == currentMode)
 954:.\Generated_Source\PSoC4/Timer1.c ****         {
 955:.\Generated_Source\PSoC4/Timer1.c ****             Timer1_COMP_CAP_BUF_REG = ((compareBuf + 1u) & Timer1_16BIT_MASK);
 956:.\Generated_Source\PSoC4/Timer1.c ****         }
 957:.\Generated_Source\PSoC4/Timer1.c ****         else if (Timer1__COUNT_UP == currentMode)
 958:.\Generated_Source\PSoC4/Timer1.c ****         {
 959:.\Generated_Source\PSoC4/Timer1.c ****             Timer1_COMP_CAP_BUF_REG = ((compareBuf - 1u) & Timer1_16BIT_MASK);
 960:.\Generated_Source\PSoC4/Timer1.c ****         }
 961:.\Generated_Source\PSoC4/Timer1.c ****         else
 962:.\Generated_Source\PSoC4/Timer1.c ****         {
 963:.\Generated_Source\PSoC4/Timer1.c ****             Timer1_COMP_CAP_BUF_REG = (compareBuf & Timer1_16BIT_MASK);
 964:.\Generated_Source\PSoC4/Timer1.c ****         }
 965:.\Generated_Source\PSoC4/Timer1.c ****     #else
 966:.\Generated_Source\PSoC4/Timer1.c ****         Timer1_COMP_CAP_BUF_REG = (compareBuf & Timer1_16BIT_MASK);
 1282              		.loc 1 966 0
 1283 0008 034B     		ldr	r3, .L79
 1284 000a 7A68     		ldr	r2, [r7, #4]
 1285 000c 1204     		lsl	r2, r2, #16
 1286 000e 120C     		lsr	r2, r2, #16
 1287 0010 1A60     		str	r2, [r3]
 967:.\Generated_Source\PSoC4/Timer1.c ****     #endif /* (Timer1_CY_TCPWM_V2) */
 968:.\Generated_Source\PSoC4/Timer1.c **** }
 1288              		.loc 1 968 0
 1289 0012 BD46     		mov	sp, r7
 1290 0014 02B0     		add	sp, sp, #8
 1291              		@ sp needed for prologue
 1292 0016 80BD     		pop	{r7, pc}
 1293              	.L80:
 1294              		.align	2
 1295              	.L79:
 1296 0018 10010540 		.word	1074069776
 1297              		.cfi_endproc
 1298              	.LFE24:
 1299              		.size	Timer1_WriteCompareBuf, .-Timer1_WriteCompareBuf
 1300              		.section	.text.Timer1_ReadCompareBuf,"ax",%progbits
 1301              		.align	2
 1302              		.global	Timer1_ReadCompareBuf
 1303              		.code	16
 1304              		.thumb_func
 1305              		.type	Timer1_ReadCompareBuf, %function
 1306              	Timer1_ReadCompareBuf:
 1307              	.LFB25:
 969:.\Generated_Source\PSoC4/Timer1.c **** 
 970:.\Generated_Source\PSoC4/Timer1.c **** 
 971:.\Generated_Source\PSoC4/Timer1.c **** /*******************************************************************************
 972:.\Generated_Source\PSoC4/Timer1.c **** * Function Name: Timer1_ReadCompareBuf
 973:.\Generated_Source\PSoC4/Timer1.c **** ********************************************************************************
ARM GAS  C:\Users\Jared\AppData\Local\Temp\ccqgopA5.s 			page 41


 974:.\Generated_Source\PSoC4/Timer1.c **** *
 975:.\Generated_Source\PSoC4/Timer1.c **** * Summary:
 976:.\Generated_Source\PSoC4/Timer1.c **** *  Reads the compare buffer register. Not applicable for Timer/Counter with
 977:.\Generated_Source\PSoC4/Timer1.c **** *  Capture or in Quadrature Decoder modes.
 978:.\Generated_Source\PSoC4/Timer1.c **** *
 979:.\Generated_Source\PSoC4/Timer1.c **** * Parameters:
 980:.\Generated_Source\PSoC4/Timer1.c **** *  None
 981:.\Generated_Source\PSoC4/Timer1.c **** *
 982:.\Generated_Source\PSoC4/Timer1.c **** * Return:
 983:.\Generated_Source\PSoC4/Timer1.c **** *  Compare buffer value
 984:.\Generated_Source\PSoC4/Timer1.c **** *
 985:.\Generated_Source\PSoC4/Timer1.c **** *******************************************************************************/
 986:.\Generated_Source\PSoC4/Timer1.c **** uint32 Timer1_ReadCompareBuf(void)
 987:.\Generated_Source\PSoC4/Timer1.c **** {
 1308              		.loc 1 987 0
 1309              		.cfi_startproc
 1310 0000 80B5     		push	{r7, lr}
 1311              	.LCFI69:
 1312              		.cfi_def_cfa_offset 8
 1313              		.cfi_offset 7, -8
 1314              		.cfi_offset 14, -4
 1315 0002 00AF     		add	r7, sp, #0
 1316              	.LCFI70:
 1317              		.cfi_def_cfa_register 7
 988:.\Generated_Source\PSoC4/Timer1.c ****     #if (Timer1_CY_TCPWM_V2)
 989:.\Generated_Source\PSoC4/Timer1.c ****         uint32 currentMode;
 990:.\Generated_Source\PSoC4/Timer1.c ****         uint32 regVal;
 991:.\Generated_Source\PSoC4/Timer1.c ****     #endif /* (Timer1_CY_TCPWM_V2) */
 992:.\Generated_Source\PSoC4/Timer1.c **** 
 993:.\Generated_Source\PSoC4/Timer1.c ****     #if (Timer1_CY_TCPWM_V2)
 994:.\Generated_Source\PSoC4/Timer1.c ****         currentMode = ((Timer1_CONTROL_REG & Timer1_UPDOWN_MASK) >> Timer1_UPDOWN_SHIFT);
 995:.\Generated_Source\PSoC4/Timer1.c **** 
 996:.\Generated_Source\PSoC4/Timer1.c ****         if (Timer1__COUNT_DOWN == currentMode)
 997:.\Generated_Source\PSoC4/Timer1.c ****         {
 998:.\Generated_Source\PSoC4/Timer1.c ****             regVal = ((Timer1_COMP_CAP_BUF_REG - 1u) & Timer1_16BIT_MASK);
 999:.\Generated_Source\PSoC4/Timer1.c ****         }
1000:.\Generated_Source\PSoC4/Timer1.c ****         else if (Timer1__COUNT_UP == currentMode)
1001:.\Generated_Source\PSoC4/Timer1.c ****         {
1002:.\Generated_Source\PSoC4/Timer1.c ****             regVal = ((Timer1_COMP_CAP_BUF_REG + 1u) & Timer1_16BIT_MASK);
1003:.\Generated_Source\PSoC4/Timer1.c ****         }
1004:.\Generated_Source\PSoC4/Timer1.c ****         else
1005:.\Generated_Source\PSoC4/Timer1.c ****         {
1006:.\Generated_Source\PSoC4/Timer1.c ****             regVal = (Timer1_COMP_CAP_BUF_REG & Timer1_16BIT_MASK);
1007:.\Generated_Source\PSoC4/Timer1.c ****         }
1008:.\Generated_Source\PSoC4/Timer1.c ****         return (regVal);
1009:.\Generated_Source\PSoC4/Timer1.c ****     #else
1010:.\Generated_Source\PSoC4/Timer1.c ****         return (Timer1_COMP_CAP_BUF_REG & Timer1_16BIT_MASK);
 1318              		.loc 1 1010 0
 1319 0004 034B     		ldr	r3, .L83
 1320 0006 1B68     		ldr	r3, [r3]
 1321 0008 1B04     		lsl	r3, r3, #16
 1322 000a 1B0C     		lsr	r3, r3, #16
1011:.\Generated_Source\PSoC4/Timer1.c ****     #endif /* (Timer1_CY_TCPWM_V2) */
1012:.\Generated_Source\PSoC4/Timer1.c **** }
 1323              		.loc 1 1012 0
 1324 000c 181C     		mov	r0, r3
 1325 000e BD46     		mov	sp, r7
ARM GAS  C:\Users\Jared\AppData\Local\Temp\ccqgopA5.s 			page 42


 1326              		@ sp needed for prologue
 1327 0010 80BD     		pop	{r7, pc}
 1328              	.L84:
 1329 0012 C046     		.align	2
 1330              	.L83:
 1331 0014 10010540 		.word	1074069776
 1332              		.cfi_endproc
 1333              	.LFE25:
 1334              		.size	Timer1_ReadCompareBuf, .-Timer1_ReadCompareBuf
 1335              		.section	.text.Timer1_ReadCapture,"ax",%progbits
 1336              		.align	2
 1337              		.global	Timer1_ReadCapture
 1338              		.code	16
 1339              		.thumb_func
 1340              		.type	Timer1_ReadCapture, %function
 1341              	Timer1_ReadCapture:
 1342              	.LFB26:
1013:.\Generated_Source\PSoC4/Timer1.c **** 
1014:.\Generated_Source\PSoC4/Timer1.c **** 
1015:.\Generated_Source\PSoC4/Timer1.c **** /*******************************************************************************
1016:.\Generated_Source\PSoC4/Timer1.c **** * Function Name: Timer1_ReadCapture
1017:.\Generated_Source\PSoC4/Timer1.c **** ********************************************************************************
1018:.\Generated_Source\PSoC4/Timer1.c **** *
1019:.\Generated_Source\PSoC4/Timer1.c **** * Summary:
1020:.\Generated_Source\PSoC4/Timer1.c **** *  Reads the captured counter value. This API is applicable only for
1021:.\Generated_Source\PSoC4/Timer1.c **** *  Timer/Counter with the capture mode and Quadrature Decoder modes.
1022:.\Generated_Source\PSoC4/Timer1.c **** *
1023:.\Generated_Source\PSoC4/Timer1.c **** * Parameters:
1024:.\Generated_Source\PSoC4/Timer1.c **** *  None
1025:.\Generated_Source\PSoC4/Timer1.c **** *
1026:.\Generated_Source\PSoC4/Timer1.c **** * Return:
1027:.\Generated_Source\PSoC4/Timer1.c **** *  Capture value
1028:.\Generated_Source\PSoC4/Timer1.c **** *
1029:.\Generated_Source\PSoC4/Timer1.c **** *******************************************************************************/
1030:.\Generated_Source\PSoC4/Timer1.c **** uint32 Timer1_ReadCapture(void)
1031:.\Generated_Source\PSoC4/Timer1.c **** {
 1343              		.loc 1 1031 0
 1344              		.cfi_startproc
 1345 0000 80B5     		push	{r7, lr}
 1346              	.LCFI71:
 1347              		.cfi_def_cfa_offset 8
 1348              		.cfi_offset 7, -8
 1349              		.cfi_offset 14, -4
 1350 0002 00AF     		add	r7, sp, #0
 1351              	.LCFI72:
 1352              		.cfi_def_cfa_register 7
1032:.\Generated_Source\PSoC4/Timer1.c ****     return (Timer1_COMP_CAP_REG & Timer1_16BIT_MASK);
 1353              		.loc 1 1032 0
 1354 0004 034B     		ldr	r3, .L87
 1355 0006 1B68     		ldr	r3, [r3]
 1356 0008 1B04     		lsl	r3, r3, #16
 1357 000a 1B0C     		lsr	r3, r3, #16
1033:.\Generated_Source\PSoC4/Timer1.c **** }
 1358              		.loc 1 1033 0
 1359 000c 181C     		mov	r0, r3
 1360 000e BD46     		mov	sp, r7
 1361              		@ sp needed for prologue
ARM GAS  C:\Users\Jared\AppData\Local\Temp\ccqgopA5.s 			page 43


 1362 0010 80BD     		pop	{r7, pc}
 1363              	.L88:
 1364 0012 C046     		.align	2
 1365              	.L87:
 1366 0014 0C010540 		.word	1074069772
 1367              		.cfi_endproc
 1368              	.LFE26:
 1369              		.size	Timer1_ReadCapture, .-Timer1_ReadCapture
 1370              		.section	.text.Timer1_ReadCaptureBuf,"ax",%progbits
 1371              		.align	2
 1372              		.global	Timer1_ReadCaptureBuf
 1373              		.code	16
 1374              		.thumb_func
 1375              		.type	Timer1_ReadCaptureBuf, %function
 1376              	Timer1_ReadCaptureBuf:
 1377              	.LFB27:
1034:.\Generated_Source\PSoC4/Timer1.c **** 
1035:.\Generated_Source\PSoC4/Timer1.c **** 
1036:.\Generated_Source\PSoC4/Timer1.c **** /*******************************************************************************
1037:.\Generated_Source\PSoC4/Timer1.c **** * Function Name: Timer1_ReadCaptureBuf
1038:.\Generated_Source\PSoC4/Timer1.c **** ********************************************************************************
1039:.\Generated_Source\PSoC4/Timer1.c **** *
1040:.\Generated_Source\PSoC4/Timer1.c **** * Summary:
1041:.\Generated_Source\PSoC4/Timer1.c **** *  Reads the capture buffer register. This API is applicable only for
1042:.\Generated_Source\PSoC4/Timer1.c **** *  Timer/Counter with the capture mode and Quadrature Decoder modes.
1043:.\Generated_Source\PSoC4/Timer1.c **** *
1044:.\Generated_Source\PSoC4/Timer1.c **** * Parameters:
1045:.\Generated_Source\PSoC4/Timer1.c **** *  None
1046:.\Generated_Source\PSoC4/Timer1.c **** *
1047:.\Generated_Source\PSoC4/Timer1.c **** * Return:
1048:.\Generated_Source\PSoC4/Timer1.c **** *  Capture buffer value
1049:.\Generated_Source\PSoC4/Timer1.c **** *
1050:.\Generated_Source\PSoC4/Timer1.c **** *******************************************************************************/
1051:.\Generated_Source\PSoC4/Timer1.c **** uint32 Timer1_ReadCaptureBuf(void)
1052:.\Generated_Source\PSoC4/Timer1.c **** {
 1378              		.loc 1 1052 0
 1379              		.cfi_startproc
 1380 0000 80B5     		push	{r7, lr}
 1381              	.LCFI73:
 1382              		.cfi_def_cfa_offset 8
 1383              		.cfi_offset 7, -8
 1384              		.cfi_offset 14, -4
 1385 0002 00AF     		add	r7, sp, #0
 1386              	.LCFI74:
 1387              		.cfi_def_cfa_register 7
1053:.\Generated_Source\PSoC4/Timer1.c ****     return (Timer1_COMP_CAP_BUF_REG & Timer1_16BIT_MASK);
 1388              		.loc 1 1053 0
 1389 0004 034B     		ldr	r3, .L91
 1390 0006 1B68     		ldr	r3, [r3]
 1391 0008 1B04     		lsl	r3, r3, #16
 1392 000a 1B0C     		lsr	r3, r3, #16
1054:.\Generated_Source\PSoC4/Timer1.c **** }
 1393              		.loc 1 1054 0
 1394 000c 181C     		mov	r0, r3
 1395 000e BD46     		mov	sp, r7
 1396              		@ sp needed for prologue
 1397 0010 80BD     		pop	{r7, pc}
ARM GAS  C:\Users\Jared\AppData\Local\Temp\ccqgopA5.s 			page 44


 1398              	.L92:
 1399 0012 C046     		.align	2
 1400              	.L91:
 1401 0014 10010540 		.word	1074069776
 1402              		.cfi_endproc
 1403              	.LFE27:
 1404              		.size	Timer1_ReadCaptureBuf, .-Timer1_ReadCaptureBuf
 1405              		.section	.text.Timer1_SetCaptureMode,"ax",%progbits
 1406              		.align	2
 1407              		.global	Timer1_SetCaptureMode
 1408              		.code	16
 1409              		.thumb_func
 1410              		.type	Timer1_SetCaptureMode, %function
 1411              	Timer1_SetCaptureMode:
 1412              	.LFB28:
1055:.\Generated_Source\PSoC4/Timer1.c **** 
1056:.\Generated_Source\PSoC4/Timer1.c **** 
1057:.\Generated_Source\PSoC4/Timer1.c **** /*******************************************************************************
1058:.\Generated_Source\PSoC4/Timer1.c **** * Function Name: Timer1_SetCaptureMode
1059:.\Generated_Source\PSoC4/Timer1.c **** ********************************************************************************
1060:.\Generated_Source\PSoC4/Timer1.c **** *
1061:.\Generated_Source\PSoC4/Timer1.c **** * Summary:
1062:.\Generated_Source\PSoC4/Timer1.c **** *  Sets the capture trigger mode. For PWM mode this is the switch input.
1063:.\Generated_Source\PSoC4/Timer1.c **** *  This input is not applicable to the Timer/Counter without Capture and
1064:.\Generated_Source\PSoC4/Timer1.c **** *  Quadrature Decoder modes.
1065:.\Generated_Source\PSoC4/Timer1.c **** *
1066:.\Generated_Source\PSoC4/Timer1.c **** * Parameters:
1067:.\Generated_Source\PSoC4/Timer1.c **** *  triggerMode: Enumerated trigger mode value
1068:.\Generated_Source\PSoC4/Timer1.c **** *   Values:
1069:.\Generated_Source\PSoC4/Timer1.c **** *     - Timer1_TRIG_LEVEL     - Level
1070:.\Generated_Source\PSoC4/Timer1.c **** *     - Timer1_TRIG_RISING    - Rising edge
1071:.\Generated_Source\PSoC4/Timer1.c **** *     - Timer1_TRIG_FALLING   - Falling edge
1072:.\Generated_Source\PSoC4/Timer1.c **** *     - Timer1_TRIG_BOTH      - Both rising and falling edge
1073:.\Generated_Source\PSoC4/Timer1.c **** *
1074:.\Generated_Source\PSoC4/Timer1.c **** * Return:
1075:.\Generated_Source\PSoC4/Timer1.c **** *  None
1076:.\Generated_Source\PSoC4/Timer1.c **** *
1077:.\Generated_Source\PSoC4/Timer1.c **** *******************************************************************************/
1078:.\Generated_Source\PSoC4/Timer1.c **** void Timer1_SetCaptureMode(uint32 triggerMode)
1079:.\Generated_Source\PSoC4/Timer1.c **** {
 1413              		.loc 1 1079 0
 1414              		.cfi_startproc
 1415 0000 90B5     		push	{r4, r7, lr}
 1416              	.LCFI75:
 1417              		.cfi_def_cfa_offset 12
 1418              		.cfi_offset 4, -12
 1419              		.cfi_offset 7, -8
 1420              		.cfi_offset 14, -4
 1421 0002 85B0     		sub	sp, sp, #20
 1422              	.LCFI76:
 1423              		.cfi_def_cfa_offset 32
 1424 0004 00AF     		add	r7, sp, #0
 1425              	.LCFI77:
 1426              		.cfi_def_cfa_register 7
 1427 0006 7860     		str	r0, [r7, #4]
1080:.\Generated_Source\PSoC4/Timer1.c ****     uint8 enableInterrupts;
1081:.\Generated_Source\PSoC4/Timer1.c **** 
ARM GAS  C:\Users\Jared\AppData\Local\Temp\ccqgopA5.s 			page 45


1082:.\Generated_Source\PSoC4/Timer1.c ****     enableInterrupts = CyEnterCriticalSection();
 1428              		.loc 1 1082 0
 1429 0008 3C1C     		mov	r4, r7
 1430 000a 0F34     		add	r4, r4, #15
 1431 000c FFF7FEFF 		bl	CyEnterCriticalSection
 1432 0010 031C     		mov	r3, r0
 1433 0012 2370     		strb	r3, [r4]
1083:.\Generated_Source\PSoC4/Timer1.c **** 
1084:.\Generated_Source\PSoC4/Timer1.c ****     Timer1_TRIG_CONTROL1_REG &= (uint32)~Timer1_CAPTURE_MASK;
 1434              		.loc 1 1084 0
 1435 0014 0A4B     		ldr	r3, .L94
 1436 0016 0A4A     		ldr	r2, .L94
 1437 0018 1268     		ldr	r2, [r2]
 1438 001a 0321     		mov	r1, #3
 1439 001c 8A43     		bic	r2, r1
 1440 001e 1A60     		str	r2, [r3]
1085:.\Generated_Source\PSoC4/Timer1.c ****     Timer1_TRIG_CONTROL1_REG |= triggerMode;
 1441              		.loc 1 1085 0
 1442 0020 074B     		ldr	r3, .L94
 1443 0022 074A     		ldr	r2, .L94
 1444 0024 1168     		ldr	r1, [r2]
 1445 0026 7A68     		ldr	r2, [r7, #4]
 1446 0028 0A43     		orr	r2, r1
 1447 002a 1A60     		str	r2, [r3]
1086:.\Generated_Source\PSoC4/Timer1.c **** 
1087:.\Generated_Source\PSoC4/Timer1.c ****     CyExitCriticalSection(enableInterrupts);
 1448              		.loc 1 1087 0
 1449 002c 3B1C     		mov	r3, r7
 1450 002e 0F33     		add	r3, r3, #15
 1451 0030 1B78     		ldrb	r3, [r3]
 1452 0032 181C     		mov	r0, r3
 1453 0034 FFF7FEFF 		bl	CyExitCriticalSection
1088:.\Generated_Source\PSoC4/Timer1.c **** }
 1454              		.loc 1 1088 0
 1455 0038 BD46     		mov	sp, r7
 1456 003a 05B0     		add	sp, sp, #20
 1457              		@ sp needed for prologue
 1458 003c 90BD     		pop	{r4, r7, pc}
 1459              	.L95:
 1460 003e C046     		.align	2
 1461              	.L94:
 1462 0040 24010540 		.word	1074069796
 1463              		.cfi_endproc
 1464              	.LFE28:
 1465              		.size	Timer1_SetCaptureMode, .-Timer1_SetCaptureMode
 1466              		.section	.text.Timer1_SetReloadMode,"ax",%progbits
 1467              		.align	2
 1468              		.global	Timer1_SetReloadMode
 1469              		.code	16
 1470              		.thumb_func
 1471              		.type	Timer1_SetReloadMode, %function
 1472              	Timer1_SetReloadMode:
 1473              	.LFB29:
1089:.\Generated_Source\PSoC4/Timer1.c **** 
1090:.\Generated_Source\PSoC4/Timer1.c **** 
1091:.\Generated_Source\PSoC4/Timer1.c **** /*******************************************************************************
1092:.\Generated_Source\PSoC4/Timer1.c **** * Function Name: Timer1_SetReloadMode
ARM GAS  C:\Users\Jared\AppData\Local\Temp\ccqgopA5.s 			page 46


1093:.\Generated_Source\PSoC4/Timer1.c **** ********************************************************************************
1094:.\Generated_Source\PSoC4/Timer1.c **** *
1095:.\Generated_Source\PSoC4/Timer1.c **** * Summary:
1096:.\Generated_Source\PSoC4/Timer1.c **** *  Sets the reload trigger mode. For Quadrature Decoder mode this is the index
1097:.\Generated_Source\PSoC4/Timer1.c **** *  input.
1098:.\Generated_Source\PSoC4/Timer1.c **** *
1099:.\Generated_Source\PSoC4/Timer1.c **** * Parameters:
1100:.\Generated_Source\PSoC4/Timer1.c **** *  triggerMode: Enumerated trigger mode value
1101:.\Generated_Source\PSoC4/Timer1.c **** *   Values:
1102:.\Generated_Source\PSoC4/Timer1.c **** *     - Timer1_TRIG_LEVEL     - Level
1103:.\Generated_Source\PSoC4/Timer1.c **** *     - Timer1_TRIG_RISING    - Rising edge
1104:.\Generated_Source\PSoC4/Timer1.c **** *     - Timer1_TRIG_FALLING   - Falling edge
1105:.\Generated_Source\PSoC4/Timer1.c **** *     - Timer1_TRIG_BOTH      - Both rising and falling edge
1106:.\Generated_Source\PSoC4/Timer1.c **** *
1107:.\Generated_Source\PSoC4/Timer1.c **** * Return:
1108:.\Generated_Source\PSoC4/Timer1.c **** *  None
1109:.\Generated_Source\PSoC4/Timer1.c **** *
1110:.\Generated_Source\PSoC4/Timer1.c **** *******************************************************************************/
1111:.\Generated_Source\PSoC4/Timer1.c **** void Timer1_SetReloadMode(uint32 triggerMode)
1112:.\Generated_Source\PSoC4/Timer1.c **** {
 1474              		.loc 1 1112 0
 1475              		.cfi_startproc
 1476 0000 90B5     		push	{r4, r7, lr}
 1477              	.LCFI78:
 1478              		.cfi_def_cfa_offset 12
 1479              		.cfi_offset 4, -12
 1480              		.cfi_offset 7, -8
 1481              		.cfi_offset 14, -4
 1482 0002 85B0     		sub	sp, sp, #20
 1483              	.LCFI79:
 1484              		.cfi_def_cfa_offset 32
 1485 0004 00AF     		add	r7, sp, #0
 1486              	.LCFI80:
 1487              		.cfi_def_cfa_register 7
 1488 0006 7860     		str	r0, [r7, #4]
1113:.\Generated_Source\PSoC4/Timer1.c ****     uint8 enableInterrupts;
1114:.\Generated_Source\PSoC4/Timer1.c **** 
1115:.\Generated_Source\PSoC4/Timer1.c ****     enableInterrupts = CyEnterCriticalSection();
 1489              		.loc 1 1115 0
 1490 0008 3C1C     		mov	r4, r7
 1491 000a 0F34     		add	r4, r4, #15
 1492 000c FFF7FEFF 		bl	CyEnterCriticalSection
 1493 0010 031C     		mov	r3, r0
 1494 0012 2370     		strb	r3, [r4]
1116:.\Generated_Source\PSoC4/Timer1.c **** 
1117:.\Generated_Source\PSoC4/Timer1.c ****     Timer1_TRIG_CONTROL1_REG &= (uint32)~Timer1_RELOAD_MASK;
 1495              		.loc 1 1117 0
 1496 0014 0A4B     		ldr	r3, .L97
 1497 0016 0A4A     		ldr	r2, .L97
 1498 0018 1268     		ldr	r2, [r2]
 1499 001a 3021     		mov	r1, #48
 1500 001c 8A43     		bic	r2, r1
 1501 001e 1A60     		str	r2, [r3]
1118:.\Generated_Source\PSoC4/Timer1.c ****     Timer1_TRIG_CONTROL1_REG |= ((uint32)(triggerMode << Timer1_RELOAD_SHIFT));
 1502              		.loc 1 1118 0
 1503 0020 074B     		ldr	r3, .L97
 1504 0022 074A     		ldr	r2, .L97
ARM GAS  C:\Users\Jared\AppData\Local\Temp\ccqgopA5.s 			page 47


 1505 0024 1168     		ldr	r1, [r2]
 1506 0026 7A68     		ldr	r2, [r7, #4]
 1507 0028 1201     		lsl	r2, r2, #4
 1508 002a 0A43     		orr	r2, r1
 1509 002c 1A60     		str	r2, [r3]
1119:.\Generated_Source\PSoC4/Timer1.c **** 
1120:.\Generated_Source\PSoC4/Timer1.c ****     CyExitCriticalSection(enableInterrupts);
 1510              		.loc 1 1120 0
 1511 002e 3B1C     		mov	r3, r7
 1512 0030 0F33     		add	r3, r3, #15
 1513 0032 1B78     		ldrb	r3, [r3]
 1514 0034 181C     		mov	r0, r3
 1515 0036 FFF7FEFF 		bl	CyExitCriticalSection
1121:.\Generated_Source\PSoC4/Timer1.c **** }
 1516              		.loc 1 1121 0
 1517 003a BD46     		mov	sp, r7
 1518 003c 05B0     		add	sp, sp, #20
 1519              		@ sp needed for prologue
 1520 003e 90BD     		pop	{r4, r7, pc}
 1521              	.L98:
 1522              		.align	2
 1523              	.L97:
 1524 0040 24010540 		.word	1074069796
 1525              		.cfi_endproc
 1526              	.LFE29:
 1527              		.size	Timer1_SetReloadMode, .-Timer1_SetReloadMode
 1528              		.section	.text.Timer1_SetStartMode,"ax",%progbits
 1529              		.align	2
 1530              		.global	Timer1_SetStartMode
 1531              		.code	16
 1532              		.thumb_func
 1533              		.type	Timer1_SetStartMode, %function
 1534              	Timer1_SetStartMode:
 1535              	.LFB30:
1122:.\Generated_Source\PSoC4/Timer1.c **** 
1123:.\Generated_Source\PSoC4/Timer1.c **** 
1124:.\Generated_Source\PSoC4/Timer1.c **** /*******************************************************************************
1125:.\Generated_Source\PSoC4/Timer1.c **** * Function Name: Timer1_SetStartMode
1126:.\Generated_Source\PSoC4/Timer1.c **** ********************************************************************************
1127:.\Generated_Source\PSoC4/Timer1.c **** *
1128:.\Generated_Source\PSoC4/Timer1.c **** * Summary:
1129:.\Generated_Source\PSoC4/Timer1.c **** *  Sets the start trigger mode. For Quadrature Decoder mode this is the
1130:.\Generated_Source\PSoC4/Timer1.c **** *  phiB input.
1131:.\Generated_Source\PSoC4/Timer1.c **** *
1132:.\Generated_Source\PSoC4/Timer1.c **** * Parameters:
1133:.\Generated_Source\PSoC4/Timer1.c **** *  triggerMode: Enumerated trigger mode value
1134:.\Generated_Source\PSoC4/Timer1.c **** *   Values:
1135:.\Generated_Source\PSoC4/Timer1.c **** *     - Timer1_TRIG_LEVEL     - Level
1136:.\Generated_Source\PSoC4/Timer1.c **** *     - Timer1_TRIG_RISING    - Rising edge
1137:.\Generated_Source\PSoC4/Timer1.c **** *     - Timer1_TRIG_FALLING   - Falling edge
1138:.\Generated_Source\PSoC4/Timer1.c **** *     - Timer1_TRIG_BOTH      - Both rising and falling edge
1139:.\Generated_Source\PSoC4/Timer1.c **** *
1140:.\Generated_Source\PSoC4/Timer1.c **** * Return:
1141:.\Generated_Source\PSoC4/Timer1.c **** *  None
1142:.\Generated_Source\PSoC4/Timer1.c **** *
1143:.\Generated_Source\PSoC4/Timer1.c **** *******************************************************************************/
1144:.\Generated_Source\PSoC4/Timer1.c **** void Timer1_SetStartMode(uint32 triggerMode)
ARM GAS  C:\Users\Jared\AppData\Local\Temp\ccqgopA5.s 			page 48


1145:.\Generated_Source\PSoC4/Timer1.c **** {
 1536              		.loc 1 1145 0
 1537              		.cfi_startproc
 1538 0000 90B5     		push	{r4, r7, lr}
 1539              	.LCFI81:
 1540              		.cfi_def_cfa_offset 12
 1541              		.cfi_offset 4, -12
 1542              		.cfi_offset 7, -8
 1543              		.cfi_offset 14, -4
 1544 0002 85B0     		sub	sp, sp, #20
 1545              	.LCFI82:
 1546              		.cfi_def_cfa_offset 32
 1547 0004 00AF     		add	r7, sp, #0
 1548              	.LCFI83:
 1549              		.cfi_def_cfa_register 7
 1550 0006 7860     		str	r0, [r7, #4]
1146:.\Generated_Source\PSoC4/Timer1.c ****     uint8 enableInterrupts;
1147:.\Generated_Source\PSoC4/Timer1.c **** 
1148:.\Generated_Source\PSoC4/Timer1.c ****     enableInterrupts = CyEnterCriticalSection();
 1551              		.loc 1 1148 0
 1552 0008 3C1C     		mov	r4, r7
 1553 000a 0F34     		add	r4, r4, #15
 1554 000c FFF7FEFF 		bl	CyEnterCriticalSection
 1555 0010 031C     		mov	r3, r0
 1556 0012 2370     		strb	r3, [r4]
1149:.\Generated_Source\PSoC4/Timer1.c **** 
1150:.\Generated_Source\PSoC4/Timer1.c ****     Timer1_TRIG_CONTROL1_REG &= (uint32)~Timer1_START_MASK;
 1557              		.loc 1 1150 0
 1558 0014 0A4B     		ldr	r3, .L100
 1559 0016 0A4A     		ldr	r2, .L100
 1560 0018 1168     		ldr	r1, [r2]
 1561 001a 0A4A     		ldr	r2, .L100+4
 1562 001c 0A40     		and	r2, r1
 1563 001e 1A60     		str	r2, [r3]
1151:.\Generated_Source\PSoC4/Timer1.c ****     Timer1_TRIG_CONTROL1_REG |= ((uint32)(triggerMode << Timer1_START_SHIFT));
 1564              		.loc 1 1151 0
 1565 0020 074B     		ldr	r3, .L100
 1566 0022 074A     		ldr	r2, .L100
 1567 0024 1168     		ldr	r1, [r2]
 1568 0026 7A68     		ldr	r2, [r7, #4]
 1569 0028 1202     		lsl	r2, r2, #8
 1570 002a 0A43     		orr	r2, r1
 1571 002c 1A60     		str	r2, [r3]
1152:.\Generated_Source\PSoC4/Timer1.c **** 
1153:.\Generated_Source\PSoC4/Timer1.c ****     CyExitCriticalSection(enableInterrupts);
 1572              		.loc 1 1153 0
 1573 002e 3B1C     		mov	r3, r7
 1574 0030 0F33     		add	r3, r3, #15
 1575 0032 1B78     		ldrb	r3, [r3]
 1576 0034 181C     		mov	r0, r3
 1577 0036 FFF7FEFF 		bl	CyExitCriticalSection
1154:.\Generated_Source\PSoC4/Timer1.c **** }
 1578              		.loc 1 1154 0
 1579 003a BD46     		mov	sp, r7
 1580 003c 05B0     		add	sp, sp, #20
 1581              		@ sp needed for prologue
 1582 003e 90BD     		pop	{r4, r7, pc}
ARM GAS  C:\Users\Jared\AppData\Local\Temp\ccqgopA5.s 			page 49


 1583              	.L101:
 1584              		.align	2
 1585              	.L100:
 1586 0040 24010540 		.word	1074069796
 1587 0044 FFFCFFFF 		.word	-769
 1588              		.cfi_endproc
 1589              	.LFE30:
 1590              		.size	Timer1_SetStartMode, .-Timer1_SetStartMode
 1591              		.section	.text.Timer1_SetStopMode,"ax",%progbits
 1592              		.align	2
 1593              		.global	Timer1_SetStopMode
 1594              		.code	16
 1595              		.thumb_func
 1596              		.type	Timer1_SetStopMode, %function
 1597              	Timer1_SetStopMode:
 1598              	.LFB31:
1155:.\Generated_Source\PSoC4/Timer1.c **** 
1156:.\Generated_Source\PSoC4/Timer1.c **** 
1157:.\Generated_Source\PSoC4/Timer1.c **** /*******************************************************************************
1158:.\Generated_Source\PSoC4/Timer1.c **** * Function Name: Timer1_SetStopMode
1159:.\Generated_Source\PSoC4/Timer1.c **** ********************************************************************************
1160:.\Generated_Source\PSoC4/Timer1.c **** *
1161:.\Generated_Source\PSoC4/Timer1.c **** * Summary:
1162:.\Generated_Source\PSoC4/Timer1.c **** *  Sets the stop trigger mode. For PWM mode this is the kill input.
1163:.\Generated_Source\PSoC4/Timer1.c **** *
1164:.\Generated_Source\PSoC4/Timer1.c **** * Parameters:
1165:.\Generated_Source\PSoC4/Timer1.c **** *  triggerMode: Enumerated trigger mode value
1166:.\Generated_Source\PSoC4/Timer1.c **** *   Values:
1167:.\Generated_Source\PSoC4/Timer1.c **** *     - Timer1_TRIG_LEVEL     - Level
1168:.\Generated_Source\PSoC4/Timer1.c **** *     - Timer1_TRIG_RISING    - Rising edge
1169:.\Generated_Source\PSoC4/Timer1.c **** *     - Timer1_TRIG_FALLING   - Falling edge
1170:.\Generated_Source\PSoC4/Timer1.c **** *     - Timer1_TRIG_BOTH      - Both rising and falling edge
1171:.\Generated_Source\PSoC4/Timer1.c **** *
1172:.\Generated_Source\PSoC4/Timer1.c **** * Return:
1173:.\Generated_Source\PSoC4/Timer1.c **** *  None
1174:.\Generated_Source\PSoC4/Timer1.c **** *
1175:.\Generated_Source\PSoC4/Timer1.c **** *******************************************************************************/
1176:.\Generated_Source\PSoC4/Timer1.c **** void Timer1_SetStopMode(uint32 triggerMode)
1177:.\Generated_Source\PSoC4/Timer1.c **** {
 1599              		.loc 1 1177 0
 1600              		.cfi_startproc
 1601 0000 90B5     		push	{r4, r7, lr}
 1602              	.LCFI84:
 1603              		.cfi_def_cfa_offset 12
 1604              		.cfi_offset 4, -12
 1605              		.cfi_offset 7, -8
 1606              		.cfi_offset 14, -4
 1607 0002 85B0     		sub	sp, sp, #20
 1608              	.LCFI85:
 1609              		.cfi_def_cfa_offset 32
 1610 0004 00AF     		add	r7, sp, #0
 1611              	.LCFI86:
 1612              		.cfi_def_cfa_register 7
 1613 0006 7860     		str	r0, [r7, #4]
1178:.\Generated_Source\PSoC4/Timer1.c ****     uint8 enableInterrupts;
1179:.\Generated_Source\PSoC4/Timer1.c **** 
1180:.\Generated_Source\PSoC4/Timer1.c ****     enableInterrupts = CyEnterCriticalSection();
ARM GAS  C:\Users\Jared\AppData\Local\Temp\ccqgopA5.s 			page 50


 1614              		.loc 1 1180 0
 1615 0008 3C1C     		mov	r4, r7
 1616 000a 0F34     		add	r4, r4, #15
 1617 000c FFF7FEFF 		bl	CyEnterCriticalSection
 1618 0010 031C     		mov	r3, r0
 1619 0012 2370     		strb	r3, [r4]
1181:.\Generated_Source\PSoC4/Timer1.c **** 
1182:.\Generated_Source\PSoC4/Timer1.c ****     Timer1_TRIG_CONTROL1_REG &= (uint32)~Timer1_STOP_MASK;
 1620              		.loc 1 1182 0
 1621 0014 0A4B     		ldr	r3, .L103
 1622 0016 0A4A     		ldr	r2, .L103
 1623 0018 1268     		ldr	r2, [r2]
 1624 001a C021     		mov	r1, #192
 1625 001c 8A43     		bic	r2, r1
 1626 001e 1A60     		str	r2, [r3]
1183:.\Generated_Source\PSoC4/Timer1.c ****     Timer1_TRIG_CONTROL1_REG |= ((uint32)(triggerMode << Timer1_STOP_SHIFT));
 1627              		.loc 1 1183 0
 1628 0020 074B     		ldr	r3, .L103
 1629 0022 074A     		ldr	r2, .L103
 1630 0024 1168     		ldr	r1, [r2]
 1631 0026 7A68     		ldr	r2, [r7, #4]
 1632 0028 9201     		lsl	r2, r2, #6
 1633 002a 0A43     		orr	r2, r1
 1634 002c 1A60     		str	r2, [r3]
1184:.\Generated_Source\PSoC4/Timer1.c **** 
1185:.\Generated_Source\PSoC4/Timer1.c ****     CyExitCriticalSection(enableInterrupts);
 1635              		.loc 1 1185 0
 1636 002e 3B1C     		mov	r3, r7
 1637 0030 0F33     		add	r3, r3, #15
 1638 0032 1B78     		ldrb	r3, [r3]
 1639 0034 181C     		mov	r0, r3
 1640 0036 FFF7FEFF 		bl	CyExitCriticalSection
1186:.\Generated_Source\PSoC4/Timer1.c **** }
 1641              		.loc 1 1186 0
 1642 003a BD46     		mov	sp, r7
 1643 003c 05B0     		add	sp, sp, #20
 1644              		@ sp needed for prologue
 1645 003e 90BD     		pop	{r4, r7, pc}
 1646              	.L104:
 1647              		.align	2
 1648              	.L103:
 1649 0040 24010540 		.word	1074069796
 1650              		.cfi_endproc
 1651              	.LFE31:
 1652              		.size	Timer1_SetStopMode, .-Timer1_SetStopMode
 1653              		.section	.text.Timer1_SetCountMode,"ax",%progbits
 1654              		.align	2
 1655              		.global	Timer1_SetCountMode
 1656              		.code	16
 1657              		.thumb_func
 1658              		.type	Timer1_SetCountMode, %function
 1659              	Timer1_SetCountMode:
 1660              	.LFB32:
1187:.\Generated_Source\PSoC4/Timer1.c **** 
1188:.\Generated_Source\PSoC4/Timer1.c **** 
1189:.\Generated_Source\PSoC4/Timer1.c **** /*******************************************************************************
1190:.\Generated_Source\PSoC4/Timer1.c **** * Function Name: Timer1_SetCountMode
ARM GAS  C:\Users\Jared\AppData\Local\Temp\ccqgopA5.s 			page 51


1191:.\Generated_Source\PSoC4/Timer1.c **** ********************************************************************************
1192:.\Generated_Source\PSoC4/Timer1.c **** *
1193:.\Generated_Source\PSoC4/Timer1.c **** * Summary:
1194:.\Generated_Source\PSoC4/Timer1.c **** *  Sets the count trigger mode. For Quadrature Decoder mode this is the phiA
1195:.\Generated_Source\PSoC4/Timer1.c **** *  input.
1196:.\Generated_Source\PSoC4/Timer1.c **** *
1197:.\Generated_Source\PSoC4/Timer1.c **** * Parameters:
1198:.\Generated_Source\PSoC4/Timer1.c **** *  triggerMode: Enumerated trigger mode value
1199:.\Generated_Source\PSoC4/Timer1.c **** *   Values:
1200:.\Generated_Source\PSoC4/Timer1.c **** *     - Timer1_TRIG_LEVEL     - Level
1201:.\Generated_Source\PSoC4/Timer1.c **** *     - Timer1_TRIG_RISING    - Rising edge
1202:.\Generated_Source\PSoC4/Timer1.c **** *     - Timer1_TRIG_FALLING   - Falling edge
1203:.\Generated_Source\PSoC4/Timer1.c **** *     - Timer1_TRIG_BOTH      - Both rising and falling edge
1204:.\Generated_Source\PSoC4/Timer1.c **** *
1205:.\Generated_Source\PSoC4/Timer1.c **** * Return:
1206:.\Generated_Source\PSoC4/Timer1.c **** *  None
1207:.\Generated_Source\PSoC4/Timer1.c **** *
1208:.\Generated_Source\PSoC4/Timer1.c **** *******************************************************************************/
1209:.\Generated_Source\PSoC4/Timer1.c **** void Timer1_SetCountMode(uint32 triggerMode)
1210:.\Generated_Source\PSoC4/Timer1.c **** {
 1661              		.loc 1 1210 0
 1662              		.cfi_startproc
 1663 0000 90B5     		push	{r4, r7, lr}
 1664              	.LCFI87:
 1665              		.cfi_def_cfa_offset 12
 1666              		.cfi_offset 4, -12
 1667              		.cfi_offset 7, -8
 1668              		.cfi_offset 14, -4
 1669 0002 85B0     		sub	sp, sp, #20
 1670              	.LCFI88:
 1671              		.cfi_def_cfa_offset 32
 1672 0004 00AF     		add	r7, sp, #0
 1673              	.LCFI89:
 1674              		.cfi_def_cfa_register 7
 1675 0006 7860     		str	r0, [r7, #4]
1211:.\Generated_Source\PSoC4/Timer1.c ****     uint8 enableInterrupts;
1212:.\Generated_Source\PSoC4/Timer1.c **** 
1213:.\Generated_Source\PSoC4/Timer1.c ****     enableInterrupts = CyEnterCriticalSection();
 1676              		.loc 1 1213 0
 1677 0008 3C1C     		mov	r4, r7
 1678 000a 0F34     		add	r4, r4, #15
 1679 000c FFF7FEFF 		bl	CyEnterCriticalSection
 1680 0010 031C     		mov	r3, r0
 1681 0012 2370     		strb	r3, [r4]
1214:.\Generated_Source\PSoC4/Timer1.c **** 
1215:.\Generated_Source\PSoC4/Timer1.c ****     Timer1_TRIG_CONTROL1_REG &= (uint32)~Timer1_COUNT_MASK;
 1682              		.loc 1 1215 0
 1683 0014 0A4B     		ldr	r3, .L106
 1684 0016 0A4A     		ldr	r2, .L106
 1685 0018 1268     		ldr	r2, [r2]
 1686 001a 0C21     		mov	r1, #12
 1687 001c 8A43     		bic	r2, r1
 1688 001e 1A60     		str	r2, [r3]
1216:.\Generated_Source\PSoC4/Timer1.c ****     Timer1_TRIG_CONTROL1_REG |= ((uint32)(triggerMode << Timer1_COUNT_SHIFT));
 1689              		.loc 1 1216 0
 1690 0020 074B     		ldr	r3, .L106
 1691 0022 074A     		ldr	r2, .L106
ARM GAS  C:\Users\Jared\AppData\Local\Temp\ccqgopA5.s 			page 52


 1692 0024 1168     		ldr	r1, [r2]
 1693 0026 7A68     		ldr	r2, [r7, #4]
 1694 0028 9200     		lsl	r2, r2, #2
 1695 002a 0A43     		orr	r2, r1
 1696 002c 1A60     		str	r2, [r3]
1217:.\Generated_Source\PSoC4/Timer1.c **** 
1218:.\Generated_Source\PSoC4/Timer1.c ****     CyExitCriticalSection(enableInterrupts);
 1697              		.loc 1 1218 0
 1698 002e 3B1C     		mov	r3, r7
 1699 0030 0F33     		add	r3, r3, #15
 1700 0032 1B78     		ldrb	r3, [r3]
 1701 0034 181C     		mov	r0, r3
 1702 0036 FFF7FEFF 		bl	CyExitCriticalSection
1219:.\Generated_Source\PSoC4/Timer1.c **** }
 1703              		.loc 1 1219 0
 1704 003a BD46     		mov	sp, r7
 1705 003c 05B0     		add	sp, sp, #20
 1706              		@ sp needed for prologue
 1707 003e 90BD     		pop	{r4, r7, pc}
 1708              	.L107:
 1709              		.align	2
 1710              	.L106:
 1711 0040 24010540 		.word	1074069796
 1712              		.cfi_endproc
 1713              	.LFE32:
 1714              		.size	Timer1_SetCountMode, .-Timer1_SetCountMode
 1715              		.section	.text.Timer1_TriggerCommand,"ax",%progbits
 1716              		.align	2
 1717              		.global	Timer1_TriggerCommand
 1718              		.code	16
 1719              		.thumb_func
 1720              		.type	Timer1_TriggerCommand, %function
 1721              	Timer1_TriggerCommand:
 1722              	.LFB33:
1220:.\Generated_Source\PSoC4/Timer1.c **** 
1221:.\Generated_Source\PSoC4/Timer1.c **** 
1222:.\Generated_Source\PSoC4/Timer1.c **** /*******************************************************************************
1223:.\Generated_Source\PSoC4/Timer1.c **** * Function Name: Timer1_TriggerCommand
1224:.\Generated_Source\PSoC4/Timer1.c **** ********************************************************************************
1225:.\Generated_Source\PSoC4/Timer1.c **** *
1226:.\Generated_Source\PSoC4/Timer1.c **** * Summary:
1227:.\Generated_Source\PSoC4/Timer1.c **** *  Triggers the designated command to occur on the designated TCPWM instances.
1228:.\Generated_Source\PSoC4/Timer1.c **** *  The mask can be used to apply this command simultaneously to more than one
1229:.\Generated_Source\PSoC4/Timer1.c **** *  instance.  This allows multiple TCPWM instances to be synchronized.
1230:.\Generated_Source\PSoC4/Timer1.c **** *
1231:.\Generated_Source\PSoC4/Timer1.c **** * Parameters:
1232:.\Generated_Source\PSoC4/Timer1.c **** *  mask: A combination of mask bits for each instance of the TCPWM that the
1233:.\Generated_Source\PSoC4/Timer1.c **** *        command should apply to.  This function from one instance can be used
1234:.\Generated_Source\PSoC4/Timer1.c **** *        to apply the command to any of the instances in the design.
1235:.\Generated_Source\PSoC4/Timer1.c **** *        The mask value for a specific instance is available with the MASK
1236:.\Generated_Source\PSoC4/Timer1.c **** *        define.
1237:.\Generated_Source\PSoC4/Timer1.c **** *  command: Enumerated command values. Capture command only applicable for
1238:.\Generated_Source\PSoC4/Timer1.c **** *           Timer/Counter with Capture and PWM modes.
1239:.\Generated_Source\PSoC4/Timer1.c **** *   Values:
1240:.\Generated_Source\PSoC4/Timer1.c **** *     - Timer1_CMD_CAPTURE    - Trigger Capture command
1241:.\Generated_Source\PSoC4/Timer1.c **** *     - Timer1_CMD_RELOAD     - Trigger Reload command
1242:.\Generated_Source\PSoC4/Timer1.c **** *     - Timer1_CMD_STOP       - Trigger Stop command
ARM GAS  C:\Users\Jared\AppData\Local\Temp\ccqgopA5.s 			page 53


1243:.\Generated_Source\PSoC4/Timer1.c **** *     - Timer1_CMD_START      - Trigger Start command
1244:.\Generated_Source\PSoC4/Timer1.c **** *
1245:.\Generated_Source\PSoC4/Timer1.c **** * Return:
1246:.\Generated_Source\PSoC4/Timer1.c **** *  None
1247:.\Generated_Source\PSoC4/Timer1.c **** *
1248:.\Generated_Source\PSoC4/Timer1.c **** *******************************************************************************/
1249:.\Generated_Source\PSoC4/Timer1.c **** void Timer1_TriggerCommand(uint32 mask, uint32 command)
1250:.\Generated_Source\PSoC4/Timer1.c **** {
 1723              		.loc 1 1250 0
 1724              		.cfi_startproc
 1725 0000 90B5     		push	{r4, r7, lr}
 1726              	.LCFI90:
 1727              		.cfi_def_cfa_offset 12
 1728              		.cfi_offset 4, -12
 1729              		.cfi_offset 7, -8
 1730              		.cfi_offset 14, -4
 1731 0002 85B0     		sub	sp, sp, #20
 1732              	.LCFI91:
 1733              		.cfi_def_cfa_offset 32
 1734 0004 00AF     		add	r7, sp, #0
 1735              	.LCFI92:
 1736              		.cfi_def_cfa_register 7
 1737 0006 7860     		str	r0, [r7, #4]
 1738 0008 3960     		str	r1, [r7]
1251:.\Generated_Source\PSoC4/Timer1.c ****     uint8 enableInterrupts;
1252:.\Generated_Source\PSoC4/Timer1.c **** 
1253:.\Generated_Source\PSoC4/Timer1.c ****     enableInterrupts = CyEnterCriticalSection();
 1739              		.loc 1 1253 0
 1740 000a 3C1C     		mov	r4, r7
 1741 000c 0F34     		add	r4, r4, #15
 1742 000e FFF7FEFF 		bl	CyEnterCriticalSection
 1743 0012 031C     		mov	r3, r0
 1744 0014 2370     		strb	r3, [r4]
1254:.\Generated_Source\PSoC4/Timer1.c **** 
1255:.\Generated_Source\PSoC4/Timer1.c ****     Timer1_COMMAND_REG = ((uint32)(mask << command));
 1745              		.loc 1 1255 0
 1746 0016 084B     		ldr	r3, .L109
 1747 0018 3A68     		ldr	r2, [r7]
 1748 001a 7968     		ldr	r1, [r7, #4]
 1749 001c 081C     		mov	r0, r1
 1750 001e 9040     		lsl	r0, r0, r2
 1751 0020 021C     		mov	r2, r0
 1752 0022 1A60     		str	r2, [r3]
1256:.\Generated_Source\PSoC4/Timer1.c **** 
1257:.\Generated_Source\PSoC4/Timer1.c ****     CyExitCriticalSection(enableInterrupts);
 1753              		.loc 1 1257 0
 1754 0024 3B1C     		mov	r3, r7
 1755 0026 0F33     		add	r3, r3, #15
 1756 0028 1B78     		ldrb	r3, [r3]
 1757 002a 181C     		mov	r0, r3
 1758 002c FFF7FEFF 		bl	CyExitCriticalSection
1258:.\Generated_Source\PSoC4/Timer1.c **** }
 1759              		.loc 1 1258 0
 1760 0030 BD46     		mov	sp, r7
 1761 0032 05B0     		add	sp, sp, #20
 1762              		@ sp needed for prologue
 1763 0034 90BD     		pop	{r4, r7, pc}
ARM GAS  C:\Users\Jared\AppData\Local\Temp\ccqgopA5.s 			page 54


 1764              	.L110:
 1765 0036 C046     		.align	2
 1766              	.L109:
 1767 0038 08000540 		.word	1074069512
 1768              		.cfi_endproc
 1769              	.LFE33:
 1770              		.size	Timer1_TriggerCommand, .-Timer1_TriggerCommand
 1771              		.section	.text.Timer1_ReadStatus,"ax",%progbits
 1772              		.align	2
 1773              		.global	Timer1_ReadStatus
 1774              		.code	16
 1775              		.thumb_func
 1776              		.type	Timer1_ReadStatus, %function
 1777              	Timer1_ReadStatus:
 1778              	.LFB34:
1259:.\Generated_Source\PSoC4/Timer1.c **** 
1260:.\Generated_Source\PSoC4/Timer1.c **** 
1261:.\Generated_Source\PSoC4/Timer1.c **** /*******************************************************************************
1262:.\Generated_Source\PSoC4/Timer1.c **** * Function Name: Timer1_ReadStatus
1263:.\Generated_Source\PSoC4/Timer1.c **** ********************************************************************************
1264:.\Generated_Source\PSoC4/Timer1.c **** *
1265:.\Generated_Source\PSoC4/Timer1.c **** * Summary:
1266:.\Generated_Source\PSoC4/Timer1.c **** *  Reads the status of the Timer1.
1267:.\Generated_Source\PSoC4/Timer1.c **** *
1268:.\Generated_Source\PSoC4/Timer1.c **** * Parameters:
1269:.\Generated_Source\PSoC4/Timer1.c **** *  None
1270:.\Generated_Source\PSoC4/Timer1.c **** *
1271:.\Generated_Source\PSoC4/Timer1.c **** * Return:
1272:.\Generated_Source\PSoC4/Timer1.c **** *  Status
1273:.\Generated_Source\PSoC4/Timer1.c **** *   Values:
1274:.\Generated_Source\PSoC4/Timer1.c **** *     - Timer1_STATUS_DOWN    - Set if counting down
1275:.\Generated_Source\PSoC4/Timer1.c **** *     - Timer1_STATUS_RUNNING - Set if counter is running
1276:.\Generated_Source\PSoC4/Timer1.c **** *
1277:.\Generated_Source\PSoC4/Timer1.c **** *******************************************************************************/
1278:.\Generated_Source\PSoC4/Timer1.c **** uint32 Timer1_ReadStatus(void)
1279:.\Generated_Source\PSoC4/Timer1.c **** {
 1779              		.loc 1 1279 0
 1780              		.cfi_startproc
 1781 0000 80B5     		push	{r7, lr}
 1782              	.LCFI93:
 1783              		.cfi_def_cfa_offset 8
 1784              		.cfi_offset 7, -8
 1785              		.cfi_offset 14, -4
 1786 0002 00AF     		add	r7, sp, #0
 1787              	.LCFI94:
 1788              		.cfi_def_cfa_register 7
1280:.\Generated_Source\PSoC4/Timer1.c ****     return ((Timer1_STATUS_REG >> Timer1_RUNNING_STATUS_SHIFT) |
 1789              		.loc 1 1280 0
 1790 0004 054B     		ldr	r3, .L113
 1791 0006 1B68     		ldr	r3, [r3]
 1792 0008 9A0F     		lsr	r2, r3, #30
1281:.\Generated_Source\PSoC4/Timer1.c ****             (Timer1_STATUS_REG & Timer1_STATUS_DOWN));
 1793              		.loc 1 1281 0
 1794 000a 044B     		ldr	r3, .L113
 1795 000c 1968     		ldr	r1, [r3]
 1796 000e 0123     		mov	r3, #1
 1797 0010 0B40     		and	r3, r1
ARM GAS  C:\Users\Jared\AppData\Local\Temp\ccqgopA5.s 			page 55


1280:.\Generated_Source\PSoC4/Timer1.c ****     return ((Timer1_STATUS_REG >> Timer1_RUNNING_STATUS_SHIFT) |
 1798              		.loc 1 1280 0
 1799 0012 1343     		orr	r3, r2
1282:.\Generated_Source\PSoC4/Timer1.c **** }
 1800              		.loc 1 1282 0
 1801 0014 181C     		mov	r0, r3
 1802 0016 BD46     		mov	sp, r7
 1803              		@ sp needed for prologue
 1804 0018 80BD     		pop	{r7, pc}
 1805              	.L114:
 1806 001a C046     		.align	2
 1807              	.L113:
 1808 001c 04010540 		.word	1074069764
 1809              		.cfi_endproc
 1810              	.LFE34:
 1811              		.size	Timer1_ReadStatus, .-Timer1_ReadStatus
 1812              		.section	.text.Timer1_SetInterruptMode,"ax",%progbits
 1813              		.align	2
 1814              		.global	Timer1_SetInterruptMode
 1815              		.code	16
 1816              		.thumb_func
 1817              		.type	Timer1_SetInterruptMode, %function
 1818              	Timer1_SetInterruptMode:
 1819              	.LFB35:
1283:.\Generated_Source\PSoC4/Timer1.c **** 
1284:.\Generated_Source\PSoC4/Timer1.c **** 
1285:.\Generated_Source\PSoC4/Timer1.c **** /*******************************************************************************
1286:.\Generated_Source\PSoC4/Timer1.c **** * Function Name: Timer1_SetInterruptMode
1287:.\Generated_Source\PSoC4/Timer1.c **** ********************************************************************************
1288:.\Generated_Source\PSoC4/Timer1.c **** *
1289:.\Generated_Source\PSoC4/Timer1.c **** * Summary:
1290:.\Generated_Source\PSoC4/Timer1.c **** *  Sets the interrupt mask to control which interrupt
1291:.\Generated_Source\PSoC4/Timer1.c **** *  requests generate the interrupt signal.
1292:.\Generated_Source\PSoC4/Timer1.c **** *
1293:.\Generated_Source\PSoC4/Timer1.c **** * Parameters:
1294:.\Generated_Source\PSoC4/Timer1.c **** *   interruptMask: Mask of bits to be enabled
1295:.\Generated_Source\PSoC4/Timer1.c **** *   Values:
1296:.\Generated_Source\PSoC4/Timer1.c **** *     - Timer1_INTR_MASK_TC       - Terminal count mask
1297:.\Generated_Source\PSoC4/Timer1.c **** *     - Timer1_INTR_MASK_CC_MATCH - Compare count / capture mask
1298:.\Generated_Source\PSoC4/Timer1.c **** *
1299:.\Generated_Source\PSoC4/Timer1.c **** * Return:
1300:.\Generated_Source\PSoC4/Timer1.c **** *  None
1301:.\Generated_Source\PSoC4/Timer1.c **** *
1302:.\Generated_Source\PSoC4/Timer1.c **** *******************************************************************************/
1303:.\Generated_Source\PSoC4/Timer1.c **** void Timer1_SetInterruptMode(uint32 interruptMask)
1304:.\Generated_Source\PSoC4/Timer1.c **** {
 1820              		.loc 1 1304 0
 1821              		.cfi_startproc
 1822 0000 80B5     		push	{r7, lr}
 1823              	.LCFI95:
 1824              		.cfi_def_cfa_offset 8
 1825              		.cfi_offset 7, -8
 1826              		.cfi_offset 14, -4
 1827 0002 82B0     		sub	sp, sp, #8
 1828              	.LCFI96:
 1829              		.cfi_def_cfa_offset 16
 1830 0004 00AF     		add	r7, sp, #0
ARM GAS  C:\Users\Jared\AppData\Local\Temp\ccqgopA5.s 			page 56


 1831              	.LCFI97:
 1832              		.cfi_def_cfa_register 7
 1833 0006 7860     		str	r0, [r7, #4]
1305:.\Generated_Source\PSoC4/Timer1.c ****     Timer1_INTERRUPT_MASK_REG =  interruptMask;
 1834              		.loc 1 1305 0
 1835 0008 024B     		ldr	r3, .L116
 1836 000a 7A68     		ldr	r2, [r7, #4]
 1837 000c 1A60     		str	r2, [r3]
1306:.\Generated_Source\PSoC4/Timer1.c **** }
 1838              		.loc 1 1306 0
 1839 000e BD46     		mov	sp, r7
 1840 0010 02B0     		add	sp, sp, #8
 1841              		@ sp needed for prologue
 1842 0012 80BD     		pop	{r7, pc}
 1843              	.L117:
 1844              		.align	2
 1845              	.L116:
 1846 0014 38010540 		.word	1074069816
 1847              		.cfi_endproc
 1848              	.LFE35:
 1849              		.size	Timer1_SetInterruptMode, .-Timer1_SetInterruptMode
 1850              		.section	.text.Timer1_GetInterruptSourceMasked,"ax",%progbits
 1851              		.align	2
 1852              		.global	Timer1_GetInterruptSourceMasked
 1853              		.code	16
 1854              		.thumb_func
 1855              		.type	Timer1_GetInterruptSourceMasked, %function
 1856              	Timer1_GetInterruptSourceMasked:
 1857              	.LFB36:
1307:.\Generated_Source\PSoC4/Timer1.c **** 
1308:.\Generated_Source\PSoC4/Timer1.c **** 
1309:.\Generated_Source\PSoC4/Timer1.c **** /*******************************************************************************
1310:.\Generated_Source\PSoC4/Timer1.c **** * Function Name: Timer1_GetInterruptSourceMasked
1311:.\Generated_Source\PSoC4/Timer1.c **** ********************************************************************************
1312:.\Generated_Source\PSoC4/Timer1.c **** *
1313:.\Generated_Source\PSoC4/Timer1.c **** * Summary:
1314:.\Generated_Source\PSoC4/Timer1.c **** *  Gets the interrupt requests masked by the interrupt mask.
1315:.\Generated_Source\PSoC4/Timer1.c **** *
1316:.\Generated_Source\PSoC4/Timer1.c **** * Parameters:
1317:.\Generated_Source\PSoC4/Timer1.c **** *   None
1318:.\Generated_Source\PSoC4/Timer1.c **** *
1319:.\Generated_Source\PSoC4/Timer1.c **** * Return:
1320:.\Generated_Source\PSoC4/Timer1.c **** *  Masked interrupt source
1321:.\Generated_Source\PSoC4/Timer1.c **** *   Values:
1322:.\Generated_Source\PSoC4/Timer1.c **** *     - Timer1_INTR_MASK_TC       - Terminal count mask
1323:.\Generated_Source\PSoC4/Timer1.c **** *     - Timer1_INTR_MASK_CC_MATCH - Compare count / capture mask
1324:.\Generated_Source\PSoC4/Timer1.c **** *
1325:.\Generated_Source\PSoC4/Timer1.c **** *******************************************************************************/
1326:.\Generated_Source\PSoC4/Timer1.c **** uint32 Timer1_GetInterruptSourceMasked(void)
1327:.\Generated_Source\PSoC4/Timer1.c **** {
 1858              		.loc 1 1327 0
 1859              		.cfi_startproc
 1860 0000 80B5     		push	{r7, lr}
 1861              	.LCFI98:
 1862              		.cfi_def_cfa_offset 8
 1863              		.cfi_offset 7, -8
 1864              		.cfi_offset 14, -4
ARM GAS  C:\Users\Jared\AppData\Local\Temp\ccqgopA5.s 			page 57


 1865 0002 00AF     		add	r7, sp, #0
 1866              	.LCFI99:
 1867              		.cfi_def_cfa_register 7
1328:.\Generated_Source\PSoC4/Timer1.c ****     return (Timer1_INTERRUPT_MASKED_REG);
 1868              		.loc 1 1328 0
 1869 0004 024B     		ldr	r3, .L120
 1870 0006 1B68     		ldr	r3, [r3]
1329:.\Generated_Source\PSoC4/Timer1.c **** }
 1871              		.loc 1 1329 0
 1872 0008 181C     		mov	r0, r3
 1873 000a BD46     		mov	sp, r7
 1874              		@ sp needed for prologue
 1875 000c 80BD     		pop	{r7, pc}
 1876              	.L121:
 1877 000e C046     		.align	2
 1878              	.L120:
 1879 0010 3C010540 		.word	1074069820
 1880              		.cfi_endproc
 1881              	.LFE36:
 1882              		.size	Timer1_GetInterruptSourceMasked, .-Timer1_GetInterruptSourceMasked
 1883              		.section	.text.Timer1_GetInterruptSource,"ax",%progbits
 1884              		.align	2
 1885              		.global	Timer1_GetInterruptSource
 1886              		.code	16
 1887              		.thumb_func
 1888              		.type	Timer1_GetInterruptSource, %function
 1889              	Timer1_GetInterruptSource:
 1890              	.LFB37:
1330:.\Generated_Source\PSoC4/Timer1.c **** 
1331:.\Generated_Source\PSoC4/Timer1.c **** 
1332:.\Generated_Source\PSoC4/Timer1.c **** /*******************************************************************************
1333:.\Generated_Source\PSoC4/Timer1.c **** * Function Name: Timer1_GetInterruptSource
1334:.\Generated_Source\PSoC4/Timer1.c **** ********************************************************************************
1335:.\Generated_Source\PSoC4/Timer1.c **** *
1336:.\Generated_Source\PSoC4/Timer1.c **** * Summary:
1337:.\Generated_Source\PSoC4/Timer1.c **** *  Gets the interrupt requests (without masking).
1338:.\Generated_Source\PSoC4/Timer1.c **** *
1339:.\Generated_Source\PSoC4/Timer1.c **** * Parameters:
1340:.\Generated_Source\PSoC4/Timer1.c **** *  None
1341:.\Generated_Source\PSoC4/Timer1.c **** *
1342:.\Generated_Source\PSoC4/Timer1.c **** * Return:
1343:.\Generated_Source\PSoC4/Timer1.c **** *  Interrupt request value
1344:.\Generated_Source\PSoC4/Timer1.c **** *   Values:
1345:.\Generated_Source\PSoC4/Timer1.c **** *     - Timer1_INTR_MASK_TC       - Terminal count mask
1346:.\Generated_Source\PSoC4/Timer1.c **** *     - Timer1_INTR_MASK_CC_MATCH - Compare count / capture mask
1347:.\Generated_Source\PSoC4/Timer1.c **** *
1348:.\Generated_Source\PSoC4/Timer1.c **** *******************************************************************************/
1349:.\Generated_Source\PSoC4/Timer1.c **** uint32 Timer1_GetInterruptSource(void)
1350:.\Generated_Source\PSoC4/Timer1.c **** {
 1891              		.loc 1 1350 0
 1892              		.cfi_startproc
 1893 0000 80B5     		push	{r7, lr}
 1894              	.LCFI100:
 1895              		.cfi_def_cfa_offset 8
 1896              		.cfi_offset 7, -8
 1897              		.cfi_offset 14, -4
 1898 0002 00AF     		add	r7, sp, #0
ARM GAS  C:\Users\Jared\AppData\Local\Temp\ccqgopA5.s 			page 58


 1899              	.LCFI101:
 1900              		.cfi_def_cfa_register 7
1351:.\Generated_Source\PSoC4/Timer1.c ****     return (Timer1_INTERRUPT_REQ_REG);
 1901              		.loc 1 1351 0
 1902 0004 024B     		ldr	r3, .L124
 1903 0006 1B68     		ldr	r3, [r3]
1352:.\Generated_Source\PSoC4/Timer1.c **** }
 1904              		.loc 1 1352 0
 1905 0008 181C     		mov	r0, r3
 1906 000a BD46     		mov	sp, r7
 1907              		@ sp needed for prologue
 1908 000c 80BD     		pop	{r7, pc}
 1909              	.L125:
 1910 000e C046     		.align	2
 1911              	.L124:
 1912 0010 30010540 		.word	1074069808
 1913              		.cfi_endproc
 1914              	.LFE37:
 1915              		.size	Timer1_GetInterruptSource, .-Timer1_GetInterruptSource
 1916              		.section	.text.Timer1_ClearInterrupt,"ax",%progbits
 1917              		.align	2
 1918              		.global	Timer1_ClearInterrupt
 1919              		.code	16
 1920              		.thumb_func
 1921              		.type	Timer1_ClearInterrupt, %function
 1922              	Timer1_ClearInterrupt:
 1923              	.LFB38:
1353:.\Generated_Source\PSoC4/Timer1.c **** 
1354:.\Generated_Source\PSoC4/Timer1.c **** 
1355:.\Generated_Source\PSoC4/Timer1.c **** /*******************************************************************************
1356:.\Generated_Source\PSoC4/Timer1.c **** * Function Name: Timer1_ClearInterrupt
1357:.\Generated_Source\PSoC4/Timer1.c **** ********************************************************************************
1358:.\Generated_Source\PSoC4/Timer1.c **** *
1359:.\Generated_Source\PSoC4/Timer1.c **** * Summary:
1360:.\Generated_Source\PSoC4/Timer1.c **** *  Clears the interrupt request.
1361:.\Generated_Source\PSoC4/Timer1.c **** *
1362:.\Generated_Source\PSoC4/Timer1.c **** * Parameters:
1363:.\Generated_Source\PSoC4/Timer1.c **** *   interruptMask: Mask of interrupts to clear
1364:.\Generated_Source\PSoC4/Timer1.c **** *   Values:
1365:.\Generated_Source\PSoC4/Timer1.c **** *     - Timer1_INTR_MASK_TC       - Terminal count mask
1366:.\Generated_Source\PSoC4/Timer1.c **** *     - Timer1_INTR_MASK_CC_MATCH - Compare count / capture mask
1367:.\Generated_Source\PSoC4/Timer1.c **** *
1368:.\Generated_Source\PSoC4/Timer1.c **** * Return:
1369:.\Generated_Source\PSoC4/Timer1.c **** *  None
1370:.\Generated_Source\PSoC4/Timer1.c **** *
1371:.\Generated_Source\PSoC4/Timer1.c **** *******************************************************************************/
1372:.\Generated_Source\PSoC4/Timer1.c **** void Timer1_ClearInterrupt(uint32 interruptMask)
1373:.\Generated_Source\PSoC4/Timer1.c **** {
 1924              		.loc 1 1373 0
 1925              		.cfi_startproc
 1926 0000 80B5     		push	{r7, lr}
 1927              	.LCFI102:
 1928              		.cfi_def_cfa_offset 8
 1929              		.cfi_offset 7, -8
 1930              		.cfi_offset 14, -4
 1931 0002 82B0     		sub	sp, sp, #8
 1932              	.LCFI103:
ARM GAS  C:\Users\Jared\AppData\Local\Temp\ccqgopA5.s 			page 59


 1933              		.cfi_def_cfa_offset 16
 1934 0004 00AF     		add	r7, sp, #0
 1935              	.LCFI104:
 1936              		.cfi_def_cfa_register 7
 1937 0006 7860     		str	r0, [r7, #4]
1374:.\Generated_Source\PSoC4/Timer1.c ****     Timer1_INTERRUPT_REQ_REG = interruptMask;
 1938              		.loc 1 1374 0
 1939 0008 024B     		ldr	r3, .L127
 1940 000a 7A68     		ldr	r2, [r7, #4]
 1941 000c 1A60     		str	r2, [r3]
1375:.\Generated_Source\PSoC4/Timer1.c **** }
 1942              		.loc 1 1375 0
 1943 000e BD46     		mov	sp, r7
 1944 0010 02B0     		add	sp, sp, #8
 1945              		@ sp needed for prologue
 1946 0012 80BD     		pop	{r7, pc}
 1947              	.L128:
 1948              		.align	2
 1949              	.L127:
 1950 0014 30010540 		.word	1074069808
 1951              		.cfi_endproc
 1952              	.LFE38:
 1953              		.size	Timer1_ClearInterrupt, .-Timer1_ClearInterrupt
 1954              		.section	.text.Timer1_SetInterrupt,"ax",%progbits
 1955              		.align	2
 1956              		.global	Timer1_SetInterrupt
 1957              		.code	16
 1958              		.thumb_func
 1959              		.type	Timer1_SetInterrupt, %function
 1960              	Timer1_SetInterrupt:
 1961              	.LFB39:
1376:.\Generated_Source\PSoC4/Timer1.c **** 
1377:.\Generated_Source\PSoC4/Timer1.c **** 
1378:.\Generated_Source\PSoC4/Timer1.c **** /*******************************************************************************
1379:.\Generated_Source\PSoC4/Timer1.c **** * Function Name: Timer1_SetInterrupt
1380:.\Generated_Source\PSoC4/Timer1.c **** ********************************************************************************
1381:.\Generated_Source\PSoC4/Timer1.c **** *
1382:.\Generated_Source\PSoC4/Timer1.c **** * Summary:
1383:.\Generated_Source\PSoC4/Timer1.c **** *  Sets a software interrupt request.
1384:.\Generated_Source\PSoC4/Timer1.c **** *
1385:.\Generated_Source\PSoC4/Timer1.c **** * Parameters:
1386:.\Generated_Source\PSoC4/Timer1.c **** *   interruptMask: Mask of interrupts to set
1387:.\Generated_Source\PSoC4/Timer1.c **** *   Values:
1388:.\Generated_Source\PSoC4/Timer1.c **** *     - Timer1_INTR_MASK_TC       - Terminal count mask
1389:.\Generated_Source\PSoC4/Timer1.c **** *     - Timer1_INTR_MASK_CC_MATCH - Compare count / capture mask
1390:.\Generated_Source\PSoC4/Timer1.c **** *
1391:.\Generated_Source\PSoC4/Timer1.c **** * Return:
1392:.\Generated_Source\PSoC4/Timer1.c **** *  None
1393:.\Generated_Source\PSoC4/Timer1.c **** *
1394:.\Generated_Source\PSoC4/Timer1.c **** *******************************************************************************/
1395:.\Generated_Source\PSoC4/Timer1.c **** void Timer1_SetInterrupt(uint32 interruptMask)
1396:.\Generated_Source\PSoC4/Timer1.c **** {
 1962              		.loc 1 1396 0
 1963              		.cfi_startproc
 1964 0000 80B5     		push	{r7, lr}
 1965              	.LCFI105:
 1966              		.cfi_def_cfa_offset 8
ARM GAS  C:\Users\Jared\AppData\Local\Temp\ccqgopA5.s 			page 60


 1967              		.cfi_offset 7, -8
 1968              		.cfi_offset 14, -4
 1969 0002 82B0     		sub	sp, sp, #8
 1970              	.LCFI106:
 1971              		.cfi_def_cfa_offset 16
 1972 0004 00AF     		add	r7, sp, #0
 1973              	.LCFI107:
 1974              		.cfi_def_cfa_register 7
 1975 0006 7860     		str	r0, [r7, #4]
1397:.\Generated_Source\PSoC4/Timer1.c ****     Timer1_INTERRUPT_SET_REG = interruptMask;
 1976              		.loc 1 1397 0
 1977 0008 024B     		ldr	r3, .L130
 1978 000a 7A68     		ldr	r2, [r7, #4]
 1979 000c 1A60     		str	r2, [r3]
1398:.\Generated_Source\PSoC4/Timer1.c **** }
 1980              		.loc 1 1398 0
 1981 000e BD46     		mov	sp, r7
 1982 0010 02B0     		add	sp, sp, #8
 1983              		@ sp needed for prologue
 1984 0012 80BD     		pop	{r7, pc}
 1985              	.L131:
 1986              		.align	2
 1987              	.L130:
 1988 0014 34010540 		.word	1074069812
 1989              		.cfi_endproc
 1990              	.LFE39:
 1991              		.size	Timer1_SetInterrupt, .-Timer1_SetInterrupt
 1992              		.text
 1993              	.Letext0:
 1994              		.file 2 ".\\Generated_Source\\PSoC4\\cytypes.h"