ARM GAS  C:\Users\Jared\AppData\Local\Temp\ccafwWyL.s 			page 1


   1              		.cpu cortex-m0
   2              		.fpu softvfp
   3              		.eabi_attribute 20, 1
   4              		.eabi_attribute 21, 1
   5              		.eabi_attribute 23, 3
   6              		.eabi_attribute 24, 1
   7              		.eabi_attribute 25, 1
   8              		.eabi_attribute 26, 1
   9              		.eabi_attribute 30, 6
  10              		.eabi_attribute 34, 0
  11              		.eabi_attribute 18, 4
  12              		.code	16
  13              		.file	"tinyprintf_1_printf.c"
  14              		.text
  15              	.Ltext0:
  16              		.cfi_sections	.debug_frame
  17              		.bss
  18              		.align	2
  19              	stdout_putf:
  20 0000 00000000 		.space	4
  21              		.align	2
  22              	stdout_putp:
  23 0004 00000000 		.space	4
  24              		.global	__aeabi_uidiv
  25              		.global	__aeabi_uidivmod
  26              		.section	.text.ui2a,"ax",%progbits
  27              		.align	2
  28              		.code	16
  29              		.thumb_func
  30              		.type	ui2a, %function
  31              	ui2a:
  32              	.LFB0:
  33              		.file 1 ".\\Generated_Source\\PSoC4\\tinyprintf_1_printf.c"
   1:.\Generated_Source\PSoC4/tinyprintf_1_printf.c **** /*
   2:.\Generated_Source\PSoC4/tinyprintf_1_printf.c ****  * Copyright (c) 2004,2012 Kustaa Nyholm / SpareTimeLabs
   3:.\Generated_Source\PSoC4/tinyprintf_1_printf.c ****  *
   4:.\Generated_Source\PSoC4/tinyprintf_1_printf.c ****  * All rights reserved.
   5:.\Generated_Source\PSoC4/tinyprintf_1_printf.c ****  *
   6:.\Generated_Source\PSoC4/tinyprintf_1_printf.c ****  * Redistribution and use in source and binary forms, with or without modification, 
   7:.\Generated_Source\PSoC4/tinyprintf_1_printf.c ****  * are permitted provided that the following conditions are met:
   8:.\Generated_Source\PSoC4/tinyprintf_1_printf.c ****  *
   9:.\Generated_Source\PSoC4/tinyprintf_1_printf.c ****  * Redistributions of source code must retain the above copyright notice, this list 
  10:.\Generated_Source\PSoC4/tinyprintf_1_printf.c ****  * of conditions and the following disclaimer.
  11:.\Generated_Source\PSoC4/tinyprintf_1_printf.c ****  * 
  12:.\Generated_Source\PSoC4/tinyprintf_1_printf.c ****  * Redistributions in binary form must reproduce the above copyright notice, this 
  13:.\Generated_Source\PSoC4/tinyprintf_1_printf.c ****  * list of conditions and the following disclaimer in the documentation and/or other
  14:.\Generated_Source\PSoC4/tinyprintf_1_printf.c ****  * materials provided with the distribution.
  15:.\Generated_Source\PSoC4/tinyprintf_1_printf.c ****  *  
  16:.\Generated_Source\PSoC4/tinyprintf_1_printf.c ****  * Neither the name of the Kustaa Nyholm or SpareTimeLabs nor the names of its 
  17:.\Generated_Source\PSoC4/tinyprintf_1_printf.c ****  * contributors may be used to endorse or promote products derived from this software 
  18:.\Generated_Source\PSoC4/tinyprintf_1_printf.c ****  * without specific prior written permission.
  19:.\Generated_Source\PSoC4/tinyprintf_1_printf.c ****  * 
  20:.\Generated_Source\PSoC4/tinyprintf_1_printf.c ****  * THIS SOFTWARE IS PROVIDED BY THE COPYRIGHT HOLDERS AND CONTRIBUTORS "AS IS" 
  21:.\Generated_Source\PSoC4/tinyprintf_1_printf.c ****  * AND ANY EXPRESS OR IMPLIED WARRANTIES, INCLUDING, BUT NOT LIMITED TO, THE IMPLIED 
  22:.\Generated_Source\PSoC4/tinyprintf_1_printf.c ****  * WARRANTIES OF MERCHANTABILITY AND FITNESS FOR A PARTICULAR PURPOSE ARE DISCLAIMED. 
  23:.\Generated_Source\PSoC4/tinyprintf_1_printf.c ****  * IN NO EVENT SHALL THE COPYRIGHT HOLDER OR CONTRIBUTORS BE LIABLE FOR ANY DIRECT, 
  24:.\Generated_Source\PSoC4/tinyprintf_1_printf.c ****  * INDIRECT, INCIDENTAL, SPECIAL, EXEMPLARY, OR CONSEQUENTIAL DAMAGES (INCLUDING, BUT 
ARM GAS  C:\Users\Jared\AppData\Local\Temp\ccafwWyL.s 			page 2


  25:.\Generated_Source\PSoC4/tinyprintf_1_printf.c ****  * NOT LIMITED TO, PROCUREMENT OF SUBSTITUTE GOODS OR SERVICES; LOSS OF USE, DATA, 
  26:.\Generated_Source\PSoC4/tinyprintf_1_printf.c ****  * OR PROFITS; OR BUSINESS INTERRUPTION) HOWEVER CAUSED AND ON ANY THEORY OF LIABILITY, 
  27:.\Generated_Source\PSoC4/tinyprintf_1_printf.c ****  * WHETHER IN CONTRACT, STRICT LIABILITY, OR TORT (INCLUDING NEGLIGENCE OR OTHERWISE) 
  28:.\Generated_Source\PSoC4/tinyprintf_1_printf.c ****  * ARISING IN ANY WAY OUT OF THE USE OF THIS SOFTWARE, EVEN IF ADVISED OF THE POSSIBILITY
  29:.\Generated_Source\PSoC4/tinyprintf_1_printf.c ****  * OF SUCH DAMAGE.
  30:.\Generated_Source\PSoC4/tinyprintf_1_printf.c ****  */
  31:.\Generated_Source\PSoC4/tinyprintf_1_printf.c **** 
  32:.\Generated_Source\PSoC4/tinyprintf_1_printf.c **** #include "tinyprintf_1_printf.h"
  33:.\Generated_Source\PSoC4/tinyprintf_1_printf.c **** 
  34:.\Generated_Source\PSoC4/tinyprintf_1_printf.c **** typedef void (*putcf) (void*,char);
  35:.\Generated_Source\PSoC4/tinyprintf_1_printf.c **** static putcf stdout_putf;
  36:.\Generated_Source\PSoC4/tinyprintf_1_printf.c **** static void* stdout_putp;
  37:.\Generated_Source\PSoC4/tinyprintf_1_printf.c **** 
  38:.\Generated_Source\PSoC4/tinyprintf_1_printf.c **** 
  39:.\Generated_Source\PSoC4/tinyprintf_1_printf.c **** #ifdef PRINTF_LONG_SUPPORT
  40:.\Generated_Source\PSoC4/tinyprintf_1_printf.c **** 
  41:.\Generated_Source\PSoC4/tinyprintf_1_printf.c **** static void uli2a(unsigned long int num, unsigned int base, int uc,char * bf)
  42:.\Generated_Source\PSoC4/tinyprintf_1_printf.c **** 	{
  43:.\Generated_Source\PSoC4/tinyprintf_1_printf.c **** 	int n=0;
  44:.\Generated_Source\PSoC4/tinyprintf_1_printf.c **** 	unsigned int d=1;
  45:.\Generated_Source\PSoC4/tinyprintf_1_printf.c **** 	while (num/d >= base)
  46:.\Generated_Source\PSoC4/tinyprintf_1_printf.c **** 		d*=base;		 
  47:.\Generated_Source\PSoC4/tinyprintf_1_printf.c **** 	while (d!=0) {
  48:.\Generated_Source\PSoC4/tinyprintf_1_printf.c **** 		int dgt = num / d;
  49:.\Generated_Source\PSoC4/tinyprintf_1_printf.c **** 		num%=d;
  50:.\Generated_Source\PSoC4/tinyprintf_1_printf.c **** 		d/=base;
  51:.\Generated_Source\PSoC4/tinyprintf_1_printf.c **** 		if (n || dgt>0|| d==0) {
  52:.\Generated_Source\PSoC4/tinyprintf_1_printf.c **** 			*bf++ = dgt+(dgt<10 ? '0' : (uc ? 'A' : 'a')-10);
  53:.\Generated_Source\PSoC4/tinyprintf_1_printf.c **** 			++n;
  54:.\Generated_Source\PSoC4/tinyprintf_1_printf.c **** 			}
  55:.\Generated_Source\PSoC4/tinyprintf_1_printf.c **** 		}
  56:.\Generated_Source\PSoC4/tinyprintf_1_printf.c **** 	*bf=0;
  57:.\Generated_Source\PSoC4/tinyprintf_1_printf.c **** 	}
  58:.\Generated_Source\PSoC4/tinyprintf_1_printf.c **** 
  59:.\Generated_Source\PSoC4/tinyprintf_1_printf.c **** static void li2a (long num, char * bf)
  60:.\Generated_Source\PSoC4/tinyprintf_1_printf.c **** 	{
  61:.\Generated_Source\PSoC4/tinyprintf_1_printf.c **** 	if (num<0) {
  62:.\Generated_Source\PSoC4/tinyprintf_1_printf.c **** 		num=-num;
  63:.\Generated_Source\PSoC4/tinyprintf_1_printf.c **** 		*bf++ = '-';
  64:.\Generated_Source\PSoC4/tinyprintf_1_printf.c **** 		}
  65:.\Generated_Source\PSoC4/tinyprintf_1_printf.c **** 	uli2a(num,10,0,bf);
  66:.\Generated_Source\PSoC4/tinyprintf_1_printf.c **** 	}
  67:.\Generated_Source\PSoC4/tinyprintf_1_printf.c **** 
  68:.\Generated_Source\PSoC4/tinyprintf_1_printf.c **** #endif
  69:.\Generated_Source\PSoC4/tinyprintf_1_printf.c **** 
  70:.\Generated_Source\PSoC4/tinyprintf_1_printf.c **** static void ui2a(unsigned int num, unsigned int base, int uc,char * bf)
  71:.\Generated_Source\PSoC4/tinyprintf_1_printf.c **** 	{
  34              		.loc 1 71 0
  35              		.cfi_startproc
  36 0000 80B5     		push	{r7, lr}
  37              	.LCFI0:
  38              		.cfi_def_cfa_offset 8
  39              		.cfi_offset 7, -8
  40              		.cfi_offset 14, -4
  41 0002 88B0     		sub	sp, sp, #32
  42              	.LCFI1:
  43              		.cfi_def_cfa_offset 40
ARM GAS  C:\Users\Jared\AppData\Local\Temp\ccafwWyL.s 			page 3


  44 0004 00AF     		add	r7, sp, #0
  45              	.LCFI2:
  46              		.cfi_def_cfa_register 7
  47 0006 F860     		str	r0, [r7, #12]
  48 0008 B960     		str	r1, [r7, #8]
  49 000a 7A60     		str	r2, [r7, #4]
  50 000c 3B60     		str	r3, [r7]
  72:.\Generated_Source\PSoC4/tinyprintf_1_printf.c **** 	int n=0;
  51              		.loc 1 72 0
  52 000e 0023     		mov	r3, #0
  53 0010 FB61     		str	r3, [r7, #28]
  73:.\Generated_Source\PSoC4/tinyprintf_1_printf.c **** 	unsigned int d=1;
  54              		.loc 1 73 0
  55 0012 0123     		mov	r3, #1
  56 0014 BB61     		str	r3, [r7, #24]
  74:.\Generated_Source\PSoC4/tinyprintf_1_printf.c **** 	while (num/d >= base)
  57              		.loc 1 74 0
  58 0016 03E0     		b	.L2
  59              	.L3:
  75:.\Generated_Source\PSoC4/tinyprintf_1_printf.c **** 		d*=base;		
  60              		.loc 1 75 0
  61 0018 BB69     		ldr	r3, [r7, #24]
  62 001a BA68     		ldr	r2, [r7, #8]
  63 001c 5343     		mul	r3, r2
  64 001e BB61     		str	r3, [r7, #24]
  65              	.L2:
  74:.\Generated_Source\PSoC4/tinyprintf_1_printf.c **** 	while (num/d >= base)
  66              		.loc 1 74 0 discriminator 1
  67 0020 F868     		ldr	r0, [r7, #12]
  68 0022 B969     		ldr	r1, [r7, #24]
  69 0024 FFF7FEFF 		bl	__aeabi_uidiv
  70 0028 031C     		mov	r3, r0
  71 002a 1A1C     		mov	r2, r3
  72 002c BB68     		ldr	r3, [r7, #8]
  73 002e 9A42     		cmp	r2, r3
  74 0030 F2D2     		bcs	.L3
  76:.\Generated_Source\PSoC4/tinyprintf_1_printf.c **** 	while (d!=0) {
  75              		.loc 1 76 0
  76 0032 32E0     		b	.L4
  77              	.L10:
  78              	.LBB2:
  77:.\Generated_Source\PSoC4/tinyprintf_1_printf.c **** 		int dgt = num / d;
  79              		.loc 1 77 0
  80 0034 F868     		ldr	r0, [r7, #12]
  81 0036 B969     		ldr	r1, [r7, #24]
  82 0038 FFF7FEFF 		bl	__aeabi_uidiv
  83 003c 031C     		mov	r3, r0
  84 003e 7B61     		str	r3, [r7, #20]
  78:.\Generated_Source\PSoC4/tinyprintf_1_printf.c **** 		num%= d;
  85              		.loc 1 78 0
  86 0040 FB68     		ldr	r3, [r7, #12]
  87 0042 181C     		mov	r0, r3
  88 0044 B969     		ldr	r1, [r7, #24]
  89 0046 FFF7FEFF 		bl	__aeabi_uidivmod
  90 004a 0B1C     		mov	r3, r1
  91 004c FB60     		str	r3, [r7, #12]
  79:.\Generated_Source\PSoC4/tinyprintf_1_printf.c **** 		d/=base;
ARM GAS  C:\Users\Jared\AppData\Local\Temp\ccafwWyL.s 			page 4


  92              		.loc 1 79 0
  93 004e B869     		ldr	r0, [r7, #24]
  94 0050 B968     		ldr	r1, [r7, #8]
  95 0052 FFF7FEFF 		bl	__aeabi_uidiv
  96 0056 031C     		mov	r3, r0
  97 0058 BB61     		str	r3, [r7, #24]
  80:.\Generated_Source\PSoC4/tinyprintf_1_printf.c **** 		if (n || dgt>0 || d==0) {
  98              		.loc 1 80 0
  99 005a FB69     		ldr	r3, [r7, #28]
 100 005c 002B     		cmp	r3, #0
 101 005e 05D1     		bne	.L5
 102              		.loc 1 80 0 is_stmt 0 discriminator 1
 103 0060 7B69     		ldr	r3, [r7, #20]
 104 0062 002B     		cmp	r3, #0
 105 0064 02DC     		bgt	.L5
 106 0066 BB69     		ldr	r3, [r7, #24]
 107 0068 002B     		cmp	r3, #0
 108 006a 16D1     		bne	.L4
 109              	.L5:
  81:.\Generated_Source\PSoC4/tinyprintf_1_printf.c **** 			*bf++ = dgt+(dgt<10 ? '0' : (uc ? 'A' : 'a')-10);
 110              		.loc 1 81 0 is_stmt 1
 111 006c 7B69     		ldr	r3, [r7, #20]
 112 006e 092B     		cmp	r3, #9
 113 0070 06DD     		ble	.L6
 114              		.loc 1 81 0 is_stmt 0 discriminator 1
 115 0072 7B68     		ldr	r3, [r7, #4]
 116 0074 002B     		cmp	r3, #0
 117 0076 01D0     		beq	.L7
 118              		.loc 1 81 0 discriminator 3
 119 0078 3723     		mov	r3, #55
 120 007a 00E0     		b	.L8
 121              	.L7:
 122              		.loc 1 81 0 discriminator 4
 123 007c 5723     		mov	r3, #87
 124              	.L8:
 125 007e 00E0     		b	.L9
 126              	.L6:
 127              		.loc 1 81 0 discriminator 2
 128 0080 3023     		mov	r3, #48
 129              	.L9:
 130              		.loc 1 81 0 discriminator 6
 131 0082 7A69     		ldr	r2, [r7, #20]
 132 0084 D2B2     		uxtb	r2, r2
 133 0086 9B18     		add	r3, r3, r2
 134 0088 DAB2     		uxtb	r2, r3
 135 008a 3B68     		ldr	r3, [r7]
 136 008c 1A70     		strb	r2, [r3]
 137 008e 3B68     		ldr	r3, [r7]
 138 0090 0133     		add	r3, r3, #1
 139 0092 3B60     		str	r3, [r7]
  82:.\Generated_Source\PSoC4/tinyprintf_1_printf.c **** 			++n;
 140              		.loc 1 82 0 is_stmt 1 discriminator 6
 141 0094 FB69     		ldr	r3, [r7, #28]
 142 0096 0133     		add	r3, r3, #1
 143 0098 FB61     		str	r3, [r7, #28]
 144              	.L4:
 145              	.LBE2:
ARM GAS  C:\Users\Jared\AppData\Local\Temp\ccafwWyL.s 			page 5


  76:.\Generated_Source\PSoC4/tinyprintf_1_printf.c **** 	while (d!=0) {
 146              		.loc 1 76 0 discriminator 1
 147 009a BB69     		ldr	r3, [r7, #24]
 148 009c 002B     		cmp	r3, #0
 149 009e C9D1     		bne	.L10
  83:.\Generated_Source\PSoC4/tinyprintf_1_printf.c **** 			}
  84:.\Generated_Source\PSoC4/tinyprintf_1_printf.c **** 		}
  85:.\Generated_Source\PSoC4/tinyprintf_1_printf.c **** 	*bf=0;
 150              		.loc 1 85 0
 151 00a0 3B68     		ldr	r3, [r7]
 152 00a2 0022     		mov	r2, #0
 153 00a4 1A70     		strb	r2, [r3]
  86:.\Generated_Source\PSoC4/tinyprintf_1_printf.c **** 	}
 154              		.loc 1 86 0
 155 00a6 BD46     		mov	sp, r7
 156 00a8 08B0     		add	sp, sp, #32
 157              		@ sp needed for prologue
 158 00aa 80BD     		pop	{r7, pc}
 159              		.cfi_endproc
 160              	.LFE0:
 161              		.size	ui2a, .-ui2a
 162              		.section	.text.i2a,"ax",%progbits
 163              		.align	2
 164              		.code	16
 165              		.thumb_func
 166              		.type	i2a, %function
 167              	i2a:
 168              	.LFB1:
  87:.\Generated_Source\PSoC4/tinyprintf_1_printf.c **** 
  88:.\Generated_Source\PSoC4/tinyprintf_1_printf.c **** static void i2a (int num, char * bf)
  89:.\Generated_Source\PSoC4/tinyprintf_1_printf.c **** 	{
 169              		.loc 1 89 0
 170              		.cfi_startproc
 171 0000 80B5     		push	{r7, lr}
 172              	.LCFI3:
 173              		.cfi_def_cfa_offset 8
 174              		.cfi_offset 7, -8
 175              		.cfi_offset 14, -4
 176 0002 82B0     		sub	sp, sp, #8
 177              	.LCFI4:
 178              		.cfi_def_cfa_offset 16
 179 0004 00AF     		add	r7, sp, #0
 180              	.LCFI5:
 181              		.cfi_def_cfa_register 7
 182 0006 7860     		str	r0, [r7, #4]
 183 0008 3960     		str	r1, [r7]
  90:.\Generated_Source\PSoC4/tinyprintf_1_printf.c **** 	if (num<0) {
 184              		.loc 1 90 0
 185 000a 7B68     		ldr	r3, [r7, #4]
 186 000c 002B     		cmp	r3, #0
 187 000e 08DA     		bge	.L12
  91:.\Generated_Source\PSoC4/tinyprintf_1_printf.c **** 		num=-num;
 188              		.loc 1 91 0
 189 0010 7B68     		ldr	r3, [r7, #4]
 190 0012 5B42     		neg	r3, r3
 191 0014 7B60     		str	r3, [r7, #4]
  92:.\Generated_Source\PSoC4/tinyprintf_1_printf.c **** 		*bf++ = '-';
ARM GAS  C:\Users\Jared\AppData\Local\Temp\ccafwWyL.s 			page 6


 192              		.loc 1 92 0
 193 0016 3B68     		ldr	r3, [r7]
 194 0018 2D22     		mov	r2, #45
 195 001a 1A70     		strb	r2, [r3]
 196 001c 3B68     		ldr	r3, [r7]
 197 001e 0133     		add	r3, r3, #1
 198 0020 3B60     		str	r3, [r7]
 199              	.L12:
  93:.\Generated_Source\PSoC4/tinyprintf_1_printf.c **** 		}
  94:.\Generated_Source\PSoC4/tinyprintf_1_printf.c **** 	ui2a(num,10,0,bf);
 200              		.loc 1 94 0
 201 0022 7A68     		ldr	r2, [r7, #4]
 202 0024 3B68     		ldr	r3, [r7]
 203 0026 101C     		mov	r0, r2
 204 0028 0A21     		mov	r1, #10
 205 002a 0022     		mov	r2, #0
 206 002c FFF7FEFF 		bl	ui2a
  95:.\Generated_Source\PSoC4/tinyprintf_1_printf.c **** 	}
 207              		.loc 1 95 0
 208 0030 BD46     		mov	sp, r7
 209 0032 02B0     		add	sp, sp, #8
 210              		@ sp needed for prologue
 211 0034 80BD     		pop	{r7, pc}
 212              		.cfi_endproc
 213              	.LFE1:
 214              		.size	i2a, .-i2a
 215 0036 C046     		.section	.text.a2d,"ax",%progbits
 216              		.align	2
 217              		.code	16
 218              		.thumb_func
 219              		.type	a2d, %function
 220              	a2d:
 221              	.LFB2:
  96:.\Generated_Source\PSoC4/tinyprintf_1_printf.c **** 
  97:.\Generated_Source\PSoC4/tinyprintf_1_printf.c **** static int a2d(char ch)
  98:.\Generated_Source\PSoC4/tinyprintf_1_printf.c **** 	{
 222              		.loc 1 98 0
 223              		.cfi_startproc
 224 0000 80B5     		push	{r7, lr}
 225              	.LCFI6:
 226              		.cfi_def_cfa_offset 8
 227              		.cfi_offset 7, -8
 228              		.cfi_offset 14, -4
 229 0002 82B0     		sub	sp, sp, #8
 230              	.LCFI7:
 231              		.cfi_def_cfa_offset 16
 232 0004 00AF     		add	r7, sp, #0
 233              	.LCFI8:
 234              		.cfi_def_cfa_register 7
 235 0006 021C     		mov	r2, r0
 236 0008 FB1D     		add	r3, r7, #7
 237 000a 1A70     		strb	r2, [r3]
  99:.\Generated_Source\PSoC4/tinyprintf_1_printf.c **** 	if (ch>='0' && ch<='9') 
 238              		.loc 1 99 0
 239 000c FB1D     		add	r3, r7, #7
 240 000e 1B78     		ldrb	r3, [r3]
 241 0010 2F2B     		cmp	r3, #47
ARM GAS  C:\Users\Jared\AppData\Local\Temp\ccafwWyL.s 			page 7


 242 0012 07D9     		bls	.L14
 243              		.loc 1 99 0 is_stmt 0 discriminator 1
 244 0014 FB1D     		add	r3, r7, #7
 245 0016 1B78     		ldrb	r3, [r3]
 246 0018 392B     		cmp	r3, #57
 247 001a 03D8     		bhi	.L14
 100:.\Generated_Source\PSoC4/tinyprintf_1_printf.c **** 		return ch-'0';
 248              		.loc 1 100 0 is_stmt 1
 249 001c FB1D     		add	r3, r7, #7
 250 001e 1B78     		ldrb	r3, [r3]
 251 0020 303B     		sub	r3, r3, #48
 252 0022 19E0     		b	.L15
 253              	.L14:
 101:.\Generated_Source\PSoC4/tinyprintf_1_printf.c **** 	else if (ch>='a' && ch<='f')
 254              		.loc 1 101 0
 255 0024 FB1D     		add	r3, r7, #7
 256 0026 1B78     		ldrb	r3, [r3]
 257 0028 602B     		cmp	r3, #96
 258 002a 07D9     		bls	.L16
 259              		.loc 1 101 0 is_stmt 0 discriminator 1
 260 002c FB1D     		add	r3, r7, #7
 261 002e 1B78     		ldrb	r3, [r3]
 262 0030 662B     		cmp	r3, #102
 263 0032 03D8     		bhi	.L16
 102:.\Generated_Source\PSoC4/tinyprintf_1_printf.c **** 		return ch-'a'+10;
 264              		.loc 1 102 0 is_stmt 1
 265 0034 FB1D     		add	r3, r7, #7
 266 0036 1B78     		ldrb	r3, [r3]
 267 0038 573B     		sub	r3, r3, #87
 268 003a 0DE0     		b	.L15
 269              	.L16:
 103:.\Generated_Source\PSoC4/tinyprintf_1_printf.c **** 	else if (ch>='A' && ch<='F')
 270              		.loc 1 103 0
 271 003c FB1D     		add	r3, r7, #7
 272 003e 1B78     		ldrb	r3, [r3]
 273 0040 402B     		cmp	r3, #64
 274 0042 07D9     		bls	.L17
 275              		.loc 1 103 0 is_stmt 0 discriminator 1
 276 0044 FB1D     		add	r3, r7, #7
 277 0046 1B78     		ldrb	r3, [r3]
 278 0048 462B     		cmp	r3, #70
 279 004a 03D8     		bhi	.L17
 104:.\Generated_Source\PSoC4/tinyprintf_1_printf.c **** 		return ch-'A'+10;
 280              		.loc 1 104 0 is_stmt 1
 281 004c FB1D     		add	r3, r7, #7
 282 004e 1B78     		ldrb	r3, [r3]
 283 0050 373B     		sub	r3, r3, #55
 284 0052 01E0     		b	.L15
 285              	.L17:
 105:.\Generated_Source\PSoC4/tinyprintf_1_printf.c **** 	else return -1;
 286              		.loc 1 105 0
 287 0054 0123     		mov	r3, #1
 288 0056 5B42     		neg	r3, r3
 289              	.L15:
 106:.\Generated_Source\PSoC4/tinyprintf_1_printf.c **** 	}
 290              		.loc 1 106 0
 291 0058 181C     		mov	r0, r3
ARM GAS  C:\Users\Jared\AppData\Local\Temp\ccafwWyL.s 			page 8


 292 005a BD46     		mov	sp, r7
 293 005c 02B0     		add	sp, sp, #8
 294              		@ sp needed for prologue
 295 005e 80BD     		pop	{r7, pc}
 296              		.cfi_endproc
 297              	.LFE2:
 298              		.size	a2d, .-a2d
 299              		.section	.text.a2i,"ax",%progbits
 300              		.align	2
 301              		.code	16
 302              		.thumb_func
 303              		.type	a2i, %function
 304              	a2i:
 305              	.LFB3:
 107:.\Generated_Source\PSoC4/tinyprintf_1_printf.c **** 
 108:.\Generated_Source\PSoC4/tinyprintf_1_printf.c **** static char a2i(char ch, char** src,int base,int* nump)
 109:.\Generated_Source\PSoC4/tinyprintf_1_printf.c **** 	{
 306              		.loc 1 109 0
 307              		.cfi_startproc
 308 0000 80B5     		push	{r7, lr}
 309              	.LCFI9:
 310              		.cfi_def_cfa_offset 8
 311              		.cfi_offset 7, -8
 312              		.cfi_offset 14, -4
 313 0002 88B0     		sub	sp, sp, #32
 314              	.LCFI10:
 315              		.cfi_def_cfa_offset 40
 316 0004 00AF     		add	r7, sp, #0
 317              	.LCFI11:
 318              		.cfi_def_cfa_register 7
 319 0006 B960     		str	r1, [r7, #8]
 320 0008 7A60     		str	r2, [r7, #4]
 321 000a 3B60     		str	r3, [r7]
 322 000c 3B1C     		mov	r3, r7
 323 000e 0F33     		add	r3, r3, #15
 324 0010 021C     		add	r2, r0, #0
 325 0012 1A70     		strb	r2, [r3]
 110:.\Generated_Source\PSoC4/tinyprintf_1_printf.c **** 	char* p= *src;
 326              		.loc 1 110 0
 327 0014 BB68     		ldr	r3, [r7, #8]
 328 0016 1B68     		ldr	r3, [r3]
 329 0018 FB61     		str	r3, [r7, #28]
 111:.\Generated_Source\PSoC4/tinyprintf_1_printf.c **** 	int num=0;
 330              		.loc 1 111 0
 331 001a 0023     		mov	r3, #0
 332 001c BB61     		str	r3, [r7, #24]
 112:.\Generated_Source\PSoC4/tinyprintf_1_printf.c **** 	int digit;
 113:.\Generated_Source\PSoC4/tinyprintf_1_printf.c **** 	while ((digit=a2d(ch))>=0) {
 333              		.loc 1 113 0
 334 001e 11E0     		b	.L19
 335              	.L22:
 114:.\Generated_Source\PSoC4/tinyprintf_1_printf.c **** 		if (digit>base) break;
 336              		.loc 1 114 0
 337 0020 7A69     		ldr	r2, [r7, #20]
 338 0022 7B68     		ldr	r3, [r7, #4]
 339 0024 9A42     		cmp	r2, r3
 340 0026 19DC     		bgt	.L24
ARM GAS  C:\Users\Jared\AppData\Local\Temp\ccafwWyL.s 			page 9


 341              	.L20:
 115:.\Generated_Source\PSoC4/tinyprintf_1_printf.c **** 		num=num*base+digit;
 342              		.loc 1 115 0
 343 0028 BB69     		ldr	r3, [r7, #24]
 344 002a 7A68     		ldr	r2, [r7, #4]
 345 002c 5A43     		mul	r2, r3
 346 002e 7B69     		ldr	r3, [r7, #20]
 347 0030 D318     		add	r3, r2, r3
 348 0032 BB61     		str	r3, [r7, #24]
 116:.\Generated_Source\PSoC4/tinyprintf_1_printf.c **** 		ch=*p++;
 349              		.loc 1 116 0
 350 0034 3B1C     		mov	r3, r7
 351 0036 0F33     		add	r3, r3, #15
 352 0038 FA69     		ldr	r2, [r7, #28]
 353 003a 1278     		ldrb	r2, [r2]
 354 003c 1A70     		strb	r2, [r3]
 355 003e FB69     		ldr	r3, [r7, #28]
 356 0040 0133     		add	r3, r3, #1
 357 0042 FB61     		str	r3, [r7, #28]
 358              	.L19:
 113:.\Generated_Source\PSoC4/tinyprintf_1_printf.c **** 	while ((digit=a2d(ch))>=0) {
 359              		.loc 1 113 0 discriminator 1
 360 0044 3B1C     		mov	r3, r7
 361 0046 0F33     		add	r3, r3, #15
 362 0048 1B78     		ldrb	r3, [r3]
 363 004a 181C     		mov	r0, r3
 364 004c FFF7FEFF 		bl	a2d
 365 0050 031C     		mov	r3, r0
 366 0052 7B61     		str	r3, [r7, #20]
 367 0054 7B69     		ldr	r3, [r7, #20]
 368 0056 002B     		cmp	r3, #0
 369 0058 E2DA     		bge	.L22
 370 005a 00E0     		b	.L21
 371              	.L24:
 114:.\Generated_Source\PSoC4/tinyprintf_1_printf.c **** 		if (digit>base) break;
 372              		.loc 1 114 0
 373 005c C046     		mov	r8, r8
 374              	.L21:
 117:.\Generated_Source\PSoC4/tinyprintf_1_printf.c **** 		}
 118:.\Generated_Source\PSoC4/tinyprintf_1_printf.c **** 	*src=p;
 375              		.loc 1 118 0
 376 005e BB68     		ldr	r3, [r7, #8]
 377 0060 FA69     		ldr	r2, [r7, #28]
 378 0062 1A60     		str	r2, [r3]
 119:.\Generated_Source\PSoC4/tinyprintf_1_printf.c **** 	*nump=num;
 379              		.loc 1 119 0
 380 0064 3B68     		ldr	r3, [r7]
 381 0066 BA69     		ldr	r2, [r7, #24]
 382 0068 1A60     		str	r2, [r3]
 120:.\Generated_Source\PSoC4/tinyprintf_1_printf.c **** 	return ch;
 383              		.loc 1 120 0
 384 006a 3B1C     		mov	r3, r7
 385 006c 0F33     		add	r3, r3, #15
 386 006e 1B78     		ldrb	r3, [r3]
 121:.\Generated_Source\PSoC4/tinyprintf_1_printf.c **** 	}
 387              		.loc 1 121 0
 388 0070 181C     		mov	r0, r3
ARM GAS  C:\Users\Jared\AppData\Local\Temp\ccafwWyL.s 			page 10


 389 0072 BD46     		mov	sp, r7
 390 0074 08B0     		add	sp, sp, #32
 391              		@ sp needed for prologue
 392 0076 80BD     		pop	{r7, pc}
 393              		.cfi_endproc
 394              	.LFE3:
 395              		.size	a2i, .-a2i
 396              		.section	.text.putchw,"ax",%progbits
 397              		.align	2
 398              		.code	16
 399              		.thumb_func
 400              		.type	putchw, %function
 401              	putchw:
 402              	.LFB4:
 122:.\Generated_Source\PSoC4/tinyprintf_1_printf.c **** 
 123:.\Generated_Source\PSoC4/tinyprintf_1_printf.c **** static void putchw(void* putp,putcf putf,int n, char z, char* bf)
 124:.\Generated_Source\PSoC4/tinyprintf_1_printf.c **** 	{
 403              		.loc 1 124 0
 404              		.cfi_startproc
 405 0000 80B5     		push	{r7, lr}
 406              	.LCFI12:
 407              		.cfi_def_cfa_offset 8
 408              		.cfi_offset 7, -8
 409              		.cfi_offset 14, -4
 410 0002 86B0     		sub	sp, sp, #24
 411              	.LCFI13:
 412              		.cfi_def_cfa_offset 32
 413 0004 00AF     		add	r7, sp, #0
 414              	.LCFI14:
 415              		.cfi_def_cfa_register 7
 416 0006 F860     		str	r0, [r7, #12]
 417 0008 B960     		str	r1, [r7, #8]
 418 000a 7A60     		str	r2, [r7, #4]
 419 000c 1A1C     		mov	r2, r3
 420 000e FB1C     		add	r3, r7, #3
 421 0010 1A70     		strb	r2, [r3]
 125:.\Generated_Source\PSoC4/tinyprintf_1_printf.c **** 	char fc=z? '0' : ' ';
 422              		.loc 1 125 0
 423 0012 FB1C     		add	r3, r7, #3
 424 0014 1B78     		ldrb	r3, [r3]
 425 0016 002B     		cmp	r3, #0
 426 0018 01D0     		beq	.L26
 427              		.loc 1 125 0 is_stmt 0 discriminator 1
 428 001a 3023     		mov	r3, #48
 429 001c 00E0     		b	.L27
 430              	.L26:
 431              		.loc 1 125 0 discriminator 2
 432 001e 2023     		mov	r3, #32
 433              	.L27:
 434              		.loc 1 125 0 discriminator 3
 435 0020 3A1C     		mov	r2, r7
 436 0022 1332     		add	r2, r2, #19
 437 0024 1370     		strb	r3, [r2]
 126:.\Generated_Source\PSoC4/tinyprintf_1_printf.c **** 	char ch;
 127:.\Generated_Source\PSoC4/tinyprintf_1_printf.c **** 	char* p=bf;
 438              		.loc 1 127 0 is_stmt 1 discriminator 3
 439 0026 3B6A     		ldr	r3, [r7, #32]
ARM GAS  C:\Users\Jared\AppData\Local\Temp\ccafwWyL.s 			page 11


 440 0028 7B61     		str	r3, [r7, #20]
 128:.\Generated_Source\PSoC4/tinyprintf_1_printf.c **** 	while (*p++ && n > 0)
 441              		.loc 1 128 0 discriminator 3
 442 002a 02E0     		b	.L28
 443              	.L30:
 129:.\Generated_Source\PSoC4/tinyprintf_1_printf.c **** 		n--;
 444              		.loc 1 129 0
 445 002c 7B68     		ldr	r3, [r7, #4]
 446 002e 013B     		sub	r3, r3, #1
 447 0030 7B60     		str	r3, [r7, #4]
 448              	.L28:
 128:.\Generated_Source\PSoC4/tinyprintf_1_printf.c **** 	while (*p++ && n > 0)
 449              		.loc 1 128 0 discriminator 1
 450 0032 7B69     		ldr	r3, [r7, #20]
 451 0034 1B78     		ldrb	r3, [r3]
 452 0036 5A1E     		sub	r2, r3, #1
 453 0038 9341     		sbc	r3, r3, r2
 454 003a DBB2     		uxtb	r3, r3
 455 003c 7A69     		ldr	r2, [r7, #20]
 456 003e 0132     		add	r2, r2, #1
 457 0040 7A61     		str	r2, [r7, #20]
 458 0042 002B     		cmp	r3, #0
 459 0044 0CD0     		beq	.L35
 128:.\Generated_Source\PSoC4/tinyprintf_1_printf.c **** 	while (*p++ && n > 0)
 460              		.loc 1 128 0 is_stmt 0 discriminator 2
 461 0046 7B68     		ldr	r3, [r7, #4]
 462 0048 002B     		cmp	r3, #0
 463 004a EFDC     		bgt	.L30
 130:.\Generated_Source\PSoC4/tinyprintf_1_printf.c **** 	while (n-- > 0) 
 464              		.loc 1 130 0 is_stmt 1
 465 004c 08E0     		b	.L35
 466              	.L32:
 131:.\Generated_Source\PSoC4/tinyprintf_1_printf.c **** 		putf(putp,fc);
 467              		.loc 1 131 0
 468 004e F968     		ldr	r1, [r7, #12]
 469 0050 3B1C     		mov	r3, r7
 470 0052 1333     		add	r3, r3, #19
 471 0054 1A78     		ldrb	r2, [r3]
 472 0056 BB68     		ldr	r3, [r7, #8]
 473 0058 081C     		mov	r0, r1
 474 005a 111C     		mov	r1, r2
 475 005c 9847     		blx	r3
 476 005e 00E0     		b	.L31
 477              	.L35:
 130:.\Generated_Source\PSoC4/tinyprintf_1_printf.c **** 	while (n-- > 0) 
 478              		.loc 1 130 0
 479 0060 C046     		mov	r8, r8
 480              	.L31:
 130:.\Generated_Source\PSoC4/tinyprintf_1_printf.c **** 	while (n-- > 0) 
 481              		.loc 1 130 0 is_stmt 0 discriminator 1
 482 0062 7B68     		ldr	r3, [r7, #4]
 483 0064 DA17     		asr	r2, r3, #31
 484 0066 D31A     		sub	r3, r2, r3
 485 0068 DB0F     		lsr	r3, r3, #31
 486 006a DBB2     		uxtb	r3, r3
 487 006c 7A68     		ldr	r2, [r7, #4]
 488 006e 013A     		sub	r2, r2, #1
ARM GAS  C:\Users\Jared\AppData\Local\Temp\ccafwWyL.s 			page 12


 489 0070 7A60     		str	r2, [r7, #4]
 490 0072 002B     		cmp	r3, #0
 491 0074 EBD1     		bne	.L32
 132:.\Generated_Source\PSoC4/tinyprintf_1_printf.c **** 	while ((ch= *bf++))
 492              		.loc 1 132 0 is_stmt 1
 493 0076 07E0     		b	.L33
 494              	.L34:
 133:.\Generated_Source\PSoC4/tinyprintf_1_printf.c **** 		putf(putp,ch);
 495              		.loc 1 133 0
 496 0078 F968     		ldr	r1, [r7, #12]
 497 007a 3B1C     		mov	r3, r7
 498 007c 1233     		add	r3, r3, #18
 499 007e 1A78     		ldrb	r2, [r3]
 500 0080 BB68     		ldr	r3, [r7, #8]
 501 0082 081C     		mov	r0, r1
 502 0084 111C     		mov	r1, r2
 503 0086 9847     		blx	r3
 504              	.L33:
 132:.\Generated_Source\PSoC4/tinyprintf_1_printf.c **** 	while ((ch= *bf++))
 505              		.loc 1 132 0 discriminator 1
 506 0088 3B1C     		mov	r3, r7
 507 008a 1233     		add	r3, r3, #18
 508 008c 3A6A     		ldr	r2, [r7, #32]
 509 008e 1278     		ldrb	r2, [r2]
 510 0090 1A70     		strb	r2, [r3]
 511 0092 3B1C     		mov	r3, r7
 512 0094 1233     		add	r3, r3, #18
 513 0096 1B78     		ldrb	r3, [r3]
 514 0098 5A1E     		sub	r2, r3, #1
 515 009a 9341     		sbc	r3, r3, r2
 516 009c DBB2     		uxtb	r3, r3
 517 009e 3A6A     		ldr	r2, [r7, #32]
 518 00a0 0132     		add	r2, r2, #1
 519 00a2 3A62     		str	r2, [r7, #32]
 520 00a4 002B     		cmp	r3, #0
 521 00a6 E7D1     		bne	.L34
 134:.\Generated_Source\PSoC4/tinyprintf_1_printf.c **** 	}
 522              		.loc 1 134 0
 523 00a8 BD46     		mov	sp, r7
 524 00aa 06B0     		add	sp, sp, #24
 525              		@ sp needed for prologue
 526 00ac 80BD     		pop	{r7, pc}
 527              		.cfi_endproc
 528              	.LFE4:
 529              		.size	putchw, .-putchw
 530 00ae C046     		.section	.text.tfp_format,"ax",%progbits
 531              		.align	2
 532              		.global	tfp_format
 533              		.code	16
 534              		.thumb_func
 535              		.type	tfp_format, %function
 536              	tfp_format:
 537              	.LFB5:
 135:.\Generated_Source\PSoC4/tinyprintf_1_printf.c **** 
 136:.\Generated_Source\PSoC4/tinyprintf_1_printf.c **** void tfp_format(void* putp,putcf putf,char *fmt, va_list va)
 137:.\Generated_Source\PSoC4/tinyprintf_1_printf.c **** 	{
 538              		.loc 1 137 0
ARM GAS  C:\Users\Jared\AppData\Local\Temp\ccafwWyL.s 			page 13


 539              		.cfi_startproc
 540 0000 90B5     		push	{r4, r7, lr}
 541              	.LCFI15:
 542              		.cfi_def_cfa_offset 12
 543              		.cfi_offset 4, -12
 544              		.cfi_offset 7, -8
 545              		.cfi_offset 14, -4
 546 0002 8DB0     		sub	sp, sp, #52
 547              	.LCFI16:
 548              		.cfi_def_cfa_offset 64
 549 0004 02AF     		add	r7, sp, #8
 550              	.LCFI17:
 551              		.cfi_def_cfa 7, 56
 552 0006 F860     		str	r0, [r7, #12]
 553 0008 B960     		str	r1, [r7, #8]
 554 000a 7A60     		str	r2, [r7, #4]
 555 000c 3B60     		str	r3, [r7]
 138:.\Generated_Source\PSoC4/tinyprintf_1_printf.c **** 	char bf[12];
 139:.\Generated_Source\PSoC4/tinyprintf_1_printf.c ****     
 140:.\Generated_Source\PSoC4/tinyprintf_1_printf.c **** 	char ch;
 141:.\Generated_Source\PSoC4/tinyprintf_1_printf.c **** 
 142:.\Generated_Source\PSoC4/tinyprintf_1_printf.c **** 
 143:.\Generated_Source\PSoC4/tinyprintf_1_printf.c **** 	while ((ch=*(fmt++))) {
 556              		.loc 1 143 0
 557 000e CAE0     		b	.L37
 558              	.L53:
 144:.\Generated_Source\PSoC4/tinyprintf_1_printf.c **** 		if (ch!='%') 
 559              		.loc 1 144 0
 560 0010 3B1C     		mov	r3, r7
 561 0012 2733     		add	r3, r3, #39
 562 0014 1B78     		ldrb	r3, [r3]
 563 0016 252B     		cmp	r3, #37
 564 0018 08D0     		beq	.L38
 145:.\Generated_Source\PSoC4/tinyprintf_1_printf.c **** 			putf(putp,ch);
 565              		.loc 1 145 0
 566 001a F968     		ldr	r1, [r7, #12]
 567 001c 3B1C     		mov	r3, r7
 568 001e 2733     		add	r3, r3, #39
 569 0020 1A78     		ldrb	r2, [r3]
 570 0022 BB68     		ldr	r3, [r7, #8]
 571 0024 081C     		mov	r0, r1
 572 0026 111C     		mov	r1, r2
 573 0028 9847     		blx	r3
 574 002a BCE0     		b	.L37
 575              	.L38:
 576              	.LBB3:
 146:.\Generated_Source\PSoC4/tinyprintf_1_printf.c **** 		else {
 147:.\Generated_Source\PSoC4/tinyprintf_1_printf.c **** 			char lz=0;
 577              		.loc 1 147 0
 578 002c 3B1C     		mov	r3, r7
 579 002e 2633     		add	r3, r3, #38
 580 0030 0022     		mov	r2, #0
 581 0032 1A70     		strb	r2, [r3]
 148:.\Generated_Source\PSoC4/tinyprintf_1_printf.c **** #ifdef 	PRINTF_LONG_SUPPORT
 149:.\Generated_Source\PSoC4/tinyprintf_1_printf.c **** 			char lng=0;
 150:.\Generated_Source\PSoC4/tinyprintf_1_printf.c **** #endif
 151:.\Generated_Source\PSoC4/tinyprintf_1_printf.c **** 			int w=0;
ARM GAS  C:\Users\Jared\AppData\Local\Temp\ccafwWyL.s 			page 14


 582              		.loc 1 151 0
 583 0034 0023     		mov	r3, #0
 584 0036 7B61     		str	r3, [r7, #20]
 152:.\Generated_Source\PSoC4/tinyprintf_1_printf.c **** 			ch=*(fmt++);
 585              		.loc 1 152 0
 586 0038 7B68     		ldr	r3, [r7, #4]
 587 003a 3A1C     		mov	r2, r7
 588 003c 2732     		add	r2, r2, #39
 589 003e 1978     		ldrb	r1, [r3]
 590 0040 1170     		strb	r1, [r2]
 591 0042 0133     		add	r3, r3, #1
 592 0044 7B60     		str	r3, [r7, #4]
 153:.\Generated_Source\PSoC4/tinyprintf_1_printf.c **** 			if (ch=='0') {
 593              		.loc 1 153 0
 594 0046 3B1C     		mov	r3, r7
 595 0048 2733     		add	r3, r3, #39
 596 004a 1B78     		ldrb	r3, [r3]
 597 004c 302B     		cmp	r3, #48
 598 004e 0AD1     		bne	.L39
 154:.\Generated_Source\PSoC4/tinyprintf_1_printf.c **** 				ch=*(fmt++);
 599              		.loc 1 154 0
 600 0050 7B68     		ldr	r3, [r7, #4]
 601 0052 3A1C     		mov	r2, r7
 602 0054 2732     		add	r2, r2, #39
 603 0056 1978     		ldrb	r1, [r3]
 604 0058 1170     		strb	r1, [r2]
 605 005a 0133     		add	r3, r3, #1
 606 005c 7B60     		str	r3, [r7, #4]
 155:.\Generated_Source\PSoC4/tinyprintf_1_printf.c **** 				lz=1;
 607              		.loc 1 155 0
 608 005e 3B1C     		mov	r3, r7
 609 0060 2633     		add	r3, r3, #38
 610 0062 0122     		mov	r2, #1
 611 0064 1A70     		strb	r2, [r3]
 612              	.L39:
 156:.\Generated_Source\PSoC4/tinyprintf_1_printf.c **** 				}
 157:.\Generated_Source\PSoC4/tinyprintf_1_printf.c **** 			if (ch>='0' && ch<='9') {
 613              		.loc 1 157 0
 614 0066 3B1C     		mov	r3, r7
 615 0068 2733     		add	r3, r3, #39
 616 006a 1B78     		ldrb	r3, [r3]
 617 006c 2F2B     		cmp	r3, #47
 618 006e 13D9     		bls	.L40
 619              		.loc 1 157 0 is_stmt 0 discriminator 1
 620 0070 3B1C     		mov	r3, r7
 621 0072 2733     		add	r3, r3, #39
 622 0074 1B78     		ldrb	r3, [r3]
 623 0076 392B     		cmp	r3, #57
 624 0078 0ED8     		bhi	.L40
 158:.\Generated_Source\PSoC4/tinyprintf_1_printf.c **** 				ch=a2i(ch,&fmt,10,&w);
 625              		.loc 1 158 0 is_stmt 1
 626 007a 3C1C     		mov	r4, r7
 627 007c 2734     		add	r4, r4, #39
 628 007e 3B1C     		mov	r3, r7
 629 0080 2733     		add	r3, r3, #39
 630 0082 1978     		ldrb	r1, [r3]
 631 0084 3A1D     		add	r2, r7, #4
ARM GAS  C:\Users\Jared\AppData\Local\Temp\ccafwWyL.s 			page 15


 632 0086 3B1C     		mov	r3, r7
 633 0088 1433     		add	r3, r3, #20
 634 008a 081C     		mov	r0, r1
 635 008c 111C     		mov	r1, r2
 636 008e 0A22     		mov	r2, #10
 637 0090 FFF7FEFF 		bl	a2i
 638 0094 031C     		mov	r3, r0
 639 0096 2370     		strb	r3, [r4]
 640              	.L40:
 159:.\Generated_Source\PSoC4/tinyprintf_1_printf.c **** 				}
 160:.\Generated_Source\PSoC4/tinyprintf_1_printf.c **** #ifdef 	PRINTF_LONG_SUPPORT
 161:.\Generated_Source\PSoC4/tinyprintf_1_printf.c **** 			if (ch=='l') {
 162:.\Generated_Source\PSoC4/tinyprintf_1_printf.c **** 				ch=*(fmt++);
 163:.\Generated_Source\PSoC4/tinyprintf_1_printf.c **** 				lng=1;
 164:.\Generated_Source\PSoC4/tinyprintf_1_printf.c **** 			}
 165:.\Generated_Source\PSoC4/tinyprintf_1_printf.c **** #endif
 166:.\Generated_Source\PSoC4/tinyprintf_1_printf.c **** 			switch (ch) {
 641              		.loc 1 166 0
 642 0098 3B1C     		mov	r3, r7
 643 009a 2733     		add	r3, r3, #39
 644 009c 1B78     		ldrb	r3, [r3]
 645 009e 642B     		cmp	r3, #100
 646 00a0 2AD0     		beq	.L46
 647 00a2 0BDC     		bgt	.L49
 648 00a4 582B     		cmp	r3, #88
 649 00a6 3DD0     		beq	.L44
 650 00a8 05DC     		bgt	.L50
 651 00aa 002B     		cmp	r3, #0
 652 00ac 00D1     		bne	.LCB574
 653 00ae 8AE0     		b	.L36	@long jump
 654              	.LCB574:
 655 00b0 252B     		cmp	r3, #37
 656 00b2 6ED0     		beq	.L43
 657 00b4 76E0     		b	.L41
 658              	.L50:
 659 00b6 632B     		cmp	r3, #99
 660 00b8 52D0     		beq	.L45
 661 00ba 73E0     		b	.L41
 662              	.L49:
 663 00bc 752B     		cmp	r3, #117
 664 00be 04D0     		beq	.L48
 665 00c0 782B     		cmp	r3, #120
 666 00c2 2FD0     		beq	.L44
 667 00c4 732B     		cmp	r3, #115
 668 00c6 56D0     		beq	.L47
 669 00c8 6CE0     		b	.L41
 670              	.L48:
 167:.\Generated_Source\PSoC4/tinyprintf_1_printf.c **** 				case 0: 
 168:.\Generated_Source\PSoC4/tinyprintf_1_printf.c **** 					goto abort;
 169:.\Generated_Source\PSoC4/tinyprintf_1_printf.c **** 				case 'u' : {
 170:.\Generated_Source\PSoC4/tinyprintf_1_printf.c **** #ifdef 	PRINTF_LONG_SUPPORT
 171:.\Generated_Source\PSoC4/tinyprintf_1_printf.c **** 					if (lng)
 172:.\Generated_Source\PSoC4/tinyprintf_1_printf.c **** 						uli2a(va_arg(va, unsigned long int),10,0,bf);
 173:.\Generated_Source\PSoC4/tinyprintf_1_printf.c **** 					else
 174:.\Generated_Source\PSoC4/tinyprintf_1_printf.c **** #endif
 175:.\Generated_Source\PSoC4/tinyprintf_1_printf.c **** 					ui2a(va_arg(va, unsigned int),10,0,bf);
 671              		.loc 1 175 0
ARM GAS  C:\Users\Jared\AppData\Local\Temp\ccafwWyL.s 			page 16


 672 00ca 3B68     		ldr	r3, [r7]
 673 00cc 1A1D     		add	r2, r3, #4
 674 00ce 3A60     		str	r2, [r7]
 675 00d0 1A68     		ldr	r2, [r3]
 676 00d2 3B1C     		mov	r3, r7
 677 00d4 1833     		add	r3, r3, #24
 678 00d6 101C     		mov	r0, r2
 679 00d8 0A21     		mov	r1, #10
 680 00da 0022     		mov	r2, #0
 681 00dc FFF7FEFF 		bl	ui2a
 176:.\Generated_Source\PSoC4/tinyprintf_1_printf.c **** 					putchw(putp,putf,w,lz,bf);
 682              		.loc 1 176 0
 683 00e0 7A69     		ldr	r2, [r7, #20]
 684 00e2 F868     		ldr	r0, [r7, #12]
 685 00e4 B968     		ldr	r1, [r7, #8]
 686 00e6 3B1C     		mov	r3, r7
 687 00e8 2633     		add	r3, r3, #38
 688 00ea 1B78     		ldrb	r3, [r3]
 689 00ec 3C1C     		mov	r4, r7
 690 00ee 1834     		add	r4, r4, #24
 691 00f0 0094     		str	r4, [sp]
 692 00f2 FFF7FEFF 		bl	putchw
 177:.\Generated_Source\PSoC4/tinyprintf_1_printf.c **** 					break;
 693              		.loc 1 177 0
 694 00f6 56E0     		b	.L37
 695              	.L46:
 178:.\Generated_Source\PSoC4/tinyprintf_1_printf.c **** 					}
 179:.\Generated_Source\PSoC4/tinyprintf_1_printf.c **** 				case 'd' :  {
 180:.\Generated_Source\PSoC4/tinyprintf_1_printf.c **** #ifdef 	PRINTF_LONG_SUPPORT
 181:.\Generated_Source\PSoC4/tinyprintf_1_printf.c **** 					if (lng)
 182:.\Generated_Source\PSoC4/tinyprintf_1_printf.c **** 						li2a(va_arg(va, unsigned long int),bf);
 183:.\Generated_Source\PSoC4/tinyprintf_1_printf.c **** 					else
 184:.\Generated_Source\PSoC4/tinyprintf_1_printf.c **** #endif
 185:.\Generated_Source\PSoC4/tinyprintf_1_printf.c **** 					i2a(va_arg(va, int),bf);
 696              		.loc 1 185 0
 697 00f8 3B68     		ldr	r3, [r7]
 698 00fa 1A1D     		add	r2, r3, #4
 699 00fc 3A60     		str	r2, [r7]
 700 00fe 1A68     		ldr	r2, [r3]
 701 0100 3B1C     		mov	r3, r7
 702 0102 1833     		add	r3, r3, #24
 703 0104 101C     		mov	r0, r2
 704 0106 191C     		mov	r1, r3
 705 0108 FFF7FEFF 		bl	i2a
 186:.\Generated_Source\PSoC4/tinyprintf_1_printf.c **** 					putchw(putp,putf,w,lz,bf);
 706              		.loc 1 186 0
 707 010c 7A69     		ldr	r2, [r7, #20]
 708 010e F868     		ldr	r0, [r7, #12]
 709 0110 B968     		ldr	r1, [r7, #8]
 710 0112 3B1C     		mov	r3, r7
 711 0114 2633     		add	r3, r3, #38
 712 0116 1B78     		ldrb	r3, [r3]
 713 0118 3C1C     		mov	r4, r7
 714 011a 1834     		add	r4, r4, #24
 715 011c 0094     		str	r4, [sp]
 716 011e FFF7FEFF 		bl	putchw
 187:.\Generated_Source\PSoC4/tinyprintf_1_printf.c **** 					break;
ARM GAS  C:\Users\Jared\AppData\Local\Temp\ccafwWyL.s 			page 17


 717              		.loc 1 187 0
 718 0122 40E0     		b	.L37
 719              	.L44:
 188:.\Generated_Source\PSoC4/tinyprintf_1_printf.c **** 					}
 189:.\Generated_Source\PSoC4/tinyprintf_1_printf.c **** 				case 'x': case 'X' : 
 190:.\Generated_Source\PSoC4/tinyprintf_1_printf.c **** #ifdef 	PRINTF_LONG_SUPPORT
 191:.\Generated_Source\PSoC4/tinyprintf_1_printf.c **** 					if (lng)
 192:.\Generated_Source\PSoC4/tinyprintf_1_printf.c **** 						uli2a(va_arg(va, unsigned long int),16,(ch=='X'),bf);
 193:.\Generated_Source\PSoC4/tinyprintf_1_printf.c **** 					else
 194:.\Generated_Source\PSoC4/tinyprintf_1_printf.c **** #endif
 195:.\Generated_Source\PSoC4/tinyprintf_1_printf.c **** 					ui2a(va_arg(va, unsigned int),16,(ch=='X'),bf);
 720              		.loc 1 195 0
 721 0124 3B68     		ldr	r3, [r7]
 722 0126 1A1D     		add	r2, r3, #4
 723 0128 3A60     		str	r2, [r7]
 724 012a 1968     		ldr	r1, [r3]
 725 012c 3B1C     		mov	r3, r7
 726 012e 2733     		add	r3, r3, #39
 727 0130 1B78     		ldrb	r3, [r3]
 728 0132 583B     		sub	r3, r3, #88
 729 0134 5A42     		neg	r2, r3
 730 0136 5341     		adc	r3, r3, r2
 731 0138 DBB2     		uxtb	r3, r3
 732 013a 1A1C     		mov	r2, r3
 733 013c 3B1C     		mov	r3, r7
 734 013e 1833     		add	r3, r3, #24
 735 0140 081C     		mov	r0, r1
 736 0142 1021     		mov	r1, #16
 737 0144 FFF7FEFF 		bl	ui2a
 196:.\Generated_Source\PSoC4/tinyprintf_1_printf.c **** 					putchw(putp,putf,w,lz,bf);
 738              		.loc 1 196 0
 739 0148 7A69     		ldr	r2, [r7, #20]
 740 014a F868     		ldr	r0, [r7, #12]
 741 014c B968     		ldr	r1, [r7, #8]
 742 014e 3B1C     		mov	r3, r7
 743 0150 2633     		add	r3, r3, #38
 744 0152 1B78     		ldrb	r3, [r3]
 745 0154 3C1C     		mov	r4, r7
 746 0156 1834     		add	r4, r4, #24
 747 0158 0094     		str	r4, [sp]
 748 015a FFF7FEFF 		bl	putchw
 197:.\Generated_Source\PSoC4/tinyprintf_1_printf.c **** 					break;
 749              		.loc 1 197 0
 750 015e 22E0     		b	.L37
 751              	.L45:
 198:.\Generated_Source\PSoC4/tinyprintf_1_printf.c **** 				case 'c' : 
 199:.\Generated_Source\PSoC4/tinyprintf_1_printf.c **** 					putf(putp,(char)(va_arg(va, int)));
 752              		.loc 1 199 0
 753 0160 3B68     		ldr	r3, [r7]
 754 0162 1A1D     		add	r2, r3, #4
 755 0164 3A60     		str	r2, [r7]
 756 0166 1B68     		ldr	r3, [r3]
 757 0168 DAB2     		uxtb	r2, r3
 758 016a F968     		ldr	r1, [r7, #12]
 759 016c BB68     		ldr	r3, [r7, #8]
 760 016e 081C     		mov	r0, r1
 761 0170 111C     		mov	r1, r2
ARM GAS  C:\Users\Jared\AppData\Local\Temp\ccafwWyL.s 			page 18


 762 0172 9847     		blx	r3
 200:.\Generated_Source\PSoC4/tinyprintf_1_printf.c **** 					break;
 763              		.loc 1 200 0
 764 0174 17E0     		b	.L37
 765              	.L47:
 201:.\Generated_Source\PSoC4/tinyprintf_1_printf.c **** 				case 's' : 
 202:.\Generated_Source\PSoC4/tinyprintf_1_printf.c **** 					putchw(putp,putf,w,0,va_arg(va, char*));
 766              		.loc 1 202 0
 767 0176 7A69     		ldr	r2, [r7, #20]
 768 0178 3B68     		ldr	r3, [r7]
 769 017a 191D     		add	r1, r3, #4
 770 017c 3960     		str	r1, [r7]
 771 017e 1868     		ldr	r0, [r3]
 772 0180 F968     		ldr	r1, [r7, #12]
 773 0182 BB68     		ldr	r3, [r7, #8]
 774 0184 0090     		str	r0, [sp]
 775 0186 081C     		mov	r0, r1
 776 0188 191C     		mov	r1, r3
 777 018a 0023     		mov	r3, #0
 778 018c FFF7FEFF 		bl	putchw
 203:.\Generated_Source\PSoC4/tinyprintf_1_printf.c **** 					break;
 779              		.loc 1 203 0
 780 0190 09E0     		b	.L37
 781              	.L43:
 204:.\Generated_Source\PSoC4/tinyprintf_1_printf.c **** 				case '%' :
 205:.\Generated_Source\PSoC4/tinyprintf_1_printf.c **** 					putf(putp,ch);
 782              		.loc 1 205 0
 783 0192 F968     		ldr	r1, [r7, #12]
 784 0194 3B1C     		mov	r3, r7
 785 0196 2733     		add	r3, r3, #39
 786 0198 1A78     		ldrb	r2, [r3]
 787 019a BB68     		ldr	r3, [r7, #8]
 788 019c 081C     		mov	r0, r1
 789 019e 111C     		mov	r1, r2
 790 01a0 9847     		blx	r3
 206:.\Generated_Source\PSoC4/tinyprintf_1_printf.c **** 				default:
 207:.\Generated_Source\PSoC4/tinyprintf_1_printf.c **** 					break;
 791              		.loc 1 207 0
 792 01a2 00E0     		b	.L37
 793              	.L41:
 794 01a4 C046     		mov	r8, r8
 795              	.L37:
 796              	.LBE3:
 143:.\Generated_Source\PSoC4/tinyprintf_1_printf.c **** 	while ((ch=*(fmt++))) {
 797              		.loc 1 143 0 discriminator 1
 798 01a6 7B68     		ldr	r3, [r7, #4]
 799 01a8 3A1C     		mov	r2, r7
 800 01aa 2732     		add	r2, r2, #39
 801 01ac 1978     		ldrb	r1, [r3]
 802 01ae 1170     		strb	r1, [r2]
 803 01b0 3A1C     		mov	r2, r7
 804 01b2 2732     		add	r2, r2, #39
 805 01b4 1278     		ldrb	r2, [r2]
 806 01b6 511E     		sub	r1, r2, #1
 807 01b8 8A41     		sbc	r2, r2, r1
 808 01ba D2B2     		uxtb	r2, r2
 809 01bc 0133     		add	r3, r3, #1
ARM GAS  C:\Users\Jared\AppData\Local\Temp\ccafwWyL.s 			page 19


 810 01be 7B60     		str	r3, [r7, #4]
 811 01c0 002A     		cmp	r2, #0
 812 01c2 00D0     		beq	.LCB733
 813 01c4 24E7     		b	.L53	@long jump
 814              	.LCB733:
 815              	.L52:
 816              	.L36:
 208:.\Generated_Source\PSoC4/tinyprintf_1_printf.c **** 				}
 209:.\Generated_Source\PSoC4/tinyprintf_1_printf.c **** 			}
 210:.\Generated_Source\PSoC4/tinyprintf_1_printf.c **** 		}
 211:.\Generated_Source\PSoC4/tinyprintf_1_printf.c **** 	abort:;
 212:.\Generated_Source\PSoC4/tinyprintf_1_printf.c **** 	}
 817              		.loc 1 212 0
 818 01c6 BD46     		mov	sp, r7
 819 01c8 0BB0     		add	sp, sp, #44
 820              		@ sp needed for prologue
 821 01ca 90BD     		pop	{r4, r7, pc}
 822              		.cfi_endproc
 823              	.LFE5:
 824              		.size	tfp_format, .-tfp_format
 825              		.section	.text.init_printf,"ax",%progbits
 826              		.align	2
 827              		.global	init_printf
 828              		.code	16
 829              		.thumb_func
 830              		.type	init_printf, %function
 831              	init_printf:
 832              	.LFB6:
 213:.\Generated_Source\PSoC4/tinyprintf_1_printf.c **** 
 214:.\Generated_Source\PSoC4/tinyprintf_1_printf.c **** 
 215:.\Generated_Source\PSoC4/tinyprintf_1_printf.c **** void init_printf(void* putp,void (*putf) (void*,char))
 216:.\Generated_Source\PSoC4/tinyprintf_1_printf.c **** 	{
 833              		.loc 1 216 0
 834              		.cfi_startproc
 835 0000 80B5     		push	{r7, lr}
 836              	.LCFI18:
 837              		.cfi_def_cfa_offset 8
 838              		.cfi_offset 7, -8
 839              		.cfi_offset 14, -4
 840 0002 82B0     		sub	sp, sp, #8
 841              	.LCFI19:
 842              		.cfi_def_cfa_offset 16
 843 0004 00AF     		add	r7, sp, #0
 844              	.LCFI20:
 845              		.cfi_def_cfa_register 7
 846 0006 7860     		str	r0, [r7, #4]
 847 0008 3960     		str	r1, [r7]
 217:.\Generated_Source\PSoC4/tinyprintf_1_printf.c **** 	stdout_putf=putf;
 848              		.loc 1 217 0
 849 000a 044B     		ldr	r3, .L55
 850 000c 3A68     		ldr	r2, [r7]
 851 000e 1A60     		str	r2, [r3]
 218:.\Generated_Source\PSoC4/tinyprintf_1_printf.c **** 	stdout_putp=putp;
 852              		.loc 1 218 0
 853 0010 034B     		ldr	r3, .L55+4
 854 0012 7A68     		ldr	r2, [r7, #4]
 855 0014 1A60     		str	r2, [r3]
ARM GAS  C:\Users\Jared\AppData\Local\Temp\ccafwWyL.s 			page 20


 219:.\Generated_Source\PSoC4/tinyprintf_1_printf.c **** 	}
 856              		.loc 1 219 0
 857 0016 BD46     		mov	sp, r7
 858 0018 02B0     		add	sp, sp, #8
 859              		@ sp needed for prologue
 860 001a 80BD     		pop	{r7, pc}
 861              	.L56:
 862              		.align	2
 863              	.L55:
 864 001c 00000000 		.word	stdout_putf
 865 0020 04000000 		.word	stdout_putp
 866              		.cfi_endproc
 867              	.LFE6:
 868              		.size	init_printf, .-init_printf
 869              		.section	.text.tfp_printf,"ax",%progbits
 870              		.align	2
 871              		.global	tfp_printf
 872              		.code	16
 873              		.thumb_func
 874              		.type	tfp_printf, %function
 875              	tfp_printf:
 876              	.LFB7:
 220:.\Generated_Source\PSoC4/tinyprintf_1_printf.c **** 
 221:.\Generated_Source\PSoC4/tinyprintf_1_printf.c **** void tfp_printf(char *fmt, ...)
 222:.\Generated_Source\PSoC4/tinyprintf_1_printf.c **** 	{
 877              		.loc 1 222 0
 878              		.cfi_startproc
 879 0000 0FB4     		push	{r0, r1, r2, r3}
 880              	.LCFI21:
 881              		.cfi_def_cfa_offset 16
 882 0002 80B5     		push	{r7, lr}
 883              	.LCFI22:
 884              		.cfi_def_cfa_offset 24
 885              		.cfi_offset 7, -24
 886              		.cfi_offset 14, -20
 887 0004 82B0     		sub	sp, sp, #8
 888              	.LCFI23:
 889              		.cfi_def_cfa_offset 32
 890 0006 00AF     		add	r7, sp, #0
 891              	.LCFI24:
 892              		.cfi_def_cfa_register 7
 223:.\Generated_Source\PSoC4/tinyprintf_1_printf.c **** 	va_list va;
 224:.\Generated_Source\PSoC4/tinyprintf_1_printf.c **** 	va_start(va,fmt);
 893              		.loc 1 224 0
 894 0008 3B1C     		mov	r3, r7
 895 000a 1433     		add	r3, r3, #20
 896 000c 7B60     		str	r3, [r7, #4]
 225:.\Generated_Source\PSoC4/tinyprintf_1_printf.c **** 	tfp_format(stdout_putp,stdout_putf,fmt,va);
 897              		.loc 1 225 0
 898 000e 074B     		ldr	r3, .L58
 899 0010 1868     		ldr	r0, [r3]
 900 0012 074B     		ldr	r3, .L58+4
 901 0014 1968     		ldr	r1, [r3]
 902 0016 3A69     		ldr	r2, [r7, #16]
 903 0018 7B68     		ldr	r3, [r7, #4]
 904 001a FFF7FEFF 		bl	tfp_format
 226:.\Generated_Source\PSoC4/tinyprintf_1_printf.c **** 	va_end(va);
ARM GAS  C:\Users\Jared\AppData\Local\Temp\ccafwWyL.s 			page 21


 227:.\Generated_Source\PSoC4/tinyprintf_1_printf.c **** 	}
 905              		.loc 1 227 0
 906 001e BD46     		mov	sp, r7
 907 0020 02B0     		add	sp, sp, #8
 908              		@ sp needed for prologue
 909 0022 80BC     		pop	{r7}
 910 0024 08BC     		pop	{r3}
 911 0026 04B0     		add	sp, sp, #16
 912 0028 1847     		bx	r3
 913              	.L59:
 914 002a C046     		.align	2
 915              	.L58:
 916 002c 04000000 		.word	stdout_putp
 917 0030 00000000 		.word	stdout_putf
 918              		.cfi_endproc
 919              	.LFE7:
 920              		.size	tfp_printf, .-tfp_printf
 921              		.section	.text.putcp,"ax",%progbits
 922              		.align	2
 923              		.code	16
 924              		.thumb_func
 925              		.type	putcp, %function
 926              	putcp:
 927              	.LFB8:
 228:.\Generated_Source\PSoC4/tinyprintf_1_printf.c **** 
 229:.\Generated_Source\PSoC4/tinyprintf_1_printf.c **** static void putcp(void* p,char c)
 230:.\Generated_Source\PSoC4/tinyprintf_1_printf.c **** 	{
 928              		.loc 1 230 0
 929              		.cfi_startproc
 930 0000 80B5     		push	{r7, lr}
 931              	.LCFI25:
 932              		.cfi_def_cfa_offset 8
 933              		.cfi_offset 7, -8
 934              		.cfi_offset 14, -4
 935 0002 82B0     		sub	sp, sp, #8
 936              	.LCFI26:
 937              		.cfi_def_cfa_offset 16
 938 0004 00AF     		add	r7, sp, #0
 939              	.LCFI27:
 940              		.cfi_def_cfa_register 7
 941 0006 7860     		str	r0, [r7, #4]
 942 0008 0A1C     		mov	r2, r1
 943 000a FB1C     		add	r3, r7, #3
 944 000c 1A70     		strb	r2, [r3]
 231:.\Generated_Source\PSoC4/tinyprintf_1_printf.c **** 	*(*((char**)p))++ = c;
 945              		.loc 1 231 0
 946 000e 7B68     		ldr	r3, [r7, #4]
 947 0010 1B68     		ldr	r3, [r3]
 948 0012 FA1C     		add	r2, r7, #3
 949 0014 1278     		ldrb	r2, [r2]
 950 0016 1A70     		strb	r2, [r3]
 951 0018 5A1C     		add	r2, r3, #1
 952 001a 7B68     		ldr	r3, [r7, #4]
 953 001c 1A60     		str	r2, [r3]
 232:.\Generated_Source\PSoC4/tinyprintf_1_printf.c **** 	}
 954              		.loc 1 232 0
 955 001e BD46     		mov	sp, r7
ARM GAS  C:\Users\Jared\AppData\Local\Temp\ccafwWyL.s 			page 22


 956 0020 02B0     		add	sp, sp, #8
 957              		@ sp needed for prologue
 958 0022 80BD     		pop	{r7, pc}
 959              		.cfi_endproc
 960              	.LFE8:
 961              		.size	putcp, .-putcp
 962              		.section	.text.tfp_sprintf,"ax",%progbits
 963              		.align	2
 964              		.global	tfp_sprintf
 965              		.code	16
 966              		.thumb_func
 967              		.type	tfp_sprintf, %function
 968              	tfp_sprintf:
 969              	.LFB9:
 233:.\Generated_Source\PSoC4/tinyprintf_1_printf.c **** 
 234:.\Generated_Source\PSoC4/tinyprintf_1_printf.c **** 
 235:.\Generated_Source\PSoC4/tinyprintf_1_printf.c **** 
 236:.\Generated_Source\PSoC4/tinyprintf_1_printf.c **** void tfp_sprintf(char* s,char *fmt, ...)
 237:.\Generated_Source\PSoC4/tinyprintf_1_printf.c **** 	{
 970              		.loc 1 237 0
 971              		.cfi_startproc
 972 0000 0EB4     		push	{r1, r2, r3}
 973              	.LCFI28:
 974              		.cfi_def_cfa_offset 12
 975 0002 80B5     		push	{r7, lr}
 976              	.LCFI29:
 977              		.cfi_def_cfa_offset 20
 978              		.cfi_offset 7, -20
 979              		.cfi_offset 14, -16
 980 0004 85B0     		sub	sp, sp, #20
 981              	.LCFI30:
 982              		.cfi_def_cfa_offset 40
 983 0006 00AF     		add	r7, sp, #0
 984              	.LCFI31:
 985              		.cfi_def_cfa_register 7
 986 0008 7860     		str	r0, [r7, #4]
 238:.\Generated_Source\PSoC4/tinyprintf_1_printf.c **** 	va_list va;
 239:.\Generated_Source\PSoC4/tinyprintf_1_printf.c **** 	va_start(va,fmt);
 987              		.loc 1 239 0
 988 000a 3B1C     		mov	r3, r7
 989 000c 2033     		add	r3, r3, #32
 990 000e FB60     		str	r3, [r7, #12]
 240:.\Generated_Source\PSoC4/tinyprintf_1_printf.c **** 	tfp_format(&s,putcp,fmt,va);
 991              		.loc 1 240 0
 992 0010 381D     		add	r0, r7, #4
 993 0012 0849     		ldr	r1, .L62
 994 0014 FA69     		ldr	r2, [r7, #28]
 995 0016 FB68     		ldr	r3, [r7, #12]
 996 0018 FFF7FEFF 		bl	tfp_format
 241:.\Generated_Source\PSoC4/tinyprintf_1_printf.c **** 	putcp(&s,0);
 997              		.loc 1 241 0
 998 001c 3B1D     		add	r3, r7, #4
 999 001e 181C     		mov	r0, r3
 1000 0020 0021     		mov	r1, #0
 1001 0022 FFF7FEFF 		bl	putcp
 242:.\Generated_Source\PSoC4/tinyprintf_1_printf.c **** 	va_end(va);
 243:.\Generated_Source\PSoC4/tinyprintf_1_printf.c **** 	}
ARM GAS  C:\Users\Jared\AppData\Local\Temp\ccafwWyL.s 			page 23


 1002              		.loc 1 243 0
 1003 0026 BD46     		mov	sp, r7
 1004 0028 05B0     		add	sp, sp, #20
 1005              		@ sp needed for prologue
 1006 002a 80BC     		pop	{r7}
 1007 002c 08BC     		pop	{r3}
 1008 002e 03B0     		add	sp, sp, #12
 1009 0030 1847     		bx	r3
 1010              	.L63:
 1011 0032 C046     		.align	2
 1012              	.L62:
 1013 0034 00000000 		.word	putcp
 1014              		.cfi_endproc
 1015              	.LFE9:
 1016              		.size	tfp_sprintf, .-tfp_sprintf
 1017              		.text
 1018              	.Letext0:
 1019              		.file 2 "c:\\program files (x86)\\cypress\\psoc creator\\3.0\\psoc creator\\import\\gnu_cs\\arm\\4
 1020              		.file 3 "<built-in>"