ARM GAS  C:\Users\Steve\AppData\Local\Temp\ccueVkUZ.s 			page 1


   1              		.cpu cortex-m0
   2              		.fpu softvfp
   3              		.eabi_attribute 20, 1
   4              		.eabi_attribute 21, 1
   5              		.eabi_attribute 23, 3
   6              		.eabi_attribute 24, 1
   7              		.eabi_attribute 25, 1
   8              		.eabi_attribute 26, 1
   9              		.eabi_attribute 30, 6
  10              		.eabi_attribute 34, 0
  11              		.eabi_attribute 18, 4
  12              		.code	16
  13              		.file	"cyfitter_cfg.c"
  14              		.text
  15              	.Ltext0:
  16              		.cfi_sections	.debug_frame
  17              		.section	.text.CYMEMZERO,"ax",%progbits
  18              		.align	2
  19              		.code	16
  20              		.thumb_func
  21              		.type	CYMEMZERO, %function
  22              	CYMEMZERO:
  23              	.LFB0:
  24              		.file 1 ".\\Generated_Source\\PSoC4\\cyfitter_cfg.c"
   1:.\Generated_Source\PSoC4/cyfitter_cfg.c **** /*******************************************************************************
   2:.\Generated_Source\PSoC4/cyfitter_cfg.c **** * FILENAME: cyfitter_cfg.c
   3:.\Generated_Source\PSoC4/cyfitter_cfg.c **** * PSoC Creator 3.0 SP2
   4:.\Generated_Source\PSoC4/cyfitter_cfg.c **** *
   5:.\Generated_Source\PSoC4/cyfitter_cfg.c **** * Description:
   6:.\Generated_Source\PSoC4/cyfitter_cfg.c **** * This file is automatically generated by PSoC Creator with device 
   7:.\Generated_Source\PSoC4/cyfitter_cfg.c **** * initialization code.  Except for the user defined sections in
   8:.\Generated_Source\PSoC4/cyfitter_cfg.c **** * CyClockStartupError(), this file should not be modified.
   9:.\Generated_Source\PSoC4/cyfitter_cfg.c **** *
  10:.\Generated_Source\PSoC4/cyfitter_cfg.c **** ********************************************************************************
  11:.\Generated_Source\PSoC4/cyfitter_cfg.c **** * Copyright 2013, Cypress Semiconductor Corporation.  All rights reserved.
  12:.\Generated_Source\PSoC4/cyfitter_cfg.c **** * You may use this file only in accordance with the license, terms, conditions, 
  13:.\Generated_Source\PSoC4/cyfitter_cfg.c **** * disclaimers, and limitations in the end user license agreement accompanying 
  14:.\Generated_Source\PSoC4/cyfitter_cfg.c **** * the software package with which this file was provided.
  15:.\Generated_Source\PSoC4/cyfitter_cfg.c **** ********************************************************************************/
  16:.\Generated_Source\PSoC4/cyfitter_cfg.c **** 
  17:.\Generated_Source\PSoC4/cyfitter_cfg.c **** #include <string.h>
  18:.\Generated_Source\PSoC4/cyfitter_cfg.c **** #include <cytypes.h>
  19:.\Generated_Source\PSoC4/cyfitter_cfg.c **** #include <cydevice_trm.h>
  20:.\Generated_Source\PSoC4/cyfitter_cfg.c **** #include <cyfitter.h>
  21:.\Generated_Source\PSoC4/cyfitter_cfg.c **** #include <CyLib.h>
  22:.\Generated_Source\PSoC4/cyfitter_cfg.c **** #include <cyfitter_cfg.h>
  23:.\Generated_Source\PSoC4/cyfitter_cfg.c **** 
  24:.\Generated_Source\PSoC4/cyfitter_cfg.c **** 
  25:.\Generated_Source\PSoC4/cyfitter_cfg.c **** #if defined(__GNUC__) || defined(__ARMCC_VERSION)
  26:.\Generated_Source\PSoC4/cyfitter_cfg.c ****     #define CYPACKED 
  27:.\Generated_Source\PSoC4/cyfitter_cfg.c ****     #define CYPACKED_ATTR __attribute__ ((packed))
  28:.\Generated_Source\PSoC4/cyfitter_cfg.c ****     #define CYALIGNED __attribute__ ((aligned))
  29:.\Generated_Source\PSoC4/cyfitter_cfg.c ****     #define CY_CFG_UNUSED __attribute__ ((unused))
  30:.\Generated_Source\PSoC4/cyfitter_cfg.c ****     #define CY_CFG_SECTION __attribute__ ((section(".psocinit")))
  31:.\Generated_Source\PSoC4/cyfitter_cfg.c ****     
  32:.\Generated_Source\PSoC4/cyfitter_cfg.c ****     #if defined(__ARMCC_VERSION)
  33:.\Generated_Source\PSoC4/cyfitter_cfg.c ****         #define CY_CFG_MEMORY_BARRIER() __memory_changed()
ARM GAS  C:\Users\Steve\AppData\Local\Temp\ccueVkUZ.s 			page 2


  34:.\Generated_Source\PSoC4/cyfitter_cfg.c ****     #else
  35:.\Generated_Source\PSoC4/cyfitter_cfg.c ****         #define CY_CFG_MEMORY_BARRIER() __sync_synchronize()
  36:.\Generated_Source\PSoC4/cyfitter_cfg.c ****     #endif
  37:.\Generated_Source\PSoC4/cyfitter_cfg.c ****     
  38:.\Generated_Source\PSoC4/cyfitter_cfg.c **** #elif defined(__ICCARM__)
  39:.\Generated_Source\PSoC4/cyfitter_cfg.c ****     #include <intrinsics.h>
  40:.\Generated_Source\PSoC4/cyfitter_cfg.c **** 
  41:.\Generated_Source\PSoC4/cyfitter_cfg.c ****     #define CYPACKED __packed
  42:.\Generated_Source\PSoC4/cyfitter_cfg.c ****     #define CYPACKED_ATTR 
  43:.\Generated_Source\PSoC4/cyfitter_cfg.c ****     #define CYALIGNED _Pragma("data_alignment=4")
  44:.\Generated_Source\PSoC4/cyfitter_cfg.c ****     #define CY_CFG_UNUSED _Pragma("diag_suppress=Pe177")
  45:.\Generated_Source\PSoC4/cyfitter_cfg.c ****     #define CY_CFG_SECTION _Pragma("location=\".psocinit\"")
  46:.\Generated_Source\PSoC4/cyfitter_cfg.c ****     
  47:.\Generated_Source\PSoC4/cyfitter_cfg.c ****     #define CY_CFG_MEMORY_BARRIER() __DMB()
  48:.\Generated_Source\PSoC4/cyfitter_cfg.c ****     
  49:.\Generated_Source\PSoC4/cyfitter_cfg.c **** #else
  50:.\Generated_Source\PSoC4/cyfitter_cfg.c ****     #error Unsupported toolchain
  51:.\Generated_Source\PSoC4/cyfitter_cfg.c **** #endif
  52:.\Generated_Source\PSoC4/cyfitter_cfg.c **** 
  53:.\Generated_Source\PSoC4/cyfitter_cfg.c **** 
  54:.\Generated_Source\PSoC4/cyfitter_cfg.c **** CY_CFG_UNUSED
  55:.\Generated_Source\PSoC4/cyfitter_cfg.c **** static void CYMEMZERO(void *s, size_t n);
  56:.\Generated_Source\PSoC4/cyfitter_cfg.c **** CY_CFG_UNUSED
  57:.\Generated_Source\PSoC4/cyfitter_cfg.c **** static void CYMEMZERO(void *s, size_t n)
  58:.\Generated_Source\PSoC4/cyfitter_cfg.c **** {
  25              		.loc 1 58 0
  26              		.cfi_startproc
  27 0000 80B5     		push	{r7, lr}
  28              	.LCFI0:
  29              		.cfi_def_cfa_offset 8
  30              		.cfi_offset 7, -8
  31              		.cfi_offset 14, -4
  32 0002 82B0     		sub	sp, sp, #8
  33              	.LCFI1:
  34              		.cfi_def_cfa_offset 16
  35 0004 00AF     		add	r7, sp, #0
  36              	.LCFI2:
  37              		.cfi_def_cfa_register 7
  38 0006 7860     		str	r0, [r7, #4]
  39 0008 3960     		str	r1, [r7]
  59:.\Generated_Source\PSoC4/cyfitter_cfg.c **** 	(void)memset(s, 0, n);
  40              		.loc 1 59 0
  41 000a 7A68     		ldr	r2, [r7, #4]
  42 000c 3B68     		ldr	r3, [r7]
  43 000e 101C     		mov	r0, r2
  44 0010 0021     		mov	r1, #0
  45 0012 1A1C     		mov	r2, r3
  46 0014 FFF7FEFF 		bl	memset
  60:.\Generated_Source\PSoC4/cyfitter_cfg.c **** }
  47              		.loc 1 60 0
  48 0018 BD46     		mov	sp, r7
  49 001a 02B0     		add	sp, sp, #8
  50              		@ sp needed for prologue
  51 001c 80BD     		pop	{r7, pc}
  52              		.cfi_endproc
  53              	.LFE0:
  54              		.size	CYMEMZERO, .-CYMEMZERO
ARM GAS  C:\Users\Steve\AppData\Local\Temp\ccueVkUZ.s 			page 3


  55 001e C046     		.section	.text.CYCONFIGCPY,"ax",%progbits
  56              		.align	2
  57              		.code	16
  58              		.thumb_func
  59              		.type	CYCONFIGCPY, %function
  60              	CYCONFIGCPY:
  61              	.LFB1:
  61:.\Generated_Source\PSoC4/cyfitter_cfg.c **** CY_CFG_UNUSED
  62:.\Generated_Source\PSoC4/cyfitter_cfg.c **** static void CYCONFIGCPY(void *dest, const void *src, size_t n);
  63:.\Generated_Source\PSoC4/cyfitter_cfg.c **** CY_CFG_UNUSED
  64:.\Generated_Source\PSoC4/cyfitter_cfg.c **** static void CYCONFIGCPY(void *dest, const void *src, size_t n)
  65:.\Generated_Source\PSoC4/cyfitter_cfg.c **** {
  62              		.loc 1 65 0
  63              		.cfi_startproc
  64 0000 80B5     		push	{r7, lr}
  65              	.LCFI3:
  66              		.cfi_def_cfa_offset 8
  67              		.cfi_offset 7, -8
  68              		.cfi_offset 14, -4
  69 0002 84B0     		sub	sp, sp, #16
  70              	.LCFI4:
  71              		.cfi_def_cfa_offset 24
  72 0004 00AF     		add	r7, sp, #0
  73              	.LCFI5:
  74              		.cfi_def_cfa_register 7
  75 0006 F860     		str	r0, [r7, #12]
  76 0008 B960     		str	r1, [r7, #8]
  77 000a 7A60     		str	r2, [r7, #4]
  66:.\Generated_Source\PSoC4/cyfitter_cfg.c **** 	(void)memcpy(dest, src, n);
  78              		.loc 1 66 0
  79 000c F968     		ldr	r1, [r7, #12]
  80 000e BA68     		ldr	r2, [r7, #8]
  81 0010 7B68     		ldr	r3, [r7, #4]
  82 0012 081C     		mov	r0, r1
  83 0014 111C     		mov	r1, r2
  84 0016 1A1C     		mov	r2, r3
  85 0018 FFF7FEFF 		bl	memcpy
  67:.\Generated_Source\PSoC4/cyfitter_cfg.c **** }
  86              		.loc 1 67 0
  87 001c BD46     		mov	sp, r7
  88 001e 04B0     		add	sp, sp, #16
  89              		@ sp needed for prologue
  90 0020 80BD     		pop	{r7, pc}
  91              		.cfi_endproc
  92              	.LFE1:
  93              		.size	CYCONFIGCPY, .-CYCONFIGCPY
  94 0022 C046     		.section	.text.CYCONFIGCPYCODE,"ax",%progbits
  95              		.align	2
  96              		.code	16
  97              		.thumb_func
  98              		.type	CYCONFIGCPYCODE, %function
  99              	CYCONFIGCPYCODE:
 100              	.LFB2:
  68:.\Generated_Source\PSoC4/cyfitter_cfg.c **** CY_CFG_UNUSED
  69:.\Generated_Source\PSoC4/cyfitter_cfg.c **** static void CYCONFIGCPYCODE(void *dest, const void *src, size_t n);
  70:.\Generated_Source\PSoC4/cyfitter_cfg.c **** CY_CFG_UNUSED
  71:.\Generated_Source\PSoC4/cyfitter_cfg.c **** static void CYCONFIGCPYCODE(void *dest, const void *src, size_t n)
ARM GAS  C:\Users\Steve\AppData\Local\Temp\ccueVkUZ.s 			page 4


  72:.\Generated_Source\PSoC4/cyfitter_cfg.c **** {
 101              		.loc 1 72 0
 102              		.cfi_startproc
 103 0000 80B5     		push	{r7, lr}
 104              	.LCFI6:
 105              		.cfi_def_cfa_offset 8
 106              		.cfi_offset 7, -8
 107              		.cfi_offset 14, -4
 108 0002 84B0     		sub	sp, sp, #16
 109              	.LCFI7:
 110              		.cfi_def_cfa_offset 24
 111 0004 00AF     		add	r7, sp, #0
 112              	.LCFI8:
 113              		.cfi_def_cfa_register 7
 114 0006 F860     		str	r0, [r7, #12]
 115 0008 B960     		str	r1, [r7, #8]
 116 000a 7A60     		str	r2, [r7, #4]
  73:.\Generated_Source\PSoC4/cyfitter_cfg.c **** 	(void)memcpy(dest, src, n);
 117              		.loc 1 73 0
 118 000c F968     		ldr	r1, [r7, #12]
 119 000e BA68     		ldr	r2, [r7, #8]
 120 0010 7B68     		ldr	r3, [r7, #4]
 121 0012 081C     		mov	r0, r1
 122 0014 111C     		mov	r1, r2
 123 0016 1A1C     		mov	r2, r3
 124 0018 FFF7FEFF 		bl	memcpy
  74:.\Generated_Source\PSoC4/cyfitter_cfg.c **** }
 125              		.loc 1 74 0
 126 001c BD46     		mov	sp, r7
 127 001e 04B0     		add	sp, sp, #16
 128              		@ sp needed for prologue
 129 0020 80BD     		pop	{r7, pc}
 130              		.cfi_endproc
 131              	.LFE2:
 132              		.size	CYCONFIGCPYCODE, .-CYCONFIGCPYCODE
 133 0022 C046     		.section	.text.cfg_write_bytes32,"ax",%progbits
 134              		.align	2
 135              		.code	16
 136              		.thumb_func
 137              		.type	cfg_write_bytes32, %function
 138              	cfg_write_bytes32:
 139              	.LFB3:
  75:.\Generated_Source\PSoC4/cyfitter_cfg.c **** 
  76:.\Generated_Source\PSoC4/cyfitter_cfg.c **** 
  77:.\Generated_Source\PSoC4/cyfitter_cfg.c **** 
  78:.\Generated_Source\PSoC4/cyfitter_cfg.c **** /* Clock startup error codes                                                   */
  79:.\Generated_Source\PSoC4/cyfitter_cfg.c **** #define CYCLOCKSTART_NO_ERROR    0u
  80:.\Generated_Source\PSoC4/cyfitter_cfg.c **** #define CYCLOCKSTART_XTAL_ERROR  1u
  81:.\Generated_Source\PSoC4/cyfitter_cfg.c **** #define CYCLOCKSTART_32KHZ_ERROR 2u
  82:.\Generated_Source\PSoC4/cyfitter_cfg.c **** #define CYCLOCKSTART_PLL_ERROR   3u
  83:.\Generated_Source\PSoC4/cyfitter_cfg.c **** 
  84:.\Generated_Source\PSoC4/cyfitter_cfg.c **** #ifdef CY_NEED_CYCLOCKSTARTUPERROR
  85:.\Generated_Source\PSoC4/cyfitter_cfg.c **** /*******************************************************************************
  86:.\Generated_Source\PSoC4/cyfitter_cfg.c **** * Function Name: CyClockStartupError
  87:.\Generated_Source\PSoC4/cyfitter_cfg.c **** ********************************************************************************
  88:.\Generated_Source\PSoC4/cyfitter_cfg.c **** * Summary:
  89:.\Generated_Source\PSoC4/cyfitter_cfg.c **** *  If an error is encountered during clock configuration (crystal startup error,
ARM GAS  C:\Users\Steve\AppData\Local\Temp\ccueVkUZ.s 			page 5


  90:.\Generated_Source\PSoC4/cyfitter_cfg.c **** *  PLL lock error, etc.), the system will end up here.  Unless reimplemented by
  91:.\Generated_Source\PSoC4/cyfitter_cfg.c **** *  the customer, this function will stop in an infinite loop.
  92:.\Generated_Source\PSoC4/cyfitter_cfg.c **** *
  93:.\Generated_Source\PSoC4/cyfitter_cfg.c **** * Parameters:
  94:.\Generated_Source\PSoC4/cyfitter_cfg.c **** *   void
  95:.\Generated_Source\PSoC4/cyfitter_cfg.c **** *
  96:.\Generated_Source\PSoC4/cyfitter_cfg.c **** * Return:
  97:.\Generated_Source\PSoC4/cyfitter_cfg.c **** *   void
  98:.\Generated_Source\PSoC4/cyfitter_cfg.c **** *
  99:.\Generated_Source\PSoC4/cyfitter_cfg.c **** *******************************************************************************/
 100:.\Generated_Source\PSoC4/cyfitter_cfg.c **** CY_CFG_UNUSED
 101:.\Generated_Source\PSoC4/cyfitter_cfg.c **** static void CyClockStartupError(uint8 errorCode);
 102:.\Generated_Source\PSoC4/cyfitter_cfg.c **** CY_CFG_UNUSED
 103:.\Generated_Source\PSoC4/cyfitter_cfg.c **** static void CyClockStartupError(uint8 errorCode)
 104:.\Generated_Source\PSoC4/cyfitter_cfg.c **** {
 105:.\Generated_Source\PSoC4/cyfitter_cfg.c ****     /* To remove the compiler warning if errorCode not used.                */
 106:.\Generated_Source\PSoC4/cyfitter_cfg.c ****     errorCode = errorCode;
 107:.\Generated_Source\PSoC4/cyfitter_cfg.c **** 
 108:.\Generated_Source\PSoC4/cyfitter_cfg.c ****     /* `#START CyClockStartupError` */
 109:.\Generated_Source\PSoC4/cyfitter_cfg.c **** 
 110:.\Generated_Source\PSoC4/cyfitter_cfg.c ****     /* If we have a clock startup error (bad MHz crystal, PLL lock, etc.),  */
 111:.\Generated_Source\PSoC4/cyfitter_cfg.c ****     /* we will end up here to allow the customer to implement something to  */
 112:.\Generated_Source\PSoC4/cyfitter_cfg.c ****     /* deal with the clock condition.                                       */
 113:.\Generated_Source\PSoC4/cyfitter_cfg.c **** 
 114:.\Generated_Source\PSoC4/cyfitter_cfg.c ****     /* `#END` */
 115:.\Generated_Source\PSoC4/cyfitter_cfg.c **** 
 116:.\Generated_Source\PSoC4/cyfitter_cfg.c ****     /* If nothing else, stop here since the clocks have not started         */
 117:.\Generated_Source\PSoC4/cyfitter_cfg.c ****     /* correctly.                                                           */
 118:.\Generated_Source\PSoC4/cyfitter_cfg.c ****     while(1) {}
 119:.\Generated_Source\PSoC4/cyfitter_cfg.c **** }
 120:.\Generated_Source\PSoC4/cyfitter_cfg.c **** #endif
 121:.\Generated_Source\PSoC4/cyfitter_cfg.c **** 
 122:.\Generated_Source\PSoC4/cyfitter_cfg.c **** #define CY_CFG_BASE_ADDR_COUNT 8u
 123:.\Generated_Source\PSoC4/cyfitter_cfg.c **** CYPACKED typedef struct
 124:.\Generated_Source\PSoC4/cyfitter_cfg.c **** {
 125:.\Generated_Source\PSoC4/cyfitter_cfg.c **** 	uint8 offset;
 126:.\Generated_Source\PSoC4/cyfitter_cfg.c **** 	uint8 value;
 127:.\Generated_Source\PSoC4/cyfitter_cfg.c **** } CYPACKED_ATTR cy_cfg_addrvalue_t;
 128:.\Generated_Source\PSoC4/cyfitter_cfg.c **** 
 129:.\Generated_Source\PSoC4/cyfitter_cfg.c **** 
 130:.\Generated_Source\PSoC4/cyfitter_cfg.c **** 
 131:.\Generated_Source\PSoC4/cyfitter_cfg.c **** /*******************************************************************************
 132:.\Generated_Source\PSoC4/cyfitter_cfg.c **** * Function Name: cfg_write_bytes32
 133:.\Generated_Source\PSoC4/cyfitter_cfg.c **** ********************************************************************************
 134:.\Generated_Source\PSoC4/cyfitter_cfg.c **** * Summary:
 135:.\Generated_Source\PSoC4/cyfitter_cfg.c **** *  This function is used for setting up the chip configuration areas that
 136:.\Generated_Source\PSoC4/cyfitter_cfg.c **** *  contain relatively sparse data.
 137:.\Generated_Source\PSoC4/cyfitter_cfg.c **** *
 138:.\Generated_Source\PSoC4/cyfitter_cfg.c **** * Parameters:
 139:.\Generated_Source\PSoC4/cyfitter_cfg.c **** *   void
 140:.\Generated_Source\PSoC4/cyfitter_cfg.c **** *
 141:.\Generated_Source\PSoC4/cyfitter_cfg.c **** * Return:
 142:.\Generated_Source\PSoC4/cyfitter_cfg.c **** *   void
 143:.\Generated_Source\PSoC4/cyfitter_cfg.c **** *
 144:.\Generated_Source\PSoC4/cyfitter_cfg.c **** *******************************************************************************/
 145:.\Generated_Source\PSoC4/cyfitter_cfg.c **** static void cfg_write_bytes32(const uint32 addr_table[], const cy_cfg_addrvalue_t data_table[]);
 146:.\Generated_Source\PSoC4/cyfitter_cfg.c **** static void cfg_write_bytes32(const uint32 addr_table[], const cy_cfg_addrvalue_t data_table[])
ARM GAS  C:\Users\Steve\AppData\Local\Temp\ccueVkUZ.s 			page 6


 147:.\Generated_Source\PSoC4/cyfitter_cfg.c **** {
 140              		.loc 1 147 0
 141              		.cfi_startproc
 142 0000 80B5     		push	{r7, lr}
 143              	.LCFI9:
 144              		.cfi_def_cfa_offset 8
 145              		.cfi_offset 7, -8
 146              		.cfi_offset 14, -4
 147 0002 86B0     		sub	sp, sp, #24
 148              	.LCFI10:
 149              		.cfi_def_cfa_offset 32
 150 0004 00AF     		add	r7, sp, #0
 151              	.LCFI11:
 152              		.cfi_def_cfa_register 7
 153 0006 7860     		str	r0, [r7, #4]
 154 0008 3960     		str	r1, [r7]
 148:.\Generated_Source\PSoC4/cyfitter_cfg.c **** 	/* For 32-bit little-endian architectures */
 149:.\Generated_Source\PSoC4/cyfitter_cfg.c **** 	uint32 i, j = 0u;
 155              		.loc 1 149 0
 156 000a 0023     		mov	r3, #0
 157 000c 3B61     		str	r3, [r7, #16]
 150:.\Generated_Source\PSoC4/cyfitter_cfg.c **** 	for (i = 0u; i < CY_CFG_BASE_ADDR_COUNT; i++)
 158              		.loc 1 150 0
 159 000e 0023     		mov	r3, #0
 160 0010 7B61     		str	r3, [r7, #20]
 161 0012 2EE0     		b	.L5
 162              	.L8:
 163              	.LBB2:
 151:.\Generated_Source\PSoC4/cyfitter_cfg.c **** 	{
 152:.\Generated_Source\PSoC4/cyfitter_cfg.c **** 		uint32 baseAddr = addr_table[i];
 164              		.loc 1 152 0
 165 0014 7B69     		ldr	r3, [r7, #20]
 166 0016 9B00     		lsl	r3, r3, #2
 167 0018 7A68     		ldr	r2, [r7, #4]
 168 001a D318     		add	r3, r2, r3
 169 001c 1B68     		ldr	r3, [r3]
 170 001e BB60     		str	r3, [r7, #8]
 153:.\Generated_Source\PSoC4/cyfitter_cfg.c **** 		uint8 count = (uint8)baseAddr;
 171              		.loc 1 153 0
 172 0020 3B1C     		mov	r3, r7
 173 0022 0F33     		add	r3, r3, #15
 174 0024 BA68     		ldr	r2, [r7, #8]
 175 0026 1A70     		strb	r2, [r3]
 154:.\Generated_Source\PSoC4/cyfitter_cfg.c **** 		baseAddr &= 0xFFFFFF00u;
 176              		.loc 1 154 0
 177 0028 BB68     		ldr	r3, [r7, #8]
 178 002a FF22     		mov	r2, #255
 179 002c 9343     		bic	r3, r2
 180 002e BB60     		str	r3, [r7, #8]
 155:.\Generated_Source\PSoC4/cyfitter_cfg.c **** 		while (count != 0u)
 181              		.loc 1 155 0
 182 0030 17E0     		b	.L6
 183              	.L7:
 156:.\Generated_Source\PSoC4/cyfitter_cfg.c **** 		{
 157:.\Generated_Source\PSoC4/cyfitter_cfg.c **** 			CY_SET_XTND_REG8((void CYFAR *)(baseAddr + data_table[j].offset), data_table[j].value);
 184              		.loc 1 157 0
 185 0032 3B69     		ldr	r3, [r7, #16]
ARM GAS  C:\Users\Steve\AppData\Local\Temp\ccueVkUZ.s 			page 7


 186 0034 5B00     		lsl	r3, r3, #1
 187 0036 3A68     		ldr	r2, [r7]
 188 0038 D318     		add	r3, r2, r3
 189 003a 1B78     		ldrb	r3, [r3]
 190 003c 1A1C     		mov	r2, r3
 191 003e BB68     		ldr	r3, [r7, #8]
 192 0040 D318     		add	r3, r2, r3
 193 0042 3A69     		ldr	r2, [r7, #16]
 194 0044 5200     		lsl	r2, r2, #1
 195 0046 3968     		ldr	r1, [r7]
 196 0048 8A18     		add	r2, r1, r2
 197 004a 5278     		ldrb	r2, [r2, #1]
 198 004c 1A70     		strb	r2, [r3]
 158:.\Generated_Source\PSoC4/cyfitter_cfg.c **** 			j++;
 199              		.loc 1 158 0
 200 004e 3B69     		ldr	r3, [r7, #16]
 201 0050 0133     		add	r3, r3, #1
 202 0052 3B61     		str	r3, [r7, #16]
 159:.\Generated_Source\PSoC4/cyfitter_cfg.c **** 			count--;
 203              		.loc 1 159 0
 204 0054 3B1C     		mov	r3, r7
 205 0056 0F33     		add	r3, r3, #15
 206 0058 3A1C     		mov	r2, r7
 207 005a 0F32     		add	r2, r2, #15
 208 005c 1278     		ldrb	r2, [r2]
 209 005e 013A     		sub	r2, r2, #1
 210 0060 1A70     		strb	r2, [r3]
 211              	.L6:
 155:.\Generated_Source\PSoC4/cyfitter_cfg.c **** 		while (count != 0u)
 212              		.loc 1 155 0 discriminator 1
 213 0062 3B1C     		mov	r3, r7
 214 0064 0F33     		add	r3, r3, #15
 215 0066 1B78     		ldrb	r3, [r3]
 216 0068 002B     		cmp	r3, #0
 217 006a E2D1     		bne	.L7
 218              	.LBE2:
 150:.\Generated_Source\PSoC4/cyfitter_cfg.c **** 	for (i = 0u; i < CY_CFG_BASE_ADDR_COUNT; i++)
 219              		.loc 1 150 0
 220 006c 7B69     		ldr	r3, [r7, #20]
 221 006e 0133     		add	r3, r3, #1
 222 0070 7B61     		str	r3, [r7, #20]
 223              	.L5:
 150:.\Generated_Source\PSoC4/cyfitter_cfg.c **** 	for (i = 0u; i < CY_CFG_BASE_ADDR_COUNT; i++)
 224              		.loc 1 150 0 is_stmt 0 discriminator 1
 225 0072 7B69     		ldr	r3, [r7, #20]
 226 0074 072B     		cmp	r3, #7
 227 0076 CDD9     		bls	.L8
 160:.\Generated_Source\PSoC4/cyfitter_cfg.c **** 		}
 161:.\Generated_Source\PSoC4/cyfitter_cfg.c **** 	}
 162:.\Generated_Source\PSoC4/cyfitter_cfg.c **** }
 228              		.loc 1 162 0 is_stmt 1
 229 0078 BD46     		mov	sp, r7
 230 007a 06B0     		add	sp, sp, #24
 231              		@ sp needed for prologue
 232 007c 80BD     		pop	{r7, pc}
 233              		.cfi_endproc
 234              	.LFE3:
ARM GAS  C:\Users\Steve\AppData\Local\Temp\ccueVkUZ.s 			page 8


 235              		.size	cfg_write_bytes32, .-cfg_write_bytes32
 236 007e C046     		.section	.psocinit,"ax",%progbits
 237              		.align	2
 238              		.code	16
 239              		.thumb_func
 240              		.type	SetIMOBGTrims, %function
 241              	SetIMOBGTrims:
 242              	.LFB4:
 163:.\Generated_Source\PSoC4/cyfitter_cfg.c **** 
 164:.\Generated_Source\PSoC4/cyfitter_cfg.c **** /*******************************************************************************
 165:.\Generated_Source\PSoC4/cyfitter_cfg.c **** * Function Name: SetIMOBGTrims
 166:.\Generated_Source\PSoC4/cyfitter_cfg.c **** ********************************************************************************
 167:.\Generated_Source\PSoC4/cyfitter_cfg.c **** *
 168:.\Generated_Source\PSoC4/cyfitter_cfg.c **** * Summary:
 169:.\Generated_Source\PSoC4/cyfitter_cfg.c **** *   Performs the configuration of the bandgap trim for the IMO based on the given
 170:.\Generated_Source\PSoC4/cyfitter_cfg.c **** *   expected frequency of the IMO. 
 171:.\Generated_Source\PSoC4/cyfitter_cfg.c **** *
 172:.\Generated_Source\PSoC4/cyfitter_cfg.c **** * Parameters:
 173:.\Generated_Source\PSoC4/cyfitter_cfg.c **** *   imoFreq: Frequency for operation of the IMO.
 174:.\Generated_Source\PSoC4/cyfitter_cfg.c **** *
 175:.\Generated_Source\PSoC4/cyfitter_cfg.c **** * Return:
 176:.\Generated_Source\PSoC4/cyfitter_cfg.c **** *   void
 177:.\Generated_Source\PSoC4/cyfitter_cfg.c **** *
 178:.\Generated_Source\PSoC4/cyfitter_cfg.c **** *******************************************************************************/
 179:.\Generated_Source\PSoC4/cyfitter_cfg.c **** static void SetIMOBGTrims(uint8 imoFreq);
 180:.\Generated_Source\PSoC4/cyfitter_cfg.c **** CY_CFG_SECTION
 181:.\Generated_Source\PSoC4/cyfitter_cfg.c **** static void SetIMOBGTrims(uint8 imoFreq)
 182:.\Generated_Source\PSoC4/cyfitter_cfg.c **** {
 243              		.loc 1 182 0
 244              		.cfi_startproc
 245 0000 80B5     		push	{r7, lr}
 246              	.LCFI12:
 247              		.cfi_def_cfa_offset 8
 248              		.cfi_offset 7, -8
 249              		.cfi_offset 14, -4
 250 0002 84B0     		sub	sp, sp, #16
 251              	.LCFI13:
 252              		.cfi_def_cfa_offset 24
 253 0004 00AF     		add	r7, sp, #0
 254              	.LCFI14:
 255              		.cfi_def_cfa_register 7
 256 0006 021C     		mov	r2, r0
 257 0008 FB1D     		add	r3, r7, #7
 258 000a 1A70     		strb	r2, [r3]
 183:.\Generated_Source\PSoC4/cyfitter_cfg.c **** 	CYPACKED typedef struct {
 184:.\Generated_Source\PSoC4/cyfitter_cfg.c **** 		uint8 freq;
 185:.\Generated_Source\PSoC4/cyfitter_cfg.c **** 		uint8 absolute;
 186:.\Generated_Source\PSoC4/cyfitter_cfg.c **** 		uint8 tmpco;
 187:.\Generated_Source\PSoC4/cyfitter_cfg.c **** 	} CYPACKED_ATTR imo_trim_entry_t;
 188:.\Generated_Source\PSoC4/cyfitter_cfg.c **** 
 189:.\Generated_Source\PSoC4/cyfitter_cfg.c **** 	CYPACKED typedef struct {
 190:.\Generated_Source\PSoC4/cyfitter_cfg.c **** 		imo_trim_entry_t entries[4];
 191:.\Generated_Source\PSoC4/cyfitter_cfg.c **** 	} CYPACKED_ATTR imo_trim_table_t;
 192:.\Generated_Source\PSoC4/cyfitter_cfg.c **** 
 193:.\Generated_Source\PSoC4/cyfitter_cfg.c **** 	static const imo_trim_table_t *imo_trim_table = (const imo_trim_table_t *)CYREG_SFLASH_IMO_MAXF0;
 194:.\Generated_Source\PSoC4/cyfitter_cfg.c **** 	static const uint32 IMO_TRIM_FREQ_TABLE_ENTRIES = sizeof(imo_trim_table->entries)/sizeof(imo_trim_
 195:.\Generated_Source\PSoC4/cyfitter_cfg.c **** 
ARM GAS  C:\Users\Steve\AppData\Local\Temp\ccueVkUZ.s 			page 9


 196:.\Generated_Source\PSoC4/cyfitter_cfg.c **** 	int32 imoTrimIndex;
 197:.\Generated_Source\PSoC4/cyfitter_cfg.c **** 	uint8 setAbs;
 198:.\Generated_Source\PSoC4/cyfitter_cfg.c **** 	uint8 setTmpCo;
 199:.\Generated_Source\PSoC4/cyfitter_cfg.c **** 
 200:.\Generated_Source\PSoC4/cyfitter_cfg.c **** 	/* Traverse the SFLASH IMO frequency-dependent bandgap trim table to
 201:.\Generated_Source\PSoC4/cyfitter_cfg.c **** 	 * locate the appropriate value to trim the IMO bandgap based on freq. */
 202:.\Generated_Source\PSoC4/cyfitter_cfg.c **** 	setAbs = CY_GET_REG8((const void *)CYREG_SFLASH_IMO_ABS4);
 259              		.loc 1 202 0
 260 000c 224A     		ldr	r2, .L13
 261 000e 3B1C     		mov	r3, r7
 262 0010 0B33     		add	r3, r3, #11
 263 0012 1278     		ldrb	r2, [r2]
 264 0014 1A70     		strb	r2, [r3]
 203:.\Generated_Source\PSoC4/cyfitter_cfg.c **** 	setTmpCo = CY_GET_REG8((const void *)CYREG_SFLASH_IMO_TMPCO4);
 265              		.loc 1 203 0
 266 0016 214A     		ldr	r2, .L13+4
 267 0018 3B1C     		mov	r3, r7
 268 001a 0A33     		add	r3, r3, #10
 269 001c 1278     		ldrb	r2, [r2]
 270 001e 1A70     		strb	r2, [r3]
 204:.\Generated_Source\PSoC4/cyfitter_cfg.c **** 	for (imoTrimIndex = ((int32)IMO_TRIM_FREQ_TABLE_ENTRIES)-1;
 271              		.loc 1 204 0
 272 0020 1F4B     		ldr	r3, .L13+8
 273 0022 1B68     		ldr	r3, [r3]
 274 0024 013B     		sub	r3, r3, #1
 275 0026 FB60     		str	r3, [r7, #12]
 276 0028 1AE0     		b	.L10
 277              	.L12:
 205:.\Generated_Source\PSoC4/cyfitter_cfg.c **** 	     (imoTrimIndex >= 0) && (imoFreq <= imo_trim_table->entries[imoTrimIndex].freq);
 206:.\Generated_Source\PSoC4/cyfitter_cfg.c **** 	     imoTrimIndex--)
 207:.\Generated_Source\PSoC4/cyfitter_cfg.c **** 	{
 208:.\Generated_Source\PSoC4/cyfitter_cfg.c **** 		setAbs = imo_trim_table->entries[imoTrimIndex].absolute;
 278              		.loc 1 208 0
 279 002a 1E4B     		ldr	r3, .L13+12
 280 002c 1868     		ldr	r0, [r3]
 281 002e 391C     		mov	r1, r7
 282 0030 0B31     		add	r1, r1, #11
 283 0032 FA68     		ldr	r2, [r7, #12]
 284 0034 131C     		mov	r3, r2
 285 0036 5B00     		lsl	r3, r3, #1
 286 0038 9B18     		add	r3, r3, r2
 287 003a C318     		add	r3, r0, r3
 288 003c 0133     		add	r3, r3, #1
 289 003e 1B78     		ldrb	r3, [r3]
 290 0040 0B70     		strb	r3, [r1]
 209:.\Generated_Source\PSoC4/cyfitter_cfg.c **** 		setTmpCo = imo_trim_table->entries[imoTrimIndex].tmpco;
 291              		.loc 1 209 0
 292 0042 184B     		ldr	r3, .L13+12
 293 0044 1868     		ldr	r0, [r3]
 294 0046 391C     		mov	r1, r7
 295 0048 0A31     		add	r1, r1, #10
 296 004a FA68     		ldr	r2, [r7, #12]
 297 004c 131C     		mov	r3, r2
 298 004e 5B00     		lsl	r3, r3, #1
 299 0050 9B18     		add	r3, r3, r2
 300 0052 C318     		add	r3, r0, r3
 301 0054 0233     		add	r3, r3, #2
ARM GAS  C:\Users\Steve\AppData\Local\Temp\ccueVkUZ.s 			page 10


 302 0056 1B78     		ldrb	r3, [r3]
 303 0058 0B70     		strb	r3, [r1]
 206:.\Generated_Source\PSoC4/cyfitter_cfg.c **** 	     imoTrimIndex--)
 304              		.loc 1 206 0
 305 005a FB68     		ldr	r3, [r7, #12]
 306 005c 013B     		sub	r3, r3, #1
 307 005e FB60     		str	r3, [r7, #12]
 308              	.L10:
 204:.\Generated_Source\PSoC4/cyfitter_cfg.c **** 	for (imoTrimIndex = ((int32)IMO_TRIM_FREQ_TABLE_ENTRIES)-1;
 309              		.loc 1 204 0 discriminator 1
 310 0060 FB68     		ldr	r3, [r7, #12]
 311 0062 002B     		cmp	r3, #0
 312 0064 0ADB     		blt	.L11
 205:.\Generated_Source\PSoC4/cyfitter_cfg.c **** 	     (imoTrimIndex >= 0) && (imoFreq <= imo_trim_table->entries[imoTrimIndex].freq);
 313              		.loc 1 205 0
 314 0066 0F4B     		ldr	r3, .L13+12
 315 0068 1968     		ldr	r1, [r3]
 316 006a FA68     		ldr	r2, [r7, #12]
 317 006c 131C     		mov	r3, r2
 318 006e 5B00     		lsl	r3, r3, #1
 319 0070 9B18     		add	r3, r3, r2
 320 0072 5B5C     		ldrb	r3, [r3, r1]
 321 0074 FA1D     		add	r2, r7, #7
 322 0076 1278     		ldrb	r2, [r2]
 323 0078 9A42     		cmp	r2, r3
 324 007a D6D9     		bls	.L12
 325              	.L11:
 210:.\Generated_Source\PSoC4/cyfitter_cfg.c **** 	}
 211:.\Generated_Source\PSoC4/cyfitter_cfg.c **** 
 212:.\Generated_Source\PSoC4/cyfitter_cfg.c **** 	CY_SET_REG32((void *)CYREG_PWR_BG_TRIM4, setAbs);
 326              		.loc 1 212 0
 327 007c 0A4B     		ldr	r3, .L13+16
 328 007e 3A1C     		mov	r2, r7
 329 0080 0B32     		add	r2, r2, #11
 330 0082 1278     		ldrb	r2, [r2]
 331 0084 1A60     		str	r2, [r3]
 213:.\Generated_Source\PSoC4/cyfitter_cfg.c **** 	CY_SET_REG32((void *)CYREG_PWR_BG_TRIM5, setTmpCo);
 332              		.loc 1 213 0
 333 0086 094B     		ldr	r3, .L13+20
 334 0088 3A1C     		mov	r2, r7
 335 008a 0A32     		add	r2, r2, #10
 336 008c 1278     		ldrb	r2, [r2]
 337 008e 1A60     		str	r2, [r3]
 214:.\Generated_Source\PSoC4/cyfitter_cfg.c **** }
 338              		.loc 1 214 0
 339 0090 BD46     		mov	sp, r7
 340 0092 04B0     		add	sp, sp, #16
 341              		@ sp needed for prologue
 342 0094 80BD     		pop	{r7, pc}
 343              	.L14:
 344 0096 C046     		.align	2
 345              	.L13:
 346 0098 CCF1FF0F 		.word	268431820
 347 009c CDF1FF0F 		.word	268431821
 348 00a0 7C020000 		.word	IMO_TRIM_FREQ_TABLE_ENTRIES.4644
 349 00a4 00000000 		.word	imo_trim_table.4643
 350 00a8 1CFF0B40 		.word	1074528028
ARM GAS  C:\Users\Steve\AppData\Local\Temp\ccueVkUZ.s 			page 11


 351 00ac 20FF0B40 		.word	1074528032
 352              		.cfi_endproc
 353              	.LFE4:
 354              		.size	SetIMOBGTrims, .-SetIMOBGTrims
 355              		.align	2
 356              		.code	16
 357              		.thumb_func
 358              		.type	ClockSetup, %function
 359              	ClockSetup:
 360              	.LFB5:
 215:.\Generated_Source\PSoC4/cyfitter_cfg.c **** 
 216:.\Generated_Source\PSoC4/cyfitter_cfg.c **** 
 217:.\Generated_Source\PSoC4/cyfitter_cfg.c **** 
 218:.\Generated_Source\PSoC4/cyfitter_cfg.c **** /*******************************************************************************
 219:.\Generated_Source\PSoC4/cyfitter_cfg.c **** * Function Name: ClockSetup
 220:.\Generated_Source\PSoC4/cyfitter_cfg.c **** ********************************************************************************
 221:.\Generated_Source\PSoC4/cyfitter_cfg.c **** *
 222:.\Generated_Source\PSoC4/cyfitter_cfg.c **** * Summary:
 223:.\Generated_Source\PSoC4/cyfitter_cfg.c **** *   Performs the initialization of all of the clocks in the device based on the
 224:.\Generated_Source\PSoC4/cyfitter_cfg.c **** *   settings in the Clock tab of the DWR.  This includes enabling the requested
 225:.\Generated_Source\PSoC4/cyfitter_cfg.c **** *   clocks and setting the necessary dividers to produce the desired frequency. 
 226:.\Generated_Source\PSoC4/cyfitter_cfg.c **** *
 227:.\Generated_Source\PSoC4/cyfitter_cfg.c **** * Parameters:
 228:.\Generated_Source\PSoC4/cyfitter_cfg.c **** *   void
 229:.\Generated_Source\PSoC4/cyfitter_cfg.c **** *
 230:.\Generated_Source\PSoC4/cyfitter_cfg.c **** * Return:
 231:.\Generated_Source\PSoC4/cyfitter_cfg.c **** *   void
 232:.\Generated_Source\PSoC4/cyfitter_cfg.c **** *
 233:.\Generated_Source\PSoC4/cyfitter_cfg.c **** *******************************************************************************/
 234:.\Generated_Source\PSoC4/cyfitter_cfg.c **** static void ClockSetup(void);
 235:.\Generated_Source\PSoC4/cyfitter_cfg.c **** CY_CFG_SECTION
 236:.\Generated_Source\PSoC4/cyfitter_cfg.c **** static void ClockSetup(void)
 237:.\Generated_Source\PSoC4/cyfitter_cfg.c **** {
 361              		.loc 1 237 0
 362              		.cfi_startproc
 363 00b0 80B5     		push	{r7, lr}
 364              	.LCFI15:
 365              		.cfi_def_cfa_offset 8
 366              		.cfi_offset 7, -8
 367              		.cfi_offset 14, -4
 368 00b2 00AF     		add	r7, sp, #0
 369              	.LCFI16:
 370              		.cfi_def_cfa_register 7
 238:.\Generated_Source\PSoC4/cyfitter_cfg.c **** 	/* Enable HALF_EN before trimming for the flash accelerator. */
 239:.\Generated_Source\PSoC4/cyfitter_cfg.c **** 	CY_SET_REG32((void CYXDATA *)(CYREG_CLK_SELECT), (CY_GET_REG32((void *)CYREG_CLK_SELECT) | 0x00040
 371              		.loc 1 239 0
 372 00b4 224B     		ldr	r3, .L16
 373 00b6 224A     		ldr	r2, .L16
 374 00b8 1268     		ldr	r2, [r2]
 375 00ba 8021     		mov	r1, #128
 376 00bc C902     		lsl	r1, r1, #11
 377 00be 0A43     		orr	r2, r1
 378 00c0 1A60     		str	r2, [r3]
 240:.\Generated_Source\PSoC4/cyfitter_cfg.c **** 
 241:.\Generated_Source\PSoC4/cyfitter_cfg.c **** 	/* Trim IMO BG based on desired frequency. */
 242:.\Generated_Source\PSoC4/cyfitter_cfg.c **** 	SetIMOBGTrims(24u);
 379              		.loc 1 242 0
ARM GAS  C:\Users\Steve\AppData\Local\Temp\ccueVkUZ.s 			page 12


 380 00c2 1820     		mov	r0, #24
 381 00c4 FFF79CFF 		bl	SetIMOBGTrims
 243:.\Generated_Source\PSoC4/cyfitter_cfg.c **** 
 244:.\Generated_Source\PSoC4/cyfitter_cfg.c **** 	/* Going less than or equal to 24MHz, so update the clock speed then adjust trim value. */
 245:.\Generated_Source\PSoC4/cyfitter_cfg.c **** 	CY_SET_REG32((void CYXDATA *)(CYREG_CLK_IMO_TRIM2), (25u));
 382              		.loc 1 245 0
 383 00c8 1E4B     		ldr	r3, .L16+4
 384 00ca 1922     		mov	r2, #25
 385 00cc 1A60     		str	r2, [r3]
 246:.\Generated_Source\PSoC4/cyfitter_cfg.c **** 	CyDelayCycles(5u);
 386              		.loc 1 246 0
 387 00ce 0520     		mov	r0, #5
 388 00d0 FFF7FEFF 		bl	CyDelayCycles
 247:.\Generated_Source\PSoC4/cyfitter_cfg.c **** 	CY_SET_REG32((void CYXDATA *)(CYREG_CLK_IMO_TRIM1), (CY_GET_REG8((void *)CYREG_SFLASH_IMO_TRIM21))
 389              		.loc 1 247 0
 390 00d4 1C4B     		ldr	r3, .L16+8
 391 00d6 1D4A     		ldr	r2, .L16+12
 392 00d8 1278     		ldrb	r2, [r2]
 393 00da D2B2     		uxtb	r2, r2
 394 00dc 1A60     		str	r2, [r3]
 248:.\Generated_Source\PSoC4/cyfitter_cfg.c **** 	CyDelayUs(5u);
 395              		.loc 1 248 0
 396 00de 0520     		mov	r0, #5
 397 00e0 FFF7FEFF 		bl	CyDelayUs
 249:.\Generated_Source\PSoC4/cyfitter_cfg.c **** 
 250:.\Generated_Source\PSoC4/cyfitter_cfg.c **** 	/* Disable HALF_EN since it is not required at this IMO frequency. */
 251:.\Generated_Source\PSoC4/cyfitter_cfg.c **** 	CY_SET_REG32((void CYXDATA *)(CYREG_CLK_SELECT), (CY_GET_REG32((void *)CYREG_CLK_SELECT) & 0xFFFBF
 398              		.loc 1 251 0
 399 00e4 164B     		ldr	r3, .L16
 400 00e6 164A     		ldr	r2, .L16
 401 00e8 1168     		ldr	r1, [r2]
 402 00ea 194A     		ldr	r2, .L16+16
 403 00ec 0A40     		and	r2, r1
 404 00ee 1A60     		str	r2, [r3]
 252:.\Generated_Source\PSoC4/cyfitter_cfg.c **** 
 253:.\Generated_Source\PSoC4/cyfitter_cfg.c **** 	/* CYDEV_CLK_SELECT00 Starting address: CYDEV_CLK_SELECT00 */
 254:.\Generated_Source\PSoC4/cyfitter_cfg.c **** 	CY_SET_XTND_REG32((void CYFAR *)(CYREG_CLK_SELECT02), 0x00000021u);
 405              		.loc 1 254 0
 406 00f0 184B     		ldr	r3, .L16+20
 407 00f2 2122     		mov	r2, #33
 408 00f4 1A60     		str	r2, [r3]
 255:.\Generated_Source\PSoC4/cyfitter_cfg.c **** 	CY_SET_XTND_REG32((void CYFAR *)(CYREG_CLK_SELECT03), 0x00000020u);
 409              		.loc 1 255 0
 410 00f6 184B     		ldr	r3, .L16+24
 411 00f8 2022     		mov	r2, #32
 412 00fa 1A60     		str	r2, [r3]
 256:.\Generated_Source\PSoC4/cyfitter_cfg.c **** 	CY_SET_XTND_REG32((void CYFAR *)(CYREG_CLK_SELECT07), 0x00000030u);
 413              		.loc 1 256 0
 414 00fc 174B     		ldr	r3, .L16+28
 415 00fe 3022     		mov	r2, #48
 416 0100 1A60     		str	r2, [r3]
 257:.\Generated_Source\PSoC4/cyfitter_cfg.c **** 	CY_SET_XTND_REG32((void CYFAR *)(CYREG_CLK_SELECT08), 0x00000010u);
 417              		.loc 1 257 0
 418 0102 174B     		ldr	r3, .L16+32
 419 0104 1022     		mov	r2, #16
 420 0106 1A60     		str	r2, [r3]
 258:.\Generated_Source\PSoC4/cyfitter_cfg.c **** 	CY_SET_XTND_REG32((void CYFAR *)(CYREG_CLK_SELECT12), 0x00000011u);
ARM GAS  C:\Users\Steve\AppData\Local\Temp\ccueVkUZ.s 			page 13


 421              		.loc 1 258 0
 422 0108 164B     		ldr	r3, .L16+36
 423 010a 1122     		mov	r2, #17
 424 010c 1A60     		str	r2, [r3]
 259:.\Generated_Source\PSoC4/cyfitter_cfg.c **** 
 260:.\Generated_Source\PSoC4/cyfitter_cfg.c **** 	/* CYDEV_CLK_IMO_CONFIG Starting address: CYDEV_CLK_IMO_CONFIG */
 261:.\Generated_Source\PSoC4/cyfitter_cfg.c **** 	CY_SET_XTND_REG32((void CYFAR *)(CYREG_CLK_IMO_CONFIG), 0x82000000u);
 425              		.loc 1 261 0
 426 010e 164B     		ldr	r3, .L16+40
 427 0110 8222     		mov	r2, #130
 428 0112 1206     		lsl	r2, r2, #24
 429 0114 1A60     		str	r2, [r3]
 262:.\Generated_Source\PSoC4/cyfitter_cfg.c **** 
 263:.\Generated_Source\PSoC4/cyfitter_cfg.c **** 	/* CYDEV_CLK_ILO_CONFIG Starting address: CYDEV_CLK_ILO_CONFIG */
 264:.\Generated_Source\PSoC4/cyfitter_cfg.c **** 	CY_SET_XTND_REG32((void CYFAR *)(CYREG_CLK_ILO_CONFIG), 0x80000000u);
 430              		.loc 1 264 0
 431 0116 154B     		ldr	r3, .L16+44
 432 0118 8022     		mov	r2, #128
 433 011a 1206     		lsl	r2, r2, #24
 434 011c 1A60     		str	r2, [r3]
 265:.\Generated_Source\PSoC4/cyfitter_cfg.c **** 
 266:.\Generated_Source\PSoC4/cyfitter_cfg.c **** 	/* CYDEV_CLK_DIVIDER_A00 Starting address: CYDEV_CLK_DIVIDER_A00 */
 267:.\Generated_Source\PSoC4/cyfitter_cfg.c **** 	CY_SET_XTND_REG32((void CYFAR *)(CYREG_CLK_DIVIDER_A00), 0x8000000Bu);
 435              		.loc 1 267 0
 436 011e 144B     		ldr	r3, .L16+48
 437 0120 144A     		ldr	r2, .L16+52
 438 0122 1A60     		str	r2, [r3]
 268:.\Generated_Source\PSoC4/cyfitter_cfg.c **** 
 269:.\Generated_Source\PSoC4/cyfitter_cfg.c **** 	/* CYDEV_CLK_DIVIDER_B00 Starting address: CYDEV_CLK_DIVIDER_B00 */
 270:.\Generated_Source\PSoC4/cyfitter_cfg.c **** 	CY_SET_XTND_REG32((void CYFAR *)(CYREG_CLK_DIVIDER_B00), 0x80000003u);
 439              		.loc 1 270 0
 440 0124 144B     		ldr	r3, .L16+56
 441 0126 154A     		ldr	r2, .L16+60
 442 0128 1A60     		str	r2, [r3]
 271:.\Generated_Source\PSoC4/cyfitter_cfg.c **** 
 272:.\Generated_Source\PSoC4/cyfitter_cfg.c **** 	/* CYDEV_CLK_DIVIDER_C00 Starting address: CYDEV_CLK_DIVIDER_C00 */
 273:.\Generated_Source\PSoC4/cyfitter_cfg.c **** 	CY_SET_XTND_REG32((void CYFAR *)(CYREG_CLK_DIVIDER_C00), 0x80000003u);
 443              		.loc 1 273 0
 444 012a 154B     		ldr	r3, .L16+64
 445 012c 134A     		ldr	r2, .L16+60
 446 012e 1A60     		str	r2, [r3]
 274:.\Generated_Source\PSoC4/cyfitter_cfg.c **** 
 275:.\Generated_Source\PSoC4/cyfitter_cfg.c **** 	/* CYDEV_CLK_DIVIDER_A01 Starting address: CYDEV_CLK_DIVIDER_A01 */
 276:.\Generated_Source\PSoC4/cyfitter_cfg.c **** 	CY_SET_XTND_REG32((void CYFAR *)(CYREG_CLK_DIVIDER_A01), 0x8000000Bu);
 447              		.loc 1 276 0
 448 0130 144B     		ldr	r3, .L16+68
 449 0132 104A     		ldr	r2, .L16+52
 450 0134 1A60     		str	r2, [r3]
 277:.\Generated_Source\PSoC4/cyfitter_cfg.c **** 
 278:.\Generated_Source\PSoC4/cyfitter_cfg.c **** 	/* CYDEV_CLK_DIVIDER_B01 Starting address: CYDEV_CLK_DIVIDER_B01 */
 279:.\Generated_Source\PSoC4/cyfitter_cfg.c **** 	CY_SET_XTND_REG32((void CYFAR *)(CYREG_CLK_DIVIDER_B01), 0x80000010u);
 451              		.loc 1 279 0
 452 0136 144B     		ldr	r3, .L16+72
 453 0138 144A     		ldr	r2, .L16+76
 454 013a 1A60     		str	r2, [r3]
 280:.\Generated_Source\PSoC4/cyfitter_cfg.c **** 
 281:.\Generated_Source\PSoC4/cyfitter_cfg.c **** }
ARM GAS  C:\Users\Steve\AppData\Local\Temp\ccueVkUZ.s 			page 14


 455              		.loc 1 281 0
 456 013c BD46     		mov	sp, r7
 457              		@ sp needed for prologue
 458 013e 80BD     		pop	{r7, pc}
 459              	.L17:
 460              		.align	2
 461              	.L16:
 462 0140 00010B40 		.word	1074462976
 463 0144 2CFF0B40 		.word	1074528044
 464 0148 28FF0B40 		.word	1074528040
 465 014c E5F1FF0F 		.word	268431845
 466 0150 FFFFFBFF 		.word	-262145
 467 0154 08020240 		.word	1073873416
 468 0158 0C020240 		.word	1073873420
 469 015c 1C020240 		.word	1073873436
 470 0160 20020240 		.word	1073873440
 471 0164 30020240 		.word	1073873456
 472 0168 08010B40 		.word	1074462984
 473 016c 04010B40 		.word	1074462980
 474 0170 00000240 		.word	1073872896
 475 0174 0B000080 		.word	-2147483637
 476 0178 40000240 		.word	1073872960
 477 017c 03000080 		.word	-2147483645
 478 0180 80000240 		.word	1073873024
 479 0184 04000240 		.word	1073872900
 480 0188 44000240 		.word	1073872964
 481 018c 10000080 		.word	-2147483632
 482              		.cfi_endproc
 483              	.LFE5:
 484              		.size	ClockSetup, .-ClockSetup
 485              		.section	.text.AnalogSetDefault,"ax",%progbits
 486              		.align	2
 487              		.code	16
 488              		.thumb_func
 489              		.type	AnalogSetDefault, %function
 490              	AnalogSetDefault:
 491              	.LFB6:
 282:.\Generated_Source\PSoC4/cyfitter_cfg.c **** 
 283:.\Generated_Source\PSoC4/cyfitter_cfg.c **** 
 284:.\Generated_Source\PSoC4/cyfitter_cfg.c **** /* Analog API Functions */
 285:.\Generated_Source\PSoC4/cyfitter_cfg.c **** 
 286:.\Generated_Source\PSoC4/cyfitter_cfg.c **** 
 287:.\Generated_Source\PSoC4/cyfitter_cfg.c **** /*******************************************************************************
 288:.\Generated_Source\PSoC4/cyfitter_cfg.c **** * Function Name: AnalogSetDefault
 289:.\Generated_Source\PSoC4/cyfitter_cfg.c **** ********************************************************************************
 290:.\Generated_Source\PSoC4/cyfitter_cfg.c **** *
 291:.\Generated_Source\PSoC4/cyfitter_cfg.c **** * Summary:
 292:.\Generated_Source\PSoC4/cyfitter_cfg.c **** *  Sets up the analog portions of the chip to default values based on chip
 293:.\Generated_Source\PSoC4/cyfitter_cfg.c **** *  configuration options from the project.
 294:.\Generated_Source\PSoC4/cyfitter_cfg.c **** *
 295:.\Generated_Source\PSoC4/cyfitter_cfg.c **** * Parameters:
 296:.\Generated_Source\PSoC4/cyfitter_cfg.c **** *  void
 297:.\Generated_Source\PSoC4/cyfitter_cfg.c **** *
 298:.\Generated_Source\PSoC4/cyfitter_cfg.c **** * Return:
 299:.\Generated_Source\PSoC4/cyfitter_cfg.c **** *  void
 300:.\Generated_Source\PSoC4/cyfitter_cfg.c **** *
 301:.\Generated_Source\PSoC4/cyfitter_cfg.c **** *******************************************************************************/
ARM GAS  C:\Users\Steve\AppData\Local\Temp\ccueVkUZ.s 			page 15


 302:.\Generated_Source\PSoC4/cyfitter_cfg.c **** static void AnalogSetDefault(void);
 303:.\Generated_Source\PSoC4/cyfitter_cfg.c **** static void AnalogSetDefault(void)
 304:.\Generated_Source\PSoC4/cyfitter_cfg.c **** {
 492              		.loc 1 304 0
 493              		.cfi_startproc
 494 0000 80B5     		push	{r7, lr}
 495              	.LCFI17:
 496              		.cfi_def_cfa_offset 8
 497              		.cfi_offset 7, -8
 498              		.cfi_offset 14, -4
 499 0002 00AF     		add	r7, sp, #0
 500              	.LCFI18:
 501              		.cfi_def_cfa_register 7
 305:.\Generated_Source\PSoC4/cyfitter_cfg.c **** 	CY_SET_XTND_REG32((void CYFAR *)CYREG_SAR_MUX_SWITCH0, 0x00000003u);
 502              		.loc 1 305 0
 503 0004 054B     		ldr	r3, .L19
 504 0006 0322     		mov	r2, #3
 505 0008 1A60     		str	r2, [r3]
 306:.\Generated_Source\PSoC4/cyfitter_cfg.c **** 	CY_SET_XTND_REG32((void CYFAR *)CYREG_SAR_MUX_SWITCH_HW_CTRL, 0x00000003u);
 506              		.loc 1 306 0
 507 000a 054B     		ldr	r3, .L19+4
 508 000c 0322     		mov	r2, #3
 509 000e 1A60     		str	r2, [r3]
 307:.\Generated_Source\PSoC4/cyfitter_cfg.c **** 	SetAnalogRoutingPumps(1);
 510              		.loc 1 307 0
 511 0010 0120     		mov	r0, #1
 512 0012 FFF7FEFF 		bl	SetAnalogRoutingPumps
 308:.\Generated_Source\PSoC4/cyfitter_cfg.c **** }
 513              		.loc 1 308 0
 514 0016 BD46     		mov	sp, r7
 515              		@ sp needed for prologue
 516 0018 80BD     		pop	{r7, pc}
 517              	.L20:
 518 001a C046     		.align	2
 519              	.L19:
 520 001c 00031A40 		.word	1075446528
 521 0020 40031A40 		.word	1075446592
 522              		.cfi_endproc
 523              	.LFE6:
 524              		.size	AnalogSetDefault, .-AnalogSetDefault
 525              		.section	.text.SetAnalogRoutingPumps,"ax",%progbits
 526              		.align	2
 527              		.global	SetAnalogRoutingPumps
 528              		.code	16
 529              		.thumb_func
 530              		.type	SetAnalogRoutingPumps, %function
 531              	SetAnalogRoutingPumps:
 532              	.LFB7:
 309:.\Generated_Source\PSoC4/cyfitter_cfg.c **** 
 310:.\Generated_Source\PSoC4/cyfitter_cfg.c **** 
 311:.\Generated_Source\PSoC4/cyfitter_cfg.c **** /*******************************************************************************
 312:.\Generated_Source\PSoC4/cyfitter_cfg.c **** * Function Name: SetAnalogRoutingPumps
 313:.\Generated_Source\PSoC4/cyfitter_cfg.c **** ********************************************************************************
 314:.\Generated_Source\PSoC4/cyfitter_cfg.c **** *
 315:.\Generated_Source\PSoC4/cyfitter_cfg.c **** * Summary:
 316:.\Generated_Source\PSoC4/cyfitter_cfg.c **** * Enables or disables the analog pumps feeding analog routing switches.
 317:.\Generated_Source\PSoC4/cyfitter_cfg.c **** * Intended to be called at startup, based on the Vdda system configuration;
ARM GAS  C:\Users\Steve\AppData\Local\Temp\ccueVkUZ.s 			page 16


 318:.\Generated_Source\PSoC4/cyfitter_cfg.c **** * may be called during operation when the user informs us that the Vdda voltage crossed the pump th
 319:.\Generated_Source\PSoC4/cyfitter_cfg.c **** *
 320:.\Generated_Source\PSoC4/cyfitter_cfg.c **** * Parameters:
 321:.\Generated_Source\PSoC4/cyfitter_cfg.c **** *  enabled - 1 to enable the pumps, 0 to disable the pumps
 322:.\Generated_Source\PSoC4/cyfitter_cfg.c **** *
 323:.\Generated_Source\PSoC4/cyfitter_cfg.c **** * Return:
 324:.\Generated_Source\PSoC4/cyfitter_cfg.c **** *  void
 325:.\Generated_Source\PSoC4/cyfitter_cfg.c **** *
 326:.\Generated_Source\PSoC4/cyfitter_cfg.c **** *******************************************************************************/
 327:.\Generated_Source\PSoC4/cyfitter_cfg.c **** void SetAnalogRoutingPumps(uint8 enabled)
 328:.\Generated_Source\PSoC4/cyfitter_cfg.c **** {
 533              		.loc 1 328 0
 534              		.cfi_startproc
 535 0000 80B5     		push	{r7, lr}
 536              	.LCFI19:
 537              		.cfi_def_cfa_offset 8
 538              		.cfi_offset 7, -8
 539              		.cfi_offset 14, -4
 540 0002 84B0     		sub	sp, sp, #16
 541              	.LCFI20:
 542              		.cfi_def_cfa_offset 24
 543 0004 00AF     		add	r7, sp, #0
 544              	.LCFI21:
 545              		.cfi_def_cfa_register 7
 546 0006 021C     		mov	r2, r0
 547 0008 FB1D     		add	r3, r7, #7
 548 000a 1A70     		strb	r2, [r3]
 329:.\Generated_Source\PSoC4/cyfitter_cfg.c **** 	uint32 regValue = CY_GET_XTND_REG32((void *)(CYREG_SAR_PUMP_CTRL));
 549              		.loc 1 329 0
 550 000c 0B4B     		ldr	r3, .L24
 551 000e 1B68     		ldr	r3, [r3]
 552 0010 FB60     		str	r3, [r7, #12]
 330:.\Generated_Source\PSoC4/cyfitter_cfg.c **** 	if (enabled != 0u)
 553              		.loc 1 330 0
 554 0012 FB1D     		add	r3, r7, #7
 555 0014 1B78     		ldrb	r3, [r3]
 556 0016 002B     		cmp	r3, #0
 557 0018 05D0     		beq	.L22
 331:.\Generated_Source\PSoC4/cyfitter_cfg.c **** 	{
 332:.\Generated_Source\PSoC4/cyfitter_cfg.c **** 		regValue |= 0x80000000u;
 558              		.loc 1 332 0
 559 001a FB68     		ldr	r3, [r7, #12]
 560 001c 8022     		mov	r2, #128
 561 001e 1206     		lsl	r2, r2, #24
 562 0020 1343     		orr	r3, r2
 563 0022 FB60     		str	r3, [r7, #12]
 564 0024 03E0     		b	.L23
 565              	.L22:
 333:.\Generated_Source\PSoC4/cyfitter_cfg.c **** 	}
 334:.\Generated_Source\PSoC4/cyfitter_cfg.c **** 	else
 335:.\Generated_Source\PSoC4/cyfitter_cfg.c **** 	{
 336:.\Generated_Source\PSoC4/cyfitter_cfg.c **** 		regValue &= ~0x80000000u;
 566              		.loc 1 336 0
 567 0026 FB68     		ldr	r3, [r7, #12]
 568 0028 5B00     		lsl	r3, r3, #1
 569 002a 5B08     		lsr	r3, r3, #1
 570 002c FB60     		str	r3, [r7, #12]
ARM GAS  C:\Users\Steve\AppData\Local\Temp\ccueVkUZ.s 			page 17


 571              	.L23:
 337:.\Generated_Source\PSoC4/cyfitter_cfg.c **** 	}
 338:.\Generated_Source\PSoC4/cyfitter_cfg.c **** 	CY_SET_XTND_REG32((void *)(CYREG_SAR_PUMP_CTRL), regValue);
 572              		.loc 1 338 0
 573 002e 034B     		ldr	r3, .L24
 574 0030 FA68     		ldr	r2, [r7, #12]
 575 0032 1A60     		str	r2, [r3]
 339:.\Generated_Source\PSoC4/cyfitter_cfg.c **** }
 576              		.loc 1 339 0
 577 0034 BD46     		mov	sp, r7
 578 0036 04B0     		add	sp, sp, #16
 579              		@ sp needed for prologue
 580 0038 80BD     		pop	{r7, pc}
 581              	.L25:
 582 003a C046     		.align	2
 583              	.L24:
 584 003c 80031A40 		.word	1075446656
 585              		.cfi_endproc
 586              	.LFE7:
 587              		.size	SetAnalogRoutingPumps, .-SetAnalogRoutingPumps
 588              		.section	.psocinit
 589              		.align	2
 590              		.global	cyfitter_cfg
 591              		.code	16
 592              		.thumb_func
 593              		.type	cyfitter_cfg, %function
 594              	cyfitter_cfg:
 595              	.LFB8:
 340:.\Generated_Source\PSoC4/cyfitter_cfg.c **** 
 341:.\Generated_Source\PSoC4/cyfitter_cfg.c **** #define CY_AMUX_UNUSED CYREG_CM0_ROM_DWT
 342:.\Generated_Source\PSoC4/cyfitter_cfg.c **** 
 343:.\Generated_Source\PSoC4/cyfitter_cfg.c **** 
 344:.\Generated_Source\PSoC4/cyfitter_cfg.c **** /*******************************************************************************
 345:.\Generated_Source\PSoC4/cyfitter_cfg.c **** * Function Name: cyfitter_cfg
 346:.\Generated_Source\PSoC4/cyfitter_cfg.c **** ********************************************************************************
 347:.\Generated_Source\PSoC4/cyfitter_cfg.c **** * Summary:
 348:.\Generated_Source\PSoC4/cyfitter_cfg.c **** *  This function is called by the start-up code for the selected device. It
 349:.\Generated_Source\PSoC4/cyfitter_cfg.c **** *  performs all of the necessary device configuration based on the design
 350:.\Generated_Source\PSoC4/cyfitter_cfg.c **** *  settings.  This includes settings from the Design Wide Resources (DWR) such
 351:.\Generated_Source\PSoC4/cyfitter_cfg.c **** *  as Clocks and Pins as well as any component configuration that is necessary.
 352:.\Generated_Source\PSoC4/cyfitter_cfg.c **** *
 353:.\Generated_Source\PSoC4/cyfitter_cfg.c **** * Parameters:  
 354:.\Generated_Source\PSoC4/cyfitter_cfg.c **** *   void
 355:.\Generated_Source\PSoC4/cyfitter_cfg.c **** *
 356:.\Generated_Source\PSoC4/cyfitter_cfg.c **** * Return:
 357:.\Generated_Source\PSoC4/cyfitter_cfg.c **** *   void
 358:.\Generated_Source\PSoC4/cyfitter_cfg.c **** *
 359:.\Generated_Source\PSoC4/cyfitter_cfg.c **** *******************************************************************************/
 360:.\Generated_Source\PSoC4/cyfitter_cfg.c **** CY_CFG_SECTION
 361:.\Generated_Source\PSoC4/cyfitter_cfg.c **** void cyfitter_cfg(void)
 362:.\Generated_Source\PSoC4/cyfitter_cfg.c **** {
 596              		.loc 1 362 0
 597              		.cfi_startproc
 598 0190 80B5     		push	{r7, lr}
 599              	.LCFI22:
 600              		.cfi_def_cfa_offset 8
 601              		.cfi_offset 7, -8
ARM GAS  C:\Users\Steve\AppData\Local\Temp\ccueVkUZ.s 			page 18


 602              		.cfi_offset 14, -4
 603 0192 86B0     		sub	sp, sp, #24
 604              	.LCFI23:
 605              		.cfi_def_cfa_offset 32
 606 0194 00AF     		add	r7, sp, #0
 607              	.LCFI24:
 608              		.cfi_def_cfa_register 7
 363:.\Generated_Source\PSoC4/cyfitter_cfg.c **** 	/* Disable interrupts by default. Let user enable if/when they want. */
 364:.\Generated_Source\PSoC4/cyfitter_cfg.c **** 	CyGlobalIntDisable;
 609              		.loc 1 364 0
 610              	@ 364 ".\Generated_Source\PSoC4\cyfitter_cfg.c" 1
 611 0196 72B6     		CPSID   i
 612              	@ 0 "" 2
 613              		.code	16
 614              	.LBB3:
 365:.\Generated_Source\PSoC4/cyfitter_cfg.c **** 
 366:.\Generated_Source\PSoC4/cyfitter_cfg.c **** 	{
 367:.\Generated_Source\PSoC4/cyfitter_cfg.c **** 		static const uint32 CYCODE cy_cfg_addr_table[] = {
 368:.\Generated_Source\PSoC4/cyfitter_cfg.c **** 			0x400F0001u, /* Base address: 0x400F0000 Count: 1 */
 369:.\Generated_Source\PSoC4/cyfitter_cfg.c **** 			0x400F304Bu, /* Base address: 0x400F3000 Count: 75 */
 370:.\Generated_Source\PSoC4/cyfitter_cfg.c **** 			0x400F3131u, /* Base address: 0x400F3100 Count: 49 */
 371:.\Generated_Source\PSoC4/cyfitter_cfg.c **** 			0x400F3209u, /* Base address: 0x400F3200 Count: 9 */
 372:.\Generated_Source\PSoC4/cyfitter_cfg.c **** 			0x400F3345u, /* Base address: 0x400F3300 Count: 69 */
 373:.\Generated_Source\PSoC4/cyfitter_cfg.c **** 			0x400F4008u, /* Base address: 0x400F4000 Count: 8 */
 374:.\Generated_Source\PSoC4/cyfitter_cfg.c **** 			0x400F4109u, /* Base address: 0x400F4100 Count: 9 */
 375:.\Generated_Source\PSoC4/cyfitter_cfg.c **** 			0x400F6002u, /* Base address: 0x400F6000 Count: 2 */
 376:.\Generated_Source\PSoC4/cyfitter_cfg.c **** 		};
 377:.\Generated_Source\PSoC4/cyfitter_cfg.c **** 
 378:.\Generated_Source\PSoC4/cyfitter_cfg.c **** 		static const cy_cfg_addrvalue_t CYCODE cy_cfg_data_table[] = {
 379:.\Generated_Source\PSoC4/cyfitter_cfg.c **** 			{0x82u, 0x0Fu},
 380:.\Generated_Source\PSoC4/cyfitter_cfg.c **** 			{0x00u, 0x01u},
 381:.\Generated_Source\PSoC4/cyfitter_cfg.c **** 			{0x01u, 0x03u},
 382:.\Generated_Source\PSoC4/cyfitter_cfg.c **** 			{0x02u, 0x02u},
 383:.\Generated_Source\PSoC4/cyfitter_cfg.c **** 			{0x03u, 0x04u},
 384:.\Generated_Source\PSoC4/cyfitter_cfg.c **** 			{0x04u, 0x1Du},
 385:.\Generated_Source\PSoC4/cyfitter_cfg.c **** 			{0x0Cu, 0x1Du},
 386:.\Generated_Source\PSoC4/cyfitter_cfg.c **** 			{0x11u, 0x0Eu},
 387:.\Generated_Source\PSoC4/cyfitter_cfg.c **** 			{0x12u, 0x10u},
 388:.\Generated_Source\PSoC4/cyfitter_cfg.c **** 			{0x14u, 0x02u},
 389:.\Generated_Source\PSoC4/cyfitter_cfg.c **** 			{0x16u, 0x04u},
 390:.\Generated_Source\PSoC4/cyfitter_cfg.c **** 			{0x18u, 0x02u},
 391:.\Generated_Source\PSoC4/cyfitter_cfg.c **** 			{0x19u, 0x04u},
 392:.\Generated_Source\PSoC4/cyfitter_cfg.c **** 			{0x1Au, 0x08u},
 393:.\Generated_Source\PSoC4/cyfitter_cfg.c **** 			{0x1Bu, 0x09u},
 394:.\Generated_Source\PSoC4/cyfitter_cfg.c **** 			{0x1Cu, 0x02u},
 395:.\Generated_Source\PSoC4/cyfitter_cfg.c **** 			{0x1Du, 0x05u},
 396:.\Generated_Source\PSoC4/cyfitter_cfg.c **** 			{0x1Eu, 0x0Du},
 397:.\Generated_Source\PSoC4/cyfitter_cfg.c **** 			{0x1Fu, 0x0Au},
 398:.\Generated_Source\PSoC4/cyfitter_cfg.c **** 			{0x20u, 0x1Du},
 399:.\Generated_Source\PSoC4/cyfitter_cfg.c **** 			{0x28u, 0x1Du},
 400:.\Generated_Source\PSoC4/cyfitter_cfg.c **** 			{0x2Cu, 0x0Du},
 401:.\Generated_Source\PSoC4/cyfitter_cfg.c **** 			{0x2Eu, 0x10u},
 402:.\Generated_Source\PSoC4/cyfitter_cfg.c **** 			{0x31u, 0x0Fu},
 403:.\Generated_Source\PSoC4/cyfitter_cfg.c **** 			{0x34u, 0x10u},
 404:.\Generated_Source\PSoC4/cyfitter_cfg.c **** 			{0x36u, 0x0Fu},
 405:.\Generated_Source\PSoC4/cyfitter_cfg.c **** 			{0x39u, 0x02u},
 406:.\Generated_Source\PSoC4/cyfitter_cfg.c **** 			{0x3Au, 0x80u},
ARM GAS  C:\Users\Steve\AppData\Local\Temp\ccueVkUZ.s 			page 19


 407:.\Generated_Source\PSoC4/cyfitter_cfg.c **** 			{0x3Eu, 0x10u},
 408:.\Generated_Source\PSoC4/cyfitter_cfg.c **** 			{0x54u, 0x40u},
 409:.\Generated_Source\PSoC4/cyfitter_cfg.c **** 			{0x58u, 0x04u},
 410:.\Generated_Source\PSoC4/cyfitter_cfg.c **** 			{0x59u, 0x04u},
 411:.\Generated_Source\PSoC4/cyfitter_cfg.c **** 			{0x5Bu, 0x04u},
 412:.\Generated_Source\PSoC4/cyfitter_cfg.c **** 			{0x5Fu, 0x01u},
 413:.\Generated_Source\PSoC4/cyfitter_cfg.c **** 			{0x80u, 0x09u},
 414:.\Generated_Source\PSoC4/cyfitter_cfg.c **** 			{0x81u, 0x03u},
 415:.\Generated_Source\PSoC4/cyfitter_cfg.c **** 			{0x82u, 0x62u},
 416:.\Generated_Source\PSoC4/cyfitter_cfg.c **** 			{0x83u, 0x04u},
 417:.\Generated_Source\PSoC4/cyfitter_cfg.c **** 			{0x84u, 0x80u},
 418:.\Generated_Source\PSoC4/cyfitter_cfg.c **** 			{0x85u, 0x08u},
 419:.\Generated_Source\PSoC4/cyfitter_cfg.c **** 			{0x87u, 0x02u},
 420:.\Generated_Source\PSoC4/cyfitter_cfg.c **** 			{0x88u, 0x20u},
 421:.\Generated_Source\PSoC4/cyfitter_cfg.c **** 			{0x89u, 0x02u},
 422:.\Generated_Source\PSoC4/cyfitter_cfg.c **** 			{0x8Au, 0xC0u},
 423:.\Generated_Source\PSoC4/cyfitter_cfg.c **** 			{0x8Bu, 0x08u},
 424:.\Generated_Source\PSoC4/cyfitter_cfg.c **** 			{0x8Du, 0x08u},
 425:.\Generated_Source\PSoC4/cyfitter_cfg.c **** 			{0x8Fu, 0x02u},
 426:.\Generated_Source\PSoC4/cyfitter_cfg.c **** 			{0x91u, 0x0Au},
 427:.\Generated_Source\PSoC4/cyfitter_cfg.c **** 			{0x92u, 0x10u},
 428:.\Generated_Source\PSoC4/cyfitter_cfg.c **** 			{0x94u, 0xE4u},
 429:.\Generated_Source\PSoC4/cyfitter_cfg.c **** 			{0x96u, 0x18u},
 430:.\Generated_Source\PSoC4/cyfitter_cfg.c **** 			{0x98u, 0x04u},
 431:.\Generated_Source\PSoC4/cyfitter_cfg.c **** 			{0x99u, 0x08u},
 432:.\Generated_Source\PSoC4/cyfitter_cfg.c **** 			{0x9Cu, 0x80u},
 433:.\Generated_Source\PSoC4/cyfitter_cfg.c **** 			{0x9Du, 0x01u},
 434:.\Generated_Source\PSoC4/cyfitter_cfg.c **** 			{0x9Fu, 0x08u},
 435:.\Generated_Source\PSoC4/cyfitter_cfg.c **** 			{0xA0u, 0x80u},
 436:.\Generated_Source\PSoC4/cyfitter_cfg.c **** 			{0xA4u, 0x80u},
 437:.\Generated_Source\PSoC4/cyfitter_cfg.c **** 			{0xA5u, 0x02u},
 438:.\Generated_Source\PSoC4/cyfitter_cfg.c **** 			{0xA9u, 0x0Cu},
 439:.\Generated_Source\PSoC4/cyfitter_cfg.c **** 			{0xAAu, 0x80u},
 440:.\Generated_Source\PSoC4/cyfitter_cfg.c **** 			{0xABu, 0x03u},
 441:.\Generated_Source\PSoC4/cyfitter_cfg.c **** 			{0xACu, 0x26u},
 442:.\Generated_Source\PSoC4/cyfitter_cfg.c **** 			{0xADu, 0x0Au},
 443:.\Generated_Source\PSoC4/cyfitter_cfg.c **** 			{0xAEu, 0xD9u},
 444:.\Generated_Source\PSoC4/cyfitter_cfg.c **** 			{0xB0u, 0x18u},
 445:.\Generated_Source\PSoC4/cyfitter_cfg.c **** 			{0xB2u, 0xE0u},
 446:.\Generated_Source\PSoC4/cyfitter_cfg.c **** 			{0xB4u, 0x07u},
 447:.\Generated_Source\PSoC4/cyfitter_cfg.c **** 			{0xB7u, 0x0Fu},
 448:.\Generated_Source\PSoC4/cyfitter_cfg.c **** 			{0xBAu, 0x28u},
 449:.\Generated_Source\PSoC4/cyfitter_cfg.c **** 			{0xBBu, 0x80u},
 450:.\Generated_Source\PSoC4/cyfitter_cfg.c **** 			{0xD4u, 0x09u},
 451:.\Generated_Source\PSoC4/cyfitter_cfg.c **** 			{0xD8u, 0x04u},
 452:.\Generated_Source\PSoC4/cyfitter_cfg.c **** 			{0xD9u, 0x04u},
 453:.\Generated_Source\PSoC4/cyfitter_cfg.c **** 			{0xDBu, 0x04u},
 454:.\Generated_Source\PSoC4/cyfitter_cfg.c **** 			{0xDFu, 0x01u},
 455:.\Generated_Source\PSoC4/cyfitter_cfg.c **** 			{0x00u, 0x81u},
 456:.\Generated_Source\PSoC4/cyfitter_cfg.c **** 			{0x01u, 0x04u},
 457:.\Generated_Source\PSoC4/cyfitter_cfg.c **** 			{0x03u, 0x02u},
 458:.\Generated_Source\PSoC4/cyfitter_cfg.c **** 			{0x04u, 0x11u},
 459:.\Generated_Source\PSoC4/cyfitter_cfg.c **** 			{0x07u, 0x10u},
 460:.\Generated_Source\PSoC4/cyfitter_cfg.c **** 			{0x08u, 0x0Au},
 461:.\Generated_Source\PSoC4/cyfitter_cfg.c **** 			{0x09u, 0x20u},
 462:.\Generated_Source\PSoC4/cyfitter_cfg.c **** 			{0x0Au, 0x81u},
 463:.\Generated_Source\PSoC4/cyfitter_cfg.c **** 			{0x0Bu, 0x08u},
ARM GAS  C:\Users\Steve\AppData\Local\Temp\ccueVkUZ.s 			page 20


 464:.\Generated_Source\PSoC4/cyfitter_cfg.c **** 			{0x0Cu, 0xA4u},
 465:.\Generated_Source\PSoC4/cyfitter_cfg.c **** 			{0x0Eu, 0x42u},
 466:.\Generated_Source\PSoC4/cyfitter_cfg.c **** 			{0x10u, 0x88u},
 467:.\Generated_Source\PSoC4/cyfitter_cfg.c **** 			{0x11u, 0x80u},
 468:.\Generated_Source\PSoC4/cyfitter_cfg.c **** 			{0x13u, 0x30u},
 469:.\Generated_Source\PSoC4/cyfitter_cfg.c **** 			{0x15u, 0x04u},
 470:.\Generated_Source\PSoC4/cyfitter_cfg.c **** 			{0x16u, 0x80u},
 471:.\Generated_Source\PSoC4/cyfitter_cfg.c **** 			{0x17u, 0x60u},
 472:.\Generated_Source\PSoC4/cyfitter_cfg.c **** 			{0x1Au, 0x01u},
 473:.\Generated_Source\PSoC4/cyfitter_cfg.c **** 			{0x1Bu, 0x10u},
 474:.\Generated_Source\PSoC4/cyfitter_cfg.c **** 			{0x1Cu, 0x10u},
 475:.\Generated_Source\PSoC4/cyfitter_cfg.c **** 			{0x1Du, 0x20u},
 476:.\Generated_Source\PSoC4/cyfitter_cfg.c **** 			{0x1Eu, 0x68u},
 477:.\Generated_Source\PSoC4/cyfitter_cfg.c **** 			{0x21u, 0x02u},
 478:.\Generated_Source\PSoC4/cyfitter_cfg.c **** 			{0x26u, 0x80u},
 479:.\Generated_Source\PSoC4/cyfitter_cfg.c **** 			{0x2Cu, 0x25u},
 480:.\Generated_Source\PSoC4/cyfitter_cfg.c **** 			{0x2Fu, 0x06u},
 481:.\Generated_Source\PSoC4/cyfitter_cfg.c **** 			{0x31u, 0x22u},
 482:.\Generated_Source\PSoC4/cyfitter_cfg.c **** 			{0x32u, 0x80u},
 483:.\Generated_Source\PSoC4/cyfitter_cfg.c **** 			{0x36u, 0x91u},
 484:.\Generated_Source\PSoC4/cyfitter_cfg.c **** 			{0x38u, 0x01u},
 485:.\Generated_Source\PSoC4/cyfitter_cfg.c **** 			{0x3Cu, 0x01u},
 486:.\Generated_Source\PSoC4/cyfitter_cfg.c **** 			{0x3Du, 0x84u},
 487:.\Generated_Source\PSoC4/cyfitter_cfg.c **** 			{0x3Eu, 0x80u},
 488:.\Generated_Source\PSoC4/cyfitter_cfg.c **** 			{0x3Fu, 0x10u},
 489:.\Generated_Source\PSoC4/cyfitter_cfg.c **** 			{0x5Du, 0x82u},
 490:.\Generated_Source\PSoC4/cyfitter_cfg.c **** 			{0x5Eu, 0x10u},
 491:.\Generated_Source\PSoC4/cyfitter_cfg.c **** 			{0x5Fu, 0x04u},
 492:.\Generated_Source\PSoC4/cyfitter_cfg.c **** 			{0x60u, 0x02u},
 493:.\Generated_Source\PSoC4/cyfitter_cfg.c **** 			{0x63u, 0x28u},
 494:.\Generated_Source\PSoC4/cyfitter_cfg.c **** 			{0x65u, 0x40u},
 495:.\Generated_Source\PSoC4/cyfitter_cfg.c **** 			{0x82u, 0x40u},
 496:.\Generated_Source\PSoC4/cyfitter_cfg.c **** 			{0xC0u, 0x7Du},
 497:.\Generated_Source\PSoC4/cyfitter_cfg.c **** 			{0xC2u, 0xFFu},
 498:.\Generated_Source\PSoC4/cyfitter_cfg.c **** 			{0xC4u, 0xFBu},
 499:.\Generated_Source\PSoC4/cyfitter_cfg.c **** 			{0xCAu, 0x70u},
 500:.\Generated_Source\PSoC4/cyfitter_cfg.c **** 			{0xCCu, 0xBDu},
 501:.\Generated_Source\PSoC4/cyfitter_cfg.c **** 			{0xCEu, 0xF1u},
 502:.\Generated_Source\PSoC4/cyfitter_cfg.c **** 			{0xD6u, 0xF0u},
 503:.\Generated_Source\PSoC4/cyfitter_cfg.c **** 			{0xD8u, 0x1Eu},
 504:.\Generated_Source\PSoC4/cyfitter_cfg.c **** 			{0x8Cu, 0x01u},
 505:.\Generated_Source\PSoC4/cyfitter_cfg.c **** 			{0x9Eu, 0x01u},
 506:.\Generated_Source\PSoC4/cyfitter_cfg.c **** 			{0xA0u, 0x01u},
 507:.\Generated_Source\PSoC4/cyfitter_cfg.c **** 			{0xA4u, 0x01u},
 508:.\Generated_Source\PSoC4/cyfitter_cfg.c **** 			{0xA8u, 0x01u},
 509:.\Generated_Source\PSoC4/cyfitter_cfg.c **** 			{0xB0u, 0x01u},
 510:.\Generated_Source\PSoC4/cyfitter_cfg.c **** 			{0xBEu, 0x01u},
 511:.\Generated_Source\PSoC4/cyfitter_cfg.c **** 			{0xD8u, 0x04u},
 512:.\Generated_Source\PSoC4/cyfitter_cfg.c **** 			{0xDFu, 0x01u},
 513:.\Generated_Source\PSoC4/cyfitter_cfg.c **** 			{0x00u, 0x80u},
 514:.\Generated_Source\PSoC4/cyfitter_cfg.c **** 			{0x04u, 0x09u},
 515:.\Generated_Source\PSoC4/cyfitter_cfg.c **** 			{0x06u, 0x01u},
 516:.\Generated_Source\PSoC4/cyfitter_cfg.c **** 			{0x09u, 0x40u},
 517:.\Generated_Source\PSoC4/cyfitter_cfg.c **** 			{0x0Cu, 0x81u},
 518:.\Generated_Source\PSoC4/cyfitter_cfg.c **** 			{0x0Eu, 0x24u},
 519:.\Generated_Source\PSoC4/cyfitter_cfg.c **** 			{0x10u, 0x88u},
 520:.\Generated_Source\PSoC4/cyfitter_cfg.c **** 			{0x11u, 0x04u},
ARM GAS  C:\Users\Steve\AppData\Local\Temp\ccueVkUZ.s 			page 21


 521:.\Generated_Source\PSoC4/cyfitter_cfg.c **** 			{0x14u, 0x08u},
 522:.\Generated_Source\PSoC4/cyfitter_cfg.c **** 			{0x15u, 0x04u},
 523:.\Generated_Source\PSoC4/cyfitter_cfg.c **** 			{0x17u, 0x41u},
 524:.\Generated_Source\PSoC4/cyfitter_cfg.c **** 			{0x19u, 0x02u},
 525:.\Generated_Source\PSoC4/cyfitter_cfg.c **** 			{0x1Du, 0x40u},
 526:.\Generated_Source\PSoC4/cyfitter_cfg.c **** 			{0x1Eu, 0x04u},
 527:.\Generated_Source\PSoC4/cyfitter_cfg.c **** 			{0x24u, 0x01u},
 528:.\Generated_Source\PSoC4/cyfitter_cfg.c **** 			{0x25u, 0x04u},
 529:.\Generated_Source\PSoC4/cyfitter_cfg.c **** 			{0x26u, 0x20u},
 530:.\Generated_Source\PSoC4/cyfitter_cfg.c **** 			{0x27u, 0x02u},
 531:.\Generated_Source\PSoC4/cyfitter_cfg.c **** 			{0x2Cu, 0xA0u},
 532:.\Generated_Source\PSoC4/cyfitter_cfg.c **** 			{0x2Fu, 0x06u},
 533:.\Generated_Source\PSoC4/cyfitter_cfg.c **** 			{0x34u, 0x8Au},
 534:.\Generated_Source\PSoC4/cyfitter_cfg.c **** 			{0x36u, 0x94u},
 535:.\Generated_Source\PSoC4/cyfitter_cfg.c **** 			{0x37u, 0x42u},
 536:.\Generated_Source\PSoC4/cyfitter_cfg.c **** 			{0x3Cu, 0x80u},
 537:.\Generated_Source\PSoC4/cyfitter_cfg.c **** 			{0x3Du, 0x04u},
 538:.\Generated_Source\PSoC4/cyfitter_cfg.c **** 			{0x3Eu, 0x10u},
 539:.\Generated_Source\PSoC4/cyfitter_cfg.c **** 			{0x44u, 0x8Au},
 540:.\Generated_Source\PSoC4/cyfitter_cfg.c **** 			{0x4Eu, 0x44u},
 541:.\Generated_Source\PSoC4/cyfitter_cfg.c **** 			{0x4Fu, 0x84u},
 542:.\Generated_Source\PSoC4/cyfitter_cfg.c **** 			{0x54u, 0x20u},
 543:.\Generated_Source\PSoC4/cyfitter_cfg.c **** 			{0x56u, 0x01u},
 544:.\Generated_Source\PSoC4/cyfitter_cfg.c **** 			{0x57u, 0x04u},
 545:.\Generated_Source\PSoC4/cyfitter_cfg.c **** 			{0x62u, 0x30u},
 546:.\Generated_Source\PSoC4/cyfitter_cfg.c **** 			{0x66u, 0x10u},
 547:.\Generated_Source\PSoC4/cyfitter_cfg.c **** 			{0x67u, 0x08u},
 548:.\Generated_Source\PSoC4/cyfitter_cfg.c **** 			{0x6Cu, 0x8Cu},
 549:.\Generated_Source\PSoC4/cyfitter_cfg.c **** 			{0x6Du, 0x84u},
 550:.\Generated_Source\PSoC4/cyfitter_cfg.c **** 			{0x6Eu, 0x10u},
 551:.\Generated_Source\PSoC4/cyfitter_cfg.c **** 			{0x6Fu, 0x03u},
 552:.\Generated_Source\PSoC4/cyfitter_cfg.c **** 			{0x74u, 0x40u},
 553:.\Generated_Source\PSoC4/cyfitter_cfg.c **** 			{0x81u, 0x84u},
 554:.\Generated_Source\PSoC4/cyfitter_cfg.c **** 			{0x86u, 0x04u},
 555:.\Generated_Source\PSoC4/cyfitter_cfg.c **** 			{0x89u, 0x02u},
 556:.\Generated_Source\PSoC4/cyfitter_cfg.c **** 			{0x8Au, 0x04u},
 557:.\Generated_Source\PSoC4/cyfitter_cfg.c **** 			{0x94u, 0x01u},
 558:.\Generated_Source\PSoC4/cyfitter_cfg.c **** 			{0x95u, 0x04u},
 559:.\Generated_Source\PSoC4/cyfitter_cfg.c **** 			{0x96u, 0x80u},
 560:.\Generated_Source\PSoC4/cyfitter_cfg.c **** 			{0x97u, 0x04u},
 561:.\Generated_Source\PSoC4/cyfitter_cfg.c **** 			{0x98u, 0x01u},
 562:.\Generated_Source\PSoC4/cyfitter_cfg.c **** 			{0x9Du, 0xC2u},
 563:.\Generated_Source\PSoC4/cyfitter_cfg.c **** 			{0x9Fu, 0x40u},
 564:.\Generated_Source\PSoC4/cyfitter_cfg.c **** 			{0xA2u, 0x94u},
 565:.\Generated_Source\PSoC4/cyfitter_cfg.c **** 			{0xA3u, 0x40u},
 566:.\Generated_Source\PSoC4/cyfitter_cfg.c **** 			{0xA4u, 0xE8u},
 567:.\Generated_Source\PSoC4/cyfitter_cfg.c **** 			{0xA5u, 0x40u},
 568:.\Generated_Source\PSoC4/cyfitter_cfg.c **** 			{0xA7u, 0x04u},
 569:.\Generated_Source\PSoC4/cyfitter_cfg.c **** 			{0xABu, 0x40u},
 570:.\Generated_Source\PSoC4/cyfitter_cfg.c **** 			{0xB4u, 0x28u},
 571:.\Generated_Source\PSoC4/cyfitter_cfg.c **** 			{0xB6u, 0x90u},
 572:.\Generated_Source\PSoC4/cyfitter_cfg.c **** 			{0xB7u, 0x12u},
 573:.\Generated_Source\PSoC4/cyfitter_cfg.c **** 			{0xC0u, 0xB1u},
 574:.\Generated_Source\PSoC4/cyfitter_cfg.c **** 			{0xC2u, 0xF1u},
 575:.\Generated_Source\PSoC4/cyfitter_cfg.c **** 			{0xC4u, 0xFEu},
 576:.\Generated_Source\PSoC4/cyfitter_cfg.c **** 			{0xCAu, 0xF0u},
 577:.\Generated_Source\PSoC4/cyfitter_cfg.c **** 			{0xCCu, 0xF0u},
ARM GAS  C:\Users\Steve\AppData\Local\Temp\ccueVkUZ.s 			page 22


 578:.\Generated_Source\PSoC4/cyfitter_cfg.c **** 			{0xCEu, 0x70u},
 579:.\Generated_Source\PSoC4/cyfitter_cfg.c **** 			{0xD0u, 0xB0u},
 580:.\Generated_Source\PSoC4/cyfitter_cfg.c **** 			{0xD2u, 0x30u},
 581:.\Generated_Source\PSoC4/cyfitter_cfg.c **** 			{0xD8u, 0x20u},
 582:.\Generated_Source\PSoC4/cyfitter_cfg.c **** 			{0x0Eu, 0x40u},
 583:.\Generated_Source\PSoC4/cyfitter_cfg.c **** 			{0x62u, 0x01u},
 584:.\Generated_Source\PSoC4/cyfitter_cfg.c **** 			{0x64u, 0x01u},
 585:.\Generated_Source\PSoC4/cyfitter_cfg.c **** 			{0x82u, 0x01u},
 586:.\Generated_Source\PSoC4/cyfitter_cfg.c **** 			{0xC2u, 0x20u},
 587:.\Generated_Source\PSoC4/cyfitter_cfg.c **** 			{0xD6u, 0x80u},
 588:.\Generated_Source\PSoC4/cyfitter_cfg.c **** 			{0xD8u, 0x40u},
 589:.\Generated_Source\PSoC4/cyfitter_cfg.c **** 			{0xE2u, 0x20u},
 590:.\Generated_Source\PSoC4/cyfitter_cfg.c **** 			{0x0Au, 0x40u},
 591:.\Generated_Source\PSoC4/cyfitter_cfg.c **** 			{0x42u, 0x40u},
 592:.\Generated_Source\PSoC4/cyfitter_cfg.c **** 			{0x84u, 0x01u},
 593:.\Generated_Source\PSoC4/cyfitter_cfg.c **** 			{0x9Cu, 0x01u},
 594:.\Generated_Source\PSoC4/cyfitter_cfg.c **** 			{0xAAu, 0x40u},
 595:.\Generated_Source\PSoC4/cyfitter_cfg.c **** 			{0xC2u, 0x10u},
 596:.\Generated_Source\PSoC4/cyfitter_cfg.c **** 			{0xD0u, 0x40u},
 597:.\Generated_Source\PSoC4/cyfitter_cfg.c **** 			{0xE2u, 0x40u},
 598:.\Generated_Source\PSoC4/cyfitter_cfg.c **** 			{0xE8u, 0x20u},
 599:.\Generated_Source\PSoC4/cyfitter_cfg.c **** 			{0x10u, 0x01u},
 600:.\Generated_Source\PSoC4/cyfitter_cfg.c **** 			{0x11u, 0x01u},
 601:.\Generated_Source\PSoC4/cyfitter_cfg.c **** 		};
 602:.\Generated_Source\PSoC4/cyfitter_cfg.c **** 
 603:.\Generated_Source\PSoC4/cyfitter_cfg.c **** 
 604:.\Generated_Source\PSoC4/cyfitter_cfg.c **** 
 605:.\Generated_Source\PSoC4/cyfitter_cfg.c **** 		CYPACKED typedef struct {
 606:.\Generated_Source\PSoC4/cyfitter_cfg.c **** 			void CYFAR *address;
 607:.\Generated_Source\PSoC4/cyfitter_cfg.c **** 			uint16 size;
 608:.\Generated_Source\PSoC4/cyfitter_cfg.c **** 		} CYPACKED_ATTR cfg_memset_t;
 609:.\Generated_Source\PSoC4/cyfitter_cfg.c **** 
 610:.\Generated_Source\PSoC4/cyfitter_cfg.c **** 
 611:.\Generated_Source\PSoC4/cyfitter_cfg.c **** 		CYPACKED typedef struct {
 612:.\Generated_Source\PSoC4/cyfitter_cfg.c **** 			void CYFAR *dest;
 613:.\Generated_Source\PSoC4/cyfitter_cfg.c **** 			const void CYCODE *src;
 614:.\Generated_Source\PSoC4/cyfitter_cfg.c **** 			uint16 size;
 615:.\Generated_Source\PSoC4/cyfitter_cfg.c **** 		} CYPACKED_ATTR cfg_memcpy_t;
 616:.\Generated_Source\PSoC4/cyfitter_cfg.c **** 
 617:.\Generated_Source\PSoC4/cyfitter_cfg.c **** 		static const cfg_memset_t CYCODE cfg_memset_list [] = {
 618:.\Generated_Source\PSoC4/cyfitter_cfg.c **** 			/* address, size */
 619:.\Generated_Source\PSoC4/cyfitter_cfg.c **** 			{(void CYFAR *)(CYDEV_UDB_P0_U0_BASE), 512u},
 620:.\Generated_Source\PSoC4/cyfitter_cfg.c **** 			{(void CYFAR *)(CYDEV_UDB_P1_U1_BASE), 384u},
 621:.\Generated_Source\PSoC4/cyfitter_cfg.c **** 			{(void CYFAR *)(CYDEV_UDB_DSI0_BASE), 1024u},
 622:.\Generated_Source\PSoC4/cyfitter_cfg.c **** 		};
 623:.\Generated_Source\PSoC4/cyfitter_cfg.c **** 
 624:.\Generated_Source\PSoC4/cyfitter_cfg.c **** 		/* UDB_0_0_1_CONFIG Address: CYDEV_UDB_P1_U0_BASE Size (bytes): 128 */
 625:.\Generated_Source\PSoC4/cyfitter_cfg.c **** 		static const uint8 CYCODE BS_UDB_0_0_1_CONFIG_VAL[] = {
 626:.\Generated_Source\PSoC4/cyfitter_cfg.c **** 			0x07u, 0x00u, 0x38u, 0x00u, 0x00u, 0x20u, 0x04u, 0x40u, 0x00u, 0x40u, 0x00u, 0x20u, 0x60u, 0x60u
 627:.\Generated_Source\PSoC4/cyfitter_cfg.c **** 			0x04u, 0x73u, 0x00u, 0x8Cu, 0x04u, 0x29u, 0x00u, 0xD6u, 0x01u, 0x20u, 0x00u, 0x00u, 0x04u, 0x95u
 628:.\Generated_Source\PSoC4/cyfitter_cfg.c **** 			0x04u, 0x60u, 0x00u, 0x00u, 0x04u, 0x40u, 0x00u, 0x00u, 0x56u, 0x02u, 0x09u, 0x0Du, 0x0Au, 0x20u
 629:.\Generated_Source\PSoC4/cyfitter_cfg.c **** 			0x00u, 0x00u, 0x00u, 0x80u, 0x7Fu, 0x0Fu, 0x02u, 0x70u, 0x20u, 0x00u, 0x00u, 0x20u, 0x00u, 0x00u
 630:.\Generated_Source\PSoC4/cyfitter_cfg.c **** 			0x42u, 0x01u, 0x60u, 0x00u, 0x05u, 0xDEu, 0xC0u, 0xBFu, 0x3Bu, 0xFFu, 0xFFu, 0xFFu, 0x22u, 0x00u
 631:.\Generated_Source\PSoC4/cyfitter_cfg.c **** 			0x04u, 0x00u, 0x00u, 0x00u, 0x00u, 0x00u, 0x02u, 0x24u, 0x04u, 0x04u, 0x04u, 0x04u, 0x00u, 0x00u
 632:.\Generated_Source\PSoC4/cyfitter_cfg.c **** 			0x00u, 0x00u, 0xC0u, 0x00u, 0x40u, 0x01u, 0x10u, 0x11u, 0xC0u, 0x01u, 0x00u, 0x11u, 0x40u, 0x01u
 633:.\Generated_Source\PSoC4/cyfitter_cfg.c **** 			0x00u, 0x00u, 0x00u, 0x00u, 0x00u, 0x00u, 0x00u, 0x00u, 0x00u, 0x00u, 0x00u, 0x00u, 0x00u, 0x00u
 634:.\Generated_Source\PSoC4/cyfitter_cfg.c **** 
ARM GAS  C:\Users\Steve\AppData\Local\Temp\ccueVkUZ.s 			page 23


 635:.\Generated_Source\PSoC4/cyfitter_cfg.c **** 		static const cfg_memcpy_t CYCODE cfg_memcpy_list [] = {
 636:.\Generated_Source\PSoC4/cyfitter_cfg.c **** 			/* dest, src, size */
 637:.\Generated_Source\PSoC4/cyfitter_cfg.c **** 			{(void CYFAR *)(CYDEV_UDB_P1_U0_BASE), BS_UDB_0_0_1_CONFIG_VAL, 128u},
 638:.\Generated_Source\PSoC4/cyfitter_cfg.c **** 		};
 639:.\Generated_Source\PSoC4/cyfitter_cfg.c **** 
 640:.\Generated_Source\PSoC4/cyfitter_cfg.c **** 		uint8 CYDATA i;
 641:.\Generated_Source\PSoC4/cyfitter_cfg.c **** 
 642:.\Generated_Source\PSoC4/cyfitter_cfg.c **** 		/* Zero out critical memory blocks before beginning configuration */
 643:.\Generated_Source\PSoC4/cyfitter_cfg.c **** 		for (i = 0u; i < (sizeof(cfg_memset_list)/sizeof(cfg_memset_list[0])); i++)
 615              		.loc 1 643 0
 616 0198 3B1C     		mov	r3, r7
 617 019a 1733     		add	r3, r3, #23
 618 019c 0022     		mov	r2, #0
 619 019e 1A70     		strb	r2, [r3]
 620 01a0 26E0     		b	.L27
 621              	.L28:
 622              	.LBB4:
 644:.\Generated_Source\PSoC4/cyfitter_cfg.c **** 		{
 645:.\Generated_Source\PSoC4/cyfitter_cfg.c **** 			const cfg_memset_t CYCODE * CYDATA ms = &cfg_memset_list[i];
 623              		.loc 1 645 0 discriminator 2
 624 01a2 3B1C     		mov	r3, r7
 625 01a4 1733     		add	r3, r3, #23
 626 01a6 1A78     		ldrb	r2, [r3]
 627 01a8 131C     		mov	r3, r2
 628 01aa 5B00     		lsl	r3, r3, #1
 629 01ac 9B18     		add	r3, r3, r2
 630 01ae 5B00     		lsl	r3, r3, #1
 631 01b0 674A     		ldr	r2, .L31
 632 01b2 9B18     		add	r3, r3, r2
 633 01b4 3B61     		str	r3, [r7, #16]
 646:.\Generated_Source\PSoC4/cyfitter_cfg.c **** 			CYMEMZERO(ms->address, (uint32)(ms->size));
 634              		.loc 1 646 0 discriminator 2
 635 01b6 3B69     		ldr	r3, [r7, #16]
 636 01b8 1A78     		ldrb	r2, [r3]
 637 01ba 5978     		ldrb	r1, [r3, #1]
 638 01bc 0902     		lsl	r1, r1, #8
 639 01be 0A43     		orr	r2, r1
 640 01c0 9978     		ldrb	r1, [r3, #2]
 641 01c2 0904     		lsl	r1, r1, #16
 642 01c4 0A43     		orr	r2, r1
 643 01c6 DB78     		ldrb	r3, [r3, #3]
 644 01c8 1B06     		lsl	r3, r3, #24
 645 01ca 1343     		orr	r3, r2
 646 01cc 1A1C     		mov	r2, r3
 647 01ce 3B69     		ldr	r3, [r7, #16]
 648 01d0 1979     		ldrb	r1, [r3, #4]
 649 01d2 5B79     		ldrb	r3, [r3, #5]
 650 01d4 1B02     		lsl	r3, r3, #8
 651 01d6 0B43     		orr	r3, r1
 652 01d8 9BB2     		uxth	r3, r3
 653 01da 101C     		mov	r0, r2
 654 01dc 191C     		mov	r1, r3
 655 01de FFF7FEFF 		bl	CYMEMZERO
 656              	.LBE4:
 643:.\Generated_Source\PSoC4/cyfitter_cfg.c **** 		for (i = 0u; i < (sizeof(cfg_memset_list)/sizeof(cfg_memset_list[0])); i++)
 657              		.loc 1 643 0 discriminator 2
 658 01e2 3B1C     		mov	r3, r7
ARM GAS  C:\Users\Steve\AppData\Local\Temp\ccueVkUZ.s 			page 24


 659 01e4 1733     		add	r3, r3, #23
 660 01e6 3A1C     		mov	r2, r7
 661 01e8 1732     		add	r2, r2, #23
 662 01ea 1278     		ldrb	r2, [r2]
 663 01ec 0132     		add	r2, r2, #1
 664 01ee 1A70     		strb	r2, [r3]
 665              	.L27:
 643:.\Generated_Source\PSoC4/cyfitter_cfg.c **** 		for (i = 0u; i < (sizeof(cfg_memset_list)/sizeof(cfg_memset_list[0])); i++)
 666              		.loc 1 643 0 is_stmt 0 discriminator 1
 667 01f0 3B1C     		mov	r3, r7
 668 01f2 1733     		add	r3, r3, #23
 669 01f4 1B78     		ldrb	r3, [r3]
 670 01f6 022B     		cmp	r3, #2
 671 01f8 D3D9     		bls	.L28
 647:.\Generated_Source\PSoC4/cyfitter_cfg.c **** 		}
 648:.\Generated_Source\PSoC4/cyfitter_cfg.c **** 
 649:.\Generated_Source\PSoC4/cyfitter_cfg.c **** 		/* Copy device configuration data into registers */
 650:.\Generated_Source\PSoC4/cyfitter_cfg.c **** 		for (i = 0u; i < (sizeof(cfg_memcpy_list)/sizeof(cfg_memcpy_list[0])); i++)
 672              		.loc 1 650 0 is_stmt 1
 673 01fa 3B1C     		mov	r3, r7
 674 01fc 1733     		add	r3, r3, #23
 675 01fe 0022     		mov	r2, #0
 676 0200 1A70     		strb	r2, [r3]
 677 0202 38E0     		b	.L29
 678              	.L30:
 679              	.LBB5:
 651:.\Generated_Source\PSoC4/cyfitter_cfg.c **** 		{
 652:.\Generated_Source\PSoC4/cyfitter_cfg.c **** 			const cfg_memcpy_t CYCODE * CYDATA mc = &cfg_memcpy_list[i];
 680              		.loc 1 652 0 discriminator 2
 681 0204 3B1C     		mov	r3, r7
 682 0206 1733     		add	r3, r3, #23
 683 0208 1A78     		ldrb	r2, [r3]
 684 020a 131C     		mov	r3, r2
 685 020c 9B00     		lsl	r3, r3, #2
 686 020e 9B18     		add	r3, r3, r2
 687 0210 5B00     		lsl	r3, r3, #1
 688 0212 504A     		ldr	r2, .L31+4
 689 0214 9B18     		add	r3, r3, r2
 690 0216 FB60     		str	r3, [r7, #12]
 653:.\Generated_Source\PSoC4/cyfitter_cfg.c **** 			void * CYDATA destPtr = mc->dest;
 691              		.loc 1 653 0 discriminator 2
 692 0218 FB68     		ldr	r3, [r7, #12]
 693 021a 1A78     		ldrb	r2, [r3]
 694 021c 5978     		ldrb	r1, [r3, #1]
 695 021e 0902     		lsl	r1, r1, #8
 696 0220 0A43     		orr	r2, r1
 697 0222 9978     		ldrb	r1, [r3, #2]
 698 0224 0904     		lsl	r1, r1, #16
 699 0226 0A43     		orr	r2, r1
 700 0228 DB78     		ldrb	r3, [r3, #3]
 701 022a 1B06     		lsl	r3, r3, #24
 702 022c 1343     		orr	r3, r2
 703 022e BB60     		str	r3, [r7, #8]
 654:.\Generated_Source\PSoC4/cyfitter_cfg.c **** 			const void CYCODE * CYDATA srcPtr = mc->src;
 704              		.loc 1 654 0 discriminator 2
 705 0230 FB68     		ldr	r3, [r7, #12]
 706 0232 1A79     		ldrb	r2, [r3, #4]
ARM GAS  C:\Users\Steve\AppData\Local\Temp\ccueVkUZ.s 			page 25


 707 0234 5979     		ldrb	r1, [r3, #5]
 708 0236 0902     		lsl	r1, r1, #8
 709 0238 0A43     		orr	r2, r1
 710 023a 9979     		ldrb	r1, [r3, #6]
 711 023c 0904     		lsl	r1, r1, #16
 712 023e 0A43     		orr	r2, r1
 713 0240 DB79     		ldrb	r3, [r3, #7]
 714 0242 1B06     		lsl	r3, r3, #24
 715 0244 1343     		orr	r3, r2
 716 0246 7B60     		str	r3, [r7, #4]
 655:.\Generated_Source\PSoC4/cyfitter_cfg.c **** 			uint16 CYDATA numBytes = mc->size;
 717              		.loc 1 655 0 discriminator 2
 718 0248 BA1C     		add	r2, r7, #2
 719 024a FB68     		ldr	r3, [r7, #12]
 720 024c 197A     		ldrb	r1, [r3, #8]
 721 024e 5B7A     		ldrb	r3, [r3, #9]
 722 0250 1B02     		lsl	r3, r3, #8
 723 0252 0B43     		orr	r3, r1
 724 0254 1380     		strh	r3, [r2]
 656:.\Generated_Source\PSoC4/cyfitter_cfg.c **** 			CYCONFIGCPYCODE(destPtr, srcPtr, numBytes);
 725              		.loc 1 656 0 discriminator 2
 726 0256 BB1C     		add	r3, r7, #2
 727 0258 1B88     		ldrh	r3, [r3]
 728 025a B968     		ldr	r1, [r7, #8]
 729 025c 7A68     		ldr	r2, [r7, #4]
 730 025e 081C     		mov	r0, r1
 731 0260 111C     		mov	r1, r2
 732 0262 1A1C     		mov	r2, r3
 733 0264 FFF7FEFF 		bl	CYCONFIGCPYCODE
 734              	.LBE5:
 650:.\Generated_Source\PSoC4/cyfitter_cfg.c **** 		for (i = 0u; i < (sizeof(cfg_memcpy_list)/sizeof(cfg_memcpy_list[0])); i++)
 735              		.loc 1 650 0 discriminator 2
 736 0268 3B1C     		mov	r3, r7
 737 026a 1733     		add	r3, r3, #23
 738 026c 3A1C     		mov	r2, r7
 739 026e 1732     		add	r2, r2, #23
 740 0270 1278     		ldrb	r2, [r2]
 741 0272 0132     		add	r2, r2, #1
 742 0274 1A70     		strb	r2, [r3]
 743              	.L29:
 650:.\Generated_Source\PSoC4/cyfitter_cfg.c **** 		for (i = 0u; i < (sizeof(cfg_memcpy_list)/sizeof(cfg_memcpy_list[0])); i++)
 744              		.loc 1 650 0 is_stmt 0 discriminator 1
 745 0276 3B1C     		mov	r3, r7
 746 0278 1733     		add	r3, r3, #23
 747 027a 1B78     		ldrb	r3, [r3]
 748 027c 002B     		cmp	r3, #0
 749 027e C1D0     		beq	.L30
 657:.\Generated_Source\PSoC4/cyfitter_cfg.c **** 		}
 658:.\Generated_Source\PSoC4/cyfitter_cfg.c **** 
 659:.\Generated_Source\PSoC4/cyfitter_cfg.c **** 		cfg_write_bytes32(cy_cfg_addr_table, cy_cfg_data_table);
 750              		.loc 1 659 0 is_stmt 1
 751 0280 354A     		ldr	r2, .L31+8
 752 0282 364B     		ldr	r3, .L31+12
 753 0284 101C     		mov	r0, r2
 754 0286 191C     		mov	r1, r3
 755 0288 FFF7FEFF 		bl	cfg_write_bytes32
 660:.\Generated_Source\PSoC4/cyfitter_cfg.c **** 
ARM GAS  C:\Users\Steve\AppData\Local\Temp\ccueVkUZ.s 			page 26


 661:.\Generated_Source\PSoC4/cyfitter_cfg.c **** 		/* Perform normal device configuration. Order is not critical for these items. */
 662:.\Generated_Source\PSoC4/cyfitter_cfg.c **** 		CY_SET_XTND_REG16((void CYFAR *)(CYREG_UDB_BCTL0_DRV), 0x0100u);
 756              		.loc 1 662 0
 757 028c 344B     		ldr	r3, .L31+16
 758 028e 8022     		mov	r2, #128
 759 0290 5200     		lsl	r2, r2, #1
 760 0292 1A80     		strh	r2, [r3]
 663:.\Generated_Source\PSoC4/cyfitter_cfg.c **** 		CY_SET_XTND_REG8((void CYFAR *)(CYREG_UDB_BCTL0_DRV + 0x2u), 0x01u);
 761              		.loc 1 663 0
 762 0294 334B     		ldr	r3, .L31+20
 763 0296 0122     		mov	r2, #1
 764 0298 1A70     		strb	r2, [r3]
 664:.\Generated_Source\PSoC4/cyfitter_cfg.c **** 
 665:.\Generated_Source\PSoC4/cyfitter_cfg.c **** 		/* HSIOM Starting address: CYDEV_HSIOM_BASE */
 666:.\Generated_Source\PSoC4/cyfitter_cfg.c **** 		CY_SET_XTND_REG32((void CYFAR *)(CYDEV_HSIOM_BASE), 0x03030000u);
 765              		.loc 1 666 0
 766 029a 334B     		ldr	r3, .L31+24
 767 029c 334A     		ldr	r2, .L31+28
 768 029e 1A60     		str	r2, [r3]
 667:.\Generated_Source\PSoC4/cyfitter_cfg.c **** 		CY_SET_XTND_REG32((void CYFAR *)(CYREG_HSIOM_PORT_SEL3), 0x0000EEEEu);
 769              		.loc 1 667 0
 770 02a0 334B     		ldr	r3, .L31+32
 771 02a2 344A     		ldr	r2, .L31+36
 772 02a4 1A60     		str	r2, [r3]
 668:.\Generated_Source\PSoC4/cyfitter_cfg.c **** 		CY_SET_XTND_REG32((void CYFAR *)(CYREG_HSIOM_PORT_SEL4), 0x00000099u);
 773              		.loc 1 668 0
 774 02a6 344B     		ldr	r3, .L31+40
 775 02a8 9922     		mov	r2, #153
 776 02aa 1A60     		str	r2, [r3]
 669:.\Generated_Source\PSoC4/cyfitter_cfg.c **** 
 670:.\Generated_Source\PSoC4/cyfitter_cfg.c **** 		/* IOPINS0_0 Starting address: CYDEV_PRT0_DR */
 671:.\Generated_Source\PSoC4/cyfitter_cfg.c **** 		CY_SET_XTND_REG32((void CYFAR *)(CYREG_PRT0_DR), 0x000000DDu);
 777              		.loc 1 671 0
 778 02ac 334B     		ldr	r3, .L31+44
 779 02ae DD22     		mov	r2, #221
 780 02b0 1A60     		str	r2, [r3]
 672:.\Generated_Source\PSoC4/cyfitter_cfg.c **** 		CY_SET_XTND_REG32((void CYFAR *)(CYREG_PRT0_PC), 0x0058ED8Au);
 781              		.loc 1 672 0
 782 02b2 334B     		ldr	r3, .L31+48
 783 02b4 334A     		ldr	r2, .L31+52
 784 02b6 1A60     		str	r2, [r3]
 673:.\Generated_Source\PSoC4/cyfitter_cfg.c **** 
 674:.\Generated_Source\PSoC4/cyfitter_cfg.c **** 		/* IOPINS0_1 Starting address: CYDEV_PRT1_DR */
 675:.\Generated_Source\PSoC4/cyfitter_cfg.c **** 		CY_SET_XTND_REG32((void CYFAR *)(CYREG_PRT1_PC), 0x00181DB6u);
 785              		.loc 1 675 0
 786 02b8 334B     		ldr	r3, .L31+56
 787 02ba 344A     		ldr	r2, .L31+60
 788 02bc 1A60     		str	r2, [r3]
 676:.\Generated_Source\PSoC4/cyfitter_cfg.c **** 
 677:.\Generated_Source\PSoC4/cyfitter_cfg.c **** 		/* IOPINS0_2 Starting address: CYDEV_PRT2_DR */
 678:.\Generated_Source\PSoC4/cyfitter_cfg.c **** 		CY_SET_XTND_REG32((void CYFAR *)(CYREG_PRT2_DR), 0x00000003u);
 789              		.loc 1 678 0
 790 02be 344B     		ldr	r3, .L31+64
 791 02c0 0322     		mov	r2, #3
 792 02c2 1A60     		str	r2, [r3]
 679:.\Generated_Source\PSoC4/cyfitter_cfg.c **** 		CY_SET_XTND_REG32((void CYFAR *)(CYREG_PRT2_PC2), 0x00000003u);
 793              		.loc 1 679 0
ARM GAS  C:\Users\Steve\AppData\Local\Temp\ccueVkUZ.s 			page 27


 794 02c4 334B     		ldr	r3, .L31+68
 795 02c6 0322     		mov	r2, #3
 796 02c8 1A60     		str	r2, [r3]
 680:.\Generated_Source\PSoC4/cyfitter_cfg.c **** 
 681:.\Generated_Source\PSoC4/cyfitter_cfg.c **** 		/* IOPINS0_3 Starting address: CYDEV_PRT3_DR */
 682:.\Generated_Source\PSoC4/cyfitter_cfg.c **** 		CY_SET_XTND_REG32((void CYFAR *)(CYREG_PRT3_DR), 0x00000003u);
 797              		.loc 1 682 0
 798 02ca 334B     		ldr	r3, .L31+72
 799 02cc 0322     		mov	r2, #3
 800 02ce 1A60     		str	r2, [r3]
 683:.\Generated_Source\PSoC4/cyfitter_cfg.c **** 		CY_SET_XTND_REG32((void CYFAR *)(CYREG_PRT3_PC), 0x00000DA4u);
 801              		.loc 1 683 0
 802 02d0 324B     		ldr	r3, .L31+76
 803 02d2 334A     		ldr	r2, .L31+80
 804 02d4 1A60     		str	r2, [r3]
 684:.\Generated_Source\PSoC4/cyfitter_cfg.c **** 
 685:.\Generated_Source\PSoC4/cyfitter_cfg.c **** 		/* IOPINS0_4 Starting address: CYDEV_PRT4_DR */
 686:.\Generated_Source\PSoC4/cyfitter_cfg.c **** 		CY_SET_XTND_REG32((void CYFAR *)(CYREG_PRT4_DR), 0x00000002u);
 805              		.loc 1 686 0
 806 02d6 334B     		ldr	r3, .L31+84
 807 02d8 0222     		mov	r2, #2
 808 02da 1A60     		str	r2, [r3]
 687:.\Generated_Source\PSoC4/cyfitter_cfg.c **** 		CY_SET_XTND_REG32((void CYFAR *)(CYREG_PRT4_PC), 0x00000031u);
 809              		.loc 1 687 0
 810 02dc 324B     		ldr	r3, .L31+88
 811 02de 3122     		mov	r2, #49
 812 02e0 1A60     		str	r2, [r3]
 688:.\Generated_Source\PSoC4/cyfitter_cfg.c **** 		CY_SET_XTND_REG32((void CYFAR *)(CYREG_PRT4_PC2), 0x00000002u);
 813              		.loc 1 688 0
 814 02e2 324B     		ldr	r3, .L31+92
 815 02e4 0222     		mov	r2, #2
 816 02e6 1A60     		str	r2, [r3]
 689:.\Generated_Source\PSoC4/cyfitter_cfg.c **** 
 690:.\Generated_Source\PSoC4/cyfitter_cfg.c **** 		/* UDB_PA_0 Starting address: CYDEV_UDB_PA0_BASE */
 691:.\Generated_Source\PSoC4/cyfitter_cfg.c **** 		CY_SET_XTND_REG32((void CYFAR *)(CYDEV_UDB_PA0_BASE), 0x00990004u);
 817              		.loc 1 691 0
 818 02e8 314B     		ldr	r3, .L31+96
 819 02ea 324A     		ldr	r2, .L31+100
 820 02ec 1A60     		str	r2, [r3]
 692:.\Generated_Source\PSoC4/cyfitter_cfg.c **** 		CY_SET_XTND_REG32((void CYFAR *)(CYREG_UDB_PA0_CFG4), 0x880A0000u);
 821              		.loc 1 692 0
 822 02ee 324B     		ldr	r3, .L31+104
 823 02f0 324A     		ldr	r2, .L31+108
 824 02f2 1A60     		str	r2, [r3]
 693:.\Generated_Source\PSoC4/cyfitter_cfg.c **** 		CY_SET_XTND_REG32((void CYFAR *)(CYREG_UDB_PA0_CFG8), 0x21000000u);
 825              		.loc 1 693 0
 826 02f4 324B     		ldr	r3, .L31+112
 827 02f6 8422     		mov	r2, #132
 828 02f8 9205     		lsl	r2, r2, #22
 829 02fa 1A60     		str	r2, [r3]
 694:.\Generated_Source\PSoC4/cyfitter_cfg.c **** 
 695:.\Generated_Source\PSoC4/cyfitter_cfg.c **** 		/* UDB_PA_1 Starting address: CYDEV_UDB_PA1_BASE */
 696:.\Generated_Source\PSoC4/cyfitter_cfg.c **** 		CY_SET_XTND_REG32((void CYFAR *)(CYDEV_UDB_PA1_BASE), 0x00990004u);
 830              		.loc 1 696 0
 831 02fc 314B     		ldr	r3, .L31+116
 832 02fe 2D4A     		ldr	r2, .L31+100
 833 0300 1A60     		str	r2, [r3]
ARM GAS  C:\Users\Steve\AppData\Local\Temp\ccueVkUZ.s 			page 28


 697:.\Generated_Source\PSoC4/cyfitter_cfg.c **** 		CY_SET_XTND_REG32((void CYFAR *)(CYREG_UDB_PA1_CFG4), 0x02000000u);
 834              		.loc 1 697 0
 835 0302 314B     		ldr	r3, .L31+120
 836 0304 8022     		mov	r2, #128
 837 0306 9204     		lsl	r2, r2, #18
 838 0308 1A60     		str	r2, [r3]
 698:.\Generated_Source\PSoC4/cyfitter_cfg.c **** 
 699:.\Generated_Source\PSoC4/cyfitter_cfg.c **** 		/* UDB_PA_2 Starting address: CYDEV_UDB_PA2_BASE */
 700:.\Generated_Source\PSoC4/cyfitter_cfg.c **** 		CY_SET_XTND_REG32((void CYFAR *)(CYDEV_UDB_PA2_BASE), 0x00990000u);
 839              		.loc 1 700 0
 840 030a 304B     		ldr	r3, .L31+124
 841 030c 9922     		mov	r2, #153
 842 030e 1204     		lsl	r2, r2, #16
 843 0310 1A60     		str	r2, [r3]
 701:.\Generated_Source\PSoC4/cyfitter_cfg.c **** 
 702:.\Generated_Source\PSoC4/cyfitter_cfg.c **** 		/* UDB_PA_3 Starting address: CYDEV_UDB_PA3_BASE */
 703:.\Generated_Source\PSoC4/cyfitter_cfg.c **** 		CY_SET_XTND_REG32((void CYFAR *)(CYDEV_UDB_PA3_BASE), 0x00990000u);
 844              		.loc 1 703 0
 845 0312 2F4B     		ldr	r3, .L31+128
 846 0314 9922     		mov	r2, #153
 847 0316 1204     		lsl	r2, r2, #16
 848 0318 1A60     		str	r2, [r3]
 704:.\Generated_Source\PSoC4/cyfitter_cfg.c **** 
 705:.\Generated_Source\PSoC4/cyfitter_cfg.c **** 		/* TCPWM_CNT0 Starting address: CYDEV_TCPWM_CNT0_TR_CTRL0 */
 706:.\Generated_Source\PSoC4/cyfitter_cfg.c **** 		CY_SET_XTND_REG32((void CYFAR *)(CYREG_TCPWM_CNT0_TR_CTRL0), 0x0000001Cu);
 849              		.loc 1 706 0
 850 031a 2E4B     		ldr	r3, .L31+132
 851 031c 1C22     		mov	r2, #28
 852 031e 1A60     		str	r2, [r3]
 707:.\Generated_Source\PSoC4/cyfitter_cfg.c **** 
 708:.\Generated_Source\PSoC4/cyfitter_cfg.c **** 		/* Enable digital routing */
 709:.\Generated_Source\PSoC4/cyfitter_cfg.c **** 		CY_SET_XTND_REG8((void *)CYREG_UDB_UDBIF_BANK_CTL, CY_GET_XTND_REG8((void *)CYREG_UDB_UDBIF_BANK_
 853              		.loc 1 709 0
 854 0320 2D4B     		ldr	r3, .L31+136
 855 0322 2D4A     		ldr	r2, .L31+136
 856 0324 1278     		ldrb	r2, [r2]
 857 0326 D2B2     		uxtb	r2, r2
 858 0328 0221     		mov	r1, #2
 859 032a 0A43     		orr	r2, r1
 860 032c D2B2     		uxtb	r2, r2
 861 032e 1A70     		strb	r2, [r3]
 710:.\Generated_Source\PSoC4/cyfitter_cfg.c **** 
 711:.\Generated_Source\PSoC4/cyfitter_cfg.c **** 		/* Enable UDB array */
 712:.\Generated_Source\PSoC4/cyfitter_cfg.c **** 		CY_SET_XTND_REG8((void *)CYREG_UDB_UDBIF_BANK_CTL, CY_GET_XTND_REG8((void *)CYREG_UDB_UDBIF_BANK_
 862              		.loc 1 712 0
 863 0330 294B     		ldr	r3, .L31+136
 864 0332 294A     		ldr	r2, .L31+136
 865 0334 1278     		ldrb	r2, [r2]
 866 0336 D2B2     		uxtb	r2, r2
 867 0338 0621     		mov	r1, #6
 868 033a 0A43     		orr	r2, r1
 869 033c D2B2     		uxtb	r2, r2
 870 033e 1A70     		strb	r2, [r3]
 871              	.LBE3:
 713:.\Generated_Source\PSoC4/cyfitter_cfg.c **** 	}
 714:.\Generated_Source\PSoC4/cyfitter_cfg.c **** 
 715:.\Generated_Source\PSoC4/cyfitter_cfg.c **** 	/* Setup clocks based on selections from Clock DWR */
ARM GAS  C:\Users\Steve\AppData\Local\Temp\ccueVkUZ.s 			page 29


 716:.\Generated_Source\PSoC4/cyfitter_cfg.c **** 	ClockSetup();
 872              		.loc 1 716 0
 873 0340 FFF7B6FE 		bl	ClockSetup
 717:.\Generated_Source\PSoC4/cyfitter_cfg.c **** 
 718:.\Generated_Source\PSoC4/cyfitter_cfg.c **** 	/* Perform basic analog initialization to defaults */
 719:.\Generated_Source\PSoC4/cyfitter_cfg.c **** 	AnalogSetDefault();
 874              		.loc 1 719 0
 875 0344 FFF7FEFF 		bl	AnalogSetDefault
 720:.\Generated_Source\PSoC4/cyfitter_cfg.c **** 
 721:.\Generated_Source\PSoC4/cyfitter_cfg.c **** }
 876              		.loc 1 721 0
 877 0348 BD46     		mov	sp, r7
 878 034a 06B0     		add	sp, sp, #24
 879              		@ sp needed for prologue
 880 034c 80BD     		pop	{r7, pc}
 881              	.L32:
 882 034e C046     		.align	2
 883              	.L31:
 884 0350 00000000 		.word	cfg_memset_list.4679
 885 0354 14000000 		.word	cfg_memcpy_list.4681
 886 0358 20000000 		.word	cy_cfg_addr_table.4668
 887 035c 40000000 		.word	cy_cfg_data_table.4669
 888 0360 00600F40 		.word	1074749440
 889 0364 02600F40 		.word	1074749442
 890 0368 00000140 		.word	1073807360
 891 036c 00000303 		.word	50528256
 892 0370 0C000140 		.word	1073807372
 893 0374 EEEE0000 		.word	61166
 894 0378 10000140 		.word	1073807376
 895 037c 00000440 		.word	1074003968
 896 0380 08000440 		.word	1074003976
 897 0384 8AED5800 		.word	5827978
 898 0388 08010440 		.word	1074004232
 899 038c B61D1800 		.word	1580470
 900 0390 00020440 		.word	1074004480
 901 0394 18020440 		.word	1074004504
 902 0398 00030440 		.word	1074004736
 903 039c 08030440 		.word	1074004744
 904 03a0 A40D0000 		.word	3492
 905 03a4 00040440 		.word	1074004992
 906 03a8 08040440 		.word	1074005000
 907 03ac 18040440 		.word	1074005016
 908 03b0 00500F40 		.word	1074745344
 909 03b4 04009900 		.word	10027012
 910 03b8 04500F40 		.word	1074745348
 911 03bc 00000A88 		.word	-2012610560
 912 03c0 08500F40 		.word	1074745352
 913 03c4 10500F40 		.word	1074745360
 914 03c8 14500F40 		.word	1074745364
 915 03cc 20500F40 		.word	1074745376
 916 03d0 30500F40 		.word	1074745392
 917 03d4 20010540 		.word	1074069792
 918 03d8 00700F40 		.word	1074753536
 919              		.cfi_endproc
 920              	.LFE8:
 921              		.size	cyfitter_cfg, .-cyfitter_cfg
 922              		.section	.rodata
ARM GAS  C:\Users\Steve\AppData\Local\Temp\ccueVkUZ.s 			page 30


 923              		.align	2
 924              		.type	cfg_memset_list.4679, %object
 925              		.size	cfg_memset_list.4679, 18
 926              	cfg_memset_list.4679:
 927 0000 00300F40 		.word	1074737152
 928 0004 0002     		.short	512
 929 0006 80320F40 		.4byte	1074737792
 930 000a 8001     		.short	384
 931 000c 00400F40 		.word	1074741248
 932 0010 0004     		.short	1024
 933 0012 0000     		.align	2
 934              		.type	cfg_memcpy_list.4681, %object
 935              		.size	cfg_memcpy_list.4681, 10
 936              	cfg_memcpy_list.4681:
 937 0014 00320F40 		.word	1074737664
 938 0018 FC010000 		.word	BS_UDB_0_0_1_CONFIG_VAL.4680
 939 001c 8000     		.short	128
 940 001e 0000     		.align	2
 941              		.type	cy_cfg_addr_table.4668, %object
 942              		.size	cy_cfg_addr_table.4668, 32
 943              	cy_cfg_addr_table.4668:
 944 0020 01000F40 		.word	1074724865
 945 0024 4B300F40 		.word	1074737227
 946 0028 31310F40 		.word	1074737457
 947 002c 09320F40 		.word	1074737673
 948 0030 45330F40 		.word	1074737989
 949 0034 08400F40 		.word	1074741256
 950 0038 09410F40 		.word	1074741513
 951 003c 02600F40 		.word	1074749442
 952              		.align	2
 953              		.type	cy_cfg_data_table.4669, %object
 954              		.size	cy_cfg_data_table.4669, 444
 955              	cy_cfg_data_table.4669:
 956 0040 82       		.byte	-126
 957 0041 0F       		.byte	15
 958 0042 00       		.byte	0
 959 0043 01       		.byte	1
 960 0044 01       		.byte	1
 961 0045 03       		.byte	3
 962 0046 02       		.byte	2
 963 0047 02       		.byte	2
 964 0048 03       		.byte	3
 965 0049 04       		.byte	4
 966 004a 04       		.byte	4
 967 004b 1D       		.byte	29
 968 004c 0C       		.byte	12
 969 004d 1D       		.byte	29
 970 004e 11       		.byte	17
 971 004f 0E       		.byte	14
 972 0050 12       		.byte	18
 973 0051 10       		.byte	16
 974 0052 14       		.byte	20
 975 0053 02       		.byte	2
 976 0054 16       		.byte	22
 977 0055 04       		.byte	4
 978 0056 18       		.byte	24
 979 0057 02       		.byte	2
ARM GAS  C:\Users\Steve\AppData\Local\Temp\ccueVkUZ.s 			page 31


 980 0058 19       		.byte	25
 981 0059 04       		.byte	4
 982 005a 1A       		.byte	26
 983 005b 08       		.byte	8
 984 005c 1B       		.byte	27
 985 005d 09       		.byte	9
 986 005e 1C       		.byte	28
 987 005f 02       		.byte	2
 988 0060 1D       		.byte	29
 989 0061 05       		.byte	5
 990 0062 1E       		.byte	30
 991 0063 0D       		.byte	13
 992 0064 1F       		.byte	31
 993 0065 0A       		.byte	10
 994 0066 20       		.byte	32
 995 0067 1D       		.byte	29
 996 0068 28       		.byte	40
 997 0069 1D       		.byte	29
 998 006a 2C       		.byte	44
 999 006b 0D       		.byte	13
 1000 006c 2E       		.byte	46
 1001 006d 10       		.byte	16
 1002 006e 31       		.byte	49
 1003 006f 0F       		.byte	15
 1004 0070 34       		.byte	52
 1005 0071 10       		.byte	16
 1006 0072 36       		.byte	54
 1007 0073 0F       		.byte	15
 1008 0074 39       		.byte	57
 1009 0075 02       		.byte	2
 1010 0076 3A       		.byte	58
 1011 0077 80       		.byte	-128
 1012 0078 3E       		.byte	62
 1013 0079 10       		.byte	16
 1014 007a 54       		.byte	84
 1015 007b 40       		.byte	64
 1016 007c 58       		.byte	88
 1017 007d 04       		.byte	4
 1018 007e 59       		.byte	89
 1019 007f 04       		.byte	4
 1020 0080 5B       		.byte	91
 1021 0081 04       		.byte	4
 1022 0082 5F       		.byte	95
 1023 0083 01       		.byte	1
 1024 0084 80       		.byte	-128
 1025 0085 09       		.byte	9
 1026 0086 81       		.byte	-127
 1027 0087 03       		.byte	3
 1028 0088 82       		.byte	-126
 1029 0089 62       		.byte	98
 1030 008a 83       		.byte	-125
 1031 008b 04       		.byte	4
 1032 008c 84       		.byte	-124
 1033 008d 80       		.byte	-128
 1034 008e 85       		.byte	-123
 1035 008f 08       		.byte	8
 1036 0090 87       		.byte	-121
ARM GAS  C:\Users\Steve\AppData\Local\Temp\ccueVkUZ.s 			page 32


 1037 0091 02       		.byte	2
 1038 0092 88       		.byte	-120
 1039 0093 20       		.byte	32
 1040 0094 89       		.byte	-119
 1041 0095 02       		.byte	2
 1042 0096 8A       		.byte	-118
 1043 0097 C0       		.byte	-64
 1044 0098 8B       		.byte	-117
 1045 0099 08       		.byte	8
 1046 009a 8D       		.byte	-115
 1047 009b 08       		.byte	8
 1048 009c 8F       		.byte	-113
 1049 009d 02       		.byte	2
 1050 009e 91       		.byte	-111
 1051 009f 0A       		.byte	10
 1052 00a0 92       		.byte	-110
 1053 00a1 10       		.byte	16
 1054 00a2 94       		.byte	-108
 1055 00a3 E4       		.byte	-28
 1056 00a4 96       		.byte	-106
 1057 00a5 18       		.byte	24
 1058 00a6 98       		.byte	-104
 1059 00a7 04       		.byte	4
 1060 00a8 99       		.byte	-103
 1061 00a9 08       		.byte	8
 1062 00aa 9C       		.byte	-100
 1063 00ab 80       		.byte	-128
 1064 00ac 9D       		.byte	-99
 1065 00ad 01       		.byte	1
 1066 00ae 9F       		.byte	-97
 1067 00af 08       		.byte	8
 1068 00b0 A0       		.byte	-96
 1069 00b1 80       		.byte	-128
 1070 00b2 A4       		.byte	-92
 1071 00b3 80       		.byte	-128
 1072 00b4 A5       		.byte	-91
 1073 00b5 02       		.byte	2
 1074 00b6 A9       		.byte	-87
 1075 00b7 0C       		.byte	12
 1076 00b8 AA       		.byte	-86
 1077 00b9 80       		.byte	-128
 1078 00ba AB       		.byte	-85
 1079 00bb 03       		.byte	3
 1080 00bc AC       		.byte	-84
 1081 00bd 26       		.byte	38
 1082 00be AD       		.byte	-83
 1083 00bf 0A       		.byte	10
 1084 00c0 AE       		.byte	-82
 1085 00c1 D9       		.byte	-39
 1086 00c2 B0       		.byte	-80
 1087 00c3 18       		.byte	24
 1088 00c4 B2       		.byte	-78
 1089 00c5 E0       		.byte	-32
 1090 00c6 B4       		.byte	-76
 1091 00c7 07       		.byte	7
 1092 00c8 B7       		.byte	-73
 1093 00c9 0F       		.byte	15
ARM GAS  C:\Users\Steve\AppData\Local\Temp\ccueVkUZ.s 			page 33


 1094 00ca BA       		.byte	-70
 1095 00cb 28       		.byte	40
 1096 00cc BB       		.byte	-69
 1097 00cd 80       		.byte	-128
 1098 00ce D4       		.byte	-44
 1099 00cf 09       		.byte	9
 1100 00d0 D8       		.byte	-40
 1101 00d1 04       		.byte	4
 1102 00d2 D9       		.byte	-39
 1103 00d3 04       		.byte	4
 1104 00d4 DB       		.byte	-37
 1105 00d5 04       		.byte	4
 1106 00d6 DF       		.byte	-33
 1107 00d7 01       		.byte	1
 1108 00d8 00       		.byte	0
 1109 00d9 81       		.byte	-127
 1110 00da 01       		.byte	1
 1111 00db 04       		.byte	4
 1112 00dc 03       		.byte	3
 1113 00dd 02       		.byte	2
 1114 00de 04       		.byte	4
 1115 00df 11       		.byte	17
 1116 00e0 07       		.byte	7
 1117 00e1 10       		.byte	16
 1118 00e2 08       		.byte	8
 1119 00e3 0A       		.byte	10
 1120 00e4 09       		.byte	9
 1121 00e5 20       		.byte	32
 1122 00e6 0A       		.byte	10
 1123 00e7 81       		.byte	-127
 1124 00e8 0B       		.byte	11
 1125 00e9 08       		.byte	8
 1126 00ea 0C       		.byte	12
 1127 00eb A4       		.byte	-92
 1128 00ec 0E       		.byte	14
 1129 00ed 42       		.byte	66
 1130 00ee 10       		.byte	16
 1131 00ef 88       		.byte	-120
 1132 00f0 11       		.byte	17
 1133 00f1 80       		.byte	-128
 1134 00f2 13       		.byte	19
 1135 00f3 30       		.byte	48
 1136 00f4 15       		.byte	21
 1137 00f5 04       		.byte	4
 1138 00f6 16       		.byte	22
 1139 00f7 80       		.byte	-128
 1140 00f8 17       		.byte	23
 1141 00f9 60       		.byte	96
 1142 00fa 1A       		.byte	26
 1143 00fb 01       		.byte	1
 1144 00fc 1B       		.byte	27
 1145 00fd 10       		.byte	16
 1146 00fe 1C       		.byte	28
 1147 00ff 10       		.byte	16
 1148 0100 1D       		.byte	29
 1149 0101 20       		.byte	32
 1150 0102 1E       		.byte	30
ARM GAS  C:\Users\Steve\AppData\Local\Temp\ccueVkUZ.s 			page 34


 1151 0103 68       		.byte	104
 1152 0104 21       		.byte	33
 1153 0105 02       		.byte	2
 1154 0106 26       		.byte	38
 1155 0107 80       		.byte	-128
 1156 0108 2C       		.byte	44
 1157 0109 25       		.byte	37
 1158 010a 2F       		.byte	47
 1159 010b 06       		.byte	6
 1160 010c 31       		.byte	49
 1161 010d 22       		.byte	34
 1162 010e 32       		.byte	50
 1163 010f 80       		.byte	-128
 1164 0110 36       		.byte	54
 1165 0111 91       		.byte	-111
 1166 0112 38       		.byte	56
 1167 0113 01       		.byte	1
 1168 0114 3C       		.byte	60
 1169 0115 01       		.byte	1
 1170 0116 3D       		.byte	61
 1171 0117 84       		.byte	-124
 1172 0118 3E       		.byte	62
 1173 0119 80       		.byte	-128
 1174 011a 3F       		.byte	63
 1175 011b 10       		.byte	16
 1176 011c 5D       		.byte	93
 1177 011d 82       		.byte	-126
 1178 011e 5E       		.byte	94
 1179 011f 10       		.byte	16
 1180 0120 5F       		.byte	95
 1181 0121 04       		.byte	4
 1182 0122 60       		.byte	96
 1183 0123 02       		.byte	2
 1184 0124 63       		.byte	99
 1185 0125 28       		.byte	40
 1186 0126 65       		.byte	101
 1187 0127 40       		.byte	64
 1188 0128 82       		.byte	-126
 1189 0129 40       		.byte	64
 1190 012a C0       		.byte	-64
 1191 012b 7D       		.byte	125
 1192 012c C2       		.byte	-62
 1193 012d FF       		.byte	-1
 1194 012e C4       		.byte	-60
 1195 012f FB       		.byte	-5
 1196 0130 CA       		.byte	-54
 1197 0131 70       		.byte	112
 1198 0132 CC       		.byte	-52
 1199 0133 BD       		.byte	-67
 1200 0134 CE       		.byte	-50
 1201 0135 F1       		.byte	-15
 1202 0136 D6       		.byte	-42
 1203 0137 F0       		.byte	-16
 1204 0138 D8       		.byte	-40
 1205 0139 1E       		.byte	30
 1206 013a 8C       		.byte	-116
 1207 013b 01       		.byte	1
ARM GAS  C:\Users\Steve\AppData\Local\Temp\ccueVkUZ.s 			page 35


 1208 013c 9E       		.byte	-98
 1209 013d 01       		.byte	1
 1210 013e A0       		.byte	-96
 1211 013f 01       		.byte	1
 1212 0140 A4       		.byte	-92
 1213 0141 01       		.byte	1
 1214 0142 A8       		.byte	-88
 1215 0143 01       		.byte	1
 1216 0144 B0       		.byte	-80
 1217 0145 01       		.byte	1
 1218 0146 BE       		.byte	-66
 1219 0147 01       		.byte	1
 1220 0148 D8       		.byte	-40
 1221 0149 04       		.byte	4
 1222 014a DF       		.byte	-33
 1223 014b 01       		.byte	1
 1224 014c 00       		.byte	0
 1225 014d 80       		.byte	-128
 1226 014e 04       		.byte	4
 1227 014f 09       		.byte	9
 1228 0150 06       		.byte	6
 1229 0151 01       		.byte	1
 1230 0152 09       		.byte	9
 1231 0153 40       		.byte	64
 1232 0154 0C       		.byte	12
 1233 0155 81       		.byte	-127
 1234 0156 0E       		.byte	14
 1235 0157 24       		.byte	36
 1236 0158 10       		.byte	16
 1237 0159 88       		.byte	-120
 1238 015a 11       		.byte	17
 1239 015b 04       		.byte	4
 1240 015c 14       		.byte	20
 1241 015d 08       		.byte	8
 1242 015e 15       		.byte	21
 1243 015f 04       		.byte	4
 1244 0160 17       		.byte	23
 1245 0161 41       		.byte	65
 1246 0162 19       		.byte	25
 1247 0163 02       		.byte	2
 1248 0164 1D       		.byte	29
 1249 0165 40       		.byte	64
 1250 0166 1E       		.byte	30
 1251 0167 04       		.byte	4
 1252 0168 24       		.byte	36
 1253 0169 01       		.byte	1
 1254 016a 25       		.byte	37
 1255 016b 04       		.byte	4
 1256 016c 26       		.byte	38
 1257 016d 20       		.byte	32
 1258 016e 27       		.byte	39
 1259 016f 02       		.byte	2
 1260 0170 2C       		.byte	44
 1261 0171 A0       		.byte	-96
 1262 0172 2F       		.byte	47
 1263 0173 06       		.byte	6
 1264 0174 34       		.byte	52
ARM GAS  C:\Users\Steve\AppData\Local\Temp\ccueVkUZ.s 			page 36


 1265 0175 8A       		.byte	-118
 1266 0176 36       		.byte	54
 1267 0177 94       		.byte	-108
 1268 0178 37       		.byte	55
 1269 0179 42       		.byte	66
 1270 017a 3C       		.byte	60
 1271 017b 80       		.byte	-128
 1272 017c 3D       		.byte	61
 1273 017d 04       		.byte	4
 1274 017e 3E       		.byte	62
 1275 017f 10       		.byte	16
 1276 0180 44       		.byte	68
 1277 0181 8A       		.byte	-118
 1278 0182 4E       		.byte	78
 1279 0183 44       		.byte	68
 1280 0184 4F       		.byte	79
 1281 0185 84       		.byte	-124
 1282 0186 54       		.byte	84
 1283 0187 20       		.byte	32
 1284 0188 56       		.byte	86
 1285 0189 01       		.byte	1
 1286 018a 57       		.byte	87
 1287 018b 04       		.byte	4
 1288 018c 62       		.byte	98
 1289 018d 30       		.byte	48
 1290 018e 66       		.byte	102
 1291 018f 10       		.byte	16
 1292 0190 67       		.byte	103
 1293 0191 08       		.byte	8
 1294 0192 6C       		.byte	108
 1295 0193 8C       		.byte	-116
 1296 0194 6D       		.byte	109
 1297 0195 84       		.byte	-124
 1298 0196 6E       		.byte	110
 1299 0197 10       		.byte	16
 1300 0198 6F       		.byte	111
 1301 0199 03       		.byte	3
 1302 019a 74       		.byte	116
 1303 019b 40       		.byte	64
 1304 019c 81       		.byte	-127
 1305 019d 84       		.byte	-124
 1306 019e 86       		.byte	-122
 1307 019f 04       		.byte	4
 1308 01a0 89       		.byte	-119
 1309 01a1 02       		.byte	2
 1310 01a2 8A       		.byte	-118
 1311 01a3 04       		.byte	4
 1312 01a4 94       		.byte	-108
 1313 01a5 01       		.byte	1
 1314 01a6 95       		.byte	-107
 1315 01a7 04       		.byte	4
 1316 01a8 96       		.byte	-106
 1317 01a9 80       		.byte	-128
 1318 01aa 97       		.byte	-105
 1319 01ab 04       		.byte	4
 1320 01ac 98       		.byte	-104
 1321 01ad 01       		.byte	1
ARM GAS  C:\Users\Steve\AppData\Local\Temp\ccueVkUZ.s 			page 37


 1322 01ae 9D       		.byte	-99
 1323 01af C2       		.byte	-62
 1324 01b0 9F       		.byte	-97
 1325 01b1 40       		.byte	64
 1326 01b2 A2       		.byte	-94
 1327 01b3 94       		.byte	-108
 1328 01b4 A3       		.byte	-93
 1329 01b5 40       		.byte	64
 1330 01b6 A4       		.byte	-92
 1331 01b7 E8       		.byte	-24
 1332 01b8 A5       		.byte	-91
 1333 01b9 40       		.byte	64
 1334 01ba A7       		.byte	-89
 1335 01bb 04       		.byte	4
 1336 01bc AB       		.byte	-85
 1337 01bd 40       		.byte	64
 1338 01be B4       		.byte	-76
 1339 01bf 28       		.byte	40
 1340 01c0 B6       		.byte	-74
 1341 01c1 90       		.byte	-112
 1342 01c2 B7       		.byte	-73
 1343 01c3 12       		.byte	18
 1344 01c4 C0       		.byte	-64
 1345 01c5 B1       		.byte	-79
 1346 01c6 C2       		.byte	-62
 1347 01c7 F1       		.byte	-15
 1348 01c8 C4       		.byte	-60
 1349 01c9 FE       		.byte	-2
 1350 01ca CA       		.byte	-54
 1351 01cb F0       		.byte	-16
 1352 01cc CC       		.byte	-52
 1353 01cd F0       		.byte	-16
 1354 01ce CE       		.byte	-50
 1355 01cf 70       		.byte	112
 1356 01d0 D0       		.byte	-48
 1357 01d1 B0       		.byte	-80
 1358 01d2 D2       		.byte	-46
 1359 01d3 30       		.byte	48
 1360 01d4 D8       		.byte	-40
 1361 01d5 20       		.byte	32
 1362 01d6 0E       		.byte	14
 1363 01d7 40       		.byte	64
 1364 01d8 62       		.byte	98
 1365 01d9 01       		.byte	1
 1366 01da 64       		.byte	100
 1367 01db 01       		.byte	1
 1368 01dc 82       		.byte	-126
 1369 01dd 01       		.byte	1
 1370 01de C2       		.byte	-62
 1371 01df 20       		.byte	32
 1372 01e0 D6       		.byte	-42
 1373 01e1 80       		.byte	-128
 1374 01e2 D8       		.byte	-40
 1375 01e3 40       		.byte	64
 1376 01e4 E2       		.byte	-30
 1377 01e5 20       		.byte	32
 1378 01e6 0A       		.byte	10
ARM GAS  C:\Users\Steve\AppData\Local\Temp\ccueVkUZ.s 			page 38


 1379 01e7 40       		.byte	64
 1380 01e8 42       		.byte	66
 1381 01e9 40       		.byte	64
 1382 01ea 84       		.byte	-124
 1383 01eb 01       		.byte	1
 1384 01ec 9C       		.byte	-100
 1385 01ed 01       		.byte	1
 1386 01ee AA       		.byte	-86
 1387 01ef 40       		.byte	64
 1388 01f0 C2       		.byte	-62
 1389 01f1 10       		.byte	16
 1390 01f2 D0       		.byte	-48
 1391 01f3 40       		.byte	64
 1392 01f4 E2       		.byte	-30
 1393 01f5 40       		.byte	64
 1394 01f6 E8       		.byte	-24
 1395 01f7 20       		.byte	32
 1396 01f8 10       		.byte	16
 1397 01f9 01       		.byte	1
 1398 01fa 11       		.byte	17
 1399 01fb 01       		.byte	1
 1400              		.align	2
 1401              		.type	BS_UDB_0_0_1_CONFIG_VAL.4680, %object
 1402              		.size	BS_UDB_0_0_1_CONFIG_VAL.4680, 128
 1403              	BS_UDB_0_0_1_CONFIG_VAL.4680:
 1404 01fc 07       		.byte	7
 1405 01fd 00       		.byte	0
 1406 01fe 38       		.byte	56
 1407 01ff 00       		.byte	0
 1408 0200 00       		.byte	0
 1409 0201 20       		.byte	32
 1410 0202 04       		.byte	4
 1411 0203 40       		.byte	64
 1412 0204 00       		.byte	0
 1413 0205 40       		.byte	64
 1414 0206 00       		.byte	0
 1415 0207 20       		.byte	32
 1416 0208 60       		.byte	96
 1417 0209 60       		.byte	96
 1418 020a 00       		.byte	0
 1419 020b 00       		.byte	0
 1420 020c 04       		.byte	4
 1421 020d 73       		.byte	115
 1422 020e 00       		.byte	0
 1423 020f 8C       		.byte	-116
 1424 0210 04       		.byte	4
 1425 0211 29       		.byte	41
 1426 0212 00       		.byte	0
 1427 0213 D6       		.byte	-42
 1428 0214 01       		.byte	1
 1429 0215 20       		.byte	32
 1430 0216 00       		.byte	0
 1431 0217 00       		.byte	0
 1432 0218 04       		.byte	4
 1433 0219 95       		.byte	-107
 1434 021a 00       		.byte	0
 1435 021b 2A       		.byte	42
ARM GAS  C:\Users\Steve\AppData\Local\Temp\ccueVkUZ.s 			page 39


 1436 021c 04       		.byte	4
 1437 021d 60       		.byte	96
 1438 021e 00       		.byte	0
 1439 021f 00       		.byte	0
 1440 0220 04       		.byte	4
 1441 0221 40       		.byte	64
 1442 0222 00       		.byte	0
 1443 0223 00       		.byte	0
 1444 0224 56       		.byte	86
 1445 0225 02       		.byte	2
 1446 0226 09       		.byte	9
 1447 0227 0D       		.byte	13
 1448 0228 0A       		.byte	10
 1449 0229 20       		.byte	32
 1450 022a 10       		.byte	16
 1451 022b 40       		.byte	64
 1452 022c 00       		.byte	0
 1453 022d 00       		.byte	0
 1454 022e 00       		.byte	0
 1455 022f 80       		.byte	-128
 1456 0230 7F       		.byte	127
 1457 0231 0F       		.byte	15
 1458 0232 02       		.byte	2
 1459 0233 70       		.byte	112
 1460 0234 20       		.byte	32
 1461 0235 00       		.byte	0
 1462 0236 00       		.byte	0
 1463 0237 20       		.byte	32
 1464 0238 00       		.byte	0
 1465 0239 00       		.byte	0
 1466 023a 40       		.byte	64
 1467 023b 04       		.byte	4
 1468 023c 42       		.byte	66
 1469 023d 01       		.byte	1
 1470 023e 60       		.byte	96
 1471 023f 00       		.byte	0
 1472 0240 05       		.byte	5
 1473 0241 DE       		.byte	-34
 1474 0242 C0       		.byte	-64
 1475 0243 BF       		.byte	-65
 1476 0244 3B       		.byte	59
 1477 0245 FF       		.byte	-1
 1478 0246 FF       		.byte	-1
 1479 0247 FF       		.byte	-1
 1480 0248 22       		.byte	34
 1481 0249 00       		.byte	0
 1482 024a F0       		.byte	-16
 1483 024b 08       		.byte	8
 1484 024c 04       		.byte	4
 1485 024d 00       		.byte	0
 1486 024e 00       		.byte	0
 1487 024f 00       		.byte	0
 1488 0250 00       		.byte	0
 1489 0251 00       		.byte	0
 1490 0252 02       		.byte	2
 1491 0253 24       		.byte	36
 1492 0254 04       		.byte	4
ARM GAS  C:\Users\Steve\AppData\Local\Temp\ccueVkUZ.s 			page 40


 1493 0255 04       		.byte	4
 1494 0256 04       		.byte	4
 1495 0257 04       		.byte	4
 1496 0258 00       		.byte	0
 1497 0259 00       		.byte	0
 1498 025a 00       		.byte	0
 1499 025b 01       		.byte	1
 1500 025c 00       		.byte	0
 1501 025d 00       		.byte	0
 1502 025e C0       		.byte	-64
 1503 025f 00       		.byte	0
 1504 0260 40       		.byte	64
 1505 0261 01       		.byte	1
 1506 0262 10       		.byte	16
 1507 0263 11       		.byte	17
 1508 0264 C0       		.byte	-64
 1509 0265 01       		.byte	1
 1510 0266 00       		.byte	0
 1511 0267 11       		.byte	17
 1512 0268 40       		.byte	64
 1513 0269 01       		.byte	1
 1514 026a 40       		.byte	64
 1515 026b 01       		.byte	1
 1516 026c 00       		.byte	0
 1517 026d 00       		.byte	0
 1518 026e 00       		.byte	0
 1519 026f 00       		.byte	0
 1520 0270 00       		.byte	0
 1521 0271 00       		.byte	0
 1522 0272 00       		.byte	0
 1523 0273 00       		.byte	0
 1524 0274 00       		.byte	0
 1525 0275 00       		.byte	0
 1526 0276 00       		.byte	0
 1527 0277 00       		.byte	0
 1528 0278 00       		.byte	0
 1529 0279 00       		.byte	0
 1530 027a 00       		.byte	0
 1531 027b 00       		.byte	0
 1532              		.align	2
 1533              		.type	IMO_TRIM_FREQ_TABLE_ENTRIES.4644, %object
 1534              		.size	IMO_TRIM_FREQ_TABLE_ENTRIES.4644, 4
 1535              	IMO_TRIM_FREQ_TABLE_ENTRIES.4644:
 1536 027c 04000000 		.word	4
 1537              		.data
 1538              		.align	2
 1539              		.type	imo_trim_table.4643, %object
 1540              		.size	imo_trim_table.4643, 4
 1541              	imo_trim_table.4643:
 1542 0000 C0F1FF0F 		.word	268431808
 1543              		.text
 1544              	.Letext0:
 1545              		.file 2 "c:\\program files (x86)\\cypress\\psoc creator\\3.0\\psoc creator\\import\\gnu_cs\\arm\\4
 1546              		.file 3 "./Generated_Source/PSoC4/cytypes.h"