ARM GAS  C:\Users\Steve\AppData\Local\Temp\ccylJGL1.s 			page 1


   1              		.cpu cortex-m0
   2              		.fpu softvfp
   3              		.eabi_attribute 20, 1
   4              		.eabi_attribute 21, 1
   5              		.eabi_attribute 23, 3
   6              		.eabi_attribute 24, 1
   7              		.eabi_attribute 25, 1
   8              		.eabi_attribute 26, 1
   9              		.eabi_attribute 30, 6
  10              		.eabi_attribute 34, 0
  11              		.eabi_attribute 18, 4
  12              		.code	16
  13              		.file	"main.c"
  14              		.text
  15              	.Ltext0:
  16              		.cfi_sections	.debug_frame
  17              		.global	ROVERLINK_MSG_LEN_ARRAY
  18              		.section	.rodata
  19              		.align	2
  20              		.type	ROVERLINK_MSG_LEN_ARRAY, %object
  21              		.size	ROVERLINK_MSG_LEN_ARRAY, 20
  22              	ROVERLINK_MSG_LEN_ARRAY:
  23 0000 0D       		.byte	13
  24 0001 0D       		.byte	13
  25 0002 09       		.byte	9
  26 0003 00       		.byte	0
  27 0004 1A       		.byte	26
  28 0005 12       		.byte	18
  29 0006 00       		.byte	0
  30 0007 10       		.byte	16
  31 0008 04       		.byte	4
  32 0009 07       		.byte	7
  33 000a 0E       		.byte	14
  34 000b 04       		.byte	4
  35 000c 01       		.byte	1
  36 000d 10       		.byte	16
  37 000e 10       		.byte	16
  38 000f 10       		.byte	16
  39 0010 01       		.byte	1
  40 0011 06       		.byte	6
  41 0012 02       		.byte	2
  42 0013 01       		.byte	1
  43              		.global	ROVERLINK_WRITE
  44              		.type	ROVERLINK_WRITE, %object
  45              		.size	ROVERLINK_WRITE, 1
  46              	ROVERLINK_WRITE:
  47 0014 C0       		.byte	-64
  48              		.global	ROVERLINK_REQUEST
  49              		.type	ROVERLINK_REQUEST, %object
  50              		.size	ROVERLINK_REQUEST, 1
  51              	ROVERLINK_REQUEST:
  52 0015 40       		.byte	64
  53              		.global	ROVERLINK_RESPONSE
  54              		.type	ROVERLINK_RESPONSE, %object
  55              		.size	ROVERLINK_RESPONSE, 1
  56              	ROVERLINK_RESPONSE:
  57 0016 00       		.space	1
ARM GAS  C:\Users\Steve\AppData\Local\Temp\ccylJGL1.s 			page 2


  58              		.bss
  59              		.align	2
  60              	sys_health:
  61 0000 00000000 		.space	16
  61      00000000 
  61      00000000 
  61      00000000 
  62              		.align	2
  63              	rover_status:
  64 0010 00000000 		.space	16
  64      00000000 
  64      00000000 
  64      00000000 
  65              		.align	2
  66              	arm_status:
  67 0020 00000000 		.space	10
  67      00000000 
  67      0000
  68 002a 0000     		.align	2
  69              	gps:
  70 002c 00000000 		.space	28
  70      00000000 
  70      00000000 
  70      00000000 
  70      00000000 
  71              		.align	2
  72              	imu:
  73 0048 00000000 		.space	18
  73      00000000 
  73      00000000 
  73      00000000 
  73      0000
  74 005a 0000     		.align	2
  75              	lrs:
  76 005c 00000000 		.space	16
  76      00000000 
  76      00000000 
  76      00000000 
  77              		.align	2
  78              	drive:
  79 006c 00000000 		.space	4
  80              		.align	2
  81              	video:
  82 0070 00000000 		.space	8
  82      00000000 
  83              		.align	2
  84              	arm:
  85 0078 00000000 		.space	14
  85      00000000 
  85      00000000 
  85      0000
  86 0086 0000     		.align	2
  87              	ishaama:
  88 0088 00000000 		.space	4
  89              		.align	2
  90              	liferay:
  91 008c 00       		.space	1
ARM GAS  C:\Users\Steve\AppData\Local\Temp\ccylJGL1.s 			page 3


  92 008d 000000   		.align	2
  93              	custom_debug_1:
  94 0090 00000000 		.space	16
  94      00000000 
  94      00000000 
  94      00000000 
  95              		.align	2
  96              	custom_debug_2:
  97 00a0 00000000 		.space	16
  97      00000000 
  97      00000000 
  97      00000000 
  98              		.align	2
  99              	custom_debug_3:
 100 00b0 00000000 		.space	16
 100      00000000 
 100      00000000 
 100      00000000 
 101              		.align	2
 102              	ping:
 103 00c0 00000000 		.space	8
 103      00000000 
 104              		.align	2
 105              	telemetry_config:
 106 00c8 00000000 		.space	6
 106      0000
 107 00ce 0000     		.align	2
 108              	req_fields_once:
 109 00d0 0000     		.space	2
 110 00d2 0000     		.align	2
 111              	broadcast:
 112 00d4 00       		.space	1
 113 00d5 000000   		.align	2
 114              	timer1ms:
 115 00d8 00000000 		.space	4
 116              		.align	2
 117              	timer1us_p:
 118 00dc 00000000 		.space	4
 119              	lrs_ch:
 120 00e0 00       		.space	1
 121 00e1 00       		.align	1
 122              	lrs_ppmFrameSum:
 123 00e2 0000     		.space	2
 124              		.align	1
 125              	lrs_frameErrors:
 126 00e4 0000     		.space	2
 127 00e6 0000     		.align	2
 128              	power:
 129 00e8 00000000 		.space	4
 130              		.global	board_id
 131              		.section	.rodata
 132              		.type	board_id, %object
 133              		.size	board_id, 1
 134              	board_id:
 135 0017 0D       		.byte	13
 136              		.global	system_state
 137              		.bss
ARM GAS  C:\Users\Steve\AppData\Local\Temp\ccylJGL1.s 			page 4


 138              		.type	system_state, %object
 139              		.size	system_state, 1
 140              	system_state:
 141 00ec 00       		.space	1
 142              		.data
 143              		.align	2
 144              		.type	GPS_STRING, %object
 145              		.size	GPS_STRING, 80
 146              	GPS_STRING:
 147 0000 24475047 		.ascii	"$GPGGA,230416.000,4014.8247,N,11138.8521,W,1,05,3.8"
 147      47412C32 
 147      33303431 
 147      362E3030 
 147      302C3430 
 148 0033 2C313433 		.ascii	",1437.5,M,-16.4,M,,0000*54\000"
 148      372E352C 
 148      4D2C2D31 
 148      362E342C 
 148      4D2C2C30 
 149 004e 0000     		.space	2
 150              		.section	.text.putdata,"ax",%progbits
 151              		.align	2
 152              		.global	putdata
 153              		.code	16
 154              		.thumb_func
 155              		.type	putdata, %function
 156              	putdata:
 157              	.LFB33:
 158              		.file 1 ".\\main.c"
   1:.\main.c      **** // BYU Mars Rover Primary Control System - Main Controller Board
   2:.\main.c      **** // Authors:
   3:.\main.c      **** // 		Steve Carlson
   4:.\main.c      **** // 		<Your Name Here>
   5:.\main.c      **** /*
   6:.\main.c      **** // Written in Notepad++, compiled in Cypress PSOC 3.0, Tab=4, 
   7:.\main.c      **** // 		recommend Notepad++ as it blows away PSOC's IDE: Split-screen, Search for all instances, etc
   8:.\main.c      **** // File Manifest:
   9:.\main.c      **** //		main.c			This file
  10:.\main.c      **** //		rover_main.h	Main include
  11:.\main.c      **** //		roverlink.h		RoverLink Specification, referenced by rover_main.h
  12:.\main.c      **** // 
  13:.\main.c      **** // Port Configuration:
  14:.\main.c      **** //   -- IC Package -- --PCB Label--
  15:.\main.c      **** //       TQFP-44        CY8CKIT         Periph Used         Assignment          Code Label
  16:.\main.c      **** //         1            VSS             Gnd
  17:.\main.c      **** //         2            P2.0
  18:.\main.c      **** //         3            P2.1
  19:.\main.c      **** //         4            P2.2
  20:.\main.c      **** //         5            P2.3
  21:.\main.c      **** //         6            P2.4
  22:.\main.c      **** //         7            P2.5
  23:.\main.c      **** //         8            P2.6
  24:.\main.c      **** //         9            P2.7
  25:.\main.c      **** //         10           VSS             Gnd
  26:.\main.c      **** //         11           P3.0
  27:.\main.c      **** //         12           P3.1
  28:.\main.c      **** //         13           P3.2
ARM GAS  C:\Users\Steve\AppData\Local\Temp\ccylJGL1.s 			page 5


  29:.\main.c      **** //         14           P3.3
  30:.\main.c      **** //         15           P3.4
  31:.\main.c      **** //         16           P3.5
  32:.\main.c      **** //         17           P3.6
  33:.\main.c      **** //         18           P3.7
  34:.\main.c      **** //         19           VDD             +5.0v
  35:.\main.c      **** //         20           P4.0            SCB0 UART           SCB0:UART:RX        UART_UartGetChar(c)
  36:.\main.c      **** //         21           P4.1            SCB0 UART           SCB0:UART:TX        printf()/UART_UartP
  37:.\main.c      **** //         22           P4.2            
  38:.\main.c      **** //         23           P4.3
  39:.\main.c      **** //         24           P0.0            Digital Input       Init(1), Pullup     WIZ_INT
  40:.\main.c      **** //         25           P0.1            Digital Input       Init(0)             WIZ_RDY
  41:.\main.c      **** //         26           P0.2            Digital Output      Init(1), Pullup     WIZ_RST
  42:.\main.c      **** //         27           P0.3            Digital Output      Init(1)             WIZ_SS
  43:.\main.c      **** //         28           P0.4            SCB1 SPI            SCB1:SPI:MOSI       MOSI
  44:.\main.c      **** //         29           P0.5            SCB1 SPI            SCB1:SPI:MISO       MISO
  45:.\main.c      **** //         30           P0.6            SCB0 SPI            SCB0:SPI:SCLK       SCLK
  46:.\main.c      **** //         31           P0.7            Digital Input                           SW -and- BUTTON_PRE
  47:.\main.c      **** //         32           XRES
  48:.\main.c      **** //         33           VCCD            +1.8v
  49:.\main.c      **** //         34           VDDD            +5.0v
  50:.\main.c      **** //         35           VDDA            +5.0v
  51:.\main.c      **** //         36           VSSA            Gnd
  52:.\main.c      **** //         37           P1.0
  53:.\main.c      **** //         38           P1.1
  54:.\main.c      **** //         39           P1.2
  55:.\main.c      **** //         40           P1.3
  56:.\main.c      **** //         41           P1.4
  57:.\main.c      **** //         42           P1.5
  58:.\main.c      **** //         43           P1.6            Digital Output                          LED
  59:.\main.c      **** //         44           P1.7
  60:.\main.c      **** */
  61:.\main.c      **** 
  62:.\main.c      **** 
  63:.\main.c      **** #include <project.h>		// Cypress-Specific Includes
  64:.\main.c      **** #include "rover_main.h"		// BYU Rover Includes, architecture-agnostic.
  65:.\main.c      **** #include "wiznet5500.h"		// Wiznet Module Library, implements rover and Cypress elements.
  66:.\main.c      **** 
  67:.\main.c      **** 
  68:.\main.c      **** void roverlinkSendFrame(uint8_t, uint8_t, void *);
  69:.\main.c      **** void roverlinkReceiveFrame(void);
  70:.\main.c      **** 
  71:.\main.c      **** 
  72:.\main.c      **** // CY_ISR(CY_TIMER1_OVF_vect){
  73:.\main.c      **** 	
  74:.\main.c      **** // }
  75:.\main.c      **** 
  76:.\main.c      **** // Cypress tinyprintf
  77:.\main.c      **** void putdata ( void* p, char c){
 159              		.loc 1 77 0
 160              		.cfi_startproc
 161 0000 80B5     		push	{r7, lr}
 162              	.LCFI0:
 163              		.cfi_def_cfa_offset 8
 164              		.cfi_offset 7, -8
 165              		.cfi_offset 14, -4
 166 0002 82B0     		sub	sp, sp, #8
ARM GAS  C:\Users\Steve\AppData\Local\Temp\ccylJGL1.s 			page 6


 167              	.LCFI1:
 168              		.cfi_def_cfa_offset 16
 169 0004 00AF     		add	r7, sp, #0
 170              	.LCFI2:
 171              		.cfi_def_cfa_register 7
 172 0006 7860     		str	r0, [r7, #4]
 173 0008 0A1C     		mov	r2, r1
 174 000a FB1C     		add	r3, r7, #3
 175 000c 1A70     		strb	r2, [r3]
  78:.\main.c      **** 	if(c=='\n') UART_UartPutChar('\r');
 176              		.loc 1 78 0
 177 000e FB1C     		add	r3, r7, #3
 178 0010 1B78     		ldrb	r3, [r3]
 179 0012 0A2B     		cmp	r3, #10
 180 0014 02D1     		bne	.L2
 181              		.loc 1 78 0 is_stmt 0 discriminator 1
 182 0016 0D20     		mov	r0, #13
 183 0018 FFF7FEFF 		bl	UART_SpiUartWriteTxData
 184              	.L2:
  79:.\main.c      **** 	UART_UartPutChar(c);
 185              		.loc 1 79 0 is_stmt 1
 186 001c FB1C     		add	r3, r7, #3
 187 001e 1B78     		ldrb	r3, [r3]
 188 0020 181C     		mov	r0, r3
 189 0022 FFF7FEFF 		bl	UART_SpiUartWriteTxData
  80:.\main.c      **** }
 190              		.loc 1 80 0
 191 0026 BD46     		mov	sp, r7
 192 0028 02B0     		add	sp, sp, #8
 193              		@ sp needed for prologue
 194 002a 80BD     		pop	{r7, pc}
 195              		.cfi_endproc
 196              	.LFE33:
 197              		.size	putdata, .-putdata
 198              		.section	.text.main,"ax",%progbits
 199              		.align	2
 200              		.global	main
 201              		.code	16
 202              		.thumb_func
 203              		.type	main, %function
 204              	main:
 205              	.LFB34:
  81:.\main.c      **** 
  82:.\main.c      **** int main(){
 206              		.loc 1 82 0
 207              		.cfi_startproc
 208 0000 80B5     		push	{r7, lr}
 209              	.LCFI3:
 210              		.cfi_def_cfa_offset 8
 211              		.cfi_offset 7, -8
 212              		.cfi_offset 14, -4
 213 0002 00AF     		add	r7, sp, #0
 214              	.LCFI4:
 215              		.cfi_def_cfa_register 7
  83:.\main.c      **** 	setup();
 216              		.loc 1 83 0
 217 0004 FFF7FEFF 		bl	setup
ARM GAS  C:\Users\Steve\AppData\Local\Temp\ccylJGL1.s 			page 7


 218              	.L4:
  84:.\main.c      **** 	
  85:.\main.c      **** 	for(;;){
  86:.\main.c      **** 		loop();
 219              		.loc 1 86 0 discriminator 1
 220 0008 FFF7FEFF 		bl	loop
  87:.\main.c      **** 	}
 221              		.loc 1 87 0 discriminator 1
 222 000c FCE7     		b	.L4
 223              		.cfi_endproc
 224              	.LFE34:
 225              		.size	main, .-main
 226 000e C046     		.section	.rodata
 227              		.align	2
 228              	.LC0:
 229 0018 42595520 		.ascii	"BYU Mars Rover 2015 v0.1111\012\000"
 229      4D617273 
 229      20526F76 
 229      65722032 
 229      30313520 
 230              		.section	.text.setup,"ax",%progbits
 231              		.align	2
 232              		.global	setup
 233              		.code	16
 234              		.thumb_func
 235              		.type	setup, %function
 236              	setup:
 237              	.LFB35:
  88:.\main.c      **** }
  89:.\main.c      **** 
  90:.\main.c      **** void setup(void){
 238              		.loc 1 90 0
 239              		.cfi_startproc
 240 0000 80B5     		push	{r7, lr}
 241              	.LCFI5:
 242              		.cfi_def_cfa_offset 8
 243              		.cfi_offset 7, -8
 244              		.cfi_offset 14, -4
 245 0002 82B0     		sub	sp, sp, #8
 246              	.LCFI6:
 247              		.cfi_def_cfa_offset 16
 248 0004 00AF     		add	r7, sp, #0
 249              	.LCFI7:
 250              		.cfi_def_cfa_register 7
  91:.\main.c      **** 	// Core System Init
  92:.\main.c      **** 	cypressInit();
 251              		.loc 1 92 0
 252 0006 FFF7FEFF 		bl	cypressInit
 253              	.LBB2:
  93:.\main.c      **** 	
  94:.\main.c      **** 	// Init Peripherals
  95:.\main.c      **** 	for(uint8_t i=0; i<100; i++) if(WIZ_RDY_Read()) continue; else CyDelay(1);
 254              		.loc 1 95 0
 255 000a FB1D     		add	r3, r7, #7
 256 000c 0022     		mov	r2, #0
 257 000e 1A70     		strb	r2, [r3]
 258 0010 0EE0     		b	.L6
ARM GAS  C:\Users\Steve\AppData\Local\Temp\ccylJGL1.s 			page 8


 259              	.L9:
 260              		.loc 1 95 0 is_stmt 0 discriminator 3
 261 0012 FFF7FEFF 		bl	WIZ_RDY_Read
 262 0016 031C     		mov	r3, r0
 263 0018 002B     		cmp	r3, #0
 264 001a 03D1     		bne	.L10
 265              	.L7:
 266              		.loc 1 95 0 discriminator 2
 267 001c 0120     		mov	r0, #1
 268 001e FFF7FEFF 		bl	CyDelay
 269 0022 00E0     		b	.L8
 270              	.L10:
 271              		.loc 1 95 0
 272 0024 C046     		mov	r8, r8
 273              	.L8:
 274              		.loc 1 95 0 discriminator 2
 275 0026 FB1D     		add	r3, r7, #7
 276 0028 FA1D     		add	r2, r7, #7
 277 002a 1278     		ldrb	r2, [r2]
 278 002c 0132     		add	r2, r2, #1
 279 002e 1A70     		strb	r2, [r3]
 280              	.L6:
 281              		.loc 1 95 0 discriminator 1
 282 0030 FB1D     		add	r3, r7, #7
 283 0032 1B78     		ldrb	r3, [r3]
 284 0034 632B     		cmp	r3, #99
 285 0036 ECD9     		bls	.L9
 286              	.LBE2:
  96:.\main.c      **** 	WIZ_RST_Write(0); // This resets the 5500 IC and the on-board PIC uC
 287              		.loc 1 96 0 is_stmt 1
 288 0038 0020     		mov	r0, #0
 289 003a FFF7FEFF 		bl	WIZ_RST_Write
  97:.\main.c      **** 	CyDelay(10);
 290              		.loc 1 97 0
 291 003e 0A20     		mov	r0, #10
 292 0040 FFF7FEFF 		bl	CyDelay
  98:.\main.c      **** 	WIZ_RST_Write(1); // The PIC uC configures the 5500 MAC, finished in 33 ms.
 293              		.loc 1 98 0
 294 0044 0120     		mov	r0, #1
 295 0046 FFF7FEFF 		bl	WIZ_RST_Write
  99:.\main.c      **** 	CyDelay(50); // This (50ms) allows a margin if the PIC takes its time.
 296              		.loc 1 99 0
 297 004a 3220     		mov	r0, #50
 298 004c FFF7FEFF 		bl	CyDelay
 100:.\main.c      **** 	wiznetInit(3u,1u,27015u);
 299              		.loc 1 100 0
 300 0050 364B     		ldr	r3, .L11
 301 0052 0320     		mov	r0, #3
 302 0054 0121     		mov	r1, #1
 303 0056 1A1C     		mov	r2, r3
 304 0058 FFF7FEFF 		bl	wiznetInit
 101:.\main.c      **** 	
 102:.\main.c      **** 	
 103:.\main.c      **** 	// Compose Tasks and Routines
 104:.\main.c      **** 	
 105:.\main.c      **** 	// Application Init and Warmup
 106:.\main.c      **** 	printf("BYU Mars Rover 2015 v0.1111\n");
ARM GAS  C:\Users\Steve\AppData\Local\Temp\ccylJGL1.s 			page 9


 305              		.loc 1 106 0
 306 005c 344B     		ldr	r3, .L11+4
 307 005e 181C     		mov	r0, r3
 308 0060 FFF7FEFF 		bl	tfp_printf
 107:.\main.c      **** 	
 108:.\main.c      **** 	sys_health.systemState = STARTUP;
 309              		.loc 1 108 0
 310 0064 334B     		ldr	r3, .L11+8
 311 0066 0022     		mov	r2, #0
 312 0068 1A71     		strb	r2, [r3, #4]
 109:.\main.c      **** 
 110:.\main.c      **** 	rover_status.systemState = STARTUP;
 313              		.loc 1 110 0
 314 006a 334B     		ldr	r3, .L11+12
 315 006c 0022     		mov	r2, #0
 316 006e 1A70     		strb	r2, [r3]
 111:.\main.c      **** 	rover_status.roverVoltage = 12268;
 317              		.loc 1 111 0
 318 0070 314B     		ldr	r3, .L11+12
 319 0072 324A     		ldr	r2, .L11+16
 320 0074 5A80     		strh	r2, [r3, #2]
 112:.\main.c      **** 	rover_status.roverCurrent = 200;
 321              		.loc 1 112 0
 322 0076 304B     		ldr	r3, .L11+12
 323 0078 C822     		mov	r2, #200
 324 007a 9A80     		strh	r2, [r3, #4]
 113:.\main.c      **** 	rover_status.mAhCounter = 784;
 325              		.loc 1 113 0
 326 007c 2E4B     		ldr	r3, .L11+12
 327 007e C422     		mov	r2, #196
 328 0080 9200     		lsl	r2, r2, #2
 329 0082 9A60     		str	r2, [r3, #8]
 114:.\main.c      **** 	rover_status.dragonLinkRSSI = 50;
 330              		.loc 1 114 0
 331 0084 2C4B     		ldr	r3, .L11+12
 332 0086 3222     		mov	r2, #50
 333 0088 DA81     		strh	r2, [r3, #14]
 115:.\main.c      **** 	
 116:.\main.c      **** 	arm_status.systemState = STARTUP;
 334              		.loc 1 116 0
 335 008a 2D4B     		ldr	r3, .L11+20
 336 008c 0022     		mov	r2, #0
 337 008e 1A70     		strb	r2, [r3]
 117:.\main.c      **** 
 118:.\main.c      **** 
 119:.\main.c      **** 	imu.xacc = 	-14;
 338              		.loc 1 119 0
 339 0090 2C4B     		ldr	r3, .L11+24
 340 0092 0E22     		mov	r2, #14
 341 0094 5242     		neg	r2, r2
 342 0096 1A80     		strh	r2, [r3]
 120:.\main.c      **** 	imu.yacc = 	68;
 343              		.loc 1 120 0
 344 0098 2A4B     		ldr	r3, .L11+24
 345 009a 4422     		mov	r2, #68
 346 009c 5A80     		strh	r2, [r3, #2]
 121:.\main.c      **** 	imu.zacc = 	-510;
ARM GAS  C:\Users\Steve\AppData\Local\Temp\ccylJGL1.s 			page 10


 347              		.loc 1 121 0
 348 009e 294B     		ldr	r3, .L11+24
 349 00a0 294A     		ldr	r2, .L11+28
 350 00a2 9A80     		strh	r2, [r3, #4]
 122:.\main.c      **** 	imu.xgyro =	0;
 351              		.loc 1 122 0
 352 00a4 274B     		ldr	r3, .L11+24
 353 00a6 0022     		mov	r2, #0
 354 00a8 DA80     		strh	r2, [r3, #6]
 123:.\main.c      **** 	imu.ygyro =	14;
 355              		.loc 1 123 0
 356 00aa 264B     		ldr	r3, .L11+24
 357 00ac 0E22     		mov	r2, #14
 358 00ae 1A81     		strh	r2, [r3, #8]
 124:.\main.c      **** 	imu.zgyro =	2;
 359              		.loc 1 124 0
 360 00b0 244B     		ldr	r3, .L11+24
 361 00b2 0222     		mov	r2, #2
 362 00b4 5A81     		strh	r2, [r3, #10]
 125:.\main.c      **** 	imu.xmag = 	214;
 363              		.loc 1 125 0
 364 00b6 234B     		ldr	r3, .L11+24
 365 00b8 D622     		mov	r2, #214
 366 00ba 9A81     		strh	r2, [r3, #12]
 126:.\main.c      **** 	imu.ymag = 	15;
 367              		.loc 1 126 0
 368 00bc 214B     		ldr	r3, .L11+24
 369 00be 0F22     		mov	r2, #15
 370 00c0 DA81     		strh	r2, [r3, #14]
 127:.\main.c      **** 	imu.ymag = 	127;
 371              		.loc 1 127 0
 372 00c2 204B     		ldr	r3, .L11+24
 373 00c4 7F22     		mov	r2, #127
 374 00c6 DA81     		strh	r2, [r3, #14]
 128:.\main.c      **** 
 129:.\main.c      **** 	lrs.ppmCh1 = 1479;
 375              		.loc 1 129 0
 376 00c8 204B     		ldr	r3, .L11+32
 377 00ca 214A     		ldr	r2, .L11+36
 378 00cc 1A80     		strh	r2, [r3]
 130:.\main.c      **** 	lrs.ppmCh2 = 1513;
 379              		.loc 1 130 0
 380 00ce 1F4B     		ldr	r3, .L11+32
 381 00d0 204A     		ldr	r2, .L11+40
 382 00d2 5A80     		strh	r2, [r3, #2]
 131:.\main.c      **** 	lrs.ppmCh3 = 1501;
 383              		.loc 1 131 0
 384 00d4 1D4B     		ldr	r3, .L11+32
 385 00d6 204A     		ldr	r2, .L11+44
 386 00d8 9A80     		strh	r2, [r3, #4]
 132:.\main.c      **** 	lrs.ppmCh4 = 1442;
 387              		.loc 1 132 0
 388 00da 1C4B     		ldr	r3, .L11+32
 389 00dc 1F4A     		ldr	r2, .L11+48
 390 00de DA80     		strh	r2, [r3, #6]
 133:.\main.c      **** 	lrs.ppmCh5 = 1089;
 391              		.loc 1 133 0
ARM GAS  C:\Users\Steve\AppData\Local\Temp\ccylJGL1.s 			page 11


 392 00e0 1A4B     		ldr	r3, .L11+32
 393 00e2 1F4A     		ldr	r2, .L11+52
 394 00e4 1A81     		strh	r2, [r3, #8]
 134:.\main.c      **** 	lrs.ppmCh6 = 1101;
 395              		.loc 1 134 0
 396 00e6 194B     		ldr	r3, .L11+32
 397 00e8 1E4A     		ldr	r2, .L11+56
 398 00ea 5A81     		strh	r2, [r3, #10]
 135:.\main.c      **** 	lrs.ppmCh7 = 1178;
 399              		.loc 1 135 0
 400 00ec 174B     		ldr	r3, .L11+32
 401 00ee 1E4A     		ldr	r2, .L11+60
 402 00f0 9A81     		strh	r2, [r3, #12]
 136:.\main.c      **** 	lrs.ppmCh8 = 2011;
 403              		.loc 1 136 0
 404 00f2 164B     		ldr	r3, .L11+32
 405 00f4 1D4A     		ldr	r2, .L11+64
 406 00f6 DA81     		strh	r2, [r3, #14]
 137:.\main.c      **** 
 138:.\main.c      **** 	drive.driveFwd	= 11;
 407              		.loc 1 138 0
 408 00f8 1D4B     		ldr	r3, .L11+68
 409 00fa 0B22     		mov	r2, #11
 410 00fc 1A80     		strh	r2, [r3]
 139:.\main.c      **** 	drive.driveTurn	= -3;
 411              		.loc 1 139 0
 412 00fe 1C4B     		ldr	r3, .L11+68
 413 0100 0322     		mov	r2, #3
 414 0102 5242     		neg	r2, r2
 415 0104 5A80     		strh	r2, [r3, #2]
 140:.\main.c      **** 
 141:.\main.c      **** 	video.gimbalPan		= 0;
 416              		.loc 1 141 0
 417 0106 1B4B     		ldr	r3, .L11+72
 418 0108 0022     		mov	r2, #0
 419 010a 1A80     		strh	r2, [r3]
 142:.\main.c      **** 	video.gimbalTilt	= -40;
 420              		.loc 1 142 0
 421 010c 194B     		ldr	r3, .L11+72
 422 010e 2822     		mov	r2, #40
 423 0110 5242     		neg	r2, r2
 424 0112 5A80     		strh	r2, [r3, #2]
 143:.\main.c      **** 	video.gimbalZoom	= 0;
 425              		.loc 1 143 0
 426 0114 174B     		ldr	r3, .L11+72
 427 0116 0022     		mov	r2, #0
 428 0118 9A80     		strh	r2, [r3, #4]
 144:.\main.c      **** 	video.camSelect		= 0;
 429              		.loc 1 144 0
 430 011a 164B     		ldr	r3, .L11+72
 431 011c 0022     		mov	r2, #0
 432 011e 9A71     		strb	r2, [r3, #6]
 145:.\main.c      **** 
 146:.\main.c      **** 	liferay.laserDutyCycle = 0;
 433              		.loc 1 146 0
 434 0120 154B     		ldr	r3, .L11+76
 435 0122 0022     		mov	r2, #0
ARM GAS  C:\Users\Steve\AppData\Local\Temp\ccylJGL1.s 			page 12


 436 0124 1A70     		strb	r2, [r3]
 147:.\main.c      **** 	
 148:.\main.c      **** 	// *((char *) &custom1) = 'T';
 149:.\main.c      **** 	// for(uint8_t i=0; i<sizeof(custom1); i++){
 150:.\main.c      **** 	// 	*((char *) &custom1 + i) = 'T';
 151:.\main.c      **** 		// printf("%x",((uint8_t *) &custom1)[i]);
 152:.\main.c      **** 	// }
 153:.\main.c      **** 	
 154:.\main.c      **** 	// const char testArray[] = "TestTest";
 155:.\main.c      **** 	// memcpy((void *) &custom1,(void *)testArray,sizeof(testArray));
 156:.\main.c      **** 	
 157:.\main.c      **** 
 158:.\main.c      **** 	// Console Hints Printouts
 159:.\main.c      **** 	// printHelpInfo();
 160:.\main.c      **** 
 161:.\main.c      **** 	// Development/Debugging
 162:.\main.c      **** 	
 163:.\main.c      **** }
 437              		.loc 1 163 0
 438 0126 BD46     		mov	sp, r7
 439 0128 02B0     		add	sp, sp, #8
 440              		@ sp needed for prologue
 441 012a 80BD     		pop	{r7, pc}
 442              	.L12:
 443              		.align	2
 444              	.L11:
 445 012c 87690000 		.word	27015
 446 0130 18000000 		.word	.LC0
 447 0134 00000000 		.word	sys_health
 448 0138 10000000 		.word	rover_status
 449 013c EC2F0000 		.word	12268
 450 0140 20000000 		.word	arm_status
 451 0144 48000000 		.word	imu
 452 0148 02FEFFFF 		.word	-510
 453 014c 5C000000 		.word	lrs
 454 0150 C7050000 		.word	1479
 455 0154 E9050000 		.word	1513
 456 0158 DD050000 		.word	1501
 457 015c A2050000 		.word	1442
 458 0160 41040000 		.word	1089
 459 0164 4D040000 		.word	1101
 460 0168 9A040000 		.word	1178
 461 016c DB070000 		.word	2011
 462 0170 6C000000 		.word	drive
 463 0174 70000000 		.word	video
 464 0178 8C000000 		.word	liferay
 465              		.cfi_endproc
 466              	.LFE35:
 467              		.size	setup, .-setup
 468              		.section	.rodata
 469 0035 000000   		.align	2
 470              	.LC10:
 471 0038 25750A00 		.ascii	"%u\012\000"
 472              		.align	2
 473              	.LC12:
 474 003c 0A0900   		.ascii	"\012\011\000"
 475 003f 00       		.align	2
ARM GAS  C:\Users\Steve\AppData\Local\Temp\ccylJGL1.s 			page 13


 476              	.LC14:
 477 0040 25580900 		.ascii	"%X\011\000"
 478              		.align	2
 479              	.LC16:
 480 0044 0A00     		.ascii	"\012\000"
 481              		.section	.text.loop,"ax",%progbits
 482              		.align	2
 483              		.global	loop
 484              		.code	16
 485              		.thumb_func
 486              		.type	loop, %function
 487              	loop:
 488              	.LFB36:
 164:.\main.c      **** 
 165:.\main.c      **** void loop(void){
 489              		.loc 1 165 0
 490              		.cfi_startproc
 491 0000 80B5     		push	{r7, lr}
 492              	.LCFI8:
 493              		.cfi_def_cfa_offset 8
 494              		.cfi_offset 7, -8
 495              		.cfi_offset 14, -4
 496 0002 9CB0     		sub	sp, sp, #112
 497              	.LCFI9:
 498              		.cfi_def_cfa_offset 120
 499 0004 00AF     		add	r7, sp, #0
 500              	.LCFI10:
 501              		.cfi_def_cfa_register 7
 166:.\main.c      **** 	// printf("%d\n",SW_Read());
 167:.\main.c      **** 	// static uint16_t forcedWritePointer = 0;
 168:.\main.c      **** 	
 169:.\main.c      **** 	// LED_Write(!WIZ_RDY_Read()); // Warns if the Wiznet Ready Line isn't high.
 170:.\main.c      **** 	
 171:.\main.c      **** 	// LED_Write(1);
 172:.\main.c      **** 	
 173:.\main.c      **** 	if(WIZ_INT_Read() == LOW){
 502              		.loc 1 173 0
 503 0006 FFF7FEFF 		bl	WIZ_INT_Read
 504 000a 031C     		mov	r3, r0
 505 000c 002B     		cmp	r3, #0
 506 000e 00D0     		beq	.LCB274
 507 0010 79E0     		b	.L14	@long jump
 508              	.LCB274:
 509              	.LBB3:
 174:.\main.c      **** 		// 
 175:.\main.c      **** 		wiznetClearInterrupts();
 510              		.loc 1 175 0
 511 0012 FFF7FEFF 		bl	wiznetClearInterrupts
 176:.\main.c      **** 		
 177:.\main.c      **** 		
 178:.\main.c      **** 		uint8_t tempArray[100];
 179:.\main.c      **** 		uint16_t wiznetPointer = wiznetReadUdpFrame(tempArray,60);
 512              		.loc 1 179 0
 513 0016 3B1D     		add	r3, r7, #4
 514 0018 181C     		mov	r0, r3
 515 001a 3C21     		mov	r1, #60
 516 001c FFF7FEFF 		bl	wiznetReadUdpFrame
ARM GAS  C:\Users\Steve\AppData\Local\Temp\ccylJGL1.s 			page 14


 517 0020 021C     		mov	r2, r0
 518 0022 3B1C     		mov	r3, r7
 519 0024 6A33     		add	r3, r3, #106
 520 0026 1A80     		strh	r2, [r3]
 180:.\main.c      **** 		
 181:.\main.c      **** 		printf("%u\n",wiznetPointer);
 521              		.loc 1 181 0
 522 0028 3B1C     		mov	r3, r7
 523 002a 6A33     		add	r3, r3, #106
 524 002c 1B88     		ldrh	r3, [r3]
 525 002e 434A     		ldr	r2, .L22
 526 0030 101C     		mov	r0, r2
 527 0032 191C     		mov	r1, r3
 528 0034 FFF7FEFF 		bl	tfp_printf
 182:.\main.c      **** 		printf("\n\t");
 529              		.loc 1 182 0
 530 0038 414B     		ldr	r3, .L22+4
 531 003a 181C     		mov	r0, r3
 532 003c FFF7FEFF 		bl	tfp_printf
 533              	.LBB4:
 183:.\main.c      **** 		for(uint8_t c=0; c<16; c++)	printf("%X\t",c);
 534              		.loc 1 183 0
 535 0040 3B1C     		mov	r3, r7
 536 0042 6F33     		add	r3, r3, #111
 537 0044 0022     		mov	r2, #0
 538 0046 1A70     		strb	r2, [r3]
 539 0048 0EE0     		b	.L15
 540              	.L16:
 541              		.loc 1 183 0 is_stmt 0 discriminator 2
 542 004a 3B1C     		mov	r3, r7
 543 004c 6F33     		add	r3, r3, #111
 544 004e 1B78     		ldrb	r3, [r3]
 545 0050 3C4A     		ldr	r2, .L22+8
 546 0052 101C     		mov	r0, r2
 547 0054 191C     		mov	r1, r3
 548 0056 FFF7FEFF 		bl	tfp_printf
 549 005a 3B1C     		mov	r3, r7
 550 005c 6F33     		add	r3, r3, #111
 551 005e 3A1C     		mov	r2, r7
 552 0060 6F32     		add	r2, r2, #111
 553 0062 1278     		ldrb	r2, [r2]
 554 0064 0132     		add	r2, r2, #1
 555 0066 1A70     		strb	r2, [r3]
 556              	.L15:
 557              		.loc 1 183 0 discriminator 1
 558 0068 3B1C     		mov	r3, r7
 559 006a 6F33     		add	r3, r3, #111
 560 006c 1B78     		ldrb	r3, [r3]
 561 006e 0F2B     		cmp	r3, #15
 562 0070 EBD9     		bls	.L16
 563              	.LBE4:
 184:.\main.c      **** 		printf("\n");
 564              		.loc 1 184 0 is_stmt 1
 565 0072 354B     		ldr	r3, .L22+12
 566 0074 181C     		mov	r0, r3
 567 0076 FFF7FEFF 		bl	tfp_printf
 568              	.LBB5:
ARM GAS  C:\Users\Steve\AppData\Local\Temp\ccylJGL1.s 			page 15


 185:.\main.c      **** 		for(uint8_t j=0; j<2; j++){
 569              		.loc 1 185 0
 570 007a 3B1C     		mov	r3, r7
 571 007c 6E33     		add	r3, r3, #110
 572 007e 0022     		mov	r2, #0
 573 0080 1A70     		strb	r2, [r3]
 574 0082 32E0     		b	.L17
 575              	.L20:
 186:.\main.c      **** 			printf("%X\t",j);
 576              		.loc 1 186 0
 577 0084 3B1C     		mov	r3, r7
 578 0086 6E33     		add	r3, r3, #110
 579 0088 1B78     		ldrb	r3, [r3]
 580 008a 2E4A     		ldr	r2, .L22+8
 581 008c 101C     		mov	r0, r2
 582 008e 191C     		mov	r1, r3
 583 0090 FFF7FEFF 		bl	tfp_printf
 584              	.LBB6:
 187:.\main.c      **** 			for(uint8_t k=0; k<16; k++){
 585              		.loc 1 187 0
 586 0094 3B1C     		mov	r3, r7
 587 0096 6D33     		add	r3, r3, #109
 588 0098 0022     		mov	r2, #0
 589 009a 1A70     		strb	r2, [r3]
 590 009c 15E0     		b	.L18
 591              	.L19:
 188:.\main.c      **** 				printf("%X\t",tempArray[(16*j)+k]);
 592              		.loc 1 188 0 discriminator 2
 593 009e 3B1C     		mov	r3, r7
 594 00a0 6E33     		add	r3, r3, #110
 595 00a2 1B78     		ldrb	r3, [r3]
 596 00a4 1A01     		lsl	r2, r3, #4
 597 00a6 3B1C     		mov	r3, r7
 598 00a8 6D33     		add	r3, r3, #109
 599 00aa 1B78     		ldrb	r3, [r3]
 600 00ac D318     		add	r3, r2, r3
 601 00ae 3A1D     		add	r2, r7, #4
 602 00b0 D35C     		ldrb	r3, [r2, r3]
 603 00b2 244A     		ldr	r2, .L22+8
 604 00b4 101C     		mov	r0, r2
 605 00b6 191C     		mov	r1, r3
 606 00b8 FFF7FEFF 		bl	tfp_printf
 187:.\main.c      **** 			for(uint8_t k=0; k<16; k++){
 607              		.loc 1 187 0 discriminator 2
 608 00bc 3B1C     		mov	r3, r7
 609 00be 6D33     		add	r3, r3, #109
 610 00c0 3A1C     		mov	r2, r7
 611 00c2 6D32     		add	r2, r2, #109
 612 00c4 1278     		ldrb	r2, [r2]
 613 00c6 0132     		add	r2, r2, #1
 614 00c8 1A70     		strb	r2, [r3]
 615              	.L18:
 187:.\main.c      **** 			for(uint8_t k=0; k<16; k++){
 616              		.loc 1 187 0 is_stmt 0 discriminator 1
 617 00ca 3B1C     		mov	r3, r7
 618 00cc 6D33     		add	r3, r3, #109
 619 00ce 1B78     		ldrb	r3, [r3]
ARM GAS  C:\Users\Steve\AppData\Local\Temp\ccylJGL1.s 			page 16


 620 00d0 0F2B     		cmp	r3, #15
 621 00d2 E4D9     		bls	.L19
 622              	.LBE6:
 189:.\main.c      **** 			}
 190:.\main.c      **** 			printf("\n");
 623              		.loc 1 190 0 is_stmt 1
 624 00d4 1C4B     		ldr	r3, .L22+12
 625 00d6 181C     		mov	r0, r3
 626 00d8 FFF7FEFF 		bl	tfp_printf
 185:.\main.c      **** 		for(uint8_t j=0; j<2; j++){
 627              		.loc 1 185 0
 628 00dc 3B1C     		mov	r3, r7
 629 00de 6E33     		add	r3, r3, #110
 630 00e0 3A1C     		mov	r2, r7
 631 00e2 6E32     		add	r2, r2, #110
 632 00e4 1278     		ldrb	r2, [r2]
 633 00e6 0132     		add	r2, r2, #1
 634 00e8 1A70     		strb	r2, [r3]
 635              	.L17:
 185:.\main.c      **** 		for(uint8_t j=0; j<2; j++){
 636              		.loc 1 185 0 is_stmt 0 discriminator 1
 637 00ea 3B1C     		mov	r3, r7
 638 00ec 6E33     		add	r3, r3, #110
 639 00ee 1B78     		ldrb	r3, [r3]
 640 00f0 012B     		cmp	r3, #1
 641 00f2 C7D9     		bls	.L20
 642              	.LBE5:
 191:.\main.c      **** 		}
 192:.\main.c      **** 		printf("\n");
 643              		.loc 1 192 0 is_stmt 1
 644 00f4 144B     		ldr	r3, .L22+12
 645 00f6 181C     		mov	r0, r3
 646 00f8 FFF7FEFF 		bl	tfp_printf
 193:.\main.c      **** 		
 194:.\main.c      **** 		//printf("%u",tempArray[8]);
 195:.\main.c      **** 		LED_Write(tempArray[8]);
 647              		.loc 1 195 0
 648 00fc 3B1D     		add	r3, r7, #4
 649 00fe 1B7A     		ldrb	r3, [r3, #8]
 650 0100 181C     		mov	r0, r3
 651 0102 FFF7FEFF 		bl	LED_Write
 652              	.L14:
 653              	.LBE3:
 196:.\main.c      **** 		
 197:.\main.c      **** 		
 198:.\main.c      **** 	}
 199:.\main.c      **** 	
 200:.\main.c      **** 	if(BUTTON_PRESSED){
 654              		.loc 1 200 0
 655 0106 FFF7FEFF 		bl	SW_Read
 656 010a 031C     		mov	r3, r0
 657 010c 002B     		cmp	r3, #0
 658 010e 0DD1     		bne	.L21
 201:.\main.c      **** 		wiznetClearInterrupts();
 659              		.loc 1 201 0
 660 0110 FFF7FEFF 		bl	wiznetClearInterrupts
 202:.\main.c      **** 		// LED_Write(1);
ARM GAS  C:\Users\Steve\AppData\Local\Temp\ccylJGL1.s 			page 17


 203:.\main.c      **** 		// uint8_t testPacket[] = "Test Packet! 16"; //{0x00,0x55,0x55,0x55,0x55,0xFE}; //
 204:.\main.c      **** 		// wiznetWriteUdpFrame(GPS_STRING,sizeof(GPS_STRING));
 205:.\main.c      **** 		// wiznetSend();
 206:.\main.c      **** 		
 207:.\main.c      **** 		// wiznetWriteUdpFrame(((uint8_t *) &custom1),sizeof(custom1));
 208:.\main.c      **** 		// wiznetSend();
 209:.\main.c      **** 		
 210:.\main.c      **** 		// wiznetWriteUdpFrame(((void *) &lrs),16);
 211:.\main.c      **** 		// wiznetSend();
 212:.\main.c      **** 		
 213:.\main.c      **** 		// gps_position.lat = ;
 214:.\main.c      **** 		
 215:.\main.c      **** 		
 216:.\main.c      **** 		wiznetPrintRegisters(WIZNET_BLK_COMMON);
 661              		.loc 1 216 0
 662 0114 0020     		mov	r0, #0
 663 0116 FFF7FEFF 		bl	wiznetPrintRegisters
 217:.\main.c      **** 		wiznetPrintRegisters(WIZNET_BLK_S0_REG);
 664              		.loc 1 217 0
 665 011a 0120     		mov	r0, #1
 666 011c FFF7FEFF 		bl	wiznetPrintRegisters
 218:.\main.c      **** 		wiznetPrintRegisters(WIZNET_BLK_S0_RX);
 667              		.loc 1 218 0
 668 0120 0320     		mov	r0, #3
 669 0122 FFF7FEFF 		bl	wiznetPrintRegisters
 219:.\main.c      **** 		
 220:.\main.c      **** 		
 221:.\main.c      **** 		
 222:.\main.c      **** 		/*
 223:.\main.c      **** 		uint8_t testArray[] = {0,1,2,3,4,5,6,7,8,9,10,11,12,13,14,15};
 224:.\main.c      **** 		
 225:.\main.c      **** 		//roverlinkSendFrame(BASESTATION_1,ROVERLINK_SYS_HEALTH_MSG_ID,sys_health);
 226:.\main.c      **** 		
 227:.\main.c      **** 		for(uint8_t i=0; i<16; i++){
 228:.\main.c      **** 			roverlinkSendFrame(BASESTATION_1,i,testArray);
 229:.\main.c      **** 			for(uint8_t j=0; j<8; j++){
 230:.\main.c      **** 				testArray[j] = testArray[j]+1;
 231:.\main.c      **** 			}
 232:.\main.c      **** 		}
 233:.\main.c      **** 		*/
 234:.\main.c      **** 		
 235:.\main.c      **** 		// roverlinkSendFrame(BASESTATION_1,ROVERLINK_ROVER_STATUS_MSG_ID,rover_status);
 236:.\main.c      **** 		// roverlinkSendFrame(BASESTATION_1,ROVERLINK_ARM_STATUS_MSG_ID,arm_status);
 237:.\main.c      **** 		// roverlinkSendFrame(BASESTATION_1,ROVERLINK_GPS_MSG_ID,gps);
 238:.\main.c      **** 		// roverlinkSendFrame(BASESTATION_1,ROVERLINK_IMU_MSG_ID,imu);
 239:.\main.c      **** 		// roverlinkSendFrame(BASESTATION_1,ROVERLINK_LRS_MSG_ID,lrs);
 240:.\main.c      **** 		// roverlinkSendFrame(BASESTATION_1,ROVERLINK_DRIVE_MSG_ID,drive);
 241:.\main.c      **** 		// roverlinkSendFrame(BASESTATION_1,ROVERLINK_VIDEO_MSG_ID,video);
 242:.\main.c      **** 		// roverlinkSendFrame(BASESTATION_1,ROVERLINK_ARM_MSG_ID,arm);
 243:.\main.c      **** 		// roverlinkSendFrame(BASESTATION_1,ROVERLINK_ISHAAMA_MSG_ID,ishaama);
 244:.\main.c      **** 		// roverlinkSendFrame(BASESTATION_1,ROVERLINK_LIFERAY_MSG_ID,liferay);
 245:.\main.c      **** 		// roverlinkSendFrame(BASESTATION_1,ROVERLINK_CUSTOM_DEBUG_1_MSG_ID,custom_debug_1);
 246:.\main.c      **** 		// roverlinkSendFrame(BASESTATION_1,ROVERLINK_CUSTOM_DEBUG_2_MSG_ID,custom_debug_2);
 247:.\main.c      **** 		// roverlinkSendFrame(BASESTATION_1,ROVERLINK_CUSTOM_DEBUG_3_MSG_ID,custom_debug_3);
 248:.\main.c      **** 		// roverlinkSendFrame(BASESTATION_1,ROVERLINK_PING_MSG_ID,ping);
 249:.\main.c      **** 		// roverlinkSendFrame(BASESTATION_1,ROVERLINK_TELEMETRY_CONFIG_MSG_ID,telemetry_config);
 250:.\main.c      **** 		// roverlinkSendFrame(BASESTATION_1,ROVERLINK_REQ_FIELDS_ONCE_MSG_ID,req_fields_once);
ARM GAS  C:\Users\Steve\AppData\Local\Temp\ccylJGL1.s 			page 18


 251:.\main.c      **** 		// roverlinkSendFrame(BASESTATION_1,ROVERLINK_BROADCAST_MSG_ID,broadcast);
 252:.\main.c      **** 		
 253:.\main.c      **** 		// while(BUTTON_PRESSED);
 254:.\main.c      **** 		CyDelay(100);
 670              		.loc 1 254 0
 671 0126 6420     		mov	r0, #100
 672 0128 FFF7FEFF 		bl	CyDelay
 673              	.L21:
 255:.\main.c      **** 	}
 256:.\main.c      **** 	
 257:.\main.c      **** 	
 258:.\main.c      **** 	SPIM_ClearTxBuffer();
 674              		.loc 1 258 0
 675 012c FFF7FEFF 		bl	SPIM_ClearTxBuffer
 259:.\main.c      **** 	SPIM_ClearRxBuffer();
 676              		.loc 1 259 0
 677 0130 FFF7FEFF 		bl	SPIM_ClearRxBuffer
 260:.\main.c      **** 	
 261:.\main.c      **** 	// WIZ_SS_Write(LOW);
 262:.\main.c      **** 		// transferSPI(0x55);
 263:.\main.c      **** 	// WIZ_SS_Write(HIGH);
 264:.\main.c      **** 	
 265:.\main.c      **** 	// temp = SPIM_ReadTxStatus();
 266:.\main.c      **** 
 267:.\main.c      **** 	// /* Ensure that previous SPI read is done, or SPI is idle before sending data */
 268:.\main.c      **** 	// if(temp & (SPIM_STS_SPI_DONE | SPIM_STS_SPI_IDLE))
 269:.\main.c      **** 	// {
 270:.\main.c      **** 	// SPIM_WriteTxData(adcReading);
 271:.\main.c      **** 	// SPIS_ClearRxBuffer();
 272:.\main.c      **** 	// }
 273:.\main.c      **** 	
 274:.\main.c      **** 	
 275:.\main.c      **** 	// CyDelay(100);
 276:.\main.c      **** 	// CyDelayUs();
 277:.\main.c      **** 	// LED_Write(0); // turn LED off
 278:.\main.c      **** }
 678              		.loc 1 278 0
 679 0134 BD46     		mov	sp, r7
 680 0136 1CB0     		add	sp, sp, #112
 681              		@ sp needed for prologue
 682 0138 80BD     		pop	{r7, pc}
 683              	.L23:
 684 013a C046     		.align	2
 685              	.L22:
 686 013c 38000000 		.word	.LC10
 687 0140 3C000000 		.word	.LC12
 688 0144 40000000 		.word	.LC14
 689 0148 44000000 		.word	.LC16
 690              		.cfi_endproc
 691              	.LFE36:
 692              		.size	loop, .-loop
 693              		.section	.text.cypressInit,"ax",%progbits
 694              		.align	2
 695              		.global	cypressInit
 696              		.code	16
 697              		.thumb_func
 698              		.type	cypressInit, %function
ARM GAS  C:\Users\Steve\AppData\Local\Temp\ccylJGL1.s 			page 19


 699              	cypressInit:
 700              	.LFB37:
 279:.\main.c      **** 
 280:.\main.c      **** uint8_t cypressInit(void){
 701              		.loc 1 280 0
 702              		.cfi_startproc
 703 0000 80B5     		push	{r7, lr}
 704              	.LCFI11:
 705              		.cfi_def_cfa_offset 8
 706              		.cfi_offset 7, -8
 707              		.cfi_offset 14, -4
 708 0002 00AF     		add	r7, sp, #0
 709              	.LCFI12:
 710              		.cfi_def_cfa_register 7
 281:.\main.c      **** 	WIZ_RST_Write(1);
 711              		.loc 1 281 0
 712 0004 0120     		mov	r0, #1
 713 0006 FFF7FEFF 		bl	WIZ_RST_Write
 282:.\main.c      **** 	SPIM_Start();
 714              		.loc 1 282 0
 715 000a FFF7FEFF 		bl	SPIM_Start
 283:.\main.c      **** 	UART_Start();
 716              		.loc 1 283 0
 717 000e FFF7FEFF 		bl	UART_Start
 284:.\main.c      **** 	init_printf(NULL,putdata);
 718              		.loc 1 284 0
 719 0012 064B     		ldr	r3, .L26
 720 0014 0020     		mov	r0, #0
 721 0016 191C     		mov	r1, r3
 722 0018 FFF7FEFF 		bl	init_printf
 285:.\main.c      **** 	
 286:.\main.c      **** 	
 287:.\main.c      **** 	//if(SW1_Read()) {  // if button is not being pressed
 288:.\main.c      ****             
 289:.\main.c      **** 	LED_Write(0); // turn LED off
 723              		.loc 1 289 0
 724 001c 0020     		mov	r0, #0
 725 001e FFF7FEFF 		bl	LED_Write
 290:.\main.c      **** 	
 291:.\main.c      **** 	
 292:.\main.c      **** 	
 293:.\main.c      **** 	CyGlobalIntEnable;
 726              		.loc 1 293 0
 727              	@ 293 ".\main.c" 1
 728 0022 62B6     		CPSIE   i
 729              	@ 0 "" 2
 294:.\main.c      **** 	return 1;
 730              		.loc 1 294 0
 731              		.code	16
 732 0024 0123     		mov	r3, #1
 295:.\main.c      **** }
 733              		.loc 1 295 0
 734 0026 181C     		mov	r0, r3
 735 0028 BD46     		mov	sp, r7
 736              		@ sp needed for prologue
 737 002a 80BD     		pop	{r7, pc}
 738              	.L27:
ARM GAS  C:\Users\Steve\AppData\Local\Temp\ccylJGL1.s 			page 20


 739              		.align	2
 740              	.L26:
 741 002c 00000000 		.word	putdata
 742              		.cfi_endproc
 743              	.LFE37:
 744              		.size	cypressInit, .-cypressInit
 745              		.section	.rodata
 746 0046 0000     		.align	2
 747              	.LC24:
 748 0048 25582558 		.ascii	"%X%X\000"
 748      00
 749 004d 000000   		.section	.text.roverlinkSendFrame,"ax",%progbits
 750              		.align	2
 751              		.global	roverlinkSendFrame
 752              		.code	16
 753              		.thumb_func
 754              		.type	roverlinkSendFrame, %function
 755              	roverlinkSendFrame:
 756              	.LFB38:
 296:.\main.c      **** 
 297:.\main.c      **** 
 298:.\main.c      **** 
 299:.\main.c      **** // Notes for eventual roverlink.c file:
 300:.\main.c      **** // Have private variable that keeps track of Destination IP Address Target, or query it on every wr
 301:.\main.c      **** // This will assure that when the dstAddr is changed, the Ip Address is adjusted as well.
 302:.\main.c      **** // This is inevitable: Ip Addresses must be unique on the network, ... ah, wait, ah..... brain stuc
 303:.\main.c      **** // UDP only sends to a specific Ip Address, unless we do Broadcasting/Unicast. I designed the Rover
 304:.\main.c      **** // protocol from the start thinking that this would be the case (doing broadcasting), and thus IP a
 305:.\main.c      **** // were/are irrelevant, every node on the network gets every packet. But then, the PSOCs must proce
 306:.\main.c      **** // Thus, we want to have it such that the PSOCS only get .... oh duh, Socket Port assignments.
 307:.\main.c      **** // So we have three things going on: IP Address, IP Port, and RoverLink Alias.
 308:.\main.c      **** // IP Address must be unique on each Wiznet and IP Camera. Static assignment if no UDP broadcast, e
 309:.\main.c      **** // 		If UDP Broadcasting, no static Ip addresses needed, more freedom, at risk of broadcasting brea
 310:.\main.c      **** // 		Lets make a compromise: Basestation sends to specific Ip Addresses, or MACs to be even more lo
 311:.\main.c      **** // 			Rover broadcasts to all nodes using UDP broadcast.
 312:.\main.c      **** // 			This would allow any basestation to monitor any/all rover telemetry.
 313:.\main.c      **** // 			PSOC only accepts commands from a specific Basestation Ip address (How do I do that?)
 314:.\main.c      **** // IP Ports are assigned to target nodes. There source port numbers, which I've made ephemeral (non
 315:.\main.c      **** // 		We are only concerned with the destination UDP port
 316:.\main.c      **** // RoverLink Alias 
 317:.\main.c      **** 
 318:.\main.c      **** 
 319:.\main.c      **** 
 320:.\main.c      **** // Ok, so here is how it works, having added BROADCAST_ALIAS to the RoverLink.xml
 321:.\main.c      **** // A Basestation transmits to the target Rover board and that board's UDP Port.
 322:.\main.c      **** // The Rover board in question accepts the packet if it is the correct port, and if possible, from 
 323:.\main.c      **** // The never Writes the basestation, nor sends Requests, it only Responds.
 324:.\main.c      **** // A rover board response is sent either A) To the board requesting info, or BASESTATION_1 for tele
 325:.\main.c      **** 
 326:.\main.c      **** 
 327:.\main.c      **** 
 328:.\main.c      **** 
 329:.\main.c      **** 
 330:.\main.c      **** // void roverlinkReceiveFrame(void){
 331:.\main.c      **** 	// wiznetReadUdpFrame()
 332:.\main.c      **** 	
 333:.\main.c      **** // }
ARM GAS  C:\Users\Steve\AppData\Local\Temp\ccylJGL1.s 			page 21


 334:.\main.c      **** 
 335:.\main.c      **** // void roverlinkSendFrame(uint8_t srcAddr, uint8_t dstAddr, uint8_t wrReqRes, uint8_t msgId, void 
 336:.\main.c      **** void roverlinkSendFrame(uint8_t dstAddr, uint8_t msgId, void *payload){
 757              		.loc 1 336 0
 758              		.cfi_startproc
 759 0000 80B5     		push	{r7, lr}
 760              	.LCFI13:
 761              		.cfi_def_cfa_offset 8
 762              		.cfi_offset 7, -8
 763              		.cfi_offset 14, -4
 764 0002 86B0     		sub	sp, sp, #24
 765              	.LCFI14:
 766              		.cfi_def_cfa_offset 32
 767 0004 00AF     		add	r7, sp, #0
 768              	.LCFI15:
 769              		.cfi_def_cfa_register 7
 770 0006 3A60     		str	r2, [r7]
 771 0008 FB1D     		add	r3, r7, #7
 772 000a 021C     		add	r2, r0, #0
 773 000c 1A70     		strb	r2, [r3]
 774 000e BB1D     		add	r3, r7, #6
 775 0010 0A1C     		add	r2, r1, #0
 776 0012 1A70     		strb	r2, [r3]
 337:.\main.c      **** 	uint8_t srcAddr = board_id; // MAIN_CONTROLLER; // SYSTEM_ID;
 777              		.loc 1 337 0
 778 0014 3B1C     		mov	r3, r7
 779 0016 1633     		add	r3, r3, #22
 780 0018 4E4A     		ldr	r2, .L39
 781 001a 1278     		ldrb	r2, [r2]
 782 001c 1A70     		strb	r2, [r3]
 338:.\main.c      **** 	uint8_t wrReqRes = 0x00; // WRITE_BIT | REQUEST_BIT; //REQUEST_BIT WRITE_BIT
 783              		.loc 1 338 0
 784 001e 3B1C     		mov	r3, r7
 785 0020 1533     		add	r3, r3, #21
 786 0022 0022     		mov	r2, #0
 787 0024 1A70     		strb	r2, [r3]
 339:.\main.c      **** 	
 340:.\main.c      **** 	static uint8_t seqCount = 0;
 341:.\main.c      **** 	
 342:.\main.c      **** 	// Slightly Dangerous way of generating the len variable; relies on 0-15 and 60-63. ) if ROVERLINK
 343:.\main.c      **** 	uint8_t len = (wrReqRes == ROVERLINK_REQUEST)? 0 : (msgId<16)? ROVERLINK_MSG_LEN_ARRAY[msgId] :
 788              		.loc 1 343 0
 789 0026 4C4B     		ldr	r3, .L39+4
 790 0028 1B78     		ldrb	r3, [r3]
 791 002a 3A1C     		mov	r2, r7
 792 002c 1532     		add	r2, r2, #21
 793 002e 1278     		ldrb	r2, [r2]
 794 0030 9A42     		cmp	r2, r3
 795 0032 18D0     		beq	.L29
 796              		.loc 1 343 0 is_stmt 0 discriminator 1
 797 0034 BB1D     		add	r3, r7, #6
 798 0036 1B78     		ldrb	r3, [r3]
 799 0038 0F2B     		cmp	r3, #15
 800 003a 04D8     		bhi	.L30
 801              		.loc 1 343 0 discriminator 3
 802 003c BB1D     		add	r3, r7, #6
 803 003e 1B78     		ldrb	r3, [r3]
ARM GAS  C:\Users\Steve\AppData\Local\Temp\ccylJGL1.s 			page 22


 804 0040 464A     		ldr	r2, .L39+8
 805 0042 D35C     		ldrb	r3, [r2, r3]
 806 0044 0EE0     		b	.L31
 807              	.L30:
 808              		.loc 1 343 0 discriminator 4
 809 0046 BB1D     		add	r3, r7, #6
 810 0048 1B78     		ldrb	r3, [r3]
 811 004a 3B2B     		cmp	r3, #59
 812 004c 09D9     		bls	.L32
 344:.\main.c      **** 			((msgId > 59) && (msgId<64))? ROVERLINK_MSG_LEN_ARRAY[msgId-44] : 0;
 813              		.loc 1 344 0 is_stmt 1
 814 004e BB1D     		add	r3, r7, #6
 815 0050 1B78     		ldrb	r3, [r3]
 816 0052 3F2B     		cmp	r3, #63
 817 0054 05D8     		bhi	.L32
 818              		.loc 1 344 0 is_stmt 0 discriminator 1
 819 0056 BB1D     		add	r3, r7, #6
 820 0058 1B78     		ldrb	r3, [r3]
 821 005a 2C3B     		sub	r3, r3, #44
 343:.\main.c      **** 	uint8_t len = (wrReqRes == ROVERLINK_REQUEST)? 0 : (msgId<16)? ROVERLINK_MSG_LEN_ARRAY[msgId] :
 822              		.loc 1 343 0 is_stmt 1 discriminator 1
 823 005c 3F4A     		ldr	r2, .L39+8
 824 005e D35C     		ldrb	r3, [r2, r3]
 825 0060 00E0     		b	.L33
 826              	.L32:
 343:.\main.c      **** 	uint8_t len = (wrReqRes == ROVERLINK_REQUEST)? 0 : (msgId<16)? ROVERLINK_MSG_LEN_ARRAY[msgId] :
 827              		.loc 1 343 0 is_stmt 0 discriminator 5
 828 0062 0023     		mov	r3, #0
 829              	.L33:
 830              	.L31:
 831 0064 00E0     		b	.L34
 832              	.L29:
 343:.\main.c      **** 	uint8_t len = (wrReqRes == ROVERLINK_REQUEST)? 0 : (msgId<16)? ROVERLINK_MSG_LEN_ARRAY[msgId] :
 833              		.loc 1 343 0 discriminator 2
 834 0066 0023     		mov	r3, #0
 835              	.L34:
 343:.\main.c      **** 	uint8_t len = (wrReqRes == ROVERLINK_REQUEST)? 0 : (msgId<16)? ROVERLINK_MSG_LEN_ARRAY[msgId] :
 836              		.loc 1 343 0 discriminator 8
 837 0068 3A1C     		mov	r2, r7
 838 006a 1432     		add	r2, r2, #20
 839 006c 1370     		strb	r3, [r2]
 345:.\main.c      **** 	
 346:.\main.c      **** 	
 347:.\main.c      **** 	#ifdef ROVERLINK_PREAMBLE_SYNC_BYTE
 348:.\main.c      **** 		#define ROVERLINK_HEADER_LEN 5
 349:.\main.c      **** 		uint8_t header[ROVERLINK_HEADER_LEN] = {0xFE,((srcAddr<<4)&0xF0)|(dstAddr&0x0F),(ROVERLINK_RESPON
 350:.\main.c      **** 	#else
 351:.\main.c      **** 		// #define ROVERLINK_HEADER_LEN 4
 352:.\main.c      **** 		#define ROVERLINK_HEADER_LEN 6
 353:.\main.c      **** 		// uint8_t header[ROVERLINK_HEADER_LEN] = {((srcAddr<<4)&0xF0)|(dstAddr&0x0F),(ROVERLINK_RESPONSE
 354:.\main.c      **** 		uint8_t header[ROVERLINK_HEADER_LEN] = {srcAddr,dstAddr,ROVERLINK_RESPONSE,msgId,seqCount,len};
 840              		.loc 1 354 0 is_stmt 1 discriminator 8
 841 006e 3B1C     		mov	r3, r7
 842 0070 0C33     		add	r3, r3, #12
 843 0072 3A1C     		mov	r2, r7
 844 0074 1632     		add	r2, r2, #22
 845 0076 1278     		ldrb	r2, [r2]
ARM GAS  C:\Users\Steve\AppData\Local\Temp\ccylJGL1.s 			page 23


 846 0078 1A70     		strb	r2, [r3]
 847 007a 3B1C     		mov	r3, r7
 848 007c 0C33     		add	r3, r3, #12
 849 007e FA1D     		add	r2, r7, #7
 850 0080 1278     		ldrb	r2, [r2]
 851 0082 5A70     		strb	r2, [r3, #1]
 852 0084 364B     		ldr	r3, .L39+12
 853 0086 1A78     		ldrb	r2, [r3]
 854 0088 3B1C     		mov	r3, r7
 855 008a 0C33     		add	r3, r3, #12
 856 008c 9A70     		strb	r2, [r3, #2]
 857 008e 3B1C     		mov	r3, r7
 858 0090 0C33     		add	r3, r3, #12
 859 0092 BA1D     		add	r2, r7, #6
 860 0094 1278     		ldrb	r2, [r2]
 861 0096 DA70     		strb	r2, [r3, #3]
 862 0098 324B     		ldr	r3, .L39+16
 863 009a 1A78     		ldrb	r2, [r3]
 864 009c 3B1C     		mov	r3, r7
 865 009e 0C33     		add	r3, r3, #12
 866 00a0 1A71     		strb	r2, [r3, #4]
 867 00a2 3B1C     		mov	r3, r7
 868 00a4 0C33     		add	r3, r3, #12
 869 00a6 3A1C     		mov	r2, r7
 870 00a8 1432     		add	r2, r2, #20
 871 00aa 1278     		ldrb	r2, [r2]
 872 00ac 5A71     		strb	r2, [r3, #5]
 355:.\main.c      **** 	#endif
 356:.\main.c      **** 
 357:.\main.c      **** 	wiznetWriteUdpFrame(header,ROVERLINK_HEADER_LEN);
 873              		.loc 1 357 0 discriminator 8
 874 00ae 3B1C     		mov	r3, r7
 875 00b0 0C33     		add	r3, r3, #12
 876 00b2 181C     		mov	r0, r3
 877 00b4 0621     		mov	r1, #6
 878 00b6 FFF7FEFF 		bl	wiznetWriteUdpFrame
 358:.\main.c      **** 	// printf("Length = %u\n",len);
 359:.\main.c      **** 	// CyDelay();
 360:.\main.c      **** 	if(len > 0) wiznetWriteUdpFrame((uint8_t *)payload,len); //  The devil line!
 879              		.loc 1 360 0 discriminator 8
 880 00ba 3B1C     		mov	r3, r7
 881 00bc 1433     		add	r3, r3, #20
 882 00be 1B78     		ldrb	r3, [r3]
 883 00c0 002B     		cmp	r3, #0
 884 00c2 07D0     		beq	.L35
 885              		.loc 1 360 0 is_stmt 0 discriminator 1
 886 00c4 3A68     		ldr	r2, [r7]
 887 00c6 3B1C     		mov	r3, r7
 888 00c8 1433     		add	r3, r3, #20
 889 00ca 1B78     		ldrb	r3, [r3]
 890 00cc 101C     		mov	r0, r2
 891 00ce 191C     		mov	r1, r3
 892 00d0 FFF7FEFF 		bl	wiznetWriteUdpFrame
 893              	.L35:
 894              	.LBB7:
 361:.\main.c      **** 	for(uint8_t i=0; i<ROVERLINK_HEADER_LEN;i++){
 895              		.loc 1 361 0 is_stmt 1
ARM GAS  C:\Users\Steve\AppData\Local\Temp\ccylJGL1.s 			page 24


 896 00d4 3B1C     		mov	r3, r7
 897 00d6 1733     		add	r3, r3, #23
 898 00d8 0022     		mov	r2, #0
 899 00da 1A70     		strb	r2, [r3]
 900 00dc 1EE0     		b	.L36
 901              	.L37:
 362:.\main.c      **** 		printf("%X%X",header[i]>>4,header[i]&0x0F);
 902              		.loc 1 362 0 discriminator 2
 903 00de 3B1C     		mov	r3, r7
 904 00e0 1733     		add	r3, r3, #23
 905 00e2 1B78     		ldrb	r3, [r3]
 906 00e4 3A1C     		mov	r2, r7
 907 00e6 0C32     		add	r2, r2, #12
 908 00e8 D35C     		ldrb	r3, [r2, r3]
 909 00ea 1B09     		lsr	r3, r3, #4
 910 00ec DBB2     		uxtb	r3, r3
 911 00ee 1A1C     		mov	r2, r3
 912 00f0 3B1C     		mov	r3, r7
 913 00f2 1733     		add	r3, r3, #23
 914 00f4 1B78     		ldrb	r3, [r3]
 915 00f6 391C     		mov	r1, r7
 916 00f8 0C31     		add	r1, r1, #12
 917 00fa CB5C     		ldrb	r3, [r1, r3]
 918 00fc 191C     		mov	r1, r3
 919 00fe 0F23     		mov	r3, #15
 920 0100 0B40     		and	r3, r1
 921 0102 1949     		ldr	r1, .L39+20
 922 0104 081C     		mov	r0, r1
 923 0106 111C     		mov	r1, r2
 924 0108 1A1C     		mov	r2, r3
 925 010a FFF7FEFF 		bl	tfp_printf
 361:.\main.c      **** 	for(uint8_t i=0; i<ROVERLINK_HEADER_LEN;i++){
 926              		.loc 1 361 0 discriminator 2
 927 010e 3B1C     		mov	r3, r7
 928 0110 1733     		add	r3, r3, #23
 929 0112 3A1C     		mov	r2, r7
 930 0114 1732     		add	r2, r2, #23
 931 0116 1278     		ldrb	r2, [r2]
 932 0118 0132     		add	r2, r2, #1
 933 011a 1A70     		strb	r2, [r3]
 934              	.L36:
 361:.\main.c      **** 	for(uint8_t i=0; i<ROVERLINK_HEADER_LEN;i++){
 935              		.loc 1 361 0 is_stmt 0 discriminator 1
 936 011c 3B1C     		mov	r3, r7
 937 011e 1733     		add	r3, r3, #23
 938 0120 1B78     		ldrb	r3, [r3]
 939 0122 052B     		cmp	r3, #5
 940 0124 DBD9     		bls	.L37
 941              	.LBE7:
 363:.\main.c      **** 	}
 364:.\main.c      **** 	printf("\n");
 942              		.loc 1 364 0 is_stmt 1
 943 0126 114B     		ldr	r3, .L39+24
 944 0128 181C     		mov	r0, r3
 945 012a FFF7FEFF 		bl	tfp_printf
 365:.\main.c      **** 	// for(uint8_t i=0; i<len;i++){
 366:.\main.c      **** 		// printf("%x",payload[i]);
ARM GAS  C:\Users\Steve\AppData\Local\Temp\ccylJGL1.s 			page 25


 367:.\main.c      **** 	// }
 368:.\main.c      **** 	
 369:.\main.c      **** 	// printf("%s",payload);
 370:.\main.c      **** 	wiznetSend();
 946              		.loc 1 370 0
 947 012e FFF7FEFF 		bl	wiznetSend
 371:.\main.c      **** 	
 372:.\main.c      **** 	while(WIZ_INT_Read() == HIGH);
 948              		.loc 1 372 0
 949 0132 C046     		mov	r8, r8
 950              	.L38:
 951              		.loc 1 372 0 is_stmt 0 discriminator 1
 952 0134 FFF7FEFF 		bl	WIZ_INT_Read
 953 0138 031C     		mov	r3, r0
 954 013a 012B     		cmp	r3, #1
 955 013c FAD0     		beq	.L38
 373:.\main.c      **** 	wiznetClearInterrupts();
 956              		.loc 1 373 0 is_stmt 1
 957 013e FFF7FEFF 		bl	wiznetClearInterrupts
 374:.\main.c      **** 	
 375:.\main.c      **** 	seqCount++;	
 958              		.loc 1 375 0
 959 0142 084B     		ldr	r3, .L39+16
 960 0144 1B78     		ldrb	r3, [r3]
 961 0146 0133     		add	r3, r3, #1
 962 0148 DAB2     		uxtb	r2, r3
 963 014a 064B     		ldr	r3, .L39+16
 964 014c 1A70     		strb	r2, [r3]
 376:.\main.c      **** }
 965              		.loc 1 376 0
 966 014e BD46     		mov	sp, r7
 967 0150 06B0     		add	sp, sp, #24
 968              		@ sp needed for prologue
 969 0152 80BD     		pop	{r7, pc}
 970              	.L40:
 971              		.align	2
 972              	.L39:
 973 0154 00000000 		.word	board_id
 974 0158 00000000 		.word	ROVERLINK_REQUEST
 975 015c 00000000 		.word	ROVERLINK_MSG_LEN_ARRAY
 976 0160 00000000 		.word	ROVERLINK_RESPONSE
 977 0164 ED000000 		.word	seqCount.5820
 978 0168 48000000 		.word	.LC24
 979 016c 44000000 		.word	.LC16
 980              		.cfi_endproc
 981              	.LFE38:
 982              		.size	roverlinkSendFrame, .-roverlinkSendFrame
 983              		.bss
 984              	seqCount.5820:
 985 00ed 00       		.space	1
 986 00ee 0000     		.text
 987              	.Letext0:
 988              		.file 2 "c:\\program files (x86)\\cypress\\psoc creator\\3.0\\psoc creator\\import\\gnu_cs\\arm\\4
 989              		.file 3 "./Generated_Source/PSoC4/cytypes.h"
 990              		.file 4 ".\\roverlink.h"
 991              		.file 5 ".\\rover_main.h"