ARM GAS  C:\Users\Steve\AppData\Local\Temp\ccloT0QO.s 			page 1


   1              		.cpu cortex-m0
   2              		.fpu softvfp
   3              		.eabi_attribute 20, 1
   4              		.eabi_attribute 21, 1
   5              		.eabi_attribute 23, 3
   6              		.eabi_attribute 24, 1
   7              		.eabi_attribute 25, 1
   8              		.eabi_attribute 26, 1
   9              		.eabi_attribute 30, 6
  10              		.eabi_attribute 34, 0
  11              		.eabi_attribute 18, 4
  12              		.code	16
  13              		.file	"wiznet5500.c"
  14              		.text
  15              	.Ltext0:
  16              		.cfi_sections	.debug_frame
  17              		.section	.text.transferSPI,"ax",%progbits
  18              		.align	2
  19              		.code	16
  20              		.thumb_func
  21              		.type	transferSPI, %function
  22              	transferSPI:
  23              	.LFB33:
  24              		.file 1 ".\\spi.h"
   1:.\spi.h       **** #ifndef CYPRESS_ROVER_SPI_DEF_H
   2:.\spi.h       **** #define CYPRESS_ROVER_SPI_DEF_H
   3:.\spi.h       **** 
   4:.\spi.h       **** #include <project.h>
   5:.\spi.h       **** #include <stdint.h>
   6:.\spi.h       **** 
   7:.\spi.h       **** // Trying the C99 Definition, as per http://www.greenend.org.uk/rjk/tech/inline.html
   8:.\spi.h       **** // inline uint8_t transferSPI(uint8_t);
   9:.\spi.h       **** 
  10:.\spi.h       **** 
  11:.\spi.h       **** // Try defining the whole thing in the header:
  12:.\spi.h       **** // inline uint8_t transferSPI(uint8_t data){ // This results in compile failure, must be static
  13:.\spi.h       **** static inline uint8_t transferSPI(uint8_t data){
  25              		.loc 1 13 0
  26              		.cfi_startproc
  27 0000 80B5     		push	{r7, lr}
  28              	.LCFI0:
  29              		.cfi_def_cfa_offset 8
  30              		.cfi_offset 7, -8
  31              		.cfi_offset 14, -4
  32 0002 82B0     		sub	sp, sp, #8
  33              	.LCFI1:
  34              		.cfi_def_cfa_offset 16
  35 0004 00AF     		add	r7, sp, #0
  36              	.LCFI2:
  37              		.cfi_def_cfa_register 7
  38 0006 021C     		mov	r2, r0
  39 0008 FB1D     		add	r3, r7, #7
  40 000a 1A70     		strb	r2, [r3]
  14:.\spi.h       **** 	SPIM_WriteTxData(data);
  41              		.loc 1 14 0
  42 000c FB1D     		add	r3, r7, #7
  43 000e 1B78     		ldrb	r3, [r3]
ARM GAS  C:\Users\Steve\AppData\Local\Temp\ccloT0QO.s 			page 2


  44 0010 181C     		mov	r0, r3
  45 0012 FFF7FEFF 		bl	SPIM_WriteTxData
  15:.\spi.h       **** 	while(!(SPIM_ReadTxStatus() & SPIM_STS_SPI_DONE));
  46              		.loc 1 15 0
  47 0016 C046     		mov	r8, r8
  48              	.L2:
  49              		.loc 1 15 0 is_stmt 0 discriminator 1
  50 0018 FFF7FEFF 		bl	SPIM_ReadTxStatus
  51 001c 031C     		mov	r3, r0
  52 001e 1A1C     		mov	r2, r3
  53 0020 0123     		mov	r3, #1
  54 0022 1340     		and	r3, r2
  55 0024 F8D0     		beq	.L2
  16:.\spi.h       **** 	return( ((uint8_t) (SPIM_ReadRxData())) );
  56              		.loc 1 16 0 is_stmt 1
  57 0026 FFF7FEFF 		bl	SPIM_ReadRxData
  58 002a 031C     		mov	r3, r0
  17:.\spi.h       **** }
  59              		.loc 1 17 0
  60 002c 181C     		mov	r0, r3
  61 002e BD46     		mov	sp, r7
  62 0030 02B0     		add	sp, sp, #8
  63              		@ sp needed for prologue
  64 0032 80BD     		pop	{r7, pc}
  65              		.cfi_endproc
  66              	.LFE33:
  67              		.size	transferSPI, .-transferSPI
  68              		.bss
  69              		.align	1
  70              	wiznetTxPointer:
  71 0000 0000     		.space	2
  72              		.section	.rodata
  73              		.align	2
  74              	.LC0:
  75 0000 00       		.byte	0
  76 0001 C0       		.byte	-64
  77 0002 A8       		.byte	-88
  78 0003 01       		.byte	1
  79 0004 01       		.byte	1
  80 0005 FF       		.byte	-1
  81 0006 FF       		.byte	-1
  82 0007 FF       		.byte	-1
  83 0008 00       		.byte	0
  84 0009 00       		.byte	0
  85 000a 08       		.byte	8
  86 000b DC       		.byte	-36
  87 000c FF       		.byte	-1
  88 000d FF       		.byte	-1
  89 000e FF       		.byte	-1
  90 000f C0       		.byte	-64
  91 0010 A8       		.byte	-88
  92 0011 01       		.byte	1
  93 0012 FE       		.byte	-2
  94 0013 00       		.align	2
  95              	.LC1:
  96 0014 02       		.byte	2
  97 0015 00       		.byte	0
ARM GAS  C:\Users\Steve\AppData\Local\Temp\ccloT0QO.s 			page 3


  98 0016 FF       		.byte	-1
  99 0017 00       		.byte	0
 100 0018 FE       		.byte	-2
 101 0019 01       		.byte	1
 102 001a 00       		.byte	0
 103 001b 00       		.byte	0
 104 001c 00       		.byte	0
 105 001d 00       		.byte	0
 106 001e 00       		.byte	0
 107 001f 00       		.byte	0
 108 0020 C0       		.byte	-64
 109 0021 A8       		.byte	-88
 110 0022 01       		.byte	1
 111 0023 01       		.byte	1
 112 0024 69       		.byte	105
 113 0025 87       		.byte	-121
 114              		.section	.text.wiznetInit,"ax",%progbits
 115              		.align	2
 116              		.global	wiznetInit
 117              		.code	16
 118              		.thumb_func
 119              		.type	wiznetInit, %function
 120              	wiznetInit:
 121              	.LFB34:
 122              		.file 2 ".\\wiznet5500.c"
   1:.\wiznet5500.c **** // BYU Mars Rover WizNet Library
   2:.\wiznet5500.c **** // Authors:
   3:.\wiznet5500.c **** // 		Steve Carlson
   4:.\wiznet5500.c **** // 		<Your Name Here>
   5:.\wiznet5500.c **** 
   6:.\wiznet5500.c **** // Totally Bare-bones, written-in-24-hours.
   7:.\wiznet5500.c **** // Recommend using https://github.com/Wiznet/WIZ_Ethernet_Library later
   8:.\wiznet5500.c **** 
   9:.\wiznet5500.c **** #include <project.h>
  10:.\wiznet5500.c **** #include <stdint.h>
  11:.\wiznet5500.c **** #include "wiznet5500.h"
  12:.\wiznet5500.c **** #include "spi.h"
  13:.\wiznet5500.c **** // #include "rover_main.h" // For some reason, including this breaks it all. 
  14:.\wiznet5500.c **** // 		Only needed for the following macros:
  15:.\wiznet5500.c **** #define HIGH			1
  16:.\wiznet5500.c **** #define LOW				0
  17:.\wiznet5500.c **** 
  18:.\wiznet5500.c **** // Application-Scope Defines
  19:.\wiznet5500.c **** 
  20:.\wiznet5500.c **** #define WIZ_MAX_MESSAGE_SEGMENT		100
  21:.\wiznet5500.c **** 
  22:.\wiznet5500.c **** // Global Variables
  23:.\wiznet5500.c **** static uint16_t wiznetTxPointer;
  24:.\wiznet5500.c **** 
  25:.\wiznet5500.c **** void wiznetInit(uint8_t ownIpAddr, uint8_t dstIpAddr, uint16_t dstUdpPort){
 123              		.loc 2 25 0
 124              		.cfi_startproc
 125 0000 80B5     		push	{r7, lr}
 126              	.LCFI3:
 127              		.cfi_def_cfa_offset 8
 128              		.cfi_offset 7, -8
 129              		.cfi_offset 14, -4
ARM GAS  C:\Users\Steve\AppData\Local\Temp\ccloT0QO.s 			page 4


 130 0002 90B0     		sub	sp, sp, #64
 131              	.LCFI4:
 132              		.cfi_def_cfa_offset 72
 133 0004 00AF     		add	r7, sp, #0
 134              	.LCFI5:
 135              		.cfi_def_cfa_register 7
 136 0006 FB1D     		add	r3, r7, #7
 137 0008 1870     		strb	r0, [r3]
 138 000a BB1D     		add	r3, r7, #6
 139 000c 1970     		strb	r1, [r3]
 140 000e 3B1D     		add	r3, r7, #4
 141 0010 1A80     		strh	r2, [r3]
  26:.\wiznet5500.c **** 	// This is terrible, need a better way.
  27:.\wiznet5500.c **** 	uint8_t cmdArray[] = {0x00,192u,168u,1u,1u,255u,255u,255u,0u,0x00,0x08,0xDC,0xFF,0xFF,0xFF,192u,16
 142              		.loc 2 27 0
 143 0012 3A1C     		mov	r2, r7
 144 0014 2832     		add	r2, r2, #40
 145 0016 574B     		ldr	r3, .L7
 146 0018 111C     		mov	r1, r2
 147 001a 1A1C     		mov	r2, r3
 148 001c 1323     		mov	r3, #19
 149 001e 081C     		mov	r0, r1
 150 0020 111C     		mov	r1, r2
 151 0022 1A1C     		mov	r2, r3
 152 0024 FFF7FEFF 		bl	memcpy
  28:.\wiznet5500.c **** 	//                    --- | Gateway Addr  | Subnet Mask     | WizNet's MAC Address        | WizNet
  29:.\wiznet5500.c **** 
  30:.\wiznet5500.c **** 	uint8_t udpConfig[] = {0x02,0x00,0xFF,0x00,0xFE,0x01,0x00,0x00,0x00,0x00,0x00,0x00,192u,168u,1u,1u
 153              		.loc 2 30 0
 154 0028 3A1C     		mov	r2, r7
 155 002a 1432     		add	r2, r2, #20
 156 002c 524B     		ldr	r3, .L7+4
 157 002e 111C     		mov	r1, r2
 158 0030 1A1C     		mov	r2, r3
 159 0032 1223     		mov	r3, #18
 160 0034 081C     		mov	r0, r1
 161 0036 111C     		mov	r1, r2
 162 0038 1A1C     		mov	r2, r3
 163 003a FFF7FEFF 		bl	memcpy
  31:.\wiznet5500.c **** 	//                     UDP |IDLE|Clr |----| :65025  |  No Dst Hw Address          | 192.168.1.1   
  32:.\wiznet5500.c **** 	
  33:.\wiznet5500.c **** 	
  34:.\wiznet5500.c **** 	// Destination IP Address Ending
  35:.\wiznet5500.c **** 	// cmdArray[4] = dstIpAddr; // Gateway should always be 192.168.1.1
  36:.\wiznet5500.c **** 	udpConfig[15] = dstIpAddr;
 164              		.loc 2 36 0
 165 003e 3B1C     		mov	r3, r7
 166 0040 1433     		add	r3, r3, #20
 167 0042 BA1D     		add	r2, r7, #6
 168 0044 1278     		ldrb	r2, [r2]
 169 0046 DA73     		strb	r2, [r3, #15]
  37:.\wiznet5500.c **** 	udpConfig[16] = dstUdpPort>>8;
 170              		.loc 2 37 0
 171 0048 3B1D     		add	r3, r7, #4
 172 004a 1B88     		ldrh	r3, [r3]
 173 004c 1B0A     		lsr	r3, r3, #8
 174 004e 9BB2     		uxth	r3, r3
ARM GAS  C:\Users\Steve\AppData\Local\Temp\ccloT0QO.s 			page 5


 175 0050 DAB2     		uxtb	r2, r3
 176 0052 3B1C     		mov	r3, r7
 177 0054 1433     		add	r3, r3, #20
 178 0056 1A74     		strb	r2, [r3, #16]
  38:.\wiznet5500.c **** 	udpConfig[17] = dstUdpPort&0xFF;
 179              		.loc 2 38 0
 180 0058 3B1D     		add	r3, r7, #4
 181 005a 1B88     		ldrh	r3, [r3]
 182 005c DAB2     		uxtb	r2, r3
 183 005e 3B1C     		mov	r3, r7
 184 0060 1433     		add	r3, r3, #20
 185 0062 5A74     		strb	r2, [r3, #17]
  39:.\wiznet5500.c **** 	
  40:.\wiznet5500.c **** 	// Learn Current MAC
  41:.\wiznet5500.c **** 	uint8_t wiznetOldMacAddr[6];
  42:.\wiznet5500.c **** 	wiznetReadArray(WIZNET_SHAR, WIZNET_BLK_COMMON, wiznetOldMacAddr, 6); // sizeof(wiznetOldMacAddr)
 186              		.loc 2 42 0
 187 0064 3B1C     		mov	r3, r7
 188 0066 0C33     		add	r3, r3, #12
 189 0068 0920     		mov	r0, #9
 190 006a 0021     		mov	r1, #0
 191 006c 1A1C     		mov	r2, r3
 192 006e 0623     		mov	r3, #6
 193 0070 FFF7FEFF 		bl	wiznetReadArray
  43:.\wiznet5500.c **** 	
  44:.\wiznet5500.c **** 	// WizNet Module IP Address Ending
  45:.\wiznet5500.c **** 	cmdArray[18] = ownIpAddr;
 194              		.loc 2 45 0
 195 0074 3B1C     		mov	r3, r7
 196 0076 2833     		add	r3, r3, #40
 197 0078 FA1D     		add	r2, r7, #7
 198 007a 1278     		ldrb	r2, [r2]
 199 007c 9A74     		strb	r2, [r3, #18]
  46:.\wiznet5500.c **** 	
  47:.\wiznet5500.c **** 	// Ephemeral Port (WizNet's own UDP Port when sending UDP, usually value above 0xC000)
  48:.\wiznet5500.c **** 	uint16_t ephemUdpPort = (0xC000 + ((wiznetOldMacAddr[5]*(1+ownIpAddr))&0x3FFF) ); //Nice way to ge
 200              		.loc 2 48 0
 201 007e 3B1C     		mov	r3, r7
 202 0080 0C33     		add	r3, r3, #12
 203 0082 5B79     		ldrb	r3, [r3, #5]
 204 0084 FA1D     		add	r2, r7, #7
 205 0086 1278     		ldrb	r2, [r2]
 206 0088 0132     		add	r2, r2, #1
 207 008a 92B2     		uxth	r2, r2
 208 008c 5343     		mul	r3, r2
 209 008e 9BB2     		uxth	r3, r3
 210 0090 9B04     		lsl	r3, r3, #18
 211 0092 9B0C     		lsr	r3, r3, #18
 212 0094 9AB2     		uxth	r2, r3
 213 0096 3B1C     		mov	r3, r7
 214 0098 3C33     		add	r3, r3, #60
 215 009a 3849     		ldr	r1, .L7+8
 216 009c 5218     		add	r2, r2, r1
 217 009e 1A80     		strh	r2, [r3]
  49:.\wiznet5500.c **** 	udpConfig[4] = ephemUdpPort>>8;
 218              		.loc 2 49 0
 219 00a0 3B1C     		mov	r3, r7
ARM GAS  C:\Users\Steve\AppData\Local\Temp\ccloT0QO.s 			page 6


 220 00a2 3C33     		add	r3, r3, #60
 221 00a4 1B88     		ldrh	r3, [r3]
 222 00a6 1B0A     		lsr	r3, r3, #8
 223 00a8 9BB2     		uxth	r3, r3
 224 00aa DAB2     		uxtb	r2, r3
 225 00ac 3B1C     		mov	r3, r7
 226 00ae 1433     		add	r3, r3, #20
 227 00b0 1A71     		strb	r2, [r3, #4]
  50:.\wiznet5500.c **** 	udpConfig[5] = ephemUdpPort&0xFF;
 228              		.loc 2 50 0
 229 00b2 3B1C     		mov	r3, r7
 230 00b4 3C33     		add	r3, r3, #60
 231 00b6 1B88     		ldrh	r3, [r3]
 232 00b8 DAB2     		uxtb	r2, r3
 233 00ba 3B1C     		mov	r3, r7
 234 00bc 1433     		add	r3, r3, #20
 235 00be 5A71     		strb	r2, [r3, #5]
  51:.\wiznet5500.c **** 	
  52:.\wiznet5500.c **** 	
  53:.\wiznet5500.c **** 	// Write all the thus prepared values to the WizNet Module and Open the Socket
  54:.\wiznet5500.c **** 	wiznetWriteArray(WIZNET_MR,WIZNET_BLK_COMMON,cmdArray,sizeof(cmdArray));
 236              		.loc 2 54 0
 237 00c0 3B1C     		mov	r3, r7
 238 00c2 2833     		add	r3, r3, #40
 239 00c4 0020     		mov	r0, #0
 240 00c6 0021     		mov	r1, #0
 241 00c8 1A1C     		mov	r2, r3
 242 00ca 1323     		mov	r3, #19
 243 00cc FFF7FEFF 		bl	wiznetWriteArray
  55:.\wiznet5500.c **** 	wiznetWriteArray(WIZNET_Sn_MR,WIZNET_BLK_S0_REG,udpConfig,sizeof(udpConfig));
 244              		.loc 2 55 0
 245 00d0 3B1C     		mov	r3, r7
 246 00d2 1433     		add	r3, r3, #20
 247 00d4 0020     		mov	r0, #0
 248 00d6 0121     		mov	r1, #1
 249 00d8 1A1C     		mov	r2, r3
 250 00da 1223     		mov	r3, #18
 251 00dc FFF7FEFF 		bl	wiznetWriteArray
  56:.\wiznet5500.c **** 	wiznetWriteArray(WIZNET_SHAR,WIZNET_BLK_COMMON,wiznetOldMacAddr,6);
 252              		.loc 2 56 0
 253 00e0 3B1C     		mov	r3, r7
 254 00e2 0C33     		add	r3, r3, #12
 255 00e4 0920     		mov	r0, #9
 256 00e6 0021     		mov	r1, #0
 257 00e8 1A1C     		mov	r2, r3
 258 00ea 0623     		mov	r3, #6
 259 00ec FFF7FEFF 		bl	wiznetWriteArray
  57:.\wiznet5500.c **** 	wiznetWrite16b(WIZNET_Sn_MSSR,WIZNET_BLK_S0_REG,WIZ_MAX_MESSAGE_SEGMENT);
 260              		.loc 2 57 0
 261 00f0 1220     		mov	r0, #18
 262 00f2 0121     		mov	r1, #1
 263 00f4 6422     		mov	r2, #100
 264 00f6 FFF7FEFF 		bl	wiznetWrite16b
  58:.\wiznet5500.c **** 	CyDelay(100);
 265              		.loc 2 58 0
 266 00fa 6420     		mov	r0, #100
 267 00fc FFF7FEFF 		bl	CyDelay
ARM GAS  C:\Users\Steve\AppData\Local\Temp\ccloT0QO.s 			page 7


  59:.\wiznet5500.c **** 	wiznetOpen();
 268              		.loc 2 59 0
 269 0100 FFF7FEFF 		bl	wiznetOpen
  60:.\wiznet5500.c **** 	
  61:.\wiznet5500.c **** 	// Configure Wiznet Interrupts
  62:.\wiznet5500.c **** 	wiznetConfigInterrupts(0x00,WIZNET_Sn_IMR_SEND_OK);
 270              		.loc 2 62 0
 271 0104 0020     		mov	r0, #0
 272 0106 1021     		mov	r1, #16
 273 0108 FFF7FEFF 		bl	wiznetConfigInterrupts
  63:.\wiznet5500.c **** 
  64:.\wiznet5500.c **** 	// Write sequential values to the TX Buffer, to know where on earth it is writing from.
  65:.\wiznet5500.c **** 	WIZ_SS_Write(LOW); // Begin a WizNet SPI Frame. Three Phases: Address, Control, Data
 274              		.loc 2 65 0
 275 010c 0020     		mov	r0, #0
 276 010e FFF7FEFF 		bl	WIZ_SS_Write
  66:.\wiznet5500.c **** 		// Address Phase
  67:.\wiznet5500.c **** 		transferSPI(0>>8);
 277              		.loc 2 67 0
 278 0112 0020     		mov	r0, #0
 279 0114 FFF7FEFF 		bl	transferSPI
  68:.\wiznet5500.c **** 		transferSPI(0&0xFF);
 280              		.loc 2 68 0
 281 0118 0020     		mov	r0, #0
 282 011a FFF7FEFF 		bl	transferSPI
  69:.\wiznet5500.c **** 		
  70:.\wiznet5500.c **** 		// Control Phase
  71:.\wiznet5500.c **** 		transferSPI(((WIZNET_BLK_S0_TX&0x1F)<<3)|(0x01<<2)|0x00);		
 283              		.loc 2 71 0
 284 011e 1420     		mov	r0, #20
 285 0120 FFF7FEFF 		bl	transferSPI
 286              	.LBB2:
  72:.\wiznet5500.c **** 		
  73:.\wiznet5500.c **** 		// Data Phase
  74:.\wiznet5500.c **** 		for(uint16_t k=0; k<1024; k++){
 287              		.loc 2 74 0
 288 0124 3B1C     		mov	r3, r7
 289 0126 3E33     		add	r3, r3, #62
 290 0128 0022     		mov	r2, #0
 291 012a 1A80     		strh	r2, [r3]
 292 012c 16E0     		b	.L5
 293              	.L6:
  75:.\wiznet5500.c **** 			transferSPI((uint8_t)(k>>8));
 294              		.loc 2 75 0 discriminator 2
 295 012e 3B1C     		mov	r3, r7
 296 0130 3E33     		add	r3, r3, #62
 297 0132 1B88     		ldrh	r3, [r3]
 298 0134 1B0A     		lsr	r3, r3, #8
 299 0136 9BB2     		uxth	r3, r3
 300 0138 DBB2     		uxtb	r3, r3
 301 013a 181C     		mov	r0, r3
 302 013c FFF7FEFF 		bl	transferSPI
  76:.\wiznet5500.c **** 			transferSPI((uint8_t)(k&0xFF));
 303              		.loc 2 76 0 discriminator 2
 304 0140 3B1C     		mov	r3, r7
 305 0142 3E33     		add	r3, r3, #62
 306 0144 1B88     		ldrh	r3, [r3]
ARM GAS  C:\Users\Steve\AppData\Local\Temp\ccloT0QO.s 			page 8


 307 0146 DBB2     		uxtb	r3, r3
 308 0148 181C     		mov	r0, r3
 309 014a FFF7FEFF 		bl	transferSPI
  74:.\wiznet5500.c **** 		for(uint16_t k=0; k<1024; k++){
 310              		.loc 2 74 0 discriminator 2
 311 014e 3B1C     		mov	r3, r7
 312 0150 3E33     		add	r3, r3, #62
 313 0152 3A1C     		mov	r2, r7
 314 0154 3E32     		add	r2, r2, #62
 315 0156 1288     		ldrh	r2, [r2]
 316 0158 0132     		add	r2, r2, #1
 317 015a 1A80     		strh	r2, [r3]
 318              	.L5:
  74:.\wiznet5500.c **** 		for(uint16_t k=0; k<1024; k++){
 319              		.loc 2 74 0 is_stmt 0 discriminator 1
 320 015c 3B1C     		mov	r3, r7
 321 015e 3E33     		add	r3, r3, #62
 322 0160 1A88     		ldrh	r2, [r3]
 323 0162 074B     		ldr	r3, .L7+12
 324 0164 9A42     		cmp	r2, r3
 325 0166 E2D9     		bls	.L6
 326              	.LBE2:
  77:.\wiznet5500.c **** 		}
  78:.\wiznet5500.c **** 	WIZ_SS_Write(HIGH); // WizNet SPI Frame Finished
 327              		.loc 2 78 0 is_stmt 1
 328 0168 0120     		mov	r0, #1
 329 016a FFF7FEFF 		bl	WIZ_SS_Write
  79:.\wiznet5500.c **** 
  80:.\wiznet5500.c **** 
  81:.\wiznet5500.c **** }
 330              		.loc 2 81 0
 331 016e BD46     		mov	sp, r7
 332 0170 10B0     		add	sp, sp, #64
 333              		@ sp needed for prologue
 334 0172 80BD     		pop	{r7, pc}
 335              	.L8:
 336              		.align	2
 337              	.L7:
 338 0174 00000000 		.word	.LC0
 339 0178 14000000 		.word	.LC1
 340 017c 00C0FFFF 		.word	-16384
 341 0180 FF030000 		.word	1023
 342              		.cfi_endproc
 343              	.LFE34:
 344              		.size	wiznetInit, .-wiznetInit
 345              		.section	.text.wiznetOpen,"ax",%progbits
 346              		.align	2
 347              		.global	wiznetOpen
 348              		.code	16
 349              		.thumb_func
 350              		.type	wiznetOpen, %function
 351              	wiznetOpen:
 352              	.LFB35:
  82:.\wiznet5500.c **** 
  83:.\wiznet5500.c **** // Public Functions
  84:.\wiznet5500.c **** void wiznetOpen(void){
 353              		.loc 2 84 0
ARM GAS  C:\Users\Steve\AppData\Local\Temp\ccloT0QO.s 			page 9


 354              		.cfi_startproc
 355 0000 80B5     		push	{r7, lr}
 356              	.LCFI6:
 357              		.cfi_def_cfa_offset 8
 358              		.cfi_offset 7, -8
 359              		.cfi_offset 14, -4
 360 0002 00AF     		add	r7, sp, #0
 361              	.LCFI7:
 362              		.cfi_def_cfa_register 7
  85:.\wiznet5500.c **** 	wiznetWrite8b(WIZNET_Sn_CR,WIZNET_BLK_S0_REG,0x01); // OPEN UDP on Socket 0
 363              		.loc 2 85 0
 364 0004 0120     		mov	r0, #1
 365 0006 0121     		mov	r1, #1
 366 0008 0122     		mov	r2, #1
 367 000a FFF7FEFF 		bl	wiznetWrite8b
  86:.\wiznet5500.c **** }
 368              		.loc 2 86 0
 369 000e BD46     		mov	sp, r7
 370              		@ sp needed for prologue
 371 0010 80BD     		pop	{r7, pc}
 372              		.cfi_endproc
 373              	.LFE35:
 374              		.size	wiznetOpen, .-wiznetOpen
 375 0012 C046     		.section	.text.wiznetClose,"ax",%progbits
 376              		.align	2
 377              		.global	wiznetClose
 378              		.code	16
 379              		.thumb_func
 380              		.type	wiznetClose, %function
 381              	wiznetClose:
 382              	.LFB36:
  87:.\wiznet5500.c **** 
  88:.\wiznet5500.c **** void wiznetClose(void){
 383              		.loc 2 88 0
 384              		.cfi_startproc
 385 0000 80B5     		push	{r7, lr}
 386              	.LCFI8:
 387              		.cfi_def_cfa_offset 8
 388              		.cfi_offset 7, -8
 389              		.cfi_offset 14, -4
 390 0002 00AF     		add	r7, sp, #0
 391              	.LCFI9:
 392              		.cfi_def_cfa_register 7
  89:.\wiznet5500.c **** 	wiznetWrite8b(WIZNET_Sn_CR,WIZNET_BLK_S0_REG,0x10); // Close UDP on Socket 0
 393              		.loc 2 89 0
 394 0004 0120     		mov	r0, #1
 395 0006 0121     		mov	r1, #1
 396 0008 1022     		mov	r2, #16
 397 000a FFF7FEFF 		bl	wiznetWrite8b
  90:.\wiznet5500.c **** }
 398              		.loc 2 90 0
 399 000e BD46     		mov	sp, r7
 400              		@ sp needed for prologue
 401 0010 80BD     		pop	{r7, pc}
 402              		.cfi_endproc
 403              	.LFE36:
 404              		.size	wiznetClose, .-wiznetClose
ARM GAS  C:\Users\Steve\AppData\Local\Temp\ccloT0QO.s 			page 10


 405 0012 C046     		.section	.text.wiznetSend,"ax",%progbits
 406              		.align	2
 407              		.global	wiznetSend
 408              		.code	16
 409              		.thumb_func
 410              		.type	wiznetSend, %function
 411              	wiznetSend:
 412              	.LFB37:
  91:.\wiznet5500.c **** 
  92:.\wiznet5500.c **** void wiznetSend(void){
 413              		.loc 2 92 0
 414              		.cfi_startproc
 415 0000 80B5     		push	{r7, lr}
 416              	.LCFI10:
 417              		.cfi_def_cfa_offset 8
 418              		.cfi_offset 7, -8
 419              		.cfi_offset 14, -4
 420 0002 00AF     		add	r7, sp, #0
 421              	.LCFI11:
 422              		.cfi_def_cfa_register 7
  93:.\wiznet5500.c **** 	wiznetWrite16b(WIZNET_Sn_TX_WR,WIZNET_BLK_S0_REG,wiznetTxPointer);
 423              		.loc 2 93 0
 424 0004 0A4B     		ldr	r3, .L12
 425 0006 1B88     		ldrh	r3, [r3]
 426 0008 2420     		mov	r0, #36
 427 000a 0121     		mov	r1, #1
 428 000c 1A1C     		mov	r2, r3
 429 000e FFF7FEFF 		bl	wiznetWrite16b
  94:.\wiznet5500.c **** 	wiznetWrite8b(WIZNET_Sn_CR,WIZNET_BLK_S0_REG,0x20);
 430              		.loc 2 94 0
 431 0012 0120     		mov	r0, #1
 432 0014 0121     		mov	r1, #1
 433 0016 2022     		mov	r2, #32
 434 0018 FFF7FEFF 		bl	wiznetWrite8b
  95:.\wiznet5500.c **** 	wiznetTxPointer = wiznetRead16b(WIZNET_Sn_TX_WR,WIZNET_BLK_S0_REG);
 435              		.loc 2 95 0
 436 001c 2420     		mov	r0, #36
 437 001e 0121     		mov	r1, #1
 438 0020 FFF7FEFF 		bl	wiznetRead16b
 439 0024 031C     		mov	r3, r0
 440 0026 1A1C     		mov	r2, r3
 441 0028 014B     		ldr	r3, .L12
 442 002a 1A80     		strh	r2, [r3]
  96:.\wiznet5500.c **** }
 443              		.loc 2 96 0
 444 002c BD46     		mov	sp, r7
 445              		@ sp needed for prologue
 446 002e 80BD     		pop	{r7, pc}
 447              	.L13:
 448              		.align	2
 449              	.L12:
 450 0030 00000000 		.word	wiznetTxPointer
 451              		.cfi_endproc
 452              	.LFE37:
 453              		.size	wiznetSend, .-wiznetSend
 454              		.section	.text.wiznetClearInterrupts,"ax",%progbits
 455              		.align	2
ARM GAS  C:\Users\Steve\AppData\Local\Temp\ccloT0QO.s 			page 11


 456              		.global	wiznetClearInterrupts
 457              		.code	16
 458              		.thumb_func
 459              		.type	wiznetClearInterrupts, %function
 460              	wiznetClearInterrupts:
 461              	.LFB38:
  97:.\wiznet5500.c **** 
  98:.\wiznet5500.c **** // void wiznetReceive(void){
  99:.\wiznet5500.c **** 	
 100:.\wiznet5500.c **** // }
 101:.\wiznet5500.c **** 
 102:.\wiznet5500.c **** // uint8_t wiznetReadInterrupts(void){
 103:.\wiznet5500.c **** // }
 104:.\wiznet5500.c **** 
 105:.\wiznet5500.c **** void wiznetClearInterrupts(void){
 462              		.loc 2 105 0
 463              		.cfi_startproc
 464 0000 80B5     		push	{r7, lr}
 465              	.LCFI12:
 466              		.cfi_def_cfa_offset 8
 467              		.cfi_offset 7, -8
 468              		.cfi_offset 14, -4
 469 0002 00AF     		add	r7, sp, #0
 470              	.LCFI13:
 471              		.cfi_def_cfa_register 7
 106:.\wiznet5500.c **** 	wiznetWrite8b(WIZNET_Sn_IR,WIZNET_BLK_S0_REG, 0xFF);
 472              		.loc 2 106 0
 473 0004 0220     		mov	r0, #2
 474 0006 0121     		mov	r1, #1
 475 0008 FF22     		mov	r2, #255
 476 000a FFF7FEFF 		bl	wiznetWrite8b
 107:.\wiznet5500.c **** 	wiznetWrite8b(WIZNET_SIR,WIZNET_BLK_COMMON, 0xFF);
 477              		.loc 2 107 0
 478 000e 1720     		mov	r0, #23
 479 0010 0021     		mov	r1, #0
 480 0012 FF22     		mov	r2, #255
 481 0014 FFF7FEFF 		bl	wiznetWrite8b
 108:.\wiznet5500.c **** 	wiznetWrite8b(WIZNET_IR,WIZNET_BLK_COMMON, 0xFF); // Counter-intuitive, but datasheet specifies wr
 482              		.loc 2 108 0
 483 0018 1520     		mov	r0, #21
 484 001a 0021     		mov	r1, #0
 485 001c FF22     		mov	r2, #255
 486 001e FFF7FEFF 		bl	wiznetWrite8b
 109:.\wiznet5500.c **** }
 487              		.loc 2 109 0
 488 0022 BD46     		mov	sp, r7
 489              		@ sp needed for prologue
 490 0024 80BD     		pop	{r7, pc}
 491              		.cfi_endproc
 492              	.LFE38:
 493              		.size	wiznetClearInterrupts, .-wiznetClearInterrupts
 494 0026 C046     		.section	.text.wiznetConfigInterrupts,"ax",%progbits
 495              		.align	2
 496              		.global	wiznetConfigInterrupts
 497              		.code	16
 498              		.thumb_func
 499              		.type	wiznetConfigInterrupts, %function
ARM GAS  C:\Users\Steve\AppData\Local\Temp\ccloT0QO.s 			page 12


 500              	wiznetConfigInterrupts:
 501              	.LFB39:
 110:.\wiznet5500.c **** 
 111:.\wiznet5500.c **** void wiznetConfigInterrupts(uint8_t commonInt, uint8_t socketInt){
 502              		.loc 2 111 0
 503              		.cfi_startproc
 504 0000 80B5     		push	{r7, lr}
 505              	.LCFI14:
 506              		.cfi_def_cfa_offset 8
 507              		.cfi_offset 7, -8
 508              		.cfi_offset 14, -4
 509 0002 82B0     		sub	sp, sp, #8
 510              	.LCFI15:
 511              		.cfi_def_cfa_offset 16
 512 0004 00AF     		add	r7, sp, #0
 513              	.LCFI16:
 514              		.cfi_def_cfa_register 7
 515 0006 0A1C     		mov	r2, r1
 516 0008 FB1D     		add	r3, r7, #7
 517 000a 011C     		add	r1, r0, #0
 518 000c 1970     		strb	r1, [r3]
 519 000e BB1D     		add	r3, r7, #6
 520 0010 1A70     		strb	r2, [r3]
 112:.\wiznet5500.c **** 	wiznetWrite8b(WIZNET_Sn_IMR,WIZNET_BLK_S0_REG, socketInt);
 521              		.loc 2 112 0
 522 0012 BB1D     		add	r3, r7, #6
 523 0014 1B78     		ldrb	r3, [r3]
 524 0016 2C20     		mov	r0, #44
 525 0018 0121     		mov	r1, #1
 526 001a 1A1C     		mov	r2, r3
 527 001c FFF7FEFF 		bl	wiznetWrite8b
 113:.\wiznet5500.c **** 	wiznetWrite8b(WIZNET_SIMR,WIZNET_BLK_COMMON, 0x01); // Hardwired to just Socket 0
 528              		.loc 2 113 0
 529 0020 1820     		mov	r0, #24
 530 0022 0021     		mov	r1, #0
 531 0024 0122     		mov	r2, #1
 532 0026 FFF7FEFF 		bl	wiznetWrite8b
 114:.\wiznet5500.c **** 	wiznetWrite8b(WIZNET_IMR,WIZNET_BLK_COMMON, commonInt);
 533              		.loc 2 114 0
 534 002a FB1D     		add	r3, r7, #7
 535 002c 1B78     		ldrb	r3, [r3]
 536 002e 1620     		mov	r0, #22
 537 0030 0021     		mov	r1, #0
 538 0032 1A1C     		mov	r2, r3
 539 0034 FFF7FEFF 		bl	wiznetWrite8b
 115:.\wiznet5500.c **** }
 540              		.loc 2 115 0
 541 0038 BD46     		mov	sp, r7
 542 003a 02B0     		add	sp, sp, #8
 543              		@ sp needed for prologue
 544 003c 80BD     		pop	{r7, pc}
 545              		.cfi_endproc
 546              	.LFE39:
 547              		.size	wiznetConfigInterrupts, .-wiznetConfigInterrupts
 548 003e C046     		.section	.text.wiznetWriteUdpFrame,"ax",%progbits
 549              		.align	2
 550              		.global	wiznetWriteUdpFrame
ARM GAS  C:\Users\Steve\AppData\Local\Temp\ccloT0QO.s 			page 13


 551              		.code	16
 552              		.thumb_func
 553              		.type	wiznetWriteUdpFrame, %function
 554              	wiznetWriteUdpFrame:
 555              	.LFB40:
 116:.\wiznet5500.c **** 
 117:.\wiznet5500.c **** uint16_t wiznetWriteUdpFrame(uint8_t *array, uint8_t len){
 556              		.loc 2 117 0
 557              		.cfi_startproc
 558 0000 80B5     		push	{r7, lr}
 559              	.LCFI17:
 560              		.cfi_def_cfa_offset 8
 561              		.cfi_offset 7, -8
 562              		.cfi_offset 14, -4
 563 0002 82B0     		sub	sp, sp, #8
 564              	.LCFI18:
 565              		.cfi_def_cfa_offset 16
 566 0004 00AF     		add	r7, sp, #0
 567              	.LCFI19:
 568              		.cfi_def_cfa_register 7
 569 0006 7860     		str	r0, [r7, #4]
 570 0008 0A1C     		mov	r2, r1
 571 000a FB1C     		add	r3, r7, #3
 572 000c 1A70     		strb	r2, [r3]
 118:.\wiznet5500.c **** 	
 119:.\wiznet5500.c **** 	// wiznetTxPointer = wiznetRead16b(WIZNET_Sn_TX_WR,WIZNET_BLK_S0_REG);
 120:.\wiznet5500.c **** 	// wiznetWriteArray(wiznetTxPointer,WIZNET_BLK_S0_TX,array,len);
 121:.\wiznet5500.c **** 	// wiznetTxPointer += len;																	
 122:.\wiznet5500.c **** 	// wiznetWrite16b(WIZNET_Sn_TX_WR,WIZNET_BLK_S0_REG,wiznetTxPointer);
 123:.\wiznet5500.c **** 	
 124:.\wiznet5500.c **** 	// Re-ordered the above and put the pointer manip in the Send method due to fluke.
 125:.\wiznet5500.c **** 	wiznetWriteArray(wiznetTxPointer,WIZNET_BLK_S0_TX,array,len);
 573              		.loc 2 125 0
 574 000e 0C4B     		ldr	r3, .L18
 575 0010 1988     		ldrh	r1, [r3]
 576 0012 7A68     		ldr	r2, [r7, #4]
 577 0014 FB1C     		add	r3, r7, #3
 578 0016 1B78     		ldrb	r3, [r3]
 579 0018 081C     		mov	r0, r1
 580 001a 0221     		mov	r1, #2
 581 001c FFF7FEFF 		bl	wiznetWriteArray
 126:.\wiznet5500.c **** 	wiznetTxPointer += len;
 582              		.loc 2 126 0
 583 0020 FB1C     		add	r3, r7, #3
 584 0022 1B78     		ldrb	r3, [r3]
 585 0024 9AB2     		uxth	r2, r3
 586 0026 064B     		ldr	r3, .L18
 587 0028 1B88     		ldrh	r3, [r3]
 588 002a D318     		add	r3, r2, r3
 589 002c 9AB2     		uxth	r2, r3
 590 002e 044B     		ldr	r3, .L18
 591 0030 1A80     		strh	r2, [r3]
 127:.\wiznet5500.c **** 	
 128:.\wiznet5500.c **** 	// CyDelay(10); // These two lines proved that the fluke with the WizNet is not time-variant
 129:.\wiznet5500.c **** 	// wiznetRead16b(WIZNET_Sn_TX_WR,WIZNET_BLK_S0_REG);
 130:.\wiznet5500.c **** 	return wiznetTxPointer;
 592              		.loc 2 130 0
ARM GAS  C:\Users\Steve\AppData\Local\Temp\ccloT0QO.s 			page 14


 593 0032 034B     		ldr	r3, .L18
 594 0034 1B88     		ldrh	r3, [r3]
 131:.\wiznet5500.c **** }
 595              		.loc 2 131 0
 596 0036 181C     		mov	r0, r3
 597 0038 BD46     		mov	sp, r7
 598 003a 02B0     		add	sp, sp, #8
 599              		@ sp needed for prologue
 600 003c 80BD     		pop	{r7, pc}
 601              	.L19:
 602 003e C046     		.align	2
 603              	.L18:
 604 0040 00000000 		.word	wiznetTxPointer
 605              		.cfi_endproc
 606              	.LFE40:
 607              		.size	wiznetWriteUdpFrame, .-wiznetWriteUdpFrame
 608              		.section	.rodata
 609 0026 0000     		.align	2
 610              	.LC6:
 611 0028 0A0900   		.ascii	"\012\011\000"
 612 002b 00       		.align	2
 613              	.LC8:
 614 002c 25580900 		.ascii	"%X\011\000"
 615              		.align	2
 616              	.LC10:
 617 0030 0A00     		.ascii	"\012\000"
 618 0032 0000     		.section	.text.wiznetPrintRegisters,"ax",%progbits
 619              		.align	2
 620              		.global	wiznetPrintRegisters
 621              		.code	16
 622              		.thumb_func
 623              		.type	wiznetPrintRegisters, %function
 624              	wiznetPrintRegisters:
 625              	.LFB41:
 132:.\wiznet5500.c **** 
 133:.\wiznet5500.c **** void wiznetPrintRegisters(uint8_t blkSelect){
 626              		.loc 2 133 0
 627              		.cfi_startproc
 628 0000 80B5     		push	{r7, lr}
 629              	.LCFI20:
 630              		.cfi_def_cfa_offset 8
 631              		.cfi_offset 7, -8
 632              		.cfi_offset 14, -4
 633 0002 C4B0     		sub	sp, sp, #272
 634              	.LCFI21:
 635              		.cfi_def_cfa_offset 280
 636 0004 00AF     		add	r7, sp, #0
 637              	.LCFI22:
 638              		.cfi_def_cfa_register 7
 639 0006 021C     		mov	r2, r0
 640 0008 414B     		ldr	r3, .L27
 641 000a 8821     		mov	r1, #136
 642 000c 4900     		lsl	r1, r1, #1
 643 000e C919     		add	r1, r1, r7
 644 0010 CB18     		add	r3, r1, r3
 645 0012 1A70     		strb	r2, [r3]
 134:.\wiznet5500.c **** 	uint8_t readArray[256];
ARM GAS  C:\Users\Steve\AppData\Local\Temp\ccloT0QO.s 			page 15


 135:.\wiznet5500.c **** 	wiznetReadArray(0, blkSelect, readArray, 255);
 646              		.loc 2 135 0
 647 0014 3E4B     		ldr	r3, .L27
 648 0016 8822     		mov	r2, #136
 649 0018 5200     		lsl	r2, r2, #1
 650 001a D219     		add	r2, r2, r7
 651 001c D318     		add	r3, r2, r3
 652 001e 1A78     		ldrb	r2, [r3]
 653 0020 3B1C     		mov	r3, r7
 654 0022 0C33     		add	r3, r3, #12
 655 0024 0020     		mov	r0, #0
 656 0026 111C     		mov	r1, r2
 657 0028 1A1C     		mov	r2, r3
 658 002a FF23     		mov	r3, #255
 659 002c FFF7FEFF 		bl	wiznetReadArray
 136:.\wiznet5500.c **** 	
 137:.\wiznet5500.c **** 	printf("\n\t");
 660              		.loc 2 137 0
 661 0030 384B     		ldr	r3, .L27+4
 662 0032 181C     		mov	r0, r3
 663 0034 FFF7FEFF 		bl	tfp_printf
 664              	.LBB3:
 138:.\wiznet5500.c **** 	for(uint8_t c=0; c<16; c++)	printf("%X\t",c);
 665              		.loc 2 138 0
 666 0038 3749     		ldr	r1, .L27+8
 667 003a 7B18     		add	r3, r7, r1
 668 003c 0022     		mov	r2, #0
 669 003e 1A70     		strb	r2, [r3]
 670 0040 0EE0     		b	.L21
 671              	.L22:
 672              		.loc 2 138 0 is_stmt 0 discriminator 2
 673 0042 354A     		ldr	r2, .L27+8
 674 0044 BB18     		add	r3, r7, r2
 675 0046 1B78     		ldrb	r3, [r3]
 676 0048 344A     		ldr	r2, .L27+12
 677 004a 101C     		mov	r0, r2
 678 004c 191C     		mov	r1, r3
 679 004e FFF7FEFF 		bl	tfp_printf
 680 0052 3149     		ldr	r1, .L27+8
 681 0054 7B18     		add	r3, r7, r1
 682 0056 3049     		ldr	r1, .L27+8
 683 0058 7A18     		add	r2, r7, r1
 684 005a 1278     		ldrb	r2, [r2]
 685 005c 0132     		add	r2, r2, #1
 686 005e 1A70     		strb	r2, [r3]
 687              	.L21:
 688              		.loc 2 138 0 discriminator 1
 689 0060 2D4A     		ldr	r2, .L27+8
 690 0062 BB18     		add	r3, r7, r2
 691 0064 1B78     		ldrb	r3, [r3]
 692 0066 0F2B     		cmp	r3, #15
 693 0068 EBD9     		bls	.L22
 694              	.LBE3:
 139:.\wiznet5500.c **** 	printf("\n");
 695              		.loc 2 139 0 is_stmt 1
 696 006a 2D4B     		ldr	r3, .L27+16
 697 006c 181C     		mov	r0, r3
ARM GAS  C:\Users\Steve\AppData\Local\Temp\ccloT0QO.s 			page 16


 698 006e FFF7FEFF 		bl	tfp_printf
 699              	.LBB4:
 140:.\wiznet5500.c **** 	for(uint8_t j=0; j<8; j++){
 700              		.loc 2 140 0
 701 0072 8721     		mov	r1, #135
 702 0074 4900     		lsl	r1, r1, #1
 703 0076 7B18     		add	r3, r7, r1
 704 0078 0022     		mov	r2, #0
 705 007a 1A70     		strb	r2, [r3]
 706 007c 3AE0     		b	.L23
 707              	.L26:
 141:.\wiznet5500.c **** 		printf("%X\t",j);
 708              		.loc 2 141 0
 709 007e 8722     		mov	r2, #135
 710 0080 5200     		lsl	r2, r2, #1
 711 0082 BB18     		add	r3, r7, r2
 712 0084 1B78     		ldrb	r3, [r3]
 713 0086 254A     		ldr	r2, .L27+12
 714 0088 101C     		mov	r0, r2
 715 008a 191C     		mov	r1, r3
 716 008c FFF7FEFF 		bl	tfp_printf
 717              	.LBB5:
 142:.\wiznet5500.c **** 		for(uint8_t k=0; k<16; k++){
 718              		.loc 2 142 0
 719 0090 2449     		ldr	r1, .L27+20
 720 0092 7B18     		add	r3, r7, r1
 721 0094 0022     		mov	r2, #0
 722 0096 1A70     		strb	r2, [r3]
 723 0098 1AE0     		b	.L24
 724              	.L25:
 143:.\wiznet5500.c **** 			printf("%X\t",readArray[(16*j)+k]);
 725              		.loc 2 143 0 discriminator 2
 726 009a 8722     		mov	r2, #135
 727 009c 5200     		lsl	r2, r2, #1
 728 009e BB18     		add	r3, r7, r2
 729 00a0 1B78     		ldrb	r3, [r3]
 730 00a2 1A01     		lsl	r2, r3, #4
 731 00a4 1F49     		ldr	r1, .L27+20
 732 00a6 7B18     		add	r3, r7, r1
 733 00a8 1B78     		ldrb	r3, [r3]
 734 00aa D318     		add	r3, r2, r3
 735 00ac 1E4A     		ldr	r2, .L27+24
 736 00ae 8821     		mov	r1, #136
 737 00b0 4900     		lsl	r1, r1, #1
 738 00b2 C919     		add	r1, r1, r7
 739 00b4 8A18     		add	r2, r1, r2
 740 00b6 D35C     		ldrb	r3, [r2, r3]
 741 00b8 184A     		ldr	r2, .L27+12
 742 00ba 101C     		mov	r0, r2
 743 00bc 191C     		mov	r1, r3
 744 00be FFF7FEFF 		bl	tfp_printf
 142:.\wiznet5500.c **** 		for(uint8_t k=0; k<16; k++){
 745              		.loc 2 142 0 discriminator 2
 746 00c2 184A     		ldr	r2, .L27+20
 747 00c4 BB18     		add	r3, r7, r2
 748 00c6 1749     		ldr	r1, .L27+20
 749 00c8 7A18     		add	r2, r7, r1
ARM GAS  C:\Users\Steve\AppData\Local\Temp\ccloT0QO.s 			page 17


 750 00ca 1278     		ldrb	r2, [r2]
 751 00cc 0132     		add	r2, r2, #1
 752 00ce 1A70     		strb	r2, [r3]
 753              	.L24:
 142:.\wiznet5500.c **** 		for(uint8_t k=0; k<16; k++){
 754              		.loc 2 142 0 is_stmt 0 discriminator 1
 755 00d0 144A     		ldr	r2, .L27+20
 756 00d2 BB18     		add	r3, r7, r2
 757 00d4 1B78     		ldrb	r3, [r3]
 758 00d6 0F2B     		cmp	r3, #15
 759 00d8 DFD9     		bls	.L25
 760              	.LBE5:
 144:.\wiznet5500.c **** 		}
 145:.\wiznet5500.c **** 		printf("\n");
 761              		.loc 2 145 0 is_stmt 1
 762 00da 114B     		ldr	r3, .L27+16
 763 00dc 181C     		mov	r0, r3
 764 00de FFF7FEFF 		bl	tfp_printf
 140:.\wiznet5500.c **** 	for(uint8_t j=0; j<8; j++){
 765              		.loc 2 140 0
 766 00e2 8721     		mov	r1, #135
 767 00e4 4900     		lsl	r1, r1, #1
 768 00e6 7B18     		add	r3, r7, r1
 769 00e8 8721     		mov	r1, #135
 770 00ea 4900     		lsl	r1, r1, #1
 771 00ec 7A18     		add	r2, r7, r1
 772 00ee 1278     		ldrb	r2, [r2]
 773 00f0 0132     		add	r2, r2, #1
 774 00f2 1A70     		strb	r2, [r3]
 775              	.L23:
 140:.\wiznet5500.c **** 	for(uint8_t j=0; j<8; j++){
 776              		.loc 2 140 0 is_stmt 0 discriminator 1
 777 00f4 8722     		mov	r2, #135
 778 00f6 5200     		lsl	r2, r2, #1
 779 00f8 BB18     		add	r3, r7, r2
 780 00fa 1B78     		ldrb	r3, [r3]
 781 00fc 072B     		cmp	r3, #7
 782 00fe BED9     		bls	.L26
 783              	.LBE4:
 146:.\wiznet5500.c **** 	}
 147:.\wiznet5500.c **** 	printf("\n");
 784              		.loc 2 147 0 is_stmt 1
 785 0100 074B     		ldr	r3, .L27+16
 786 0102 181C     		mov	r0, r3
 787 0104 FFF7FEFF 		bl	tfp_printf
 148:.\wiznet5500.c **** }
 788              		.loc 2 148 0
 789 0108 BD46     		mov	sp, r7
 790 010a 44B0     		add	sp, sp, #272
 791              		@ sp needed for prologue
 792 010c 80BD     		pop	{r7, pc}
 793              	.L28:
 794 010e C046     		.align	2
 795              	.L27:
 796 0110 F7FEFFFF 		.word	-265
 797 0114 28000000 		.word	.LC6
 798 0118 0F010000 		.word	271
ARM GAS  C:\Users\Steve\AppData\Local\Temp\ccloT0QO.s 			page 18


 799 011c 2C000000 		.word	.LC8
 800 0120 30000000 		.word	.LC10
 801 0124 0D010000 		.word	269
 802 0128 FCFEFFFF 		.word	-260
 803              		.cfi_endproc
 804              	.LFE41:
 805              		.size	wiznetPrintRegisters, .-wiznetPrintRegisters
 806              		.section	.text.wiznetWrite8b,"ax",%progbits
 807              		.align	2
 808              		.global	wiznetWrite8b
 809              		.code	16
 810              		.thumb_func
 811              		.type	wiznetWrite8b, %function
 812              	wiznetWrite8b:
 813              	.LFB42:
 149:.\wiznet5500.c **** 
 150:.\wiznet5500.c **** // Private-like Functions, but visible until this is re-written in C++
 151:.\wiznet5500.c **** void wiznetWrite8b(uint16_t regAddr, uint8_t blkSel, uint8_t data){
 814              		.loc 2 151 0
 815              		.cfi_startproc
 816 0000 80B5     		push	{r7, lr}
 817              	.LCFI23:
 818              		.cfi_def_cfa_offset 8
 819              		.cfi_offset 7, -8
 820              		.cfi_offset 14, -4
 821 0002 82B0     		sub	sp, sp, #8
 822              	.LCFI24:
 823              		.cfi_def_cfa_offset 16
 824 0004 00AF     		add	r7, sp, #0
 825              	.LCFI25:
 826              		.cfi_def_cfa_register 7
 827 0006 BB1D     		add	r3, r7, #6
 828 0008 1880     		strh	r0, [r3]
 829 000a 7B1D     		add	r3, r7, #5
 830 000c 1970     		strb	r1, [r3]
 831 000e 3B1D     		add	r3, r7, #4
 832 0010 1A70     		strb	r2, [r3]
 152:.\wiznet5500.c **** 	WIZ_SS_Write(LOW); // Begin a WizNet SPI Frame. Three Phases: Address, Control, Data
 833              		.loc 2 152 0
 834 0012 0020     		mov	r0, #0
 835 0014 FFF7FEFF 		bl	WIZ_SS_Write
 153:.\wiznet5500.c **** 		// Address Phase
 154:.\wiznet5500.c **** 		transferSPI(regAddr>>8);
 836              		.loc 2 154 0
 837 0018 BB1D     		add	r3, r7, #6
 838 001a 1B88     		ldrh	r3, [r3]
 839 001c 1B0A     		lsr	r3, r3, #8
 840 001e 9BB2     		uxth	r3, r3
 841 0020 DBB2     		uxtb	r3, r3
 842 0022 181C     		mov	r0, r3
 843 0024 FFF7FEFF 		bl	transferSPI
 155:.\wiznet5500.c **** 		transferSPI(regAddr&0xFF);
 844              		.loc 2 155 0
 845 0028 BB1D     		add	r3, r7, #6
 846 002a 1B88     		ldrh	r3, [r3]
 847 002c DBB2     		uxtb	r3, r3
 848 002e 181C     		mov	r0, r3
ARM GAS  C:\Users\Steve\AppData\Local\Temp\ccloT0QO.s 			page 19


 849 0030 FFF7FEFF 		bl	transferSPI
 156:.\wiznet5500.c **** 		
 157:.\wiznet5500.c **** 		// Control Phase
 158:.\wiznet5500.c **** 		transferSPI(((blkSel&0x1F)<<3)|(0x01<<2)|0x00);		
 850              		.loc 2 158 0
 851 0034 7B1D     		add	r3, r7, #5
 852 0036 1B78     		ldrb	r3, [r3]
 853 0038 DB00     		lsl	r3, r3, #3
 854 003a DBB2     		uxtb	r3, r3
 855 003c 0422     		mov	r2, #4
 856 003e 1343     		orr	r3, r2
 857 0040 DBB2     		uxtb	r3, r3
 858 0042 DBB2     		uxtb	r3, r3
 859 0044 181C     		mov	r0, r3
 860 0046 FFF7FEFF 		bl	transferSPI
 159:.\wiznet5500.c **** 		
 160:.\wiznet5500.c **** 		// Data Phase
 161:.\wiznet5500.c **** 		transferSPI(data);
 861              		.loc 2 161 0
 862 004a 3B1D     		add	r3, r7, #4
 863 004c 1B78     		ldrb	r3, [r3]
 864 004e 181C     		mov	r0, r3
 865 0050 FFF7FEFF 		bl	transferSPI
 162:.\wiznet5500.c **** 	WIZ_SS_Write(HIGH); // WizNet SPI Frame Finished
 866              		.loc 2 162 0
 867 0054 0120     		mov	r0, #1
 868 0056 FFF7FEFF 		bl	WIZ_SS_Write
 163:.\wiznet5500.c **** 	// return response;
 164:.\wiznet5500.c **** }
 869              		.loc 2 164 0
 870 005a BD46     		mov	sp, r7
 871 005c 02B0     		add	sp, sp, #8
 872              		@ sp needed for prologue
 873 005e 80BD     		pop	{r7, pc}
 874              		.cfi_endproc
 875              	.LFE42:
 876              		.size	wiznetWrite8b, .-wiznetWrite8b
 877              		.section	.text.wiznetWrite16b,"ax",%progbits
 878              		.align	2
 879              		.global	wiznetWrite16b
 880              		.code	16
 881              		.thumb_func
 882              		.type	wiznetWrite16b, %function
 883              	wiznetWrite16b:
 884              	.LFB43:
 165:.\wiznet5500.c **** 
 166:.\wiznet5500.c **** void wiznetWrite16b(uint16_t regAddr, uint8_t blkSel, uint16_t data){
 885              		.loc 2 166 0
 886              		.cfi_startproc
 887 0000 80B5     		push	{r7, lr}
 888              	.LCFI26:
 889              		.cfi_def_cfa_offset 8
 890              		.cfi_offset 7, -8
 891              		.cfi_offset 14, -4
 892 0002 82B0     		sub	sp, sp, #8
 893              	.LCFI27:
 894              		.cfi_def_cfa_offset 16
ARM GAS  C:\Users\Steve\AppData\Local\Temp\ccloT0QO.s 			page 20


 895 0004 00AF     		add	r7, sp, #0
 896              	.LCFI28:
 897              		.cfi_def_cfa_register 7
 898 0006 BB1D     		add	r3, r7, #6
 899 0008 1880     		strh	r0, [r3]
 900 000a 7B1D     		add	r3, r7, #5
 901 000c 1970     		strb	r1, [r3]
 902 000e BB1C     		add	r3, r7, #2
 903 0010 1A80     		strh	r2, [r3]
 167:.\wiznet5500.c **** 	WIZ_SS_Write(LOW); // Begin a WizNet SPI Frame. Three Phases: Address, Control, Data
 904              		.loc 2 167 0
 905 0012 0020     		mov	r0, #0
 906 0014 FFF7FEFF 		bl	WIZ_SS_Write
 168:.\wiznet5500.c **** 		// Address Phase
 169:.\wiznet5500.c **** 		transferSPI(regAddr>>8);
 907              		.loc 2 169 0
 908 0018 BB1D     		add	r3, r7, #6
 909 001a 1B88     		ldrh	r3, [r3]
 910 001c 1B0A     		lsr	r3, r3, #8
 911 001e 9BB2     		uxth	r3, r3
 912 0020 DBB2     		uxtb	r3, r3
 913 0022 181C     		mov	r0, r3
 914 0024 FFF7FEFF 		bl	transferSPI
 170:.\wiznet5500.c **** 		transferSPI(regAddr&0xFF);
 915              		.loc 2 170 0
 916 0028 BB1D     		add	r3, r7, #6
 917 002a 1B88     		ldrh	r3, [r3]
 918 002c DBB2     		uxtb	r3, r3
 919 002e 181C     		mov	r0, r3
 920 0030 FFF7FEFF 		bl	transferSPI
 171:.\wiznet5500.c **** 		
 172:.\wiznet5500.c **** 		// Control Phase
 173:.\wiznet5500.c **** 		transferSPI(((blkSel&0x1F)<<3)|(0x01<<2)|0x00);		
 921              		.loc 2 173 0
 922 0034 7B1D     		add	r3, r7, #5
 923 0036 1B78     		ldrb	r3, [r3]
 924 0038 DB00     		lsl	r3, r3, #3
 925 003a DBB2     		uxtb	r3, r3
 926 003c 0422     		mov	r2, #4
 927 003e 1343     		orr	r3, r2
 928 0040 DBB2     		uxtb	r3, r3
 929 0042 DBB2     		uxtb	r3, r3
 930 0044 181C     		mov	r0, r3
 931 0046 FFF7FEFF 		bl	transferSPI
 174:.\wiznet5500.c **** 		
 175:.\wiznet5500.c **** 		// Data Phase
 176:.\wiznet5500.c **** 		transferSPI(data>>8);
 932              		.loc 2 176 0
 933 004a BB1C     		add	r3, r7, #2
 934 004c 1B88     		ldrh	r3, [r3]
 935 004e 1B0A     		lsr	r3, r3, #8
 936 0050 9BB2     		uxth	r3, r3
 937 0052 DBB2     		uxtb	r3, r3
 938 0054 181C     		mov	r0, r3
 939 0056 FFF7FEFF 		bl	transferSPI
 177:.\wiznet5500.c **** 		transferSPI(data&0xFF);
 940              		.loc 2 177 0
ARM GAS  C:\Users\Steve\AppData\Local\Temp\ccloT0QO.s 			page 21


 941 005a BB1C     		add	r3, r7, #2
 942 005c 1B88     		ldrh	r3, [r3]
 943 005e DBB2     		uxtb	r3, r3
 944 0060 181C     		mov	r0, r3
 945 0062 FFF7FEFF 		bl	transferSPI
 178:.\wiznet5500.c **** 	WIZ_SS_Write(HIGH); // WizNet SPI Frame Finished
 946              		.loc 2 178 0
 947 0066 0120     		mov	r0, #1
 948 0068 FFF7FEFF 		bl	WIZ_SS_Write
 179:.\wiznet5500.c **** 	// return response;
 180:.\wiznet5500.c **** }
 949              		.loc 2 180 0
 950 006c BD46     		mov	sp, r7
 951 006e 02B0     		add	sp, sp, #8
 952              		@ sp needed for prologue
 953 0070 80BD     		pop	{r7, pc}
 954              		.cfi_endproc
 955              	.LFE43:
 956              		.size	wiznetWrite16b, .-wiznetWrite16b
 957 0072 C046     		.section	.text.wiznetWriteArray,"ax",%progbits
 958              		.align	2
 959              		.global	wiznetWriteArray
 960              		.code	16
 961              		.thumb_func
 962              		.type	wiznetWriteArray, %function
 963              	wiznetWriteArray:
 964              	.LFB44:
 181:.\wiznet5500.c **** 
 182:.\wiznet5500.c **** void wiznetWriteArray(uint16_t regAddr, uint8_t blkSel, uint8_t *srcArray, uint8_t len){
 965              		.loc 2 182 0
 966              		.cfi_startproc
 967 0000 80B5     		push	{r7, lr}
 968              	.LCFI29:
 969              		.cfi_def_cfa_offset 8
 970              		.cfi_offset 7, -8
 971              		.cfi_offset 14, -4
 972 0002 84B0     		sub	sp, sp, #16
 973              	.LCFI30:
 974              		.cfi_def_cfa_offset 24
 975 0004 00AF     		add	r7, sp, #0
 976              	.LCFI31:
 977              		.cfi_def_cfa_register 7
 978 0006 3A60     		str	r2, [r7]
 979 0008 1A1C     		mov	r2, r3
 980 000a BB1D     		add	r3, r7, #6
 981 000c 1880     		strh	r0, [r3]
 982 000e 7B1D     		add	r3, r7, #5
 983 0010 1970     		strb	r1, [r3]
 984 0012 3B1D     		add	r3, r7, #4
 985 0014 1A70     		strb	r2, [r3]
 183:.\wiznet5500.c **** 	WIZ_SS_Write(LOW); // Begin a WizNet SPI Frame. Three Phases: Address, Control, Data
 986              		.loc 2 183 0
 987 0016 0020     		mov	r0, #0
 988 0018 FFF7FEFF 		bl	WIZ_SS_Write
 184:.\wiznet5500.c **** 		// Address Phase
 185:.\wiznet5500.c **** 		transferSPI(regAddr>>8);
 989              		.loc 2 185 0
ARM GAS  C:\Users\Steve\AppData\Local\Temp\ccloT0QO.s 			page 22


 990 001c BB1D     		add	r3, r7, #6
 991 001e 1B88     		ldrh	r3, [r3]
 992 0020 1B0A     		lsr	r3, r3, #8
 993 0022 9BB2     		uxth	r3, r3
 994 0024 DBB2     		uxtb	r3, r3
 995 0026 181C     		mov	r0, r3
 996 0028 FFF7FEFF 		bl	transferSPI
 186:.\wiznet5500.c **** 		transferSPI(regAddr&0xFF);
 997              		.loc 2 186 0
 998 002c BB1D     		add	r3, r7, #6
 999 002e 1B88     		ldrh	r3, [r3]
 1000 0030 DBB2     		uxtb	r3, r3
 1001 0032 181C     		mov	r0, r3
 1002 0034 FFF7FEFF 		bl	transferSPI
 187:.\wiznet5500.c **** 		
 188:.\wiznet5500.c **** 		// Control Phase
 189:.\wiznet5500.c **** 		transferSPI(((blkSel&0x1F)<<3)|(0x01<<2)|0x00);		
 1003              		.loc 2 189 0
 1004 0038 7B1D     		add	r3, r7, #5
 1005 003a 1B78     		ldrb	r3, [r3]
 1006 003c DB00     		lsl	r3, r3, #3
 1007 003e DBB2     		uxtb	r3, r3
 1008 0040 0422     		mov	r2, #4
 1009 0042 1343     		orr	r3, r2
 1010 0044 DBB2     		uxtb	r3, r3
 1011 0046 DBB2     		uxtb	r3, r3
 1012 0048 181C     		mov	r0, r3
 1013 004a FFF7FEFF 		bl	transferSPI
 1014              	.LBB6:
 190:.\wiznet5500.c **** 		
 191:.\wiznet5500.c **** 		// Data Phase
 192:.\wiznet5500.c **** 		for(uint8_t k=0; k<len; k++){
 1015              		.loc 2 192 0
 1016 004e 3B1C     		mov	r3, r7
 1017 0050 0F33     		add	r3, r3, #15
 1018 0052 0022     		mov	r2, #0
 1019 0054 1A70     		strb	r2, [r3]
 1020 0056 0FE0     		b	.L32
 1021              	.L33:
 193:.\wiznet5500.c **** 			transferSPI(srcArray[k]);
 1022              		.loc 2 193 0 discriminator 2
 1023 0058 3B1C     		mov	r3, r7
 1024 005a 0F33     		add	r3, r3, #15
 1025 005c 1B78     		ldrb	r3, [r3]
 1026 005e 3A68     		ldr	r2, [r7]
 1027 0060 D318     		add	r3, r2, r3
 1028 0062 1B78     		ldrb	r3, [r3]
 1029 0064 181C     		mov	r0, r3
 1030 0066 FFF7FEFF 		bl	transferSPI
 192:.\wiznet5500.c **** 		for(uint8_t k=0; k<len; k++){
 1031              		.loc 2 192 0 discriminator 2
 1032 006a 3B1C     		mov	r3, r7
 1033 006c 0F33     		add	r3, r3, #15
 1034 006e 3A1C     		mov	r2, r7
 1035 0070 0F32     		add	r2, r2, #15
 1036 0072 1278     		ldrb	r2, [r2]
 1037 0074 0132     		add	r2, r2, #1
ARM GAS  C:\Users\Steve\AppData\Local\Temp\ccloT0QO.s 			page 23


 1038 0076 1A70     		strb	r2, [r3]
 1039              	.L32:
 192:.\wiznet5500.c **** 		for(uint8_t k=0; k<len; k++){
 1040              		.loc 2 192 0 is_stmt 0 discriminator 1
 1041 0078 3A1C     		mov	r2, r7
 1042 007a 0F32     		add	r2, r2, #15
 1043 007c 3B1D     		add	r3, r7, #4
 1044 007e 1278     		ldrb	r2, [r2]
 1045 0080 1B78     		ldrb	r3, [r3]
 1046 0082 9A42     		cmp	r2, r3
 1047 0084 E8D3     		bcc	.L33
 1048              	.LBE6:
 194:.\wiznet5500.c **** 		}
 195:.\wiznet5500.c **** 	WIZ_SS_Write(HIGH); // WizNet SPI Frame Finished
 1049              		.loc 2 195 0 is_stmt 1
 1050 0086 0120     		mov	r0, #1
 1051 0088 FFF7FEFF 		bl	WIZ_SS_Write
 196:.\wiznet5500.c **** 	// return response;
 197:.\wiznet5500.c **** }
 1052              		.loc 2 197 0
 1053 008c BD46     		mov	sp, r7
 1054 008e 04B0     		add	sp, sp, #16
 1055              		@ sp needed for prologue
 1056 0090 80BD     		pop	{r7, pc}
 1057              		.cfi_endproc
 1058              	.LFE44:
 1059              		.size	wiznetWriteArray, .-wiznetWriteArray
 1060 0092 C046     		.section	.text.wiznetRead8b,"ax",%progbits
 1061              		.align	2
 1062              		.global	wiznetRead8b
 1063              		.code	16
 1064              		.thumb_func
 1065              		.type	wiznetRead8b, %function
 1066              	wiznetRead8b:
 1067              	.LFB45:
 198:.\wiznet5500.c **** 
 199:.\wiznet5500.c **** uint8_t wiznetRead8b(uint16_t regAddr, uint8_t blkSel){
 1068              		.loc 2 199 0
 1069              		.cfi_startproc
 1070 0000 90B5     		push	{r4, r7, lr}
 1071              	.LCFI32:
 1072              		.cfi_def_cfa_offset 12
 1073              		.cfi_offset 4, -12
 1074              		.cfi_offset 7, -8
 1075              		.cfi_offset 14, -4
 1076 0002 85B0     		sub	sp, sp, #20
 1077              	.LCFI33:
 1078              		.cfi_def_cfa_offset 32
 1079 0004 00AF     		add	r7, sp, #0
 1080              	.LCFI34:
 1081              		.cfi_def_cfa_register 7
 1082 0006 0A1C     		mov	r2, r1
 1083 0008 BB1D     		add	r3, r7, #6
 1084 000a 011C     		add	r1, r0, #0
 1085 000c 1980     		strh	r1, [r3]
 1086 000e 7B1D     		add	r3, r7, #5
 1087 0010 1A70     		strb	r2, [r3]
ARM GAS  C:\Users\Steve\AppData\Local\Temp\ccloT0QO.s 			page 24


 200:.\wiznet5500.c **** 	WIZ_SS_Write(LOW); // Begin a WizNet SPI Frame. Three Phases: Address, Control, Data
 1088              		.loc 2 200 0
 1089 0012 0020     		mov	r0, #0
 1090 0014 FFF7FEFF 		bl	WIZ_SS_Write
 201:.\wiznet5500.c **** 		// Address Phase
 202:.\wiznet5500.c **** 		transferSPI(regAddr>>8);
 1091              		.loc 2 202 0
 1092 0018 BB1D     		add	r3, r7, #6
 1093 001a 1B88     		ldrh	r3, [r3]
 1094 001c 1B0A     		lsr	r3, r3, #8
 1095 001e 9BB2     		uxth	r3, r3
 1096 0020 DBB2     		uxtb	r3, r3
 1097 0022 181C     		mov	r0, r3
 1098 0024 FFF7FEFF 		bl	transferSPI
 203:.\wiznet5500.c **** 		transferSPI(regAddr&0xFF);
 1099              		.loc 2 203 0
 1100 0028 BB1D     		add	r3, r7, #6
 1101 002a 1B88     		ldrh	r3, [r3]
 1102 002c DBB2     		uxtb	r3, r3
 1103 002e 181C     		mov	r0, r3
 1104 0030 FFF7FEFF 		bl	transferSPI
 204:.\wiznet5500.c **** 		
 205:.\wiznet5500.c **** 		// Control Phase
 206:.\wiznet5500.c **** 		transferSPI(((blkSel&0x1F)<<3)|(0x00<<2)|0x00);		
 1105              		.loc 2 206 0
 1106 0034 7B1D     		add	r3, r7, #5
 1107 0036 1B78     		ldrb	r3, [r3]
 1108 0038 DB00     		lsl	r3, r3, #3
 1109 003a DBB2     		uxtb	r3, r3
 1110 003c 181C     		mov	r0, r3
 1111 003e FFF7FEFF 		bl	transferSPI
 207:.\wiznet5500.c **** 		
 208:.\wiznet5500.c **** 		// Data Phase
 209:.\wiznet5500.c **** 		uint8_t result = transferSPI(0x00);
 1112              		.loc 2 209 0
 1113 0042 3C1C     		mov	r4, r7
 1114 0044 0F34     		add	r4, r4, #15
 1115 0046 0020     		mov	r0, #0
 1116 0048 FFF7FEFF 		bl	transferSPI
 1117 004c 031C     		mov	r3, r0
 1118 004e 2370     		strb	r3, [r4]
 210:.\wiznet5500.c **** 	WIZ_SS_Write(HIGH); // WizNet SPI Frame Finished
 1119              		.loc 2 210 0
 1120 0050 0120     		mov	r0, #1
 1121 0052 FFF7FEFF 		bl	WIZ_SS_Write
 211:.\wiznet5500.c **** 	return result;
 1122              		.loc 2 211 0
 1123 0056 3B1C     		mov	r3, r7
 1124 0058 0F33     		add	r3, r3, #15
 1125 005a 1B78     		ldrb	r3, [r3]
 212:.\wiznet5500.c **** }
 1126              		.loc 2 212 0
 1127 005c 181C     		mov	r0, r3
 1128 005e BD46     		mov	sp, r7
 1129 0060 05B0     		add	sp, sp, #20
 1130              		@ sp needed for prologue
 1131 0062 90BD     		pop	{r4, r7, pc}
ARM GAS  C:\Users\Steve\AppData\Local\Temp\ccloT0QO.s 			page 25


 1132              		.cfi_endproc
 1133              	.LFE45:
 1134              		.size	wiznetRead8b, .-wiznetRead8b
 1135              		.section	.text.wiznetRead16b,"ax",%progbits
 1136              		.align	2
 1137              		.global	wiznetRead16b
 1138              		.code	16
 1139              		.thumb_func
 1140              		.type	wiznetRead16b, %function
 1141              	wiznetRead16b:
 1142              	.LFB46:
 213:.\wiznet5500.c **** 
 214:.\wiznet5500.c **** uint16_t wiznetRead16b(uint16_t regAddr, uint8_t blkSel){
 1143              		.loc 2 214 0
 1144              		.cfi_startproc
 1145 0000 80B5     		push	{r7, lr}
 1146              	.LCFI35:
 1147              		.cfi_def_cfa_offset 8
 1148              		.cfi_offset 7, -8
 1149              		.cfi_offset 14, -4
 1150 0002 84B0     		sub	sp, sp, #16
 1151              	.LCFI36:
 1152              		.cfi_def_cfa_offset 24
 1153 0004 00AF     		add	r7, sp, #0
 1154              	.LCFI37:
 1155              		.cfi_def_cfa_register 7
 1156 0006 0A1C     		mov	r2, r1
 1157 0008 BB1D     		add	r3, r7, #6
 1158 000a 011C     		add	r1, r0, #0
 1159 000c 1980     		strh	r1, [r3]
 1160 000e 7B1D     		add	r3, r7, #5
 1161 0010 1A70     		strb	r2, [r3]
 215:.\wiznet5500.c **** 	uint16_t result;
 216:.\wiznet5500.c **** 	WIZ_SS_Write(LOW); // Begin a WizNet SPI Frame. Three Phases: Address, Control, Data
 1162              		.loc 2 216 0
 1163 0012 0020     		mov	r0, #0
 1164 0014 FFF7FEFF 		bl	WIZ_SS_Write
 217:.\wiznet5500.c **** 		// Address Phase
 218:.\wiznet5500.c **** 		transferSPI(regAddr>>8);
 1165              		.loc 2 218 0
 1166 0018 BB1D     		add	r3, r7, #6
 1167 001a 1B88     		ldrh	r3, [r3]
 1168 001c 1B0A     		lsr	r3, r3, #8
 1169 001e 9BB2     		uxth	r3, r3
 1170 0020 DBB2     		uxtb	r3, r3
 1171 0022 181C     		mov	r0, r3
 1172 0024 FFF7FEFF 		bl	transferSPI
 219:.\wiznet5500.c **** 		transferSPI(regAddr&0xFF);
 1173              		.loc 2 219 0
 1174 0028 BB1D     		add	r3, r7, #6
 1175 002a 1B88     		ldrh	r3, [r3]
 1176 002c DBB2     		uxtb	r3, r3
 1177 002e 181C     		mov	r0, r3
 1178 0030 FFF7FEFF 		bl	transferSPI
 220:.\wiznet5500.c **** 		
 221:.\wiznet5500.c **** 		// Control Phase
 222:.\wiznet5500.c **** 		transferSPI(((blkSel&0x1F)<<3)|(0x00<<2)|0x00);		
ARM GAS  C:\Users\Steve\AppData\Local\Temp\ccloT0QO.s 			page 26


 1179              		.loc 2 222 0
 1180 0034 7B1D     		add	r3, r7, #5
 1181 0036 1B78     		ldrb	r3, [r3]
 1182 0038 DB00     		lsl	r3, r3, #3
 1183 003a DBB2     		uxtb	r3, r3
 1184 003c 181C     		mov	r0, r3
 1185 003e FFF7FEFF 		bl	transferSPI
 223:.\wiznet5500.c **** 		
 224:.\wiznet5500.c **** 		// Data Phase
 225:.\wiznet5500.c **** 		result = transferSPI(0x00)<<8;
 1186              		.loc 2 225 0
 1187 0042 0020     		mov	r0, #0
 1188 0044 FFF7FEFF 		bl	transferSPI
 1189 0048 031C     		mov	r3, r0
 1190 004a 1A1C     		mov	r2, r3
 1191 004c 3B1C     		mov	r3, r7
 1192 004e 0E33     		add	r3, r3, #14
 1193 0050 1202     		lsl	r2, r2, #8
 1194 0052 1A80     		strh	r2, [r3]
 226:.\wiznet5500.c **** 		result |= transferSPI(0x00);
 1195              		.loc 2 226 0
 1196 0054 0020     		mov	r0, #0
 1197 0056 FFF7FEFF 		bl	transferSPI
 1198 005a 031C     		mov	r3, r0
 1199 005c 191C     		mov	r1, r3
 1200 005e 3B1C     		mov	r3, r7
 1201 0060 0E33     		add	r3, r3, #14
 1202 0062 3A1C     		mov	r2, r7
 1203 0064 0E32     		add	r2, r2, #14
 1204 0066 1288     		ldrh	r2, [r2]
 1205 0068 0A43     		orr	r2, r1
 1206 006a 1A80     		strh	r2, [r3]
 227:.\wiznet5500.c **** 	WIZ_SS_Write(HIGH); // WizNet SPI Frame Finished
 1207              		.loc 2 227 0
 1208 006c 0120     		mov	r0, #1
 1209 006e FFF7FEFF 		bl	WIZ_SS_Write
 228:.\wiznet5500.c **** 	return result;
 1210              		.loc 2 228 0
 1211 0072 3B1C     		mov	r3, r7
 1212 0074 0E33     		add	r3, r3, #14
 1213 0076 1B88     		ldrh	r3, [r3]
 229:.\wiznet5500.c **** }
 1214              		.loc 2 229 0
 1215 0078 181C     		mov	r0, r3
 1216 007a BD46     		mov	sp, r7
 1217 007c 04B0     		add	sp, sp, #16
 1218              		@ sp needed for prologue
 1219 007e 80BD     		pop	{r7, pc}
 1220              		.cfi_endproc
 1221              	.LFE46:
 1222              		.size	wiznetRead16b, .-wiznetRead16b
 1223              		.section	.text.wiznetReadArray,"ax",%progbits
 1224              		.align	2
 1225              		.global	wiznetReadArray
 1226              		.code	16
 1227              		.thumb_func
 1228              		.type	wiznetReadArray, %function
ARM GAS  C:\Users\Steve\AppData\Local\Temp\ccloT0QO.s 			page 27


 1229              	wiznetReadArray:
 1230              	.LFB47:
 230:.\wiznet5500.c **** 
 231:.\wiznet5500.c **** void wiznetReadArray(uint16_t regAddr, uint8_t blkSel, uint8_t *dstArray, uint8_t len){
 1231              		.loc 2 231 0
 1232              		.cfi_startproc
 1233 0000 90B5     		push	{r4, r7, lr}
 1234              	.LCFI38:
 1235              		.cfi_def_cfa_offset 12
 1236              		.cfi_offset 4, -12
 1237              		.cfi_offset 7, -8
 1238              		.cfi_offset 14, -4
 1239 0002 85B0     		sub	sp, sp, #20
 1240              	.LCFI39:
 1241              		.cfi_def_cfa_offset 32
 1242 0004 00AF     		add	r7, sp, #0
 1243              	.LCFI40:
 1244              		.cfi_def_cfa_register 7
 1245 0006 3A60     		str	r2, [r7]
 1246 0008 1A1C     		mov	r2, r3
 1247 000a BB1D     		add	r3, r7, #6
 1248 000c 1880     		strh	r0, [r3]
 1249 000e 7B1D     		add	r3, r7, #5
 1250 0010 1970     		strb	r1, [r3]
 1251 0012 3B1D     		add	r3, r7, #4
 1252 0014 1A70     		strb	r2, [r3]
 232:.\wiznet5500.c **** 	WIZ_SS_Write(LOW); // Begin a WizNet SPI Frame. Three Phases: Address, Control, Data
 1253              		.loc 2 232 0
 1254 0016 0020     		mov	r0, #0
 1255 0018 FFF7FEFF 		bl	WIZ_SS_Write
 233:.\wiznet5500.c **** 		// uint8_t count = 0;
 234:.\wiznet5500.c **** 		
 235:.\wiznet5500.c **** 		// Address Phase
 236:.\wiznet5500.c **** 		transferSPI(regAddr>>8);
 1256              		.loc 2 236 0
 1257 001c BB1D     		add	r3, r7, #6
 1258 001e 1B88     		ldrh	r3, [r3]
 1259 0020 1B0A     		lsr	r3, r3, #8
 1260 0022 9BB2     		uxth	r3, r3
 1261 0024 DBB2     		uxtb	r3, r3
 1262 0026 181C     		mov	r0, r3
 1263 0028 FFF7FEFF 		bl	transferSPI
 237:.\wiznet5500.c **** 		transferSPI(regAddr&0xFF);
 1264              		.loc 2 237 0
 1265 002c BB1D     		add	r3, r7, #6
 1266 002e 1B88     		ldrh	r3, [r3]
 1267 0030 DBB2     		uxtb	r3, r3
 1268 0032 181C     		mov	r0, r3
 1269 0034 FFF7FEFF 		bl	transferSPI
 238:.\wiznet5500.c **** 		
 239:.\wiznet5500.c **** 		// Control Phase
 240:.\wiznet5500.c **** 		transferSPI(((blkSel&0x1F)<<3)|(0x00<<2)|0x00);	
 1270              		.loc 2 240 0
 1271 0038 7B1D     		add	r3, r7, #5
 1272 003a 1B78     		ldrb	r3, [r3]
 1273 003c DB00     		lsl	r3, r3, #3
 1274 003e DBB2     		uxtb	r3, r3
ARM GAS  C:\Users\Steve\AppData\Local\Temp\ccloT0QO.s 			page 28


 1275 0040 181C     		mov	r0, r3
 1276 0042 FFF7FEFF 		bl	transferSPI
 1277              	.LBB7:
 241:.\wiznet5500.c **** 		
 242:.\wiznet5500.c **** 		// Data Phase
 243:.\wiznet5500.c **** 		for(uint8_t k=0; k<len; k++){
 1278              		.loc 2 243 0
 1279 0046 3B1C     		mov	r3, r7
 1280 0048 0F33     		add	r3, r3, #15
 1281 004a 0022     		mov	r2, #0
 1282 004c 1A70     		strb	r2, [r3]
 1283 004e 10E0     		b	.L39
 1284              	.L40:
 244:.\wiznet5500.c **** 			dstArray[k] = transferSPI(0x00);
 1285              		.loc 2 244 0 discriminator 2
 1286 0050 3B1C     		mov	r3, r7
 1287 0052 0F33     		add	r3, r3, #15
 1288 0054 1B78     		ldrb	r3, [r3]
 1289 0056 3A68     		ldr	r2, [r7]
 1290 0058 D418     		add	r4, r2, r3
 1291 005a 0020     		mov	r0, #0
 1292 005c FFF7FEFF 		bl	transferSPI
 1293 0060 031C     		mov	r3, r0
 1294 0062 2370     		strb	r3, [r4]
 243:.\wiznet5500.c **** 		for(uint8_t k=0; k<len; k++){
 1295              		.loc 2 243 0 discriminator 2
 1296 0064 3B1C     		mov	r3, r7
 1297 0066 0F33     		add	r3, r3, #15
 1298 0068 3A1C     		mov	r2, r7
 1299 006a 0F32     		add	r2, r2, #15
 1300 006c 1278     		ldrb	r2, [r2]
 1301 006e 0132     		add	r2, r2, #1
 1302 0070 1A70     		strb	r2, [r3]
 1303              	.L39:
 243:.\wiznet5500.c **** 		for(uint8_t k=0; k<len; k++){
 1304              		.loc 2 243 0 is_stmt 0 discriminator 1
 1305 0072 3A1C     		mov	r2, r7
 1306 0074 0F32     		add	r2, r2, #15
 1307 0076 3B1D     		add	r3, r7, #4
 1308 0078 1278     		ldrb	r2, [r2]
 1309 007a 1B78     		ldrb	r3, [r3]
 1310 007c 9A42     		cmp	r2, r3
 1311 007e E7D3     		bcc	.L40
 1312              	.LBE7:
 245:.\wiznet5500.c **** 			// count++;
 246:.\wiznet5500.c **** 			// printf("%u",k);
 247:.\wiznet5500.c **** 		}
 248:.\wiznet5500.c **** 	WIZ_SS_Write(HIGH); // WizNet SPI Frame Finished
 1313              		.loc 2 248 0 is_stmt 1
 1314 0080 0120     		mov	r0, #1
 1315 0082 FFF7FEFF 		bl	WIZ_SS_Write
 249:.\wiznet5500.c **** 	// return count;
 250:.\wiznet5500.c **** }
 1316              		.loc 2 250 0
 1317 0086 BD46     		mov	sp, r7
 1318 0088 05B0     		add	sp, sp, #20
 1319              		@ sp needed for prologue
ARM GAS  C:\Users\Steve\AppData\Local\Temp\ccloT0QO.s 			page 29


 1320 008a 90BD     		pop	{r4, r7, pc}
 1321              		.cfi_endproc
 1322              	.LFE47:
 1323              		.size	wiznetReadArray, .-wiznetReadArray
 1324              		.text
 1325              	.Letext0:
 1326              		.file 3 "c:\\program files (x86)\\cypress\\psoc creator\\3.0\\psoc creator\\import\\gnu_cs\\arm\\4
 1327              		.file 4 "./Generated_Source/PSoC4/cytypes.h"