ARM GAS  C:\Users\Jared\AppData\Local\Temp\ccItjWnl.s 			page 1


   1              		.cpu cortex-m0
   2              		.fpu softvfp
   3              		.eabi_attribute 20, 1
   4              		.eabi_attribute 21, 1
   5              		.eabi_attribute 23, 3
   6              		.eabi_attribute 24, 1
   7              		.eabi_attribute 25, 1
   8              		.eabi_attribute 26, 1
   9              		.eabi_attribute 30, 6
  10              		.eabi_attribute 34, 0
  11              		.eabi_attribute 18, 4
  12              		.code	16
  13              		.file	"cyfitter_cfg.c"
  14              		.text
  15              	.Ltext0:
  16              		.cfi_sections	.debug_frame
  17              		.section	.text.CYMEMZERO,"ax",%progbits
  18              		.align	2
  19              		.code	16
  20              		.thumb_func
  21              		.type	CYMEMZERO, %function
  22              	CYMEMZERO:
  23              	.LFB0:
  24              		.file 1 ".\\Generated_Source\\PSoC4\\cyfitter_cfg.c"
   1:.\Generated_Source\PSoC4/cyfitter_cfg.c **** /*******************************************************************************
   2:.\Generated_Source\PSoC4/cyfitter_cfg.c **** * FILENAME: cyfitter_cfg.c
   3:.\Generated_Source\PSoC4/cyfitter_cfg.c **** * PSoC Creator 3.0 SP2
   4:.\Generated_Source\PSoC4/cyfitter_cfg.c **** *
   5:.\Generated_Source\PSoC4/cyfitter_cfg.c **** * Description:
   6:.\Generated_Source\PSoC4/cyfitter_cfg.c **** * This file is automatically generated by PSoC Creator with device 
   7:.\Generated_Source\PSoC4/cyfitter_cfg.c **** * initialization code.  Except for the user defined sections in
   8:.\Generated_Source\PSoC4/cyfitter_cfg.c **** * CyClockStartupError(), this file should not be modified.
   9:.\Generated_Source\PSoC4/cyfitter_cfg.c **** *
  10:.\Generated_Source\PSoC4/cyfitter_cfg.c **** ********************************************************************************
  11:.\Generated_Source\PSoC4/cyfitter_cfg.c **** * Copyright 2013, Cypress Semiconductor Corporation.  All rights reserved.
  12:.\Generated_Source\PSoC4/cyfitter_cfg.c **** * You may use this file only in accordance with the license, terms, conditions, 
  13:.\Generated_Source\PSoC4/cyfitter_cfg.c **** * disclaimers, and limitations in the end user license agreement accompanying 
  14:.\Generated_Source\PSoC4/cyfitter_cfg.c **** * the software package with which this file was provided.
  15:.\Generated_Source\PSoC4/cyfitter_cfg.c **** ********************************************************************************/
  16:.\Generated_Source\PSoC4/cyfitter_cfg.c **** 
  17:.\Generated_Source\PSoC4/cyfitter_cfg.c **** #include <string.h>
  18:.\Generated_Source\PSoC4/cyfitter_cfg.c **** #include <cytypes.h>
  19:.\Generated_Source\PSoC4/cyfitter_cfg.c **** #include <cydevice_trm.h>
  20:.\Generated_Source\PSoC4/cyfitter_cfg.c **** #include <cyfitter.h>
  21:.\Generated_Source\PSoC4/cyfitter_cfg.c **** #include <CyLib.h>
  22:.\Generated_Source\PSoC4/cyfitter_cfg.c **** #include <cyfitter_cfg.h>
  23:.\Generated_Source\PSoC4/cyfitter_cfg.c **** 
  24:.\Generated_Source\PSoC4/cyfitter_cfg.c **** 
  25:.\Generated_Source\PSoC4/cyfitter_cfg.c **** #if defined(__GNUC__) || defined(__ARMCC_VERSION)
  26:.\Generated_Source\PSoC4/cyfitter_cfg.c ****     #define CYPACKED 
  27:.\Generated_Source\PSoC4/cyfitter_cfg.c ****     #define CYPACKED_ATTR __attribute__ ((packed))
  28:.\Generated_Source\PSoC4/cyfitter_cfg.c ****     #define CYALIGNED __attribute__ ((aligned))
  29:.\Generated_Source\PSoC4/cyfitter_cfg.c ****     #define CY_CFG_UNUSED __attribute__ ((unused))
  30:.\Generated_Source\PSoC4/cyfitter_cfg.c ****     #define CY_CFG_SECTION __attribute__ ((section(".psocinit")))
  31:.\Generated_Source\PSoC4/cyfitter_cfg.c ****     
  32:.\Generated_Source\PSoC4/cyfitter_cfg.c ****     #if defined(__ARMCC_VERSION)
  33:.\Generated_Source\PSoC4/cyfitter_cfg.c ****         #define CY_CFG_MEMORY_BARRIER() __memory_changed()
ARM GAS  C:\Users\Jared\AppData\Local\Temp\ccItjWnl.s 			page 2


  34:.\Generated_Source\PSoC4/cyfitter_cfg.c ****     #else
  35:.\Generated_Source\PSoC4/cyfitter_cfg.c ****         #define CY_CFG_MEMORY_BARRIER() __sync_synchronize()
  36:.\Generated_Source\PSoC4/cyfitter_cfg.c ****     #endif
  37:.\Generated_Source\PSoC4/cyfitter_cfg.c ****     
  38:.\Generated_Source\PSoC4/cyfitter_cfg.c **** #elif defined(__ICCARM__)
  39:.\Generated_Source\PSoC4/cyfitter_cfg.c ****     #include <intrinsics.h>
  40:.\Generated_Source\PSoC4/cyfitter_cfg.c **** 
  41:.\Generated_Source\PSoC4/cyfitter_cfg.c ****     #define CYPACKED __packed
  42:.\Generated_Source\PSoC4/cyfitter_cfg.c ****     #define CYPACKED_ATTR 
  43:.\Generated_Source\PSoC4/cyfitter_cfg.c ****     #define CYALIGNED _Pragma("data_alignment=4")
  44:.\Generated_Source\PSoC4/cyfitter_cfg.c ****     #define CY_CFG_UNUSED _Pragma("diag_suppress=Pe177")
  45:.\Generated_Source\PSoC4/cyfitter_cfg.c ****     #define CY_CFG_SECTION _Pragma("location=\".psocinit\"")
  46:.\Generated_Source\PSoC4/cyfitter_cfg.c ****     
  47:.\Generated_Source\PSoC4/cyfitter_cfg.c ****     #define CY_CFG_MEMORY_BARRIER() __DMB()
  48:.\Generated_Source\PSoC4/cyfitter_cfg.c ****     
  49:.\Generated_Source\PSoC4/cyfitter_cfg.c **** #else
  50:.\Generated_Source\PSoC4/cyfitter_cfg.c ****     #error Unsupported toolchain
  51:.\Generated_Source\PSoC4/cyfitter_cfg.c **** #endif
  52:.\Generated_Source\PSoC4/cyfitter_cfg.c **** 
  53:.\Generated_Source\PSoC4/cyfitter_cfg.c **** 
  54:.\Generated_Source\PSoC4/cyfitter_cfg.c **** CY_CFG_UNUSED
  55:.\Generated_Source\PSoC4/cyfitter_cfg.c **** static void CYMEMZERO(void *s, size_t n);
  56:.\Generated_Source\PSoC4/cyfitter_cfg.c **** CY_CFG_UNUSED
  57:.\Generated_Source\PSoC4/cyfitter_cfg.c **** static void CYMEMZERO(void *s, size_t n)
  58:.\Generated_Source\PSoC4/cyfitter_cfg.c **** {
  25              		.loc 1 58 0
  26              		.cfi_startproc
  27 0000 80B5     		push	{r7, lr}
  28              	.LCFI0:
  29              		.cfi_def_cfa_offset 8
  30              		.cfi_offset 7, -8
  31              		.cfi_offset 14, -4
  32 0002 82B0     		sub	sp, sp, #8
  33              	.LCFI1:
  34              		.cfi_def_cfa_offset 16
  35 0004 00AF     		add	r7, sp, #0
  36              	.LCFI2:
  37              		.cfi_def_cfa_register 7
  38 0006 7860     		str	r0, [r7, #4]
  39 0008 3960     		str	r1, [r7]
  59:.\Generated_Source\PSoC4/cyfitter_cfg.c **** 	(void)memset(s, 0, n);
  40              		.loc 1 59 0
  41 000a 7A68     		ldr	r2, [r7, #4]
  42 000c 3B68     		ldr	r3, [r7]
  43 000e 101C     		mov	r0, r2
  44 0010 0021     		mov	r1, #0
  45 0012 1A1C     		mov	r2, r3
  46 0014 FFF7FEFF 		bl	memset
  60:.\Generated_Source\PSoC4/cyfitter_cfg.c **** }
  47              		.loc 1 60 0
  48 0018 BD46     		mov	sp, r7
  49 001a 02B0     		add	sp, sp, #8
  50              		@ sp needed for prologue
  51 001c 80BD     		pop	{r7, pc}
  52              		.cfi_endproc
  53              	.LFE0:
  54              		.size	CYMEMZERO, .-CYMEMZERO
ARM GAS  C:\Users\Jared\AppData\Local\Temp\ccItjWnl.s 			page 3


  55 001e C046     		.section	.text.CYCONFIGCPY,"ax",%progbits
  56              		.align	2
  57              		.code	16
  58              		.thumb_func
  59              		.type	CYCONFIGCPY, %function
  60              	CYCONFIGCPY:
  61              	.LFB1:
  61:.\Generated_Source\PSoC4/cyfitter_cfg.c **** CY_CFG_UNUSED
  62:.\Generated_Source\PSoC4/cyfitter_cfg.c **** static void CYCONFIGCPY(void *dest, const void *src, size_t n);
  63:.\Generated_Source\PSoC4/cyfitter_cfg.c **** CY_CFG_UNUSED
  64:.\Generated_Source\PSoC4/cyfitter_cfg.c **** static void CYCONFIGCPY(void *dest, const void *src, size_t n)
  65:.\Generated_Source\PSoC4/cyfitter_cfg.c **** {
  62              		.loc 1 65 0
  63              		.cfi_startproc
  64 0000 80B5     		push	{r7, lr}
  65              	.LCFI3:
  66              		.cfi_def_cfa_offset 8
  67              		.cfi_offset 7, -8
  68              		.cfi_offset 14, -4
  69 0002 84B0     		sub	sp, sp, #16
  70              	.LCFI4:
  71              		.cfi_def_cfa_offset 24
  72 0004 00AF     		add	r7, sp, #0
  73              	.LCFI5:
  74              		.cfi_def_cfa_register 7
  75 0006 F860     		str	r0, [r7, #12]
  76 0008 B960     		str	r1, [r7, #8]
  77 000a 7A60     		str	r2, [r7, #4]
  66:.\Generated_Source\PSoC4/cyfitter_cfg.c **** 	(void)memcpy(dest, src, n);
  78              		.loc 1 66 0
  79 000c F968     		ldr	r1, [r7, #12]
  80 000e BA68     		ldr	r2, [r7, #8]
  81 0010 7B68     		ldr	r3, [r7, #4]
  82 0012 081C     		mov	r0, r1
  83 0014 111C     		mov	r1, r2
  84 0016 1A1C     		mov	r2, r3
  85 0018 FFF7FEFF 		bl	memcpy
  67:.\Generated_Source\PSoC4/cyfitter_cfg.c **** }
  86              		.loc 1 67 0
  87 001c BD46     		mov	sp, r7
  88 001e 04B0     		add	sp, sp, #16
  89              		@ sp needed for prologue
  90 0020 80BD     		pop	{r7, pc}
  91              		.cfi_endproc
  92              	.LFE1:
  93              		.size	CYCONFIGCPY, .-CYCONFIGCPY
  94 0022 C046     		.section	.text.CYCONFIGCPYCODE,"ax",%progbits
  95              		.align	2
  96              		.code	16
  97              		.thumb_func
  98              		.type	CYCONFIGCPYCODE, %function
  99              	CYCONFIGCPYCODE:
 100              	.LFB2:
  68:.\Generated_Source\PSoC4/cyfitter_cfg.c **** CY_CFG_UNUSED
  69:.\Generated_Source\PSoC4/cyfitter_cfg.c **** static void CYCONFIGCPYCODE(void *dest, const void *src, size_t n);
  70:.\Generated_Source\PSoC4/cyfitter_cfg.c **** CY_CFG_UNUSED
  71:.\Generated_Source\PSoC4/cyfitter_cfg.c **** static void CYCONFIGCPYCODE(void *dest, const void *src, size_t n)
ARM GAS  C:\Users\Jared\AppData\Local\Temp\ccItjWnl.s 			page 4


  72:.\Generated_Source\PSoC4/cyfitter_cfg.c **** {
 101              		.loc 1 72 0
 102              		.cfi_startproc
 103 0000 80B5     		push	{r7, lr}
 104              	.LCFI6:
 105              		.cfi_def_cfa_offset 8
 106              		.cfi_offset 7, -8
 107              		.cfi_offset 14, -4
 108 0002 84B0     		sub	sp, sp, #16
 109              	.LCFI7:
 110              		.cfi_def_cfa_offset 24
 111 0004 00AF     		add	r7, sp, #0
 112              	.LCFI8:
 113              		.cfi_def_cfa_register 7
 114 0006 F860     		str	r0, [r7, #12]
 115 0008 B960     		str	r1, [r7, #8]
 116 000a 7A60     		str	r2, [r7, #4]
  73:.\Generated_Source\PSoC4/cyfitter_cfg.c **** 	(void)memcpy(dest, src, n);
 117              		.loc 1 73 0
 118 000c F968     		ldr	r1, [r7, #12]
 119 000e BA68     		ldr	r2, [r7, #8]
 120 0010 7B68     		ldr	r3, [r7, #4]
 121 0012 081C     		mov	r0, r1
 122 0014 111C     		mov	r1, r2
 123 0016 1A1C     		mov	r2, r3
 124 0018 FFF7FEFF 		bl	memcpy
  74:.\Generated_Source\PSoC4/cyfitter_cfg.c **** }
 125              		.loc 1 74 0
 126 001c BD46     		mov	sp, r7
 127 001e 04B0     		add	sp, sp, #16
 128              		@ sp needed for prologue
 129 0020 80BD     		pop	{r7, pc}
 130              		.cfi_endproc
 131              	.LFE2:
 132              		.size	CYCONFIGCPYCODE, .-CYCONFIGCPYCODE
 133 0022 C046     		.section	.text.cfg_write_bytes32,"ax",%progbits
 134              		.align	2
 135              		.code	16
 136              		.thumb_func
 137              		.type	cfg_write_bytes32, %function
 138              	cfg_write_bytes32:
 139              	.LFB3:
  75:.\Generated_Source\PSoC4/cyfitter_cfg.c **** 
  76:.\Generated_Source\PSoC4/cyfitter_cfg.c **** 
  77:.\Generated_Source\PSoC4/cyfitter_cfg.c **** 
  78:.\Generated_Source\PSoC4/cyfitter_cfg.c **** /* Clock startup error codes                                                   */
  79:.\Generated_Source\PSoC4/cyfitter_cfg.c **** #define CYCLOCKSTART_NO_ERROR    0u
  80:.\Generated_Source\PSoC4/cyfitter_cfg.c **** #define CYCLOCKSTART_XTAL_ERROR  1u
  81:.\Generated_Source\PSoC4/cyfitter_cfg.c **** #define CYCLOCKSTART_32KHZ_ERROR 2u
  82:.\Generated_Source\PSoC4/cyfitter_cfg.c **** #define CYCLOCKSTART_PLL_ERROR   3u
  83:.\Generated_Source\PSoC4/cyfitter_cfg.c **** 
  84:.\Generated_Source\PSoC4/cyfitter_cfg.c **** #ifdef CY_NEED_CYCLOCKSTARTUPERROR
  85:.\Generated_Source\PSoC4/cyfitter_cfg.c **** /*******************************************************************************
  86:.\Generated_Source\PSoC4/cyfitter_cfg.c **** * Function Name: CyClockStartupError
  87:.\Generated_Source\PSoC4/cyfitter_cfg.c **** ********************************************************************************
  88:.\Generated_Source\PSoC4/cyfitter_cfg.c **** * Summary:
  89:.\Generated_Source\PSoC4/cyfitter_cfg.c **** *  If an error is encountered during clock configuration (crystal startup error,
ARM GAS  C:\Users\Jared\AppData\Local\Temp\ccItjWnl.s 			page 5


  90:.\Generated_Source\PSoC4/cyfitter_cfg.c **** *  PLL lock error, etc.), the system will end up here.  Unless reimplemented by
  91:.\Generated_Source\PSoC4/cyfitter_cfg.c **** *  the customer, this function will stop in an infinite loop.
  92:.\Generated_Source\PSoC4/cyfitter_cfg.c **** *
  93:.\Generated_Source\PSoC4/cyfitter_cfg.c **** * Parameters:
  94:.\Generated_Source\PSoC4/cyfitter_cfg.c **** *   void
  95:.\Generated_Source\PSoC4/cyfitter_cfg.c **** *
  96:.\Generated_Source\PSoC4/cyfitter_cfg.c **** * Return:
  97:.\Generated_Source\PSoC4/cyfitter_cfg.c **** *   void
  98:.\Generated_Source\PSoC4/cyfitter_cfg.c **** *
  99:.\Generated_Source\PSoC4/cyfitter_cfg.c **** *******************************************************************************/
 100:.\Generated_Source\PSoC4/cyfitter_cfg.c **** CY_CFG_UNUSED
 101:.\Generated_Source\PSoC4/cyfitter_cfg.c **** static void CyClockStartupError(uint8 errorCode);
 102:.\Generated_Source\PSoC4/cyfitter_cfg.c **** CY_CFG_UNUSED
 103:.\Generated_Source\PSoC4/cyfitter_cfg.c **** static void CyClockStartupError(uint8 errorCode)
 104:.\Generated_Source\PSoC4/cyfitter_cfg.c **** {
 105:.\Generated_Source\PSoC4/cyfitter_cfg.c ****     /* To remove the compiler warning if errorCode not used.                */
 106:.\Generated_Source\PSoC4/cyfitter_cfg.c ****     errorCode = errorCode;
 107:.\Generated_Source\PSoC4/cyfitter_cfg.c **** 
 108:.\Generated_Source\PSoC4/cyfitter_cfg.c ****     /* `#START CyClockStartupError` */
 109:.\Generated_Source\PSoC4/cyfitter_cfg.c **** 
 110:.\Generated_Source\PSoC4/cyfitter_cfg.c ****     /* If we have a clock startup error (bad MHz crystal, PLL lock, etc.),  */
 111:.\Generated_Source\PSoC4/cyfitter_cfg.c ****     /* we will end up here to allow the customer to implement something to  */
 112:.\Generated_Source\PSoC4/cyfitter_cfg.c ****     /* deal with the clock condition.                                       */
 113:.\Generated_Source\PSoC4/cyfitter_cfg.c **** 
 114:.\Generated_Source\PSoC4/cyfitter_cfg.c ****     /* `#END` */
 115:.\Generated_Source\PSoC4/cyfitter_cfg.c **** 
 116:.\Generated_Source\PSoC4/cyfitter_cfg.c ****     /* If nothing else, stop here since the clocks have not started         */
 117:.\Generated_Source\PSoC4/cyfitter_cfg.c ****     /* correctly.                                                           */
 118:.\Generated_Source\PSoC4/cyfitter_cfg.c ****     while(1) {}
 119:.\Generated_Source\PSoC4/cyfitter_cfg.c **** }
 120:.\Generated_Source\PSoC4/cyfitter_cfg.c **** #endif
 121:.\Generated_Source\PSoC4/cyfitter_cfg.c **** 
 122:.\Generated_Source\PSoC4/cyfitter_cfg.c **** #define CY_CFG_BASE_ADDR_COUNT 9u
 123:.\Generated_Source\PSoC4/cyfitter_cfg.c **** CYPACKED typedef struct
 124:.\Generated_Source\PSoC4/cyfitter_cfg.c **** {
 125:.\Generated_Source\PSoC4/cyfitter_cfg.c **** 	uint8 offset;
 126:.\Generated_Source\PSoC4/cyfitter_cfg.c **** 	uint8 value;
 127:.\Generated_Source\PSoC4/cyfitter_cfg.c **** } CYPACKED_ATTR cy_cfg_addrvalue_t;
 128:.\Generated_Source\PSoC4/cyfitter_cfg.c **** 
 129:.\Generated_Source\PSoC4/cyfitter_cfg.c **** 
 130:.\Generated_Source\PSoC4/cyfitter_cfg.c **** 
 131:.\Generated_Source\PSoC4/cyfitter_cfg.c **** /*******************************************************************************
 132:.\Generated_Source\PSoC4/cyfitter_cfg.c **** * Function Name: cfg_write_bytes32
 133:.\Generated_Source\PSoC4/cyfitter_cfg.c **** ********************************************************************************
 134:.\Generated_Source\PSoC4/cyfitter_cfg.c **** * Summary:
 135:.\Generated_Source\PSoC4/cyfitter_cfg.c **** *  This function is used for setting up the chip configuration areas that
 136:.\Generated_Source\PSoC4/cyfitter_cfg.c **** *  contain relatively sparse data.
 137:.\Generated_Source\PSoC4/cyfitter_cfg.c **** *
 138:.\Generated_Source\PSoC4/cyfitter_cfg.c **** * Parameters:
 139:.\Generated_Source\PSoC4/cyfitter_cfg.c **** *   void
 140:.\Generated_Source\PSoC4/cyfitter_cfg.c **** *
 141:.\Generated_Source\PSoC4/cyfitter_cfg.c **** * Return:
 142:.\Generated_Source\PSoC4/cyfitter_cfg.c **** *   void
 143:.\Generated_Source\PSoC4/cyfitter_cfg.c **** *
 144:.\Generated_Source\PSoC4/cyfitter_cfg.c **** *******************************************************************************/
 145:.\Generated_Source\PSoC4/cyfitter_cfg.c **** static void cfg_write_bytes32(const uint32 addr_table[], const cy_cfg_addrvalue_t data_table[]);
 146:.\Generated_Source\PSoC4/cyfitter_cfg.c **** static void cfg_write_bytes32(const uint32 addr_table[], const cy_cfg_addrvalue_t data_table[])
ARM GAS  C:\Users\Jared\AppData\Local\Temp\ccItjWnl.s 			page 6


 147:.\Generated_Source\PSoC4/cyfitter_cfg.c **** {
 140              		.loc 1 147 0
 141              		.cfi_startproc
 142 0000 80B5     		push	{r7, lr}
 143              	.LCFI9:
 144              		.cfi_def_cfa_offset 8
 145              		.cfi_offset 7, -8
 146              		.cfi_offset 14, -4
 147 0002 86B0     		sub	sp, sp, #24
 148              	.LCFI10:
 149              		.cfi_def_cfa_offset 32
 150 0004 00AF     		add	r7, sp, #0
 151              	.LCFI11:
 152              		.cfi_def_cfa_register 7
 153 0006 7860     		str	r0, [r7, #4]
 154 0008 3960     		str	r1, [r7]
 148:.\Generated_Source\PSoC4/cyfitter_cfg.c **** 	/* For 32-bit little-endian architectures */
 149:.\Generated_Source\PSoC4/cyfitter_cfg.c **** 	uint32 i, j = 0u;
 155              		.loc 1 149 0
 156 000a 0023     		mov	r3, #0
 157 000c 3B61     		str	r3, [r7, #16]
 150:.\Generated_Source\PSoC4/cyfitter_cfg.c **** 	for (i = 0u; i < CY_CFG_BASE_ADDR_COUNT; i++)
 158              		.loc 1 150 0
 159 000e 0023     		mov	r3, #0
 160 0010 7B61     		str	r3, [r7, #20]
 161 0012 2EE0     		b	.L5
 162              	.L8:
 163              	.LBB2:
 151:.\Generated_Source\PSoC4/cyfitter_cfg.c **** 	{
 152:.\Generated_Source\PSoC4/cyfitter_cfg.c **** 		uint32 baseAddr = addr_table[i];
 164              		.loc 1 152 0
 165 0014 7B69     		ldr	r3, [r7, #20]
 166 0016 9B00     		lsl	r3, r3, #2
 167 0018 7A68     		ldr	r2, [r7, #4]
 168 001a D318     		add	r3, r2, r3
 169 001c 1B68     		ldr	r3, [r3]
 170 001e BB60     		str	r3, [r7, #8]
 153:.\Generated_Source\PSoC4/cyfitter_cfg.c **** 		uint8 count = (uint8)baseAddr;
 171              		.loc 1 153 0
 172 0020 3B1C     		mov	r3, r7
 173 0022 0F33     		add	r3, r3, #15
 174 0024 BA68     		ldr	r2, [r7, #8]
 175 0026 1A70     		strb	r2, [r3]
 154:.\Generated_Source\PSoC4/cyfitter_cfg.c **** 		baseAddr &= 0xFFFFFF00u;
 176              		.loc 1 154 0
 177 0028 BB68     		ldr	r3, [r7, #8]
 178 002a FF22     		mov	r2, #255
 179 002c 9343     		bic	r3, r2
 180 002e BB60     		str	r3, [r7, #8]
 155:.\Generated_Source\PSoC4/cyfitter_cfg.c **** 		while (count != 0u)
 181              		.loc 1 155 0
 182 0030 17E0     		b	.L6
 183              	.L7:
 156:.\Generated_Source\PSoC4/cyfitter_cfg.c **** 		{
 157:.\Generated_Source\PSoC4/cyfitter_cfg.c **** 			CY_SET_XTND_REG8((void CYFAR *)(baseAddr + data_table[j].offset), data_table[j].value);
 184              		.loc 1 157 0
 185 0032 3B69     		ldr	r3, [r7, #16]
ARM GAS  C:\Users\Jared\AppData\Local\Temp\ccItjWnl.s 			page 7


 186 0034 5B00     		lsl	r3, r3, #1
 187 0036 3A68     		ldr	r2, [r7]
 188 0038 D318     		add	r3, r2, r3
 189 003a 1B78     		ldrb	r3, [r3]
 190 003c 1A1C     		mov	r2, r3
 191 003e BB68     		ldr	r3, [r7, #8]
 192 0040 D318     		add	r3, r2, r3
 193 0042 3A69     		ldr	r2, [r7, #16]
 194 0044 5200     		lsl	r2, r2, #1
 195 0046 3968     		ldr	r1, [r7]
 196 0048 8A18     		add	r2, r1, r2
 197 004a 5278     		ldrb	r2, [r2, #1]
 198 004c 1A70     		strb	r2, [r3]
 158:.\Generated_Source\PSoC4/cyfitter_cfg.c **** 			j++;
 199              		.loc 1 158 0
 200 004e 3B69     		ldr	r3, [r7, #16]
 201 0050 0133     		add	r3, r3, #1
 202 0052 3B61     		str	r3, [r7, #16]
 159:.\Generated_Source\PSoC4/cyfitter_cfg.c **** 			count--;
 203              		.loc 1 159 0
 204 0054 3B1C     		mov	r3, r7
 205 0056 0F33     		add	r3, r3, #15
 206 0058 3A1C     		mov	r2, r7
 207 005a 0F32     		add	r2, r2, #15
 208 005c 1278     		ldrb	r2, [r2]
 209 005e 013A     		sub	r2, r2, #1
 210 0060 1A70     		strb	r2, [r3]
 211              	.L6:
 155:.\Generated_Source\PSoC4/cyfitter_cfg.c **** 		while (count != 0u)
 212              		.loc 1 155 0 discriminator 1
 213 0062 3B1C     		mov	r3, r7
 214 0064 0F33     		add	r3, r3, #15
 215 0066 1B78     		ldrb	r3, [r3]
 216 0068 002B     		cmp	r3, #0
 217 006a E2D1     		bne	.L7
 218              	.LBE2:
 150:.\Generated_Source\PSoC4/cyfitter_cfg.c **** 	for (i = 0u; i < CY_CFG_BASE_ADDR_COUNT; i++)
 219              		.loc 1 150 0
 220 006c 7B69     		ldr	r3, [r7, #20]
 221 006e 0133     		add	r3, r3, #1
 222 0070 7B61     		str	r3, [r7, #20]
 223              	.L5:
 150:.\Generated_Source\PSoC4/cyfitter_cfg.c **** 	for (i = 0u; i < CY_CFG_BASE_ADDR_COUNT; i++)
 224              		.loc 1 150 0 is_stmt 0 discriminator 1
 225 0072 7B69     		ldr	r3, [r7, #20]
 226 0074 082B     		cmp	r3, #8
 227 0076 CDD9     		bls	.L8
 160:.\Generated_Source\PSoC4/cyfitter_cfg.c **** 		}
 161:.\Generated_Source\PSoC4/cyfitter_cfg.c **** 	}
 162:.\Generated_Source\PSoC4/cyfitter_cfg.c **** }
 228              		.loc 1 162 0 is_stmt 1
 229 0078 BD46     		mov	sp, r7
 230 007a 06B0     		add	sp, sp, #24
 231              		@ sp needed for prologue
 232 007c 80BD     		pop	{r7, pc}
 233              		.cfi_endproc
 234              	.LFE3:
ARM GAS  C:\Users\Jared\AppData\Local\Temp\ccItjWnl.s 			page 8


 235              		.size	cfg_write_bytes32, .-cfg_write_bytes32
 236 007e C046     		.section	.psocinit,"ax",%progbits
 237              		.align	2
 238              		.code	16
 239              		.thumb_func
 240              		.type	SetIMOBGTrims, %function
 241              	SetIMOBGTrims:
 242              	.LFB4:
 163:.\Generated_Source\PSoC4/cyfitter_cfg.c **** 
 164:.\Generated_Source\PSoC4/cyfitter_cfg.c **** /*******************************************************************************
 165:.\Generated_Source\PSoC4/cyfitter_cfg.c **** * Function Name: SetIMOBGTrims
 166:.\Generated_Source\PSoC4/cyfitter_cfg.c **** ********************************************************************************
 167:.\Generated_Source\PSoC4/cyfitter_cfg.c **** *
 168:.\Generated_Source\PSoC4/cyfitter_cfg.c **** * Summary:
 169:.\Generated_Source\PSoC4/cyfitter_cfg.c **** *   Performs the configuration of the bandgap trim for the IMO based on the given
 170:.\Generated_Source\PSoC4/cyfitter_cfg.c **** *   expected frequency of the IMO. 
 171:.\Generated_Source\PSoC4/cyfitter_cfg.c **** *
 172:.\Generated_Source\PSoC4/cyfitter_cfg.c **** * Parameters:
 173:.\Generated_Source\PSoC4/cyfitter_cfg.c **** *   imoFreq: Frequency for operation of the IMO.
 174:.\Generated_Source\PSoC4/cyfitter_cfg.c **** *
 175:.\Generated_Source\PSoC4/cyfitter_cfg.c **** * Return:
 176:.\Generated_Source\PSoC4/cyfitter_cfg.c **** *   void
 177:.\Generated_Source\PSoC4/cyfitter_cfg.c **** *
 178:.\Generated_Source\PSoC4/cyfitter_cfg.c **** *******************************************************************************/
 179:.\Generated_Source\PSoC4/cyfitter_cfg.c **** static void SetIMOBGTrims(uint8 imoFreq);
 180:.\Generated_Source\PSoC4/cyfitter_cfg.c **** CY_CFG_SECTION
 181:.\Generated_Source\PSoC4/cyfitter_cfg.c **** static void SetIMOBGTrims(uint8 imoFreq)
 182:.\Generated_Source\PSoC4/cyfitter_cfg.c **** {
 243              		.loc 1 182 0
 244              		.cfi_startproc
 245 0000 80B5     		push	{r7, lr}
 246              	.LCFI12:
 247              		.cfi_def_cfa_offset 8
 248              		.cfi_offset 7, -8
 249              		.cfi_offset 14, -4
 250 0002 84B0     		sub	sp, sp, #16
 251              	.LCFI13:
 252              		.cfi_def_cfa_offset 24
 253 0004 00AF     		add	r7, sp, #0
 254              	.LCFI14:
 255              		.cfi_def_cfa_register 7
 256 0006 021C     		mov	r2, r0
 257 0008 FB1D     		add	r3, r7, #7
 258 000a 1A70     		strb	r2, [r3]
 183:.\Generated_Source\PSoC4/cyfitter_cfg.c **** 	CYPACKED typedef struct {
 184:.\Generated_Source\PSoC4/cyfitter_cfg.c **** 		uint8 freq;
 185:.\Generated_Source\PSoC4/cyfitter_cfg.c **** 		uint8 absolute;
 186:.\Generated_Source\PSoC4/cyfitter_cfg.c **** 		uint8 tmpco;
 187:.\Generated_Source\PSoC4/cyfitter_cfg.c **** 	} CYPACKED_ATTR imo_trim_entry_t;
 188:.\Generated_Source\PSoC4/cyfitter_cfg.c **** 
 189:.\Generated_Source\PSoC4/cyfitter_cfg.c **** 	CYPACKED typedef struct {
 190:.\Generated_Source\PSoC4/cyfitter_cfg.c **** 		imo_trim_entry_t entries[4];
 191:.\Generated_Source\PSoC4/cyfitter_cfg.c **** 	} CYPACKED_ATTR imo_trim_table_t;
 192:.\Generated_Source\PSoC4/cyfitter_cfg.c **** 
 193:.\Generated_Source\PSoC4/cyfitter_cfg.c **** 	static const imo_trim_table_t *imo_trim_table = (const imo_trim_table_t *)CYREG_SFLASH_IMO_MAXF0;
 194:.\Generated_Source\PSoC4/cyfitter_cfg.c **** 	static const uint32 IMO_TRIM_FREQ_TABLE_ENTRIES = sizeof(imo_trim_table->entries)/sizeof(imo_trim_
 195:.\Generated_Source\PSoC4/cyfitter_cfg.c **** 
ARM GAS  C:\Users\Jared\AppData\Local\Temp\ccItjWnl.s 			page 9


 196:.\Generated_Source\PSoC4/cyfitter_cfg.c **** 	int32 imoTrimIndex;
 197:.\Generated_Source\PSoC4/cyfitter_cfg.c **** 	uint8 setAbs;
 198:.\Generated_Source\PSoC4/cyfitter_cfg.c **** 	uint8 setTmpCo;
 199:.\Generated_Source\PSoC4/cyfitter_cfg.c **** 
 200:.\Generated_Source\PSoC4/cyfitter_cfg.c **** 	/* Traverse the SFLASH IMO frequency-dependent bandgap trim table to
 201:.\Generated_Source\PSoC4/cyfitter_cfg.c **** 	 * locate the appropriate value to trim the IMO bandgap based on freq. */
 202:.\Generated_Source\PSoC4/cyfitter_cfg.c **** 	setAbs = CY_GET_REG8((const void *)CYREG_SFLASH_IMO_ABS4);
 259              		.loc 1 202 0
 260 000c 224A     		ldr	r2, .L13
 261 000e 3B1C     		mov	r3, r7
 262 0010 0B33     		add	r3, r3, #11
 263 0012 1278     		ldrb	r2, [r2]
 264 0014 1A70     		strb	r2, [r3]
 203:.\Generated_Source\PSoC4/cyfitter_cfg.c **** 	setTmpCo = CY_GET_REG8((const void *)CYREG_SFLASH_IMO_TMPCO4);
 265              		.loc 1 203 0
 266 0016 214A     		ldr	r2, .L13+4
 267 0018 3B1C     		mov	r3, r7
 268 001a 0A33     		add	r3, r3, #10
 269 001c 1278     		ldrb	r2, [r2]
 270 001e 1A70     		strb	r2, [r3]
 204:.\Generated_Source\PSoC4/cyfitter_cfg.c **** 	for (imoTrimIndex = ((int32)IMO_TRIM_FREQ_TABLE_ENTRIES)-1;
 271              		.loc 1 204 0
 272 0020 1F4B     		ldr	r3, .L13+8
 273 0022 1B68     		ldr	r3, [r3]
 274 0024 013B     		sub	r3, r3, #1
 275 0026 FB60     		str	r3, [r7, #12]
 276 0028 1AE0     		b	.L10
 277              	.L12:
 205:.\Generated_Source\PSoC4/cyfitter_cfg.c **** 	     (imoTrimIndex >= 0) && (imoFreq <= imo_trim_table->entries[imoTrimIndex].freq);
 206:.\Generated_Source\PSoC4/cyfitter_cfg.c **** 	     imoTrimIndex--)
 207:.\Generated_Source\PSoC4/cyfitter_cfg.c **** 	{
 208:.\Generated_Source\PSoC4/cyfitter_cfg.c **** 		setAbs = imo_trim_table->entries[imoTrimIndex].absolute;
 278              		.loc 1 208 0
 279 002a 1E4B     		ldr	r3, .L13+12
 280 002c 1868     		ldr	r0, [r3]
 281 002e 391C     		mov	r1, r7
 282 0030 0B31     		add	r1, r1, #11
 283 0032 FA68     		ldr	r2, [r7, #12]
 284 0034 131C     		mov	r3, r2
 285 0036 5B00     		lsl	r3, r3, #1
 286 0038 9B18     		add	r3, r3, r2
 287 003a C318     		add	r3, r0, r3
 288 003c 0133     		add	r3, r3, #1
 289 003e 1B78     		ldrb	r3, [r3]
 290 0040 0B70     		strb	r3, [r1]
 209:.\Generated_Source\PSoC4/cyfitter_cfg.c **** 		setTmpCo = imo_trim_table->entries[imoTrimIndex].tmpco;
 291              		.loc 1 209 0
 292 0042 184B     		ldr	r3, .L13+12
 293 0044 1868     		ldr	r0, [r3]
 294 0046 391C     		mov	r1, r7
 295 0048 0A31     		add	r1, r1, #10
 296 004a FA68     		ldr	r2, [r7, #12]
 297 004c 131C     		mov	r3, r2
 298 004e 5B00     		lsl	r3, r3, #1
 299 0050 9B18     		add	r3, r3, r2
 300 0052 C318     		add	r3, r0, r3
 301 0054 0233     		add	r3, r3, #2
ARM GAS  C:\Users\Jared\AppData\Local\Temp\ccItjWnl.s 			page 10


 302 0056 1B78     		ldrb	r3, [r3]
 303 0058 0B70     		strb	r3, [r1]
 206:.\Generated_Source\PSoC4/cyfitter_cfg.c **** 	     imoTrimIndex--)
 304              		.loc 1 206 0
 305 005a FB68     		ldr	r3, [r7, #12]
 306 005c 013B     		sub	r3, r3, #1
 307 005e FB60     		str	r3, [r7, #12]
 308              	.L10:
 204:.\Generated_Source\PSoC4/cyfitter_cfg.c **** 	for (imoTrimIndex = ((int32)IMO_TRIM_FREQ_TABLE_ENTRIES)-1;
 309              		.loc 1 204 0 discriminator 1
 310 0060 FB68     		ldr	r3, [r7, #12]
 311 0062 002B     		cmp	r3, #0
 312 0064 0ADB     		blt	.L11
 205:.\Generated_Source\PSoC4/cyfitter_cfg.c **** 	     (imoTrimIndex >= 0) && (imoFreq <= imo_trim_table->entries[imoTrimIndex].freq);
 313              		.loc 1 205 0
 314 0066 0F4B     		ldr	r3, .L13+12
 315 0068 1968     		ldr	r1, [r3]
 316 006a FA68     		ldr	r2, [r7, #12]
 317 006c 131C     		mov	r3, r2
 318 006e 5B00     		lsl	r3, r3, #1
 319 0070 9B18     		add	r3, r3, r2
 320 0072 5B5C     		ldrb	r3, [r3, r1]
 321 0074 FA1D     		add	r2, r7, #7
 322 0076 1278     		ldrb	r2, [r2]
 323 0078 9A42     		cmp	r2, r3
 324 007a D6D9     		bls	.L12
 325              	.L11:
 210:.\Generated_Source\PSoC4/cyfitter_cfg.c **** 	}
 211:.\Generated_Source\PSoC4/cyfitter_cfg.c **** 
 212:.\Generated_Source\PSoC4/cyfitter_cfg.c **** 	CY_SET_REG32((void *)CYREG_PWR_BG_TRIM4, setAbs);
 326              		.loc 1 212 0
 327 007c 0A4B     		ldr	r3, .L13+16
 328 007e 3A1C     		mov	r2, r7
 329 0080 0B32     		add	r2, r2, #11
 330 0082 1278     		ldrb	r2, [r2]
 331 0084 1A60     		str	r2, [r3]
 213:.\Generated_Source\PSoC4/cyfitter_cfg.c **** 	CY_SET_REG32((void *)CYREG_PWR_BG_TRIM5, setTmpCo);
 332              		.loc 1 213 0
 333 0086 094B     		ldr	r3, .L13+20
 334 0088 3A1C     		mov	r2, r7
 335 008a 0A32     		add	r2, r2, #10
 336 008c 1278     		ldrb	r2, [r2]
 337 008e 1A60     		str	r2, [r3]
 214:.\Generated_Source\PSoC4/cyfitter_cfg.c **** }
 338              		.loc 1 214 0
 339 0090 BD46     		mov	sp, r7
 340 0092 04B0     		add	sp, sp, #16
 341              		@ sp needed for prologue
 342 0094 80BD     		pop	{r7, pc}
 343              	.L14:
 344 0096 C046     		.align	2
 345              	.L13:
 346 0098 CCF1FF0F 		.word	268431820
 347 009c CDF1FF0F 		.word	268431821
 348 00a0 00030000 		.word	IMO_TRIM_FREQ_TABLE_ENTRIES.4642
 349 00a4 00000000 		.word	imo_trim_table.4641
 350 00a8 1CFF0B40 		.word	1074528028
ARM GAS  C:\Users\Jared\AppData\Local\Temp\ccItjWnl.s 			page 11


 351 00ac 20FF0B40 		.word	1074528032
 352              		.cfi_endproc
 353              	.LFE4:
 354              		.size	SetIMOBGTrims, .-SetIMOBGTrims
 355              		.align	2
 356              		.code	16
 357              		.thumb_func
 358              		.type	ClockSetup, %function
 359              	ClockSetup:
 360              	.LFB5:
 215:.\Generated_Source\PSoC4/cyfitter_cfg.c **** 
 216:.\Generated_Source\PSoC4/cyfitter_cfg.c **** 
 217:.\Generated_Source\PSoC4/cyfitter_cfg.c **** 
 218:.\Generated_Source\PSoC4/cyfitter_cfg.c **** /*******************************************************************************
 219:.\Generated_Source\PSoC4/cyfitter_cfg.c **** * Function Name: ClockSetup
 220:.\Generated_Source\PSoC4/cyfitter_cfg.c **** ********************************************************************************
 221:.\Generated_Source\PSoC4/cyfitter_cfg.c **** *
 222:.\Generated_Source\PSoC4/cyfitter_cfg.c **** * Summary:
 223:.\Generated_Source\PSoC4/cyfitter_cfg.c **** *   Performs the initialization of all of the clocks in the device based on the
 224:.\Generated_Source\PSoC4/cyfitter_cfg.c **** *   settings in the Clock tab of the DWR.  This includes enabling the requested
 225:.\Generated_Source\PSoC4/cyfitter_cfg.c **** *   clocks and setting the necessary dividers to produce the desired frequency. 
 226:.\Generated_Source\PSoC4/cyfitter_cfg.c **** *
 227:.\Generated_Source\PSoC4/cyfitter_cfg.c **** * Parameters:
 228:.\Generated_Source\PSoC4/cyfitter_cfg.c **** *   void
 229:.\Generated_Source\PSoC4/cyfitter_cfg.c **** *
 230:.\Generated_Source\PSoC4/cyfitter_cfg.c **** * Return:
 231:.\Generated_Source\PSoC4/cyfitter_cfg.c **** *   void
 232:.\Generated_Source\PSoC4/cyfitter_cfg.c **** *
 233:.\Generated_Source\PSoC4/cyfitter_cfg.c **** *******************************************************************************/
 234:.\Generated_Source\PSoC4/cyfitter_cfg.c **** static void ClockSetup(void);
 235:.\Generated_Source\PSoC4/cyfitter_cfg.c **** CY_CFG_SECTION
 236:.\Generated_Source\PSoC4/cyfitter_cfg.c **** static void ClockSetup(void)
 237:.\Generated_Source\PSoC4/cyfitter_cfg.c **** {
 361              		.loc 1 237 0
 362              		.cfi_startproc
 363 00b0 80B5     		push	{r7, lr}
 364              	.LCFI15:
 365              		.cfi_def_cfa_offset 8
 366              		.cfi_offset 7, -8
 367              		.cfi_offset 14, -4
 368 00b2 00AF     		add	r7, sp, #0
 369              	.LCFI16:
 370              		.cfi_def_cfa_register 7
 238:.\Generated_Source\PSoC4/cyfitter_cfg.c **** 	/* Enable HALF_EN before trimming for the flash accelerator. */
 239:.\Generated_Source\PSoC4/cyfitter_cfg.c **** 	CY_SET_REG32((void CYXDATA *)(CYREG_CLK_SELECT), (CY_GET_REG32((void *)CYREG_CLK_SELECT) | 0x00040
 371              		.loc 1 239 0
 372 00b4 244B     		ldr	r3, .L16
 373 00b6 244A     		ldr	r2, .L16
 374 00b8 1268     		ldr	r2, [r2]
 375 00ba 8021     		mov	r1, #128
 376 00bc C902     		lsl	r1, r1, #11
 377 00be 0A43     		orr	r2, r1
 378 00c0 1A60     		str	r2, [r3]
 240:.\Generated_Source\PSoC4/cyfitter_cfg.c **** 
 241:.\Generated_Source\PSoC4/cyfitter_cfg.c **** 	/* Trim IMO BG based on desired frequency. */
 242:.\Generated_Source\PSoC4/cyfitter_cfg.c **** 	SetIMOBGTrims(24u);
 379              		.loc 1 242 0
ARM GAS  C:\Users\Jared\AppData\Local\Temp\ccItjWnl.s 			page 12


 380 00c2 1820     		mov	r0, #24
 381 00c4 FFF79CFF 		bl	SetIMOBGTrims
 243:.\Generated_Source\PSoC4/cyfitter_cfg.c **** 
 244:.\Generated_Source\PSoC4/cyfitter_cfg.c **** 	/* Going less than or equal to 24MHz, so update the clock speed then adjust trim value. */
 245:.\Generated_Source\PSoC4/cyfitter_cfg.c **** 	CY_SET_REG32((void CYXDATA *)(CYREG_CLK_IMO_TRIM2), (25u));
 382              		.loc 1 245 0
 383 00c8 204B     		ldr	r3, .L16+4
 384 00ca 1922     		mov	r2, #25
 385 00cc 1A60     		str	r2, [r3]
 246:.\Generated_Source\PSoC4/cyfitter_cfg.c **** 	CyDelayCycles(5u);
 386              		.loc 1 246 0
 387 00ce 0520     		mov	r0, #5
 388 00d0 FFF7FEFF 		bl	CyDelayCycles
 247:.\Generated_Source\PSoC4/cyfitter_cfg.c **** 	CY_SET_REG32((void CYXDATA *)(CYREG_CLK_IMO_TRIM1), (CY_GET_REG8((void *)CYREG_SFLASH_IMO_TRIM21))
 389              		.loc 1 247 0
 390 00d4 1E4B     		ldr	r3, .L16+8
 391 00d6 1F4A     		ldr	r2, .L16+12
 392 00d8 1278     		ldrb	r2, [r2]
 393 00da D2B2     		uxtb	r2, r2
 394 00dc 1A60     		str	r2, [r3]
 248:.\Generated_Source\PSoC4/cyfitter_cfg.c **** 	CyDelayUs(5u);
 395              		.loc 1 248 0
 396 00de 0520     		mov	r0, #5
 397 00e0 FFF7FEFF 		bl	CyDelayUs
 249:.\Generated_Source\PSoC4/cyfitter_cfg.c **** 
 250:.\Generated_Source\PSoC4/cyfitter_cfg.c **** 	/* Disable HALF_EN since it is not required at this IMO frequency. */
 251:.\Generated_Source\PSoC4/cyfitter_cfg.c **** 	CY_SET_REG32((void CYXDATA *)(CYREG_CLK_SELECT), (CY_GET_REG32((void *)CYREG_CLK_SELECT) & 0xFFFBF
 398              		.loc 1 251 0
 399 00e4 184B     		ldr	r3, .L16
 400 00e6 184A     		ldr	r2, .L16
 401 00e8 1168     		ldr	r1, [r2]
 402 00ea 1B4A     		ldr	r2, .L16+16
 403 00ec 0A40     		and	r2, r1
 404 00ee 1A60     		str	r2, [r3]
 252:.\Generated_Source\PSoC4/cyfitter_cfg.c **** 
 253:.\Generated_Source\PSoC4/cyfitter_cfg.c **** 	/* CYDEV_CLK_SELECT00 Starting address: CYDEV_CLK_SELECT00 */
 254:.\Generated_Source\PSoC4/cyfitter_cfg.c **** 	CY_SET_XTND_REG32((void CYFAR *)(CYREG_CLK_SELECT02), 0x00000020u);
 405              		.loc 1 254 0
 406 00f0 1A4B     		ldr	r3, .L16+20
 407 00f2 2022     		mov	r2, #32
 408 00f4 1A60     		str	r2, [r3]
 255:.\Generated_Source\PSoC4/cyfitter_cfg.c **** 	CY_SET_XTND_REG32((void CYFAR *)(CYREG_CLK_SELECT03), 0x00000011u);
 409              		.loc 1 255 0
 410 00f6 1A4B     		ldr	r3, .L16+24
 411 00f8 1122     		mov	r2, #17
 412 00fa 1A60     		str	r2, [r3]
 256:.\Generated_Source\PSoC4/cyfitter_cfg.c **** 	CY_SET_XTND_REG32((void CYFAR *)(CYREG_CLK_SELECT08), 0x00000030u);
 413              		.loc 1 256 0
 414 00fc 194B     		ldr	r3, .L16+28
 415 00fe 3022     		mov	r2, #48
 416 0100 1A60     		str	r2, [r3]
 257:.\Generated_Source\PSoC4/cyfitter_cfg.c **** 	CY_SET_XTND_REG32((void CYFAR *)(CYREG_CLK_SELECT09), 0x00000030u);
 417              		.loc 1 257 0
 418 0102 194B     		ldr	r3, .L16+32
 419 0104 3022     		mov	r2, #48
 420 0106 1A60     		str	r2, [r3]
 258:.\Generated_Source\PSoC4/cyfitter_cfg.c **** 	CY_SET_XTND_REG32((void CYFAR *)(CYREG_CLK_SELECT10), 0x00000030u);
ARM GAS  C:\Users\Jared\AppData\Local\Temp\ccItjWnl.s 			page 13


 421              		.loc 1 258 0
 422 0108 184B     		ldr	r3, .L16+36
 423 010a 3022     		mov	r2, #48
 424 010c 1A60     		str	r2, [r3]
 259:.\Generated_Source\PSoC4/cyfitter_cfg.c **** 	CY_SET_XTND_REG32((void CYFAR *)(CYREG_CLK_SELECT13), 0x00000010u);
 425              		.loc 1 259 0
 426 010e 184B     		ldr	r3, .L16+40
 427 0110 1022     		mov	r2, #16
 428 0112 1A60     		str	r2, [r3]
 260:.\Generated_Source\PSoC4/cyfitter_cfg.c **** 	CY_SET_XTND_REG32((void CYFAR *)(CYREG_CLK_SELECT15), 0x00000030u);
 429              		.loc 1 260 0
 430 0114 174B     		ldr	r3, .L16+44
 431 0116 3022     		mov	r2, #48
 432 0118 1A60     		str	r2, [r3]
 261:.\Generated_Source\PSoC4/cyfitter_cfg.c **** 
 262:.\Generated_Source\PSoC4/cyfitter_cfg.c **** 	/* CYDEV_CLK_IMO_CONFIG Starting address: CYDEV_CLK_IMO_CONFIG */
 263:.\Generated_Source\PSoC4/cyfitter_cfg.c **** 	CY_SET_XTND_REG32((void CYFAR *)(CYREG_CLK_IMO_CONFIG), 0x80000000u);
 433              		.loc 1 263 0
 434 011a 174B     		ldr	r3, .L16+48
 435 011c 8022     		mov	r2, #128
 436 011e 1206     		lsl	r2, r2, #24
 437 0120 1A60     		str	r2, [r3]
 264:.\Generated_Source\PSoC4/cyfitter_cfg.c **** 
 265:.\Generated_Source\PSoC4/cyfitter_cfg.c **** 	/* CYDEV_CLK_ILO_CONFIG Starting address: CYDEV_CLK_ILO_CONFIG */
 266:.\Generated_Source\PSoC4/cyfitter_cfg.c **** 	CY_SET_XTND_REG32((void CYFAR *)(CYREG_CLK_ILO_CONFIG), 0x80000000u);
 438              		.loc 1 266 0
 439 0122 164B     		ldr	r3, .L16+52
 440 0124 8022     		mov	r2, #128
 441 0126 1206     		lsl	r2, r2, #24
 442 0128 1A60     		str	r2, [r3]
 267:.\Generated_Source\PSoC4/cyfitter_cfg.c **** 
 268:.\Generated_Source\PSoC4/cyfitter_cfg.c **** 	/* CYDEV_CLK_DIVIDER_A00 Starting address: CYDEV_CLK_DIVIDER_A00 */
 269:.\Generated_Source\PSoC4/cyfitter_cfg.c **** 	CY_SET_XTND_REG32((void CYFAR *)(CYREG_CLK_DIVIDER_A00), 0x8000000Bu);
 443              		.loc 1 269 0
 444 012a 154B     		ldr	r3, .L16+56
 445 012c 154A     		ldr	r2, .L16+60
 446 012e 1A60     		str	r2, [r3]
 270:.\Generated_Source\PSoC4/cyfitter_cfg.c **** 
 271:.\Generated_Source\PSoC4/cyfitter_cfg.c **** 	/* CYDEV_CLK_DIVIDER_B00 Starting address: CYDEV_CLK_DIVIDER_B00 */
 272:.\Generated_Source\PSoC4/cyfitter_cfg.c **** 	CY_SET_XTND_REG32((void CYFAR *)(CYREG_CLK_DIVIDER_B00), 0x80000010u);
 447              		.loc 1 272 0
 448 0130 154B     		ldr	r3, .L16+64
 449 0132 164A     		ldr	r2, .L16+68
 450 0134 1A60     		str	r2, [r3]
 273:.\Generated_Source\PSoC4/cyfitter_cfg.c **** 
 274:.\Generated_Source\PSoC4/cyfitter_cfg.c **** 	/* CYDEV_CLK_DIVIDER_C00 Starting address: CYDEV_CLK_DIVIDER_C00 */
 275:.\Generated_Source\PSoC4/cyfitter_cfg.c **** 	CY_SET_XTND_REG32((void CYFAR *)(CYREG_CLK_DIVIDER_C00), 0x80000017u);
 451              		.loc 1 275 0
 452 0136 164B     		ldr	r3, .L16+72
 453 0138 164A     		ldr	r2, .L16+76
 454 013a 1A60     		str	r2, [r3]
 276:.\Generated_Source\PSoC4/cyfitter_cfg.c **** 
 277:.\Generated_Source\PSoC4/cyfitter_cfg.c **** 	/* CYDEV_CLK_DIVIDER_A01 Starting address: CYDEV_CLK_DIVIDER_A01 */
 278:.\Generated_Source\PSoC4/cyfitter_cfg.c **** 	CY_SET_XTND_REG32((void CYFAR *)(CYREG_CLK_DIVIDER_A01), 0x800001A0u);
 455              		.loc 1 278 0
 456 013c 164B     		ldr	r3, .L16+80
 457 013e 174A     		ldr	r2, .L16+84
ARM GAS  C:\Users\Jared\AppData\Local\Temp\ccItjWnl.s 			page 14


 458 0140 1A60     		str	r2, [r3]
 279:.\Generated_Source\PSoC4/cyfitter_cfg.c **** 
 280:.\Generated_Source\PSoC4/cyfitter_cfg.c **** }
 459              		.loc 1 280 0
 460 0142 BD46     		mov	sp, r7
 461              		@ sp needed for prologue
 462 0144 80BD     		pop	{r7, pc}
 463              	.L17:
 464 0146 C046     		.align	2
 465              	.L16:
 466 0148 00010B40 		.word	1074462976
 467 014c 2CFF0B40 		.word	1074528044
 468 0150 28FF0B40 		.word	1074528040
 469 0154 E5F1FF0F 		.word	268431845
 470 0158 FFFFFBFF 		.word	-262145
 471 015c 08020240 		.word	1073873416
 472 0160 0C020240 		.word	1073873420
 473 0164 20020240 		.word	1073873440
 474 0168 24020240 		.word	1073873444
 475 016c 28020240 		.word	1073873448
 476 0170 34020240 		.word	1073873460
 477 0174 3C020240 		.word	1073873468
 478 0178 08010B40 		.word	1074462984
 479 017c 04010B40 		.word	1074462980
 480 0180 00000240 		.word	1073872896
 481 0184 0B000080 		.word	-2147483637
 482 0188 40000240 		.word	1073872960
 483 018c 10000080 		.word	-2147483632
 484 0190 80000240 		.word	1073873024
 485 0194 17000080 		.word	-2147483625
 486 0198 04000240 		.word	1073872900
 487 019c A0010080 		.word	-2147483232
 488              		.cfi_endproc
 489              	.LFE5:
 490              		.size	ClockSetup, .-ClockSetup
 491              		.section	.text.AnalogSetDefault,"ax",%progbits
 492              		.align	2
 493              		.code	16
 494              		.thumb_func
 495              		.type	AnalogSetDefault, %function
 496              	AnalogSetDefault:
 497              	.LFB6:
 281:.\Generated_Source\PSoC4/cyfitter_cfg.c **** 
 282:.\Generated_Source\PSoC4/cyfitter_cfg.c **** 
 283:.\Generated_Source\PSoC4/cyfitter_cfg.c **** /* Analog API Functions */
 284:.\Generated_Source\PSoC4/cyfitter_cfg.c **** 
 285:.\Generated_Source\PSoC4/cyfitter_cfg.c **** 
 286:.\Generated_Source\PSoC4/cyfitter_cfg.c **** /*******************************************************************************
 287:.\Generated_Source\PSoC4/cyfitter_cfg.c **** * Function Name: AnalogSetDefault
 288:.\Generated_Source\PSoC4/cyfitter_cfg.c **** ********************************************************************************
 289:.\Generated_Source\PSoC4/cyfitter_cfg.c **** *
 290:.\Generated_Source\PSoC4/cyfitter_cfg.c **** * Summary:
 291:.\Generated_Source\PSoC4/cyfitter_cfg.c **** *  Sets up the analog portions of the chip to default values based on chip
 292:.\Generated_Source\PSoC4/cyfitter_cfg.c **** *  configuration options from the project.
 293:.\Generated_Source\PSoC4/cyfitter_cfg.c **** *
 294:.\Generated_Source\PSoC4/cyfitter_cfg.c **** * Parameters:
 295:.\Generated_Source\PSoC4/cyfitter_cfg.c **** *  void
ARM GAS  C:\Users\Jared\AppData\Local\Temp\ccItjWnl.s 			page 15


 296:.\Generated_Source\PSoC4/cyfitter_cfg.c **** *
 297:.\Generated_Source\PSoC4/cyfitter_cfg.c **** * Return:
 298:.\Generated_Source\PSoC4/cyfitter_cfg.c **** *  void
 299:.\Generated_Source\PSoC4/cyfitter_cfg.c **** *
 300:.\Generated_Source\PSoC4/cyfitter_cfg.c **** *******************************************************************************/
 301:.\Generated_Source\PSoC4/cyfitter_cfg.c **** static void AnalogSetDefault(void);
 302:.\Generated_Source\PSoC4/cyfitter_cfg.c **** static void AnalogSetDefault(void)
 303:.\Generated_Source\PSoC4/cyfitter_cfg.c **** {
 498              		.loc 1 303 0
 499              		.cfi_startproc
 500 0000 80B5     		push	{r7, lr}
 501              	.LCFI17:
 502              		.cfi_def_cfa_offset 8
 503              		.cfi_offset 7, -8
 504              		.cfi_offset 14, -4
 505 0002 00AF     		add	r7, sp, #0
 506              	.LCFI18:
 507              		.cfi_def_cfa_register 7
 304:.\Generated_Source\PSoC4/cyfitter_cfg.c **** }
 508              		.loc 1 304 0
 509 0004 BD46     		mov	sp, r7
 510              		@ sp needed for prologue
 511 0006 80BD     		pop	{r7, pc}
 512              		.cfi_endproc
 513              	.LFE6:
 514              		.size	AnalogSetDefault, .-AnalogSetDefault
 515              		.section	.psocinit
 516              		.align	2
 517              		.global	cyfitter_cfg
 518              		.code	16
 519              		.thumb_func
 520              		.type	cyfitter_cfg, %function
 521              	cyfitter_cfg:
 522              	.LFB7:
 305:.\Generated_Source\PSoC4/cyfitter_cfg.c **** 
 306:.\Generated_Source\PSoC4/cyfitter_cfg.c **** #define CY_AMUX_UNUSED CYREG_CM0_ROM_DWT
 307:.\Generated_Source\PSoC4/cyfitter_cfg.c **** 
 308:.\Generated_Source\PSoC4/cyfitter_cfg.c **** 
 309:.\Generated_Source\PSoC4/cyfitter_cfg.c **** /*******************************************************************************
 310:.\Generated_Source\PSoC4/cyfitter_cfg.c **** * Function Name: cyfitter_cfg
 311:.\Generated_Source\PSoC4/cyfitter_cfg.c **** ********************************************************************************
 312:.\Generated_Source\PSoC4/cyfitter_cfg.c **** * Summary:
 313:.\Generated_Source\PSoC4/cyfitter_cfg.c **** *  This function is called by the start-up code for the selected device. It
 314:.\Generated_Source\PSoC4/cyfitter_cfg.c **** *  performs all of the necessary device configuration based on the design
 315:.\Generated_Source\PSoC4/cyfitter_cfg.c **** *  settings.  This includes settings from the Design Wide Resources (DWR) such
 316:.\Generated_Source\PSoC4/cyfitter_cfg.c **** *  as Clocks and Pins as well as any component configuration that is necessary.
 317:.\Generated_Source\PSoC4/cyfitter_cfg.c **** *
 318:.\Generated_Source\PSoC4/cyfitter_cfg.c **** * Parameters:  
 319:.\Generated_Source\PSoC4/cyfitter_cfg.c **** *   void
 320:.\Generated_Source\PSoC4/cyfitter_cfg.c **** *
 321:.\Generated_Source\PSoC4/cyfitter_cfg.c **** * Return:
 322:.\Generated_Source\PSoC4/cyfitter_cfg.c **** *   void
 323:.\Generated_Source\PSoC4/cyfitter_cfg.c **** *
 324:.\Generated_Source\PSoC4/cyfitter_cfg.c **** *******************************************************************************/
 325:.\Generated_Source\PSoC4/cyfitter_cfg.c **** CY_CFG_SECTION
 326:.\Generated_Source\PSoC4/cyfitter_cfg.c **** void cyfitter_cfg(void)
 327:.\Generated_Source\PSoC4/cyfitter_cfg.c **** {
ARM GAS  C:\Users\Jared\AppData\Local\Temp\ccItjWnl.s 			page 16


 523              		.loc 1 327 0
 524              		.cfi_startproc
 525 01a0 80B5     		push	{r7, lr}
 526              	.LCFI19:
 527              		.cfi_def_cfa_offset 8
 528              		.cfi_offset 7, -8
 529              		.cfi_offset 14, -4
 530 01a2 86B0     		sub	sp, sp, #24
 531              	.LCFI20:
 532              		.cfi_def_cfa_offset 32
 533 01a4 00AF     		add	r7, sp, #0
 534              	.LCFI21:
 535              		.cfi_def_cfa_register 7
 328:.\Generated_Source\PSoC4/cyfitter_cfg.c **** 	/* Disable interrupts by default. Let user enable if/when they want. */
 329:.\Generated_Source\PSoC4/cyfitter_cfg.c **** 	CyGlobalIntDisable;
 536              		.loc 1 329 0
 537              	@ 329 ".\Generated_Source\PSoC4\cyfitter_cfg.c" 1
 538 01a6 72B6     		CPSID   i
 539              	@ 0 "" 2
 330:.\Generated_Source\PSoC4/cyfitter_cfg.c **** 
 331:.\Generated_Source\PSoC4/cyfitter_cfg.c **** 	/* Enable the clock in the interrupt controller for the routed interrupts */
 332:.\Generated_Source\PSoC4/cyfitter_cfg.c **** 	CY_SET_REG8((void *)CYREG_UDB_UDBIF_INT_CLK_CTL, 0x01u);
 540              		.loc 1 332 0
 541              		.code	16
 542 01a8 6D4B     		ldr	r3, .L24
 543 01aa 0122     		mov	r2, #1
 544 01ac 1A70     		strb	r2, [r3]
 545              	.LBB3:
 333:.\Generated_Source\PSoC4/cyfitter_cfg.c **** 	{
 334:.\Generated_Source\PSoC4/cyfitter_cfg.c **** 		static const uint32 CYCODE cy_cfg_addr_table[] = {
 335:.\Generated_Source\PSoC4/cyfitter_cfg.c **** 			0x400F0002u, /* Base address: 0x400F0000 Count: 2 */
 336:.\Generated_Source\PSoC4/cyfitter_cfg.c **** 			0x400F3015u, /* Base address: 0x400F3000 Count: 21 */
 337:.\Generated_Source\PSoC4/cyfitter_cfg.c **** 			0x400F3137u, /* Base address: 0x400F3100 Count: 55 */
 338:.\Generated_Source\PSoC4/cyfitter_cfg.c **** 			0x400F3268u, /* Base address: 0x400F3200 Count: 104 */
 339:.\Generated_Source\PSoC4/cyfitter_cfg.c **** 			0x400F3349u, /* Base address: 0x400F3300 Count: 73 */
 340:.\Generated_Source\PSoC4/cyfitter_cfg.c **** 			0x400F400Bu, /* Base address: 0x400F4000 Count: 11 */
 341:.\Generated_Source\PSoC4/cyfitter_cfg.c **** 			0x400F4110u, /* Base address: 0x400F4100 Count: 16 */
 342:.\Generated_Source\PSoC4/cyfitter_cfg.c **** 			0x400F4306u, /* Base address: 0x400F4300 Count: 6 */
 343:.\Generated_Source\PSoC4/cyfitter_cfg.c **** 			0x400F6002u, /* Base address: 0x400F6000 Count: 2 */
 344:.\Generated_Source\PSoC4/cyfitter_cfg.c **** 		};
 345:.\Generated_Source\PSoC4/cyfitter_cfg.c **** 
 346:.\Generated_Source\PSoC4/cyfitter_cfg.c **** 		static const cy_cfg_addrvalue_t CYCODE cy_cfg_data_table[] = {
 347:.\Generated_Source\PSoC4/cyfitter_cfg.c **** 			{0x80u, 0x0Fu},
 348:.\Generated_Source\PSoC4/cyfitter_cfg.c **** 			{0x82u, 0x2Fu},
 349:.\Generated_Source\PSoC4/cyfitter_cfg.c **** 			{0x80u, 0x29u},
 350:.\Generated_Source\PSoC4/cyfitter_cfg.c **** 			{0x82u, 0x16u},
 351:.\Generated_Source\PSoC4/cyfitter_cfg.c **** 			{0x94u, 0x02u},
 352:.\Generated_Source\PSoC4/cyfitter_cfg.c **** 			{0x96u, 0x0Du},
 353:.\Generated_Source\PSoC4/cyfitter_cfg.c **** 			{0xA4u, 0x23u},
 354:.\Generated_Source\PSoC4/cyfitter_cfg.c **** 			{0xA6u, 0x1Cu},
 355:.\Generated_Source\PSoC4/cyfitter_cfg.c **** 			{0xA8u, 0x35u},
 356:.\Generated_Source\PSoC4/cyfitter_cfg.c **** 			{0xAAu, 0x0Au},
 357:.\Generated_Source\PSoC4/cyfitter_cfg.c **** 			{0xB0u, 0x20u},
 358:.\Generated_Source\PSoC4/cyfitter_cfg.c **** 			{0xB2u, 0x0Fu},
 359:.\Generated_Source\PSoC4/cyfitter_cfg.c **** 			{0xB6u, 0x10u},
 360:.\Generated_Source\PSoC4/cyfitter_cfg.c **** 			{0xB9u, 0x20u},
 361:.\Generated_Source\PSoC4/cyfitter_cfg.c **** 			{0xBAu, 0x08u},
ARM GAS  C:\Users\Jared\AppData\Local\Temp\ccItjWnl.s 			page 17


 362:.\Generated_Source\PSoC4/cyfitter_cfg.c **** 			{0xBEu, 0x41u},
 363:.\Generated_Source\PSoC4/cyfitter_cfg.c **** 			{0xD4u, 0x09u},
 364:.\Generated_Source\PSoC4/cyfitter_cfg.c **** 			{0xD8u, 0x04u},
 365:.\Generated_Source\PSoC4/cyfitter_cfg.c **** 			{0xD9u, 0x04u},
 366:.\Generated_Source\PSoC4/cyfitter_cfg.c **** 			{0xDBu, 0x04u},
 367:.\Generated_Source\PSoC4/cyfitter_cfg.c **** 			{0xDCu, 0x31u},
 368:.\Generated_Source\PSoC4/cyfitter_cfg.c **** 			{0xDDu, 0x10u},
 369:.\Generated_Source\PSoC4/cyfitter_cfg.c **** 			{0xDFu, 0x01u},
 370:.\Generated_Source\PSoC4/cyfitter_cfg.c **** 			{0x00u, 0x18u},
 371:.\Generated_Source\PSoC4/cyfitter_cfg.c **** 			{0x01u, 0x42u},
 372:.\Generated_Source\PSoC4/cyfitter_cfg.c **** 			{0x05u, 0x03u},
 373:.\Generated_Source\PSoC4/cyfitter_cfg.c **** 			{0x06u, 0x80u},
 374:.\Generated_Source\PSoC4/cyfitter_cfg.c **** 			{0x09u, 0x08u},
 375:.\Generated_Source\PSoC4/cyfitter_cfg.c **** 			{0x0Au, 0x08u},
 376:.\Generated_Source\PSoC4/cyfitter_cfg.c **** 			{0x0Bu, 0xC1u},
 377:.\Generated_Source\PSoC4/cyfitter_cfg.c **** 			{0x0Eu, 0x10u},
 378:.\Generated_Source\PSoC4/cyfitter_cfg.c **** 			{0x10u, 0x28u},
 379:.\Generated_Source\PSoC4/cyfitter_cfg.c **** 			{0x11u, 0x01u},
 380:.\Generated_Source\PSoC4/cyfitter_cfg.c **** 			{0x12u, 0x02u},
 381:.\Generated_Source\PSoC4/cyfitter_cfg.c **** 			{0x17u, 0x28u},
 382:.\Generated_Source\PSoC4/cyfitter_cfg.c **** 			{0x18u, 0x14u},
 383:.\Generated_Source\PSoC4/cyfitter_cfg.c **** 			{0x1Bu, 0x10u},
 384:.\Generated_Source\PSoC4/cyfitter_cfg.c **** 			{0x1Du, 0x04u},
 385:.\Generated_Source\PSoC4/cyfitter_cfg.c **** 			{0x1Eu, 0x10u},
 386:.\Generated_Source\PSoC4/cyfitter_cfg.c **** 			{0x1Fu, 0x41u},
 387:.\Generated_Source\PSoC4/cyfitter_cfg.c **** 			{0x20u, 0x08u},
 388:.\Generated_Source\PSoC4/cyfitter_cfg.c **** 			{0x21u, 0x14u},
 389:.\Generated_Source\PSoC4/cyfitter_cfg.c **** 			{0x22u, 0x16u},
 390:.\Generated_Source\PSoC4/cyfitter_cfg.c **** 			{0x23u, 0x28u},
 391:.\Generated_Source\PSoC4/cyfitter_cfg.c **** 			{0x27u, 0x04u},
 392:.\Generated_Source\PSoC4/cyfitter_cfg.c **** 			{0x29u, 0x01u},
 393:.\Generated_Source\PSoC4/cyfitter_cfg.c **** 			{0x2Au, 0x44u},
 394:.\Generated_Source\PSoC4/cyfitter_cfg.c **** 			{0x32u, 0x16u},
 395:.\Generated_Source\PSoC4/cyfitter_cfg.c **** 			{0x33u, 0x40u},
 396:.\Generated_Source\PSoC4/cyfitter_cfg.c **** 			{0x39u, 0x54u},
 397:.\Generated_Source\PSoC4/cyfitter_cfg.c **** 			{0x40u, 0x04u},
 398:.\Generated_Source\PSoC4/cyfitter_cfg.c **** 			{0x41u, 0x04u},
 399:.\Generated_Source\PSoC4/cyfitter_cfg.c **** 			{0x42u, 0x81u},
 400:.\Generated_Source\PSoC4/cyfitter_cfg.c **** 			{0x48u, 0x44u},
 401:.\Generated_Source\PSoC4/cyfitter_cfg.c **** 			{0x49u, 0x08u},
 402:.\Generated_Source\PSoC4/cyfitter_cfg.c **** 			{0x4Au, 0x80u},
 403:.\Generated_Source\PSoC4/cyfitter_cfg.c **** 			{0x51u, 0x08u},
 404:.\Generated_Source\PSoC4/cyfitter_cfg.c **** 			{0x52u, 0x60u},
 405:.\Generated_Source\PSoC4/cyfitter_cfg.c **** 			{0x5Du, 0x08u},
 406:.\Generated_Source\PSoC4/cyfitter_cfg.c **** 			{0x5Fu, 0x52u},
 407:.\Generated_Source\PSoC4/cyfitter_cfg.c **** 			{0x61u, 0x04u},
 408:.\Generated_Source\PSoC4/cyfitter_cfg.c **** 			{0x67u, 0x02u},
 409:.\Generated_Source\PSoC4/cyfitter_cfg.c **** 			{0x68u, 0x28u},
 410:.\Generated_Source\PSoC4/cyfitter_cfg.c **** 			{0x69u, 0x55u},
 411:.\Generated_Source\PSoC4/cyfitter_cfg.c **** 			{0x6Bu, 0x40u},
 412:.\Generated_Source\PSoC4/cyfitter_cfg.c **** 			{0x73u, 0x01u},
 413:.\Generated_Source\PSoC4/cyfitter_cfg.c **** 			{0x80u, 0x10u},
 414:.\Generated_Source\PSoC4/cyfitter_cfg.c **** 			{0x8Fu, 0x12u},
 415:.\Generated_Source\PSoC4/cyfitter_cfg.c **** 			{0xC0u, 0x1Fu},
 416:.\Generated_Source\PSoC4/cyfitter_cfg.c **** 			{0xC2u, 0x27u},
 417:.\Generated_Source\PSoC4/cyfitter_cfg.c **** 			{0xC4u, 0x6Fu},
 418:.\Generated_Source\PSoC4/cyfitter_cfg.c **** 			{0xCAu, 0x0Bu},
ARM GAS  C:\Users\Jared\AppData\Local\Temp\ccItjWnl.s 			page 18


 419:.\Generated_Source\PSoC4/cyfitter_cfg.c **** 			{0xCCu, 0x0Fu},
 420:.\Generated_Source\PSoC4/cyfitter_cfg.c **** 			{0xCEu, 0x0Eu},
 421:.\Generated_Source\PSoC4/cyfitter_cfg.c **** 			{0xD0u, 0x0Fu},
 422:.\Generated_Source\PSoC4/cyfitter_cfg.c **** 			{0xD2u, 0x04u},
 423:.\Generated_Source\PSoC4/cyfitter_cfg.c **** 			{0xD6u, 0xF0u},
 424:.\Generated_Source\PSoC4/cyfitter_cfg.c **** 			{0xD8u, 0x12u},
 425:.\Generated_Source\PSoC4/cyfitter_cfg.c **** 			{0x01u, 0x04u},
 426:.\Generated_Source\PSoC4/cyfitter_cfg.c **** 			{0x0Fu, 0x01u},
 427:.\Generated_Source\PSoC4/cyfitter_cfg.c **** 			{0x15u, 0x08u},
 428:.\Generated_Source\PSoC4/cyfitter_cfg.c **** 			{0x18u, 0x08u},
 429:.\Generated_Source\PSoC4/cyfitter_cfg.c **** 			{0x1Bu, 0x07u},
 430:.\Generated_Source\PSoC4/cyfitter_cfg.c **** 			{0x1Eu, 0x0Eu},
 431:.\Generated_Source\PSoC4/cyfitter_cfg.c **** 			{0x2Eu, 0x03u},
 432:.\Generated_Source\PSoC4/cyfitter_cfg.c **** 			{0x30u, 0x08u},
 433:.\Generated_Source\PSoC4/cyfitter_cfg.c **** 			{0x31u, 0x02u},
 434:.\Generated_Source\PSoC4/cyfitter_cfg.c **** 			{0x32u, 0x01u},
 435:.\Generated_Source\PSoC4/cyfitter_cfg.c **** 			{0x33u, 0x01u},
 436:.\Generated_Source\PSoC4/cyfitter_cfg.c **** 			{0x34u, 0x04u},
 437:.\Generated_Source\PSoC4/cyfitter_cfg.c **** 			{0x35u, 0x08u},
 438:.\Generated_Source\PSoC4/cyfitter_cfg.c **** 			{0x36u, 0x02u},
 439:.\Generated_Source\PSoC4/cyfitter_cfg.c **** 			{0x37u, 0x04u},
 440:.\Generated_Source\PSoC4/cyfitter_cfg.c **** 			{0x3Fu, 0x10u},
 441:.\Generated_Source\PSoC4/cyfitter_cfg.c **** 			{0x40u, 0x30u},
 442:.\Generated_Source\PSoC4/cyfitter_cfg.c **** 			{0x41u, 0x05u},
 443:.\Generated_Source\PSoC4/cyfitter_cfg.c **** 			{0x49u, 0xFFu},
 444:.\Generated_Source\PSoC4/cyfitter_cfg.c **** 			{0x4Au, 0xFFu},
 445:.\Generated_Source\PSoC4/cyfitter_cfg.c **** 			{0x4Bu, 0xFFu},
 446:.\Generated_Source\PSoC4/cyfitter_cfg.c **** 			{0x4Du, 0xA0u},
 447:.\Generated_Source\PSoC4/cyfitter_cfg.c **** 			{0x4Fu, 0x04u},
 448:.\Generated_Source\PSoC4/cyfitter_cfg.c **** 			{0x50u, 0x18u},
 449:.\Generated_Source\PSoC4/cyfitter_cfg.c **** 			{0x52u, 0x80u},
 450:.\Generated_Source\PSoC4/cyfitter_cfg.c **** 			{0x54u, 0x27u},
 451:.\Generated_Source\PSoC4/cyfitter_cfg.c **** 			{0x58u, 0x04u},
 452:.\Generated_Source\PSoC4/cyfitter_cfg.c **** 			{0x59u, 0x04u},
 453:.\Generated_Source\PSoC4/cyfitter_cfg.c **** 			{0x5Au, 0x04u},
 454:.\Generated_Source\PSoC4/cyfitter_cfg.c **** 			{0x5Bu, 0x04u},
 455:.\Generated_Source\PSoC4/cyfitter_cfg.c **** 			{0x5Cu, 0x33u},
 456:.\Generated_Source\PSoC4/cyfitter_cfg.c **** 			{0x5Du, 0x33u},
 457:.\Generated_Source\PSoC4/cyfitter_cfg.c **** 			{0x5Fu, 0x01u},
 458:.\Generated_Source\PSoC4/cyfitter_cfg.c **** 			{0x60u, 0x40u},
 459:.\Generated_Source\PSoC4/cyfitter_cfg.c **** 			{0x62u, 0xC0u},
 460:.\Generated_Source\PSoC4/cyfitter_cfg.c **** 			{0x64u, 0x40u},
 461:.\Generated_Source\PSoC4/cyfitter_cfg.c **** 			{0x65u, 0x40u},
 462:.\Generated_Source\PSoC4/cyfitter_cfg.c **** 			{0x66u, 0xC0u},
 463:.\Generated_Source\PSoC4/cyfitter_cfg.c **** 			{0x68u, 0xC0u},
 464:.\Generated_Source\PSoC4/cyfitter_cfg.c **** 			{0x6Au, 0xC0u},
 465:.\Generated_Source\PSoC4/cyfitter_cfg.c **** 			{0x6Cu, 0xC0u},
 466:.\Generated_Source\PSoC4/cyfitter_cfg.c **** 			{0x6Eu, 0xC0u},
 467:.\Generated_Source\PSoC4/cyfitter_cfg.c **** 			{0x80u, 0x8Du},
 468:.\Generated_Source\PSoC4/cyfitter_cfg.c **** 			{0x84u, 0x62u},
 469:.\Generated_Source\PSoC4/cyfitter_cfg.c **** 			{0x85u, 0x14u},
 470:.\Generated_Source\PSoC4/cyfitter_cfg.c **** 			{0x86u, 0x14u},
 471:.\Generated_Source\PSoC4/cyfitter_cfg.c **** 			{0x87u, 0x2Bu},
 472:.\Generated_Source\PSoC4/cyfitter_cfg.c **** 			{0x88u, 0x8Du},
 473:.\Generated_Source\PSoC4/cyfitter_cfg.c **** 			{0x89u, 0x0Du},
 474:.\Generated_Source\PSoC4/cyfitter_cfg.c **** 			{0x8Bu, 0x10u},
 475:.\Generated_Source\PSoC4/cyfitter_cfg.c **** 			{0x8Eu, 0x80u},
ARM GAS  C:\Users\Jared\AppData\Local\Temp\ccItjWnl.s 			page 19


 476:.\Generated_Source\PSoC4/cyfitter_cfg.c **** 			{0x90u, 0x42u},
 477:.\Generated_Source\PSoC4/cyfitter_cfg.c **** 			{0x92u, 0x08u},
 478:.\Generated_Source\PSoC4/cyfitter_cfg.c **** 			{0x94u, 0x11u},
 479:.\Generated_Source\PSoC4/cyfitter_cfg.c **** 			{0x96u, 0x22u},
 480:.\Generated_Source\PSoC4/cyfitter_cfg.c **** 			{0x97u, 0x02u},
 481:.\Generated_Source\PSoC4/cyfitter_cfg.c **** 			{0x99u, 0x38u},
 482:.\Generated_Source\PSoC4/cyfitter_cfg.c **** 			{0x9Cu, 0x02u},
 483:.\Generated_Source\PSoC4/cyfitter_cfg.c **** 			{0x9Eu, 0x0Du},
 484:.\Generated_Source\PSoC4/cyfitter_cfg.c **** 			{0xA0u, 0x40u},
 485:.\Generated_Source\PSoC4/cyfitter_cfg.c **** 			{0xA1u, 0x10u},
 486:.\Generated_Source\PSoC4/cyfitter_cfg.c **** 			{0xA3u, 0x27u},
 487:.\Generated_Source\PSoC4/cyfitter_cfg.c **** 			{0xA4u, 0x8Du},
 488:.\Generated_Source\PSoC4/cyfitter_cfg.c **** 			{0xA8u, 0x8Du},
 489:.\Generated_Source\PSoC4/cyfitter_cfg.c **** 			{0xACu, 0x0Du},
 490:.\Generated_Source\PSoC4/cyfitter_cfg.c **** 			{0xAEu, 0x80u},
 491:.\Generated_Source\PSoC4/cyfitter_cfg.c **** 			{0xB0u, 0x70u},
 492:.\Generated_Source\PSoC4/cyfitter_cfg.c **** 			{0xB3u, 0x03u},
 493:.\Generated_Source\PSoC4/cyfitter_cfg.c **** 			{0xB4u, 0x80u},
 494:.\Generated_Source\PSoC4/cyfitter_cfg.c **** 			{0xB5u, 0x3Cu},
 495:.\Generated_Source\PSoC4/cyfitter_cfg.c **** 			{0xB6u, 0x0Fu},
 496:.\Generated_Source\PSoC4/cyfitter_cfg.c **** 			{0xB9u, 0x20u},
 497:.\Generated_Source\PSoC4/cyfitter_cfg.c **** 			{0xBAu, 0x82u},
 498:.\Generated_Source\PSoC4/cyfitter_cfg.c **** 			{0xBEu, 0x10u},
 499:.\Generated_Source\PSoC4/cyfitter_cfg.c **** 			{0xC0u, 0x30u},
 500:.\Generated_Source\PSoC4/cyfitter_cfg.c **** 			{0xC1u, 0x05u},
 501:.\Generated_Source\PSoC4/cyfitter_cfg.c **** 			{0xC5u, 0xD5u},
 502:.\Generated_Source\PSoC4/cyfitter_cfg.c **** 			{0xC6u, 0x01u},
 503:.\Generated_Source\PSoC4/cyfitter_cfg.c **** 			{0xC7u, 0x20u},
 504:.\Generated_Source\PSoC4/cyfitter_cfg.c **** 			{0xC8u, 0x27u},
 505:.\Generated_Source\PSoC4/cyfitter_cfg.c **** 			{0xC9u, 0xFFu},
 506:.\Generated_Source\PSoC4/cyfitter_cfg.c **** 			{0xCAu, 0xFFu},
 507:.\Generated_Source\PSoC4/cyfitter_cfg.c **** 			{0xCBu, 0xFFu},
 508:.\Generated_Source\PSoC4/cyfitter_cfg.c **** 			{0xCDu, 0xAFu},
 509:.\Generated_Source\PSoC4/cyfitter_cfg.c **** 			{0xCEu, 0x0Fu},
 510:.\Generated_Source\PSoC4/cyfitter_cfg.c **** 			{0xCFu, 0x04u},
 511:.\Generated_Source\PSoC4/cyfitter_cfg.c **** 			{0xD0u, 0x18u},
 512:.\Generated_Source\PSoC4/cyfitter_cfg.c **** 			{0xD4u, 0x40u},
 513:.\Generated_Source\PSoC4/cyfitter_cfg.c **** 			{0xD8u, 0x04u},
 514:.\Generated_Source\PSoC4/cyfitter_cfg.c **** 			{0xD9u, 0x04u},
 515:.\Generated_Source\PSoC4/cyfitter_cfg.c **** 			{0xDAu, 0x04u},
 516:.\Generated_Source\PSoC4/cyfitter_cfg.c **** 			{0xDBu, 0x04u},
 517:.\Generated_Source\PSoC4/cyfitter_cfg.c **** 			{0xDCu, 0x11u},
 518:.\Generated_Source\PSoC4/cyfitter_cfg.c **** 			{0xDDu, 0x13u},
 519:.\Generated_Source\PSoC4/cyfitter_cfg.c **** 			{0xDFu, 0x01u},
 520:.\Generated_Source\PSoC4/cyfitter_cfg.c **** 			{0xE0u, 0x40u},
 521:.\Generated_Source\PSoC4/cyfitter_cfg.c **** 			{0xE2u, 0xC0u},
 522:.\Generated_Source\PSoC4/cyfitter_cfg.c **** 			{0xE4u, 0x40u},
 523:.\Generated_Source\PSoC4/cyfitter_cfg.c **** 			{0xE5u, 0x40u},
 524:.\Generated_Source\PSoC4/cyfitter_cfg.c **** 			{0xE6u, 0xC0u},
 525:.\Generated_Source\PSoC4/cyfitter_cfg.c **** 			{0xE8u, 0xC0u},
 526:.\Generated_Source\PSoC4/cyfitter_cfg.c **** 			{0xEAu, 0xC0u},
 527:.\Generated_Source\PSoC4/cyfitter_cfg.c **** 			{0xECu, 0xC0u},
 528:.\Generated_Source\PSoC4/cyfitter_cfg.c **** 			{0xEEu, 0xC0u},
 529:.\Generated_Source\PSoC4/cyfitter_cfg.c **** 			{0x00u, 0x84u},
 530:.\Generated_Source\PSoC4/cyfitter_cfg.c **** 			{0x01u, 0x01u},
 531:.\Generated_Source\PSoC4/cyfitter_cfg.c **** 			{0x02u, 0x04u},
 532:.\Generated_Source\PSoC4/cyfitter_cfg.c **** 			{0x0Au, 0x41u},
ARM GAS  C:\Users\Jared\AppData\Local\Temp\ccItjWnl.s 			page 20


 533:.\Generated_Source\PSoC4/cyfitter_cfg.c **** 			{0x0Bu, 0x20u},
 534:.\Generated_Source\PSoC4/cyfitter_cfg.c **** 			{0x0Du, 0x40u},
 535:.\Generated_Source\PSoC4/cyfitter_cfg.c **** 			{0x0Eu, 0x04u},
 536:.\Generated_Source\PSoC4/cyfitter_cfg.c **** 			{0x10u, 0x28u},
 537:.\Generated_Source\PSoC4/cyfitter_cfg.c **** 			{0x11u, 0x40u},
 538:.\Generated_Source\PSoC4/cyfitter_cfg.c **** 			{0x12u, 0x40u},
 539:.\Generated_Source\PSoC4/cyfitter_cfg.c **** 			{0x17u, 0x40u},
 540:.\Generated_Source\PSoC4/cyfitter_cfg.c **** 			{0x19u, 0x01u},
 541:.\Generated_Source\PSoC4/cyfitter_cfg.c **** 			{0x1Au, 0x41u},
 542:.\Generated_Source\PSoC4/cyfitter_cfg.c **** 			{0x1Bu, 0x10u},
 543:.\Generated_Source\PSoC4/cyfitter_cfg.c **** 			{0x1Cu, 0x40u},
 544:.\Generated_Source\PSoC4/cyfitter_cfg.c **** 			{0x1Du, 0x48u},
 545:.\Generated_Source\PSoC4/cyfitter_cfg.c **** 			{0x1Eu, 0x04u},
 546:.\Generated_Source\PSoC4/cyfitter_cfg.c **** 			{0x22u, 0x14u},
 547:.\Generated_Source\PSoC4/cyfitter_cfg.c **** 			{0x24u, 0x02u},
 548:.\Generated_Source\PSoC4/cyfitter_cfg.c **** 			{0x25u, 0x11u},
 549:.\Generated_Source\PSoC4/cyfitter_cfg.c **** 			{0x26u, 0x04u},
 550:.\Generated_Source\PSoC4/cyfitter_cfg.c **** 			{0x29u, 0x01u},
 551:.\Generated_Source\PSoC4/cyfitter_cfg.c **** 			{0x32u, 0x14u},
 552:.\Generated_Source\PSoC4/cyfitter_cfg.c **** 			{0x36u, 0x10u},
 553:.\Generated_Source\PSoC4/cyfitter_cfg.c **** 			{0x37u, 0x04u},
 554:.\Generated_Source\PSoC4/cyfitter_cfg.c **** 			{0x38u, 0x04u},
 555:.\Generated_Source\PSoC4/cyfitter_cfg.c **** 			{0x39u, 0x28u},
 556:.\Generated_Source\PSoC4/cyfitter_cfg.c **** 			{0x3Bu, 0x20u},
 557:.\Generated_Source\PSoC4/cyfitter_cfg.c **** 			{0x3Du, 0x22u},
 558:.\Generated_Source\PSoC4/cyfitter_cfg.c **** 			{0x3Eu, 0xA0u},
 559:.\Generated_Source\PSoC4/cyfitter_cfg.c **** 			{0x41u, 0x08u},
 560:.\Generated_Source\PSoC4/cyfitter_cfg.c **** 			{0x45u, 0x08u},
 561:.\Generated_Source\PSoC4/cyfitter_cfg.c **** 			{0x49u, 0x02u},
 562:.\Generated_Source\PSoC4/cyfitter_cfg.c **** 			{0x4Au, 0x12u},
 563:.\Generated_Source\PSoC4/cyfitter_cfg.c **** 			{0x4Eu, 0x02u},
 564:.\Generated_Source\PSoC4/cyfitter_cfg.c **** 			{0x51u, 0x40u},
 565:.\Generated_Source\PSoC4/cyfitter_cfg.c **** 			{0x52u, 0x02u},
 566:.\Generated_Source\PSoC4/cyfitter_cfg.c **** 			{0x5Cu, 0x60u},
 567:.\Generated_Source\PSoC4/cyfitter_cfg.c **** 			{0x5Du, 0x02u},
 568:.\Generated_Source\PSoC4/cyfitter_cfg.c **** 			{0x5Fu, 0x04u},
 569:.\Generated_Source\PSoC4/cyfitter_cfg.c **** 			{0x62u, 0xA0u},
 570:.\Generated_Source\PSoC4/cyfitter_cfg.c **** 			{0x63u, 0x20u},
 571:.\Generated_Source\PSoC4/cyfitter_cfg.c **** 			{0x66u, 0x20u},
 572:.\Generated_Source\PSoC4/cyfitter_cfg.c **** 			{0x76u, 0x80u},
 573:.\Generated_Source\PSoC4/cyfitter_cfg.c **** 			{0x77u, 0x40u},
 574:.\Generated_Source\PSoC4/cyfitter_cfg.c **** 			{0x80u, 0x21u},
 575:.\Generated_Source\PSoC4/cyfitter_cfg.c **** 			{0x85u, 0x40u},
 576:.\Generated_Source\PSoC4/cyfitter_cfg.c **** 			{0x8Au, 0x06u},
 577:.\Generated_Source\PSoC4/cyfitter_cfg.c **** 			{0x8Bu, 0x04u},
 578:.\Generated_Source\PSoC4/cyfitter_cfg.c **** 			{0x8Eu, 0x04u},
 579:.\Generated_Source\PSoC4/cyfitter_cfg.c **** 			{0x91u, 0x69u},
 580:.\Generated_Source\PSoC4/cyfitter_cfg.c **** 			{0x9Au, 0x44u},
 581:.\Generated_Source\PSoC4/cyfitter_cfg.c **** 			{0x9Bu, 0x04u},
 582:.\Generated_Source\PSoC4/cyfitter_cfg.c **** 			{0x9Du, 0x01u},
 583:.\Generated_Source\PSoC4/cyfitter_cfg.c **** 			{0xA0u, 0x68u},
 584:.\Generated_Source\PSoC4/cyfitter_cfg.c **** 			{0xA2u, 0xA0u},
 585:.\Generated_Source\PSoC4/cyfitter_cfg.c **** 			{0xAAu, 0x04u},
 586:.\Generated_Source\PSoC4/cyfitter_cfg.c **** 			{0xABu, 0x01u},
 587:.\Generated_Source\PSoC4/cyfitter_cfg.c **** 			{0xAEu, 0x01u},
 588:.\Generated_Source\PSoC4/cyfitter_cfg.c **** 			{0xB2u, 0x40u},
 589:.\Generated_Source\PSoC4/cyfitter_cfg.c **** 			{0xB3u, 0x10u},
ARM GAS  C:\Users\Jared\AppData\Local\Temp\ccItjWnl.s 			page 21


 590:.\Generated_Source\PSoC4/cyfitter_cfg.c **** 			{0xC0u, 0x0Fu},
 591:.\Generated_Source\PSoC4/cyfitter_cfg.c **** 			{0xC2u, 0xCDu},
 592:.\Generated_Source\PSoC4/cyfitter_cfg.c **** 			{0xC4u, 0x8Fu},
 593:.\Generated_Source\PSoC4/cyfitter_cfg.c **** 			{0xCAu, 0x01u},
 594:.\Generated_Source\PSoC4/cyfitter_cfg.c **** 			{0xCCu, 0x66u},
 595:.\Generated_Source\PSoC4/cyfitter_cfg.c **** 			{0xCEu, 0x96u},
 596:.\Generated_Source\PSoC4/cyfitter_cfg.c **** 			{0xD0u, 0x42u},
 597:.\Generated_Source\PSoC4/cyfitter_cfg.c **** 			{0xD2u, 0x18u},
 598:.\Generated_Source\PSoC4/cyfitter_cfg.c **** 			{0xD6u, 0xF0u},
 599:.\Generated_Source\PSoC4/cyfitter_cfg.c **** 			{0xD8u, 0x2Eu},
 600:.\Generated_Source\PSoC4/cyfitter_cfg.c **** 			{0xE2u, 0xC4u},
 601:.\Generated_Source\PSoC4/cyfitter_cfg.c **** 			{0xE6u, 0x10u},
 602:.\Generated_Source\PSoC4/cyfitter_cfg.c **** 			{0x03u, 0x20u},
 603:.\Generated_Source\PSoC4/cyfitter_cfg.c **** 			{0x0Fu, 0x10u},
 604:.\Generated_Source\PSoC4/cyfitter_cfg.c **** 			{0x60u, 0x20u},
 605:.\Generated_Source\PSoC4/cyfitter_cfg.c **** 			{0x66u, 0x08u},
 606:.\Generated_Source\PSoC4/cyfitter_cfg.c **** 			{0x6Fu, 0x20u},
 607:.\Generated_Source\PSoC4/cyfitter_cfg.c **** 			{0x82u, 0x08u},
 608:.\Generated_Source\PSoC4/cyfitter_cfg.c **** 			{0xC0u, 0x10u},
 609:.\Generated_Source\PSoC4/cyfitter_cfg.c **** 			{0xC2u, 0x20u},
 610:.\Generated_Source\PSoC4/cyfitter_cfg.c **** 			{0xD8u, 0xC0u},
 611:.\Generated_Source\PSoC4/cyfitter_cfg.c **** 			{0xDAu, 0x80u},
 612:.\Generated_Source\PSoC4/cyfitter_cfg.c **** 			{0xE6u, 0x80u},
 613:.\Generated_Source\PSoC4/cyfitter_cfg.c **** 			{0x52u, 0x08u},
 614:.\Generated_Source\PSoC4/cyfitter_cfg.c **** 			{0x56u, 0x02u},
 615:.\Generated_Source\PSoC4/cyfitter_cfg.c **** 			{0x57u, 0x20u},
 616:.\Generated_Source\PSoC4/cyfitter_cfg.c **** 			{0x5Bu, 0x20u},
 617:.\Generated_Source\PSoC4/cyfitter_cfg.c **** 			{0x82u, 0x08u},
 618:.\Generated_Source\PSoC4/cyfitter_cfg.c **** 			{0x87u, 0x20u},
 619:.\Generated_Source\PSoC4/cyfitter_cfg.c **** 			{0x88u, 0x20u},
 620:.\Generated_Source\PSoC4/cyfitter_cfg.c **** 			{0x8Eu, 0x02u},
 621:.\Generated_Source\PSoC4/cyfitter_cfg.c **** 			{0x8Fu, 0x20u},
 622:.\Generated_Source\PSoC4/cyfitter_cfg.c **** 			{0x9Cu, 0x20u},
 623:.\Generated_Source\PSoC4/cyfitter_cfg.c **** 			{0xAFu, 0x10u},
 624:.\Generated_Source\PSoC4/cyfitter_cfg.c **** 			{0xD4u, 0xE0u},
 625:.\Generated_Source\PSoC4/cyfitter_cfg.c **** 			{0xD6u, 0x20u},
 626:.\Generated_Source\PSoC4/cyfitter_cfg.c **** 			{0xE2u, 0x20u},
 627:.\Generated_Source\PSoC4/cyfitter_cfg.c **** 			{0xE6u, 0x10u},
 628:.\Generated_Source\PSoC4/cyfitter_cfg.c **** 			{0xE8u, 0x10u},
 629:.\Generated_Source\PSoC4/cyfitter_cfg.c **** 			{0x18u, 0x80u},
 630:.\Generated_Source\PSoC4/cyfitter_cfg.c **** 			{0x1Fu, 0x02u},
 631:.\Generated_Source\PSoC4/cyfitter_cfg.c **** 			{0x83u, 0x02u},
 632:.\Generated_Source\PSoC4/cyfitter_cfg.c **** 			{0x8Cu, 0x40u},
 633:.\Generated_Source\PSoC4/cyfitter_cfg.c **** 			{0xC6u, 0x0Cu},
 634:.\Generated_Source\PSoC4/cyfitter_cfg.c **** 			{0xE6u, 0x08u},
 635:.\Generated_Source\PSoC4/cyfitter_cfg.c **** 			{0x10u, 0x0Au},
 636:.\Generated_Source\PSoC4/cyfitter_cfg.c **** 			{0x11u, 0x01u},
 637:.\Generated_Source\PSoC4/cyfitter_cfg.c **** 		};
 638:.\Generated_Source\PSoC4/cyfitter_cfg.c **** 
 639:.\Generated_Source\PSoC4/cyfitter_cfg.c **** 
 640:.\Generated_Source\PSoC4/cyfitter_cfg.c **** 
 641:.\Generated_Source\PSoC4/cyfitter_cfg.c **** 		CYPACKED typedef struct {
 642:.\Generated_Source\PSoC4/cyfitter_cfg.c **** 			void CYFAR *address;
 643:.\Generated_Source\PSoC4/cyfitter_cfg.c **** 			uint16 size;
 644:.\Generated_Source\PSoC4/cyfitter_cfg.c **** 		} CYPACKED_ATTR cfg_memset_t;
 645:.\Generated_Source\PSoC4/cyfitter_cfg.c **** 
 646:.\Generated_Source\PSoC4/cyfitter_cfg.c **** 
ARM GAS  C:\Users\Jared\AppData\Local\Temp\ccItjWnl.s 			page 22


 647:.\Generated_Source\PSoC4/cyfitter_cfg.c **** 		CYPACKED typedef struct {
 648:.\Generated_Source\PSoC4/cyfitter_cfg.c **** 			void CYFAR *dest;
 649:.\Generated_Source\PSoC4/cyfitter_cfg.c **** 			const void CYCODE *src;
 650:.\Generated_Source\PSoC4/cyfitter_cfg.c **** 			uint16 size;
 651:.\Generated_Source\PSoC4/cyfitter_cfg.c **** 		} CYPACKED_ATTR cfg_memcpy_t;
 652:.\Generated_Source\PSoC4/cyfitter_cfg.c **** 
 653:.\Generated_Source\PSoC4/cyfitter_cfg.c **** 		static const cfg_memset_t CYCODE cfg_memset_list [] = {
 654:.\Generated_Source\PSoC4/cyfitter_cfg.c **** 			/* address, size */
 655:.\Generated_Source\PSoC4/cyfitter_cfg.c **** 			{(void CYFAR *)(CYDEV_UDB_P0_U1_BASE), 896u},
 656:.\Generated_Source\PSoC4/cyfitter_cfg.c **** 			{(void CYFAR *)(CYDEV_UDB_DSI0_BASE), 1024u},
 657:.\Generated_Source\PSoC4/cyfitter_cfg.c **** 		};
 658:.\Generated_Source\PSoC4/cyfitter_cfg.c **** 
 659:.\Generated_Source\PSoC4/cyfitter_cfg.c **** 		/* UDB_0_1_0_CONFIG Address: CYDEV_UDB_P0_U0_BASE Size (bytes): 128 */
 660:.\Generated_Source\PSoC4/cyfitter_cfg.c **** 		static const uint8 CYCODE BS_UDB_0_1_0_CONFIG_VAL[] = {
 661:.\Generated_Source\PSoC4/cyfitter_cfg.c **** 			0x56u, 0x00u, 0x09u, 0x00u, 0x07u, 0x92u, 0x38u, 0x04u, 0x01u, 0x04u, 0x00u, 0x92u, 0x04u, 0x92u
 662:.\Generated_Source\PSoC4/cyfitter_cfg.c **** 			0x00u, 0x32u, 0x00u, 0xC0u, 0x60u, 0x21u, 0x00u, 0xD2u, 0x0Au, 0x07u, 0x10u, 0x68u, 0x84u, 0x96u
 663:.\Generated_Source\PSoC4/cyfitter_cfg.c **** 			0x84u, 0xFAu, 0x00u, 0x05u, 0x84u, 0x96u, 0x00u, 0x00u, 0x80u, 0x00u, 0x04u, 0x00u, 0x04u, 0x04u
 664:.\Generated_Source\PSoC4/cyfitter_cfg.c **** 			0x00u, 0xE0u, 0x7Fu, 0x1Du, 0x80u, 0x07u, 0x00u, 0x00u, 0x08u, 0x00u, 0x00u, 0x0Au, 0x00u, 0x00u
 665:.\Generated_Source\PSoC4/cyfitter_cfg.c **** 			0x34u, 0x06u, 0x20u, 0x00u, 0x01u, 0xDEu, 0xFCu, 0x0Bu, 0x1Fu, 0xFFu, 0xFFu, 0xFFu, 0x22u, 0x00u
 666:.\Generated_Source\PSoC4/cyfitter_cfg.c **** 			0x04u, 0x00u, 0x00u, 0x00u, 0x00u, 0x00u, 0x02u, 0x28u, 0x04u, 0x04u, 0x04u, 0x04u, 0x11u, 0x11u
 667:.\Generated_Source\PSoC4/cyfitter_cfg.c **** 			0x00u, 0x00u, 0xC0u, 0x00u, 0x40u, 0x01u, 0x10u, 0x11u, 0xC0u, 0x01u, 0x00u, 0x11u, 0x40u, 0x01u
 668:.\Generated_Source\PSoC4/cyfitter_cfg.c **** 			0x00u, 0x00u, 0x00u, 0x00u, 0x00u, 0x00u, 0x00u, 0x00u, 0x00u, 0x00u, 0x00u, 0x00u, 0x00u, 0x00u
 669:.\Generated_Source\PSoC4/cyfitter_cfg.c **** 
 670:.\Generated_Source\PSoC4/cyfitter_cfg.c **** 		static const cfg_memcpy_t CYCODE cfg_memcpy_list [] = {
 671:.\Generated_Source\PSoC4/cyfitter_cfg.c **** 			/* dest, src, size */
 672:.\Generated_Source\PSoC4/cyfitter_cfg.c **** 			{(void CYFAR *)(CYDEV_UDB_P0_U0_BASE), BS_UDB_0_1_0_CONFIG_VAL, 128u},
 673:.\Generated_Source\PSoC4/cyfitter_cfg.c **** 		};
 674:.\Generated_Source\PSoC4/cyfitter_cfg.c **** 
 675:.\Generated_Source\PSoC4/cyfitter_cfg.c **** 		uint8 CYDATA i;
 676:.\Generated_Source\PSoC4/cyfitter_cfg.c **** 
 677:.\Generated_Source\PSoC4/cyfitter_cfg.c **** 		/* Zero out critical memory blocks before beginning configuration */
 678:.\Generated_Source\PSoC4/cyfitter_cfg.c **** 		for (i = 0u; i < (sizeof(cfg_memset_list)/sizeof(cfg_memset_list[0])); i++)
 546              		.loc 1 678 0
 547 01ae 3B1C     		mov	r3, r7
 548 01b0 1733     		add	r3, r3, #23
 549 01b2 0022     		mov	r2, #0
 550 01b4 1A70     		strb	r2, [r3]
 551 01b6 26E0     		b	.L20
 552              	.L21:
 553              	.LBB4:
 679:.\Generated_Source\PSoC4/cyfitter_cfg.c **** 		{
 680:.\Generated_Source\PSoC4/cyfitter_cfg.c **** 			const cfg_memset_t CYCODE * CYDATA ms = &cfg_memset_list[i];
 554              		.loc 1 680 0 discriminator 2
 555 01b8 3B1C     		mov	r3, r7
 556 01ba 1733     		add	r3, r3, #23
 557 01bc 1A78     		ldrb	r2, [r3]
 558 01be 131C     		mov	r3, r2
 559 01c0 5B00     		lsl	r3, r3, #1
 560 01c2 9B18     		add	r3, r3, r2
 561 01c4 5B00     		lsl	r3, r3, #1
 562 01c6 674A     		ldr	r2, .L24+4
 563 01c8 9B18     		add	r3, r3, r2
 564 01ca 3B61     		str	r3, [r7, #16]
 681:.\Generated_Source\PSoC4/cyfitter_cfg.c **** 			CYMEMZERO(ms->address, (uint32)(ms->size));
 565              		.loc 1 681 0 discriminator 2
 566 01cc 3B69     		ldr	r3, [r7, #16]
 567 01ce 1A78     		ldrb	r2, [r3]
ARM GAS  C:\Users\Jared\AppData\Local\Temp\ccItjWnl.s 			page 23


 568 01d0 5978     		ldrb	r1, [r3, #1]
 569 01d2 0902     		lsl	r1, r1, #8
 570 01d4 0A43     		orr	r2, r1
 571 01d6 9978     		ldrb	r1, [r3, #2]
 572 01d8 0904     		lsl	r1, r1, #16
 573 01da 0A43     		orr	r2, r1
 574 01dc DB78     		ldrb	r3, [r3, #3]
 575 01de 1B06     		lsl	r3, r3, #24
 576 01e0 1343     		orr	r3, r2
 577 01e2 1A1C     		mov	r2, r3
 578 01e4 3B69     		ldr	r3, [r7, #16]
 579 01e6 1979     		ldrb	r1, [r3, #4]
 580 01e8 5B79     		ldrb	r3, [r3, #5]
 581 01ea 1B02     		lsl	r3, r3, #8
 582 01ec 0B43     		orr	r3, r1
 583 01ee 9BB2     		uxth	r3, r3
 584 01f0 101C     		mov	r0, r2
 585 01f2 191C     		mov	r1, r3
 586 01f4 FFF7FEFF 		bl	CYMEMZERO
 587              	.LBE4:
 678:.\Generated_Source\PSoC4/cyfitter_cfg.c **** 		for (i = 0u; i < (sizeof(cfg_memset_list)/sizeof(cfg_memset_list[0])); i++)
 588              		.loc 1 678 0 discriminator 2
 589 01f8 3B1C     		mov	r3, r7
 590 01fa 1733     		add	r3, r3, #23
 591 01fc 3A1C     		mov	r2, r7
 592 01fe 1732     		add	r2, r2, #23
 593 0200 1278     		ldrb	r2, [r2]
 594 0202 0132     		add	r2, r2, #1
 595 0204 1A70     		strb	r2, [r3]
 596              	.L20:
 678:.\Generated_Source\PSoC4/cyfitter_cfg.c **** 		for (i = 0u; i < (sizeof(cfg_memset_list)/sizeof(cfg_memset_list[0])); i++)
 597              		.loc 1 678 0 is_stmt 0 discriminator 1
 598 0206 3B1C     		mov	r3, r7
 599 0208 1733     		add	r3, r3, #23
 600 020a 1B78     		ldrb	r3, [r3]
 601 020c 012B     		cmp	r3, #1
 602 020e D3D9     		bls	.L21
 682:.\Generated_Source\PSoC4/cyfitter_cfg.c **** 		}
 683:.\Generated_Source\PSoC4/cyfitter_cfg.c **** 
 684:.\Generated_Source\PSoC4/cyfitter_cfg.c **** 		/* Copy device configuration data into registers */
 685:.\Generated_Source\PSoC4/cyfitter_cfg.c **** 		for (i = 0u; i < (sizeof(cfg_memcpy_list)/sizeof(cfg_memcpy_list[0])); i++)
 603              		.loc 1 685 0 is_stmt 1
 604 0210 3B1C     		mov	r3, r7
 605 0212 1733     		add	r3, r3, #23
 606 0214 0022     		mov	r2, #0
 607 0216 1A70     		strb	r2, [r3]
 608 0218 38E0     		b	.L22
 609              	.L23:
 610              	.LBB5:
 686:.\Generated_Source\PSoC4/cyfitter_cfg.c **** 		{
 687:.\Generated_Source\PSoC4/cyfitter_cfg.c **** 			const cfg_memcpy_t CYCODE * CYDATA mc = &cfg_memcpy_list[i];
 611              		.loc 1 687 0 discriminator 2
 612 021a 3B1C     		mov	r3, r7
 613 021c 1733     		add	r3, r3, #23
 614 021e 1A78     		ldrb	r2, [r3]
 615 0220 131C     		mov	r3, r2
 616 0222 9B00     		lsl	r3, r3, #2
ARM GAS  C:\Users\Jared\AppData\Local\Temp\ccItjWnl.s 			page 24


 617 0224 9B18     		add	r3, r3, r2
 618 0226 5B00     		lsl	r3, r3, #1
 619 0228 4F4A     		ldr	r2, .L24+8
 620 022a 9B18     		add	r3, r3, r2
 621 022c FB60     		str	r3, [r7, #12]
 688:.\Generated_Source\PSoC4/cyfitter_cfg.c **** 			void * CYDATA destPtr = mc->dest;
 622              		.loc 1 688 0 discriminator 2
 623 022e FB68     		ldr	r3, [r7, #12]
 624 0230 1A78     		ldrb	r2, [r3]
 625 0232 5978     		ldrb	r1, [r3, #1]
 626 0234 0902     		lsl	r1, r1, #8
 627 0236 0A43     		orr	r2, r1
 628 0238 9978     		ldrb	r1, [r3, #2]
 629 023a 0904     		lsl	r1, r1, #16
 630 023c 0A43     		orr	r2, r1
 631 023e DB78     		ldrb	r3, [r3, #3]
 632 0240 1B06     		lsl	r3, r3, #24
 633 0242 1343     		orr	r3, r2
 634 0244 BB60     		str	r3, [r7, #8]
 689:.\Generated_Source\PSoC4/cyfitter_cfg.c **** 			const void CYCODE * CYDATA srcPtr = mc->src;
 635              		.loc 1 689 0 discriminator 2
 636 0246 FB68     		ldr	r3, [r7, #12]
 637 0248 1A79     		ldrb	r2, [r3, #4]
 638 024a 5979     		ldrb	r1, [r3, #5]
 639 024c 0902     		lsl	r1, r1, #8
 640 024e 0A43     		orr	r2, r1
 641 0250 9979     		ldrb	r1, [r3, #6]
 642 0252 0904     		lsl	r1, r1, #16
 643 0254 0A43     		orr	r2, r1
 644 0256 DB79     		ldrb	r3, [r3, #7]
 645 0258 1B06     		lsl	r3, r3, #24
 646 025a 1343     		orr	r3, r2
 647 025c 7B60     		str	r3, [r7, #4]
 690:.\Generated_Source\PSoC4/cyfitter_cfg.c **** 			uint16 CYDATA numBytes = mc->size;
 648              		.loc 1 690 0 discriminator 2
 649 025e BA1C     		add	r2, r7, #2
 650 0260 FB68     		ldr	r3, [r7, #12]
 651 0262 197A     		ldrb	r1, [r3, #8]
 652 0264 5B7A     		ldrb	r3, [r3, #9]
 653 0266 1B02     		lsl	r3, r3, #8
 654 0268 0B43     		orr	r3, r1
 655 026a 1380     		strh	r3, [r2]
 691:.\Generated_Source\PSoC4/cyfitter_cfg.c **** 			CYCONFIGCPYCODE(destPtr, srcPtr, numBytes);
 656              		.loc 1 691 0 discriminator 2
 657 026c BB1C     		add	r3, r7, #2
 658 026e 1B88     		ldrh	r3, [r3]
 659 0270 B968     		ldr	r1, [r7, #8]
 660 0272 7A68     		ldr	r2, [r7, #4]
 661 0274 081C     		mov	r0, r1
 662 0276 111C     		mov	r1, r2
 663 0278 1A1C     		mov	r2, r3
 664 027a FFF7FEFF 		bl	CYCONFIGCPYCODE
 665              	.LBE5:
 685:.\Generated_Source\PSoC4/cyfitter_cfg.c **** 		for (i = 0u; i < (sizeof(cfg_memcpy_list)/sizeof(cfg_memcpy_list[0])); i++)
 666              		.loc 1 685 0 discriminator 2
 667 027e 3B1C     		mov	r3, r7
 668 0280 1733     		add	r3, r3, #23
ARM GAS  C:\Users\Jared\AppData\Local\Temp\ccItjWnl.s 			page 25


 669 0282 3A1C     		mov	r2, r7
 670 0284 1732     		add	r2, r2, #23
 671 0286 1278     		ldrb	r2, [r2]
 672 0288 0132     		add	r2, r2, #1
 673 028a 1A70     		strb	r2, [r3]
 674              	.L22:
 685:.\Generated_Source\PSoC4/cyfitter_cfg.c **** 		for (i = 0u; i < (sizeof(cfg_memcpy_list)/sizeof(cfg_memcpy_list[0])); i++)
 675              		.loc 1 685 0 is_stmt 0 discriminator 1
 676 028c 3B1C     		mov	r3, r7
 677 028e 1733     		add	r3, r3, #23
 678 0290 1B78     		ldrb	r3, [r3]
 679 0292 002B     		cmp	r3, #0
 680 0294 C1D0     		beq	.L23
 692:.\Generated_Source\PSoC4/cyfitter_cfg.c **** 		}
 693:.\Generated_Source\PSoC4/cyfitter_cfg.c **** 
 694:.\Generated_Source\PSoC4/cyfitter_cfg.c **** 		cfg_write_bytes32(cy_cfg_addr_table, cy_cfg_data_table);
 681              		.loc 1 694 0 is_stmt 1
 682 0296 354A     		ldr	r2, .L24+12
 683 0298 354B     		ldr	r3, .L24+16
 684 029a 101C     		mov	r0, r2
 685 029c 191C     		mov	r1, r3
 686 029e FFF7FEFF 		bl	cfg_write_bytes32
 695:.\Generated_Source\PSoC4/cyfitter_cfg.c **** 
 696:.\Generated_Source\PSoC4/cyfitter_cfg.c **** 		/* Perform normal device configuration. Order is not critical for these items. */
 697:.\Generated_Source\PSoC4/cyfitter_cfg.c **** 		CY_SET_XTND_REG16((void CYFAR *)(CYREG_UDB_BCTL0_DRV), 0x0A00u);
 687              		.loc 1 697 0
 688 02a2 344B     		ldr	r3, .L24+20
 689 02a4 A022     		mov	r2, #160
 690 02a6 1201     		lsl	r2, r2, #4
 691 02a8 1A80     		strh	r2, [r3]
 698:.\Generated_Source\PSoC4/cyfitter_cfg.c **** 		CY_SET_XTND_REG8((void CYFAR *)(CYREG_UDB_BCTL0_DRV + 0x2u), 0x01u);
 692              		.loc 1 698 0
 693 02aa 334B     		ldr	r3, .L24+24
 694 02ac 0122     		mov	r2, #1
 695 02ae 1A70     		strb	r2, [r3]
 699:.\Generated_Source\PSoC4/cyfitter_cfg.c **** 
 700:.\Generated_Source\PSoC4/cyfitter_cfg.c **** 		/* HSIOM Starting address: CYDEV_HSIOM_BASE */
 701:.\Generated_Source\PSoC4/cyfitter_cfg.c **** 		CY_SET_XTND_REG32((void CYFAR *)(CYDEV_HSIOM_BASE), 0x03030000u);
 696              		.loc 1 701 0
 697 02b0 324B     		ldr	r3, .L24+28
 698 02b2 334A     		ldr	r2, .L24+32
 699 02b4 1A60     		str	r2, [r3]
 702:.\Generated_Source\PSoC4/cyfitter_cfg.c **** 		CY_SET_XTND_REG32((void CYFAR *)(CYREG_HSIOM_PORT_SEL1), 0x00003333u);
 700              		.loc 1 702 0
 701 02b6 334B     		ldr	r3, .L24+36
 702 02b8 334A     		ldr	r2, .L24+40
 703 02ba 1A60     		str	r2, [r3]
 703:.\Generated_Source\PSoC4/cyfitter_cfg.c **** 		CY_SET_XTND_REG32((void CYFAR *)(CYREG_HSIOM_PORT_SEL3), 0x0000EE09u);
 704              		.loc 1 703 0
 705 02bc 334B     		ldr	r3, .L24+44
 706 02be 344A     		ldr	r2, .L24+48
 707 02c0 1A60     		str	r2, [r3]
 704:.\Generated_Source\PSoC4/cyfitter_cfg.c **** 		CY_SET_XTND_REG32((void CYFAR *)(CYREG_HSIOM_PORT_SEL4), 0x00000099u);
 708              		.loc 1 704 0
 709 02c2 344B     		ldr	r3, .L24+52
 710 02c4 9922     		mov	r2, #153
 711 02c6 1A60     		str	r2, [r3]
ARM GAS  C:\Users\Jared\AppData\Local\Temp\ccItjWnl.s 			page 26


 705:.\Generated_Source\PSoC4/cyfitter_cfg.c **** 
 706:.\Generated_Source\PSoC4/cyfitter_cfg.c **** 		/* IOPINS0_0 Starting address: CYDEV_PRT0_DR */
 707:.\Generated_Source\PSoC4/cyfitter_cfg.c **** 		CY_SET_XTND_REG32((void CYFAR *)(CYREG_PRT0_DR), 0x00000058u);
 712              		.loc 1 707 0
 713 02c8 334B     		ldr	r3, .L24+56
 714 02ca 5822     		mov	r2, #88
 715 02cc 1A60     		str	r2, [r3]
 708:.\Generated_Source\PSoC4/cyfitter_cfg.c **** 		CY_SET_XTND_REG32((void CYFAR *)(CYREG_PRT0_PC), 0x0018ED89u);
 716              		.loc 1 708 0
 717 02ce 334B     		ldr	r3, .L24+60
 718 02d0 334A     		ldr	r2, .L24+64
 719 02d2 1A60     		str	r2, [r3]
 709:.\Generated_Source\PSoC4/cyfitter_cfg.c **** 
 710:.\Generated_Source\PSoC4/cyfitter_cfg.c **** 		/* IOPINS0_1 Starting address: CYDEV_PRT1_DR */
 711:.\Generated_Source\PSoC4/cyfitter_cfg.c **** 		CY_SET_XTND_REG32((void CYFAR *)(CYREG_PRT1_DR), 0x0000000Fu);
 720              		.loc 1 711 0
 721 02d4 334B     		ldr	r3, .L24+68
 722 02d6 0F22     		mov	r2, #15
 723 02d8 1A60     		str	r2, [r3]
 712:.\Generated_Source\PSoC4/cyfitter_cfg.c **** 		CY_SET_XTND_REG32((void CYFAR *)(CYREG_PRT1_PC), 0x00000DB6u);
 724              		.loc 1 712 0
 725 02da 334B     		ldr	r3, .L24+72
 726 02dc 334A     		ldr	r2, .L24+76
 727 02de 1A60     		str	r2, [r3]
 713:.\Generated_Source\PSoC4/cyfitter_cfg.c **** 
 714:.\Generated_Source\PSoC4/cyfitter_cfg.c **** 		/* IOPINS0_3 Starting address: CYDEV_PRT3_DR */
 715:.\Generated_Source\PSoC4/cyfitter_cfg.c **** 		CY_SET_XTND_REG32((void CYFAR *)(CYREG_PRT3_PC), 0x00000D81u);
 728              		.loc 1 715 0
 729 02e0 334B     		ldr	r3, .L24+80
 730 02e2 344A     		ldr	r2, .L24+84
 731 02e4 1A60     		str	r2, [r3]
 716:.\Generated_Source\PSoC4/cyfitter_cfg.c **** 
 717:.\Generated_Source\PSoC4/cyfitter_cfg.c **** 		/* IOPINS0_4 Starting address: CYDEV_PRT4_DR */
 718:.\Generated_Source\PSoC4/cyfitter_cfg.c **** 		CY_SET_XTND_REG32((void CYFAR *)(CYREG_PRT4_DR), 0x00000002u);
 732              		.loc 1 718 0
 733 02e6 344B     		ldr	r3, .L24+88
 734 02e8 0222     		mov	r2, #2
 735 02ea 1A60     		str	r2, [r3]
 719:.\Generated_Source\PSoC4/cyfitter_cfg.c **** 		CY_SET_XTND_REG32((void CYFAR *)(CYREG_PRT4_PC), 0x00000031u);
 736              		.loc 1 719 0
 737 02ec 334B     		ldr	r3, .L24+92
 738 02ee 3122     		mov	r2, #49
 739 02f0 1A60     		str	r2, [r3]
 720:.\Generated_Source\PSoC4/cyfitter_cfg.c **** 		CY_SET_XTND_REG32((void CYFAR *)(CYREG_PRT4_PC2), 0x00000002u);
 740              		.loc 1 720 0
 741 02f2 334B     		ldr	r3, .L24+96
 742 02f4 0222     		mov	r2, #2
 743 02f6 1A60     		str	r2, [r3]
 721:.\Generated_Source\PSoC4/cyfitter_cfg.c **** 
 722:.\Generated_Source\PSoC4/cyfitter_cfg.c **** 		/* UDB_PA_0 Starting address: CYDEV_UDB_PA0_BASE */
 723:.\Generated_Source\PSoC4/cyfitter_cfg.c **** 		CY_SET_XTND_REG32((void CYFAR *)(CYDEV_UDB_PA0_BASE), 0x00990004u);
 744              		.loc 1 723 0
 745 02f8 324B     		ldr	r3, .L24+100
 746 02fa 334A     		ldr	r2, .L24+104
 747 02fc 1A60     		str	r2, [r3]
 724:.\Generated_Source\PSoC4/cyfitter_cfg.c **** 		CY_SET_XTND_REG32((void CYFAR *)(CYREG_UDB_PA0_CFG4), 0x080A0000u);
 748              		.loc 1 724 0
ARM GAS  C:\Users\Jared\AppData\Local\Temp\ccItjWnl.s 			page 27


 749 02fe 334B     		ldr	r3, .L24+108
 750 0300 334A     		ldr	r2, .L24+112
 751 0302 1A60     		str	r2, [r3]
 725:.\Generated_Source\PSoC4/cyfitter_cfg.c **** 		CY_SET_XTND_REG32((void CYFAR *)(CYREG_UDB_PA0_CFG8), 0x23000000u);
 752              		.loc 1 725 0
 753 0304 334B     		ldr	r3, .L24+116
 754 0306 8C22     		mov	r2, #140
 755 0308 9205     		lsl	r2, r2, #22
 756 030a 1A60     		str	r2, [r3]
 726:.\Generated_Source\PSoC4/cyfitter_cfg.c **** 
 727:.\Generated_Source\PSoC4/cyfitter_cfg.c **** 		/* UDB_PA_1 Starting address: CYDEV_UDB_PA1_BASE */
 728:.\Generated_Source\PSoC4/cyfitter_cfg.c **** 		CY_SET_XTND_REG32((void CYFAR *)(CYDEV_UDB_PA1_BASE), 0x00990000u);
 757              		.loc 1 728 0
 758 030c 324B     		ldr	r3, .L24+120
 759 030e 9922     		mov	r2, #153
 760 0310 1204     		lsl	r2, r2, #16
 761 0312 1A60     		str	r2, [r3]
 729:.\Generated_Source\PSoC4/cyfitter_cfg.c **** 		CY_SET_XTND_REG32((void CYFAR *)(CYREG_UDB_PA1_CFG8), 0x00720000u);
 762              		.loc 1 729 0
 763 0314 314B     		ldr	r3, .L24+124
 764 0316 E422     		mov	r2, #228
 765 0318 D203     		lsl	r2, r2, #15
 766 031a 1A60     		str	r2, [r3]
 730:.\Generated_Source\PSoC4/cyfitter_cfg.c **** 
 731:.\Generated_Source\PSoC4/cyfitter_cfg.c **** 		/* UDB_PA_3 Starting address: CYDEV_UDB_PA3_BASE */
 732:.\Generated_Source\PSoC4/cyfitter_cfg.c **** 		CY_SET_XTND_REG32((void CYFAR *)(CYDEV_UDB_PA3_BASE), 0x00990000u);
 767              		.loc 1 732 0
 768 031c 304B     		ldr	r3, .L24+128
 769 031e 9922     		mov	r2, #153
 770 0320 1204     		lsl	r2, r2, #16
 771 0322 1A60     		str	r2, [r3]
 733:.\Generated_Source\PSoC4/cyfitter_cfg.c **** 
 734:.\Generated_Source\PSoC4/cyfitter_cfg.c **** 		/* INT_SELECT Starting address: CYDEV_CPUSS_INTR_SELECT */
 735:.\Generated_Source\PSoC4/cyfitter_cfg.c **** 		CY_SET_XTND_REG32((void CYFAR *)(CYREG_CPUSS_INTR_SELECT), 0x00000001u);
 772              		.loc 1 735 0
 773 0324 2F4B     		ldr	r3, .L24+132
 774 0326 0122     		mov	r2, #1
 775 0328 1A60     		str	r2, [r3]
 736:.\Generated_Source\PSoC4/cyfitter_cfg.c **** 
 737:.\Generated_Source\PSoC4/cyfitter_cfg.c **** 		/* INT_CONFIG Starting address: CYDEV_UDB_INT_CFG */
 738:.\Generated_Source\PSoC4/cyfitter_cfg.c **** 		CY_SET_XTND_REG32((void CYFAR *)(CYREG_UDB_INT_CFG), 0x00000002u);
 776              		.loc 1 738 0
 777 032a 2F4B     		ldr	r3, .L24+136
 778 032c 0222     		mov	r2, #2
 779 032e 1A60     		str	r2, [r3]
 739:.\Generated_Source\PSoC4/cyfitter_cfg.c **** 
 740:.\Generated_Source\PSoC4/cyfitter_cfg.c **** 		/* Enable digital routing */
 741:.\Generated_Source\PSoC4/cyfitter_cfg.c **** 		CY_SET_XTND_REG8((void *)CYREG_UDB_UDBIF_BANK_CTL, CY_GET_XTND_REG8((void *)CYREG_UDB_UDBIF_BANK_
 780              		.loc 1 741 0
 781 0330 2E4B     		ldr	r3, .L24+140
 782 0332 2E4A     		ldr	r2, .L24+140
 783 0334 1278     		ldrb	r2, [r2]
 784 0336 D2B2     		uxtb	r2, r2
 785 0338 0221     		mov	r1, #2
 786 033a 0A43     		orr	r2, r1
 787 033c D2B2     		uxtb	r2, r2
 788 033e 1A70     		strb	r2, [r3]
ARM GAS  C:\Users\Jared\AppData\Local\Temp\ccItjWnl.s 			page 28


 742:.\Generated_Source\PSoC4/cyfitter_cfg.c **** 
 743:.\Generated_Source\PSoC4/cyfitter_cfg.c **** 		/* Enable UDB array */
 744:.\Generated_Source\PSoC4/cyfitter_cfg.c **** 		CY_SET_XTND_REG8((void *)CYREG_UDB_UDBIF_BANK_CTL, CY_GET_XTND_REG8((void *)CYREG_UDB_UDBIF_BANK_
 789              		.loc 1 744 0
 790 0340 2A4B     		ldr	r3, .L24+140
 791 0342 2A4A     		ldr	r2, .L24+140
 792 0344 1278     		ldrb	r2, [r2]
 793 0346 D2B2     		uxtb	r2, r2
 794 0348 0621     		mov	r1, #6
 795 034a 0A43     		orr	r2, r1
 796 034c D2B2     		uxtb	r2, r2
 797 034e 1A70     		strb	r2, [r3]
 798              	.LBE3:
 745:.\Generated_Source\PSoC4/cyfitter_cfg.c **** 	}
 746:.\Generated_Source\PSoC4/cyfitter_cfg.c **** 
 747:.\Generated_Source\PSoC4/cyfitter_cfg.c **** 	/* Setup clocks based on selections from Clock DWR */
 748:.\Generated_Source\PSoC4/cyfitter_cfg.c **** 	ClockSetup();
 799              		.loc 1 748 0
 800 0350 FFF7AEFE 		bl	ClockSetup
 749:.\Generated_Source\PSoC4/cyfitter_cfg.c **** 
 750:.\Generated_Source\PSoC4/cyfitter_cfg.c **** 	/* Perform basic analog initialization to defaults */
 751:.\Generated_Source\PSoC4/cyfitter_cfg.c **** 	AnalogSetDefault();
 801              		.loc 1 751 0
 802 0354 FFF7FEFF 		bl	AnalogSetDefault
 752:.\Generated_Source\PSoC4/cyfitter_cfg.c **** 
 753:.\Generated_Source\PSoC4/cyfitter_cfg.c **** }
 803              		.loc 1 753 0
 804 0358 BD46     		mov	sp, r7
 805 035a 06B0     		add	sp, sp, #24
 806              		@ sp needed for prologue
 807 035c 80BD     		pop	{r7, pc}
 808              	.L25:
 809 035e C046     		.align	2
 810              	.L24:
 811 0360 1C700F40 		.word	1074753564
 812 0364 00000000 		.word	cfg_memset_list.4673
 813 0368 0C000000 		.word	cfg_memcpy_list.4675
 814 036c 18000000 		.word	cy_cfg_addr_table.4662
 815 0370 3C000000 		.word	cy_cfg_data_table.4663
 816 0374 00600F40 		.word	1074749440
 817 0378 02600F40 		.word	1074749442
 818 037c 00000140 		.word	1073807360
 819 0380 00000303 		.word	50528256
 820 0384 04000140 		.word	1073807364
 821 0388 33330000 		.word	13107
 822 038c 0C000140 		.word	1073807372
 823 0390 09EE0000 		.word	60937
 824 0394 10000140 		.word	1073807376
 825 0398 00000440 		.word	1074003968
 826 039c 08000440 		.word	1074003976
 827 03a0 89ED1800 		.word	1633673
 828 03a4 00010440 		.word	1074004224
 829 03a8 08010440 		.word	1074004232
 830 03ac B60D0000 		.word	3510
 831 03b0 08030440 		.word	1074004744
 832 03b4 810D0000 		.word	3457
 833 03b8 00040440 		.word	1074004992
ARM GAS  C:\Users\Jared\AppData\Local\Temp\ccItjWnl.s 			page 29


 834 03bc 08040440 		.word	1074005000
 835 03c0 18040440 		.word	1074005016
 836 03c4 00500F40 		.word	1074745344
 837 03c8 04009900 		.word	10027012
 838 03cc 04500F40 		.word	1074745348
 839 03d0 00000A08 		.word	134873088
 840 03d4 08500F40 		.word	1074745352
 841 03d8 10500F40 		.word	1074745360
 842 03dc 18500F40 		.word	1074745368
 843 03e0 30500F40 		.word	1074745392
 844 03e4 20000040 		.word	1073741856
 845 03e8 00800F40 		.word	1074757632
 846 03ec 00700F40 		.word	1074753536
 847              		.cfi_endproc
 848              	.LFE7:
 849              		.size	cyfitter_cfg, .-cyfitter_cfg
 850              		.section	.rodata
 851              		.align	2
 852              		.type	cfg_memset_list.4673, %object
 853              		.size	cfg_memset_list.4673, 12
 854              	cfg_memset_list.4673:
 855 0000 80300F40 		.word	1074737280
 856 0004 8003     		.short	896
 857 0006 00400F40 		.4byte	1074741248
 858 000a 0004     		.short	1024
 859              		.align	2
 860              		.type	cfg_memcpy_list.4675, %object
 861              		.size	cfg_memcpy_list.4675, 10
 862              	cfg_memcpy_list.4675:
 863 000c 00300F40 		.word	1074737152
 864 0010 80020000 		.word	BS_UDB_0_1_0_CONFIG_VAL.4674
 865 0014 8000     		.short	128
 866 0016 0000     		.align	2
 867              		.type	cy_cfg_addr_table.4662, %object
 868              		.size	cy_cfg_addr_table.4662, 36
 869              	cy_cfg_addr_table.4662:
 870 0018 02000F40 		.word	1074724866
 871 001c 15300F40 		.word	1074737173
 872 0020 37310F40 		.word	1074737463
 873 0024 68320F40 		.word	1074737768
 874 0028 49330F40 		.word	1074737993
 875 002c 0B400F40 		.word	1074741259
 876 0030 10410F40 		.word	1074741520
 877 0034 06430F40 		.word	1074742022
 878 0038 02600F40 		.word	1074749442
 879              		.align	2
 880              		.type	cy_cfg_data_table.4663, %object
 881              		.size	cy_cfg_data_table.4663, 580
 882              	cy_cfg_data_table.4663:
 883 003c 80       		.byte	-128
 884 003d 0F       		.byte	15
 885 003e 82       		.byte	-126
 886 003f 2F       		.byte	47
 887 0040 80       		.byte	-128
 888 0041 29       		.byte	41
 889 0042 82       		.byte	-126
 890 0043 16       		.byte	22
ARM GAS  C:\Users\Jared\AppData\Local\Temp\ccItjWnl.s 			page 30


 891 0044 94       		.byte	-108
 892 0045 02       		.byte	2
 893 0046 96       		.byte	-106
 894 0047 0D       		.byte	13
 895 0048 A4       		.byte	-92
 896 0049 23       		.byte	35
 897 004a A6       		.byte	-90
 898 004b 1C       		.byte	28
 899 004c A8       		.byte	-88
 900 004d 35       		.byte	53
 901 004e AA       		.byte	-86
 902 004f 0A       		.byte	10
 903 0050 B0       		.byte	-80
 904 0051 20       		.byte	32
 905 0052 B2       		.byte	-78
 906 0053 0F       		.byte	15
 907 0054 B6       		.byte	-74
 908 0055 10       		.byte	16
 909 0056 B9       		.byte	-71
 910 0057 20       		.byte	32
 911 0058 BA       		.byte	-70
 912 0059 08       		.byte	8
 913 005a BE       		.byte	-66
 914 005b 41       		.byte	65
 915 005c D4       		.byte	-44
 916 005d 09       		.byte	9
 917 005e D8       		.byte	-40
 918 005f 04       		.byte	4
 919 0060 D9       		.byte	-39
 920 0061 04       		.byte	4
 921 0062 DB       		.byte	-37
 922 0063 04       		.byte	4
 923 0064 DC       		.byte	-36
 924 0065 31       		.byte	49
 925 0066 DD       		.byte	-35
 926 0067 10       		.byte	16
 927 0068 DF       		.byte	-33
 928 0069 01       		.byte	1
 929 006a 00       		.byte	0
 930 006b 18       		.byte	24
 931 006c 01       		.byte	1
 932 006d 42       		.byte	66
 933 006e 05       		.byte	5
 934 006f 03       		.byte	3
 935 0070 06       		.byte	6
 936 0071 80       		.byte	-128
 937 0072 09       		.byte	9
 938 0073 08       		.byte	8
 939 0074 0A       		.byte	10
 940 0075 08       		.byte	8
 941 0076 0B       		.byte	11
 942 0077 C1       		.byte	-63
 943 0078 0E       		.byte	14
 944 0079 10       		.byte	16
 945 007a 10       		.byte	16
 946 007b 28       		.byte	40
 947 007c 11       		.byte	17
ARM GAS  C:\Users\Jared\AppData\Local\Temp\ccItjWnl.s 			page 31


 948 007d 01       		.byte	1
 949 007e 12       		.byte	18
 950 007f 02       		.byte	2
 951 0080 17       		.byte	23
 952 0081 28       		.byte	40
 953 0082 18       		.byte	24
 954 0083 14       		.byte	20
 955 0084 1B       		.byte	27
 956 0085 10       		.byte	16
 957 0086 1D       		.byte	29
 958 0087 04       		.byte	4
 959 0088 1E       		.byte	30
 960 0089 10       		.byte	16
 961 008a 1F       		.byte	31
 962 008b 41       		.byte	65
 963 008c 20       		.byte	32
 964 008d 08       		.byte	8
 965 008e 21       		.byte	33
 966 008f 14       		.byte	20
 967 0090 22       		.byte	34
 968 0091 16       		.byte	22
 969 0092 23       		.byte	35
 970 0093 28       		.byte	40
 971 0094 27       		.byte	39
 972 0095 04       		.byte	4
 973 0096 29       		.byte	41
 974 0097 01       		.byte	1
 975 0098 2A       		.byte	42
 976 0099 44       		.byte	68
 977 009a 32       		.byte	50
 978 009b 16       		.byte	22
 979 009c 33       		.byte	51
 980 009d 40       		.byte	64
 981 009e 39       		.byte	57
 982 009f 54       		.byte	84
 983 00a0 40       		.byte	64
 984 00a1 04       		.byte	4
 985 00a2 41       		.byte	65
 986 00a3 04       		.byte	4
 987 00a4 42       		.byte	66
 988 00a5 81       		.byte	-127
 989 00a6 48       		.byte	72
 990 00a7 44       		.byte	68
 991 00a8 49       		.byte	73
 992 00a9 08       		.byte	8
 993 00aa 4A       		.byte	74
 994 00ab 80       		.byte	-128
 995 00ac 51       		.byte	81
 996 00ad 08       		.byte	8
 997 00ae 52       		.byte	82
 998 00af 60       		.byte	96
 999 00b0 5D       		.byte	93
 1000 00b1 08       		.byte	8
 1001 00b2 5F       		.byte	95
 1002 00b3 52       		.byte	82
 1003 00b4 61       		.byte	97
 1004 00b5 04       		.byte	4
ARM GAS  C:\Users\Jared\AppData\Local\Temp\ccItjWnl.s 			page 32


 1005 00b6 67       		.byte	103
 1006 00b7 02       		.byte	2
 1007 00b8 68       		.byte	104
 1008 00b9 28       		.byte	40
 1009 00ba 69       		.byte	105
 1010 00bb 55       		.byte	85
 1011 00bc 6B       		.byte	107
 1012 00bd 40       		.byte	64
 1013 00be 73       		.byte	115
 1014 00bf 01       		.byte	1
 1015 00c0 80       		.byte	-128
 1016 00c1 10       		.byte	16
 1017 00c2 8F       		.byte	-113
 1018 00c3 12       		.byte	18
 1019 00c4 C0       		.byte	-64
 1020 00c5 1F       		.byte	31
 1021 00c6 C2       		.byte	-62
 1022 00c7 27       		.byte	39
 1023 00c8 C4       		.byte	-60
 1024 00c9 6F       		.byte	111
 1025 00ca CA       		.byte	-54
 1026 00cb 0B       		.byte	11
 1027 00cc CC       		.byte	-52
 1028 00cd 0F       		.byte	15
 1029 00ce CE       		.byte	-50
 1030 00cf 0E       		.byte	14
 1031 00d0 D0       		.byte	-48
 1032 00d1 0F       		.byte	15
 1033 00d2 D2       		.byte	-46
 1034 00d3 04       		.byte	4
 1035 00d4 D6       		.byte	-42
 1036 00d5 F0       		.byte	-16
 1037 00d6 D8       		.byte	-40
 1038 00d7 12       		.byte	18
 1039 00d8 01       		.byte	1
 1040 00d9 04       		.byte	4
 1041 00da 0F       		.byte	15
 1042 00db 01       		.byte	1
 1043 00dc 15       		.byte	21
 1044 00dd 08       		.byte	8
 1045 00de 18       		.byte	24
 1046 00df 08       		.byte	8
 1047 00e0 1B       		.byte	27
 1048 00e1 07       		.byte	7
 1049 00e2 1E       		.byte	30
 1050 00e3 0E       		.byte	14
 1051 00e4 2E       		.byte	46
 1052 00e5 03       		.byte	3
 1053 00e6 30       		.byte	48
 1054 00e7 08       		.byte	8
 1055 00e8 31       		.byte	49
 1056 00e9 02       		.byte	2
 1057 00ea 32       		.byte	50
 1058 00eb 01       		.byte	1
 1059 00ec 33       		.byte	51
 1060 00ed 01       		.byte	1
 1061 00ee 34       		.byte	52
ARM GAS  C:\Users\Jared\AppData\Local\Temp\ccItjWnl.s 			page 33


 1062 00ef 04       		.byte	4
 1063 00f0 35       		.byte	53
 1064 00f1 08       		.byte	8
 1065 00f2 36       		.byte	54
 1066 00f3 02       		.byte	2
 1067 00f4 37       		.byte	55
 1068 00f5 04       		.byte	4
 1069 00f6 3F       		.byte	63
 1070 00f7 10       		.byte	16
 1071 00f8 40       		.byte	64
 1072 00f9 30       		.byte	48
 1073 00fa 41       		.byte	65
 1074 00fb 05       		.byte	5
 1075 00fc 49       		.byte	73
 1076 00fd FF       		.byte	-1
 1077 00fe 4A       		.byte	74
 1078 00ff FF       		.byte	-1
 1079 0100 4B       		.byte	75
 1080 0101 FF       		.byte	-1
 1081 0102 4D       		.byte	77
 1082 0103 A0       		.byte	-96
 1083 0104 4F       		.byte	79
 1084 0105 04       		.byte	4
 1085 0106 50       		.byte	80
 1086 0107 18       		.byte	24
 1087 0108 52       		.byte	82
 1088 0109 80       		.byte	-128
 1089 010a 54       		.byte	84
 1090 010b 27       		.byte	39
 1091 010c 58       		.byte	88
 1092 010d 04       		.byte	4
 1093 010e 59       		.byte	89
 1094 010f 04       		.byte	4
 1095 0110 5A       		.byte	90
 1096 0111 04       		.byte	4
 1097 0112 5B       		.byte	91
 1098 0113 04       		.byte	4
 1099 0114 5C       		.byte	92
 1100 0115 33       		.byte	51
 1101 0116 5D       		.byte	93
 1102 0117 33       		.byte	51
 1103 0118 5F       		.byte	95
 1104 0119 01       		.byte	1
 1105 011a 60       		.byte	96
 1106 011b 40       		.byte	64
 1107 011c 62       		.byte	98
 1108 011d C0       		.byte	-64
 1109 011e 64       		.byte	100
 1110 011f 40       		.byte	64
 1111 0120 65       		.byte	101
 1112 0121 40       		.byte	64
 1113 0122 66       		.byte	102
 1114 0123 C0       		.byte	-64
 1115 0124 68       		.byte	104
 1116 0125 C0       		.byte	-64
 1117 0126 6A       		.byte	106
 1118 0127 C0       		.byte	-64
ARM GAS  C:\Users\Jared\AppData\Local\Temp\ccItjWnl.s 			page 34


 1119 0128 6C       		.byte	108
 1120 0129 C0       		.byte	-64
 1121 012a 6E       		.byte	110
 1122 012b C0       		.byte	-64
 1123 012c 80       		.byte	-128
 1124 012d 8D       		.byte	-115
 1125 012e 84       		.byte	-124
 1126 012f 62       		.byte	98
 1127 0130 85       		.byte	-123
 1128 0131 14       		.byte	20
 1129 0132 86       		.byte	-122
 1130 0133 14       		.byte	20
 1131 0134 87       		.byte	-121
 1132 0135 2B       		.byte	43
 1133 0136 88       		.byte	-120
 1134 0137 8D       		.byte	-115
 1135 0138 89       		.byte	-119
 1136 0139 0D       		.byte	13
 1137 013a 8B       		.byte	-117
 1138 013b 10       		.byte	16
 1139 013c 8E       		.byte	-114
 1140 013d 80       		.byte	-128
 1141 013e 90       		.byte	-112
 1142 013f 42       		.byte	66
 1143 0140 92       		.byte	-110
 1144 0141 08       		.byte	8
 1145 0142 94       		.byte	-108
 1146 0143 11       		.byte	17
 1147 0144 96       		.byte	-106
 1148 0145 22       		.byte	34
 1149 0146 97       		.byte	-105
 1150 0147 02       		.byte	2
 1151 0148 99       		.byte	-103
 1152 0149 38       		.byte	56
 1153 014a 9C       		.byte	-100
 1154 014b 02       		.byte	2
 1155 014c 9E       		.byte	-98
 1156 014d 0D       		.byte	13
 1157 014e A0       		.byte	-96
 1158 014f 40       		.byte	64
 1159 0150 A1       		.byte	-95
 1160 0151 10       		.byte	16
 1161 0152 A3       		.byte	-93
 1162 0153 27       		.byte	39
 1163 0154 A4       		.byte	-92
 1164 0155 8D       		.byte	-115
 1165 0156 A8       		.byte	-88
 1166 0157 8D       		.byte	-115
 1167 0158 AC       		.byte	-84
 1168 0159 0D       		.byte	13
 1169 015a AE       		.byte	-82
 1170 015b 80       		.byte	-128
 1171 015c B0       		.byte	-80
 1172 015d 70       		.byte	112
 1173 015e B3       		.byte	-77
 1174 015f 03       		.byte	3
 1175 0160 B4       		.byte	-76
ARM GAS  C:\Users\Jared\AppData\Local\Temp\ccItjWnl.s 			page 35


 1176 0161 80       		.byte	-128
 1177 0162 B5       		.byte	-75
 1178 0163 3C       		.byte	60
 1179 0164 B6       		.byte	-74
 1180 0165 0F       		.byte	15
 1181 0166 B9       		.byte	-71
 1182 0167 20       		.byte	32
 1183 0168 BA       		.byte	-70
 1184 0169 82       		.byte	-126
 1185 016a BE       		.byte	-66
 1186 016b 10       		.byte	16
 1187 016c C0       		.byte	-64
 1188 016d 30       		.byte	48
 1189 016e C1       		.byte	-63
 1190 016f 05       		.byte	5
 1191 0170 C5       		.byte	-59
 1192 0171 D5       		.byte	-43
 1193 0172 C6       		.byte	-58
 1194 0173 01       		.byte	1
 1195 0174 C7       		.byte	-57
 1196 0175 20       		.byte	32
 1197 0176 C8       		.byte	-56
 1198 0177 27       		.byte	39
 1199 0178 C9       		.byte	-55
 1200 0179 FF       		.byte	-1
 1201 017a CA       		.byte	-54
 1202 017b FF       		.byte	-1
 1203 017c CB       		.byte	-53
 1204 017d FF       		.byte	-1
 1205 017e CD       		.byte	-51
 1206 017f AF       		.byte	-81
 1207 0180 CE       		.byte	-50
 1208 0181 0F       		.byte	15
 1209 0182 CF       		.byte	-49
 1210 0183 04       		.byte	4
 1211 0184 D0       		.byte	-48
 1212 0185 18       		.byte	24
 1213 0186 D4       		.byte	-44
 1214 0187 40       		.byte	64
 1215 0188 D8       		.byte	-40
 1216 0189 04       		.byte	4
 1217 018a D9       		.byte	-39
 1218 018b 04       		.byte	4
 1219 018c DA       		.byte	-38
 1220 018d 04       		.byte	4
 1221 018e DB       		.byte	-37
 1222 018f 04       		.byte	4
 1223 0190 DC       		.byte	-36
 1224 0191 11       		.byte	17
 1225 0192 DD       		.byte	-35
 1226 0193 13       		.byte	19
 1227 0194 DF       		.byte	-33
 1228 0195 01       		.byte	1
 1229 0196 E0       		.byte	-32
 1230 0197 40       		.byte	64
 1231 0198 E2       		.byte	-30
 1232 0199 C0       		.byte	-64
ARM GAS  C:\Users\Jared\AppData\Local\Temp\ccItjWnl.s 			page 36


 1233 019a E4       		.byte	-28
 1234 019b 40       		.byte	64
 1235 019c E5       		.byte	-27
 1236 019d 40       		.byte	64
 1237 019e E6       		.byte	-26
 1238 019f C0       		.byte	-64
 1239 01a0 E8       		.byte	-24
 1240 01a1 C0       		.byte	-64
 1241 01a2 EA       		.byte	-22
 1242 01a3 C0       		.byte	-64
 1243 01a4 EC       		.byte	-20
 1244 01a5 C0       		.byte	-64
 1245 01a6 EE       		.byte	-18
 1246 01a7 C0       		.byte	-64
 1247 01a8 00       		.byte	0
 1248 01a9 84       		.byte	-124
 1249 01aa 01       		.byte	1
 1250 01ab 01       		.byte	1
 1251 01ac 02       		.byte	2
 1252 01ad 04       		.byte	4
 1253 01ae 0A       		.byte	10
 1254 01af 41       		.byte	65
 1255 01b0 0B       		.byte	11
 1256 01b1 20       		.byte	32
 1257 01b2 0D       		.byte	13
 1258 01b3 40       		.byte	64
 1259 01b4 0E       		.byte	14
 1260 01b5 04       		.byte	4
 1261 01b6 10       		.byte	16
 1262 01b7 28       		.byte	40
 1263 01b8 11       		.byte	17
 1264 01b9 40       		.byte	64
 1265 01ba 12       		.byte	18
 1266 01bb 40       		.byte	64
 1267 01bc 17       		.byte	23
 1268 01bd 40       		.byte	64
 1269 01be 19       		.byte	25
 1270 01bf 01       		.byte	1
 1271 01c0 1A       		.byte	26
 1272 01c1 41       		.byte	65
 1273 01c2 1B       		.byte	27
 1274 01c3 10       		.byte	16
 1275 01c4 1C       		.byte	28
 1276 01c5 40       		.byte	64
 1277 01c6 1D       		.byte	29
 1278 01c7 48       		.byte	72
 1279 01c8 1E       		.byte	30
 1280 01c9 04       		.byte	4
 1281 01ca 22       		.byte	34
 1282 01cb 14       		.byte	20
 1283 01cc 24       		.byte	36
 1284 01cd 02       		.byte	2
 1285 01ce 25       		.byte	37
 1286 01cf 11       		.byte	17
 1287 01d0 26       		.byte	38
 1288 01d1 04       		.byte	4
 1289 01d2 29       		.byte	41
ARM GAS  C:\Users\Jared\AppData\Local\Temp\ccItjWnl.s 			page 37


 1290 01d3 01       		.byte	1
 1291 01d4 32       		.byte	50
 1292 01d5 14       		.byte	20
 1293 01d6 36       		.byte	54
 1294 01d7 10       		.byte	16
 1295 01d8 37       		.byte	55
 1296 01d9 04       		.byte	4
 1297 01da 38       		.byte	56
 1298 01db 04       		.byte	4
 1299 01dc 39       		.byte	57
 1300 01dd 28       		.byte	40
 1301 01de 3B       		.byte	59
 1302 01df 20       		.byte	32
 1303 01e0 3D       		.byte	61
 1304 01e1 22       		.byte	34
 1305 01e2 3E       		.byte	62
 1306 01e3 A0       		.byte	-96
 1307 01e4 41       		.byte	65
 1308 01e5 08       		.byte	8
 1309 01e6 45       		.byte	69
 1310 01e7 08       		.byte	8
 1311 01e8 49       		.byte	73
 1312 01e9 02       		.byte	2
 1313 01ea 4A       		.byte	74
 1314 01eb 12       		.byte	18
 1315 01ec 4E       		.byte	78
 1316 01ed 02       		.byte	2
 1317 01ee 51       		.byte	81
 1318 01ef 40       		.byte	64
 1319 01f0 52       		.byte	82
 1320 01f1 02       		.byte	2
 1321 01f2 5C       		.byte	92
 1322 01f3 60       		.byte	96
 1323 01f4 5D       		.byte	93
 1324 01f5 02       		.byte	2
 1325 01f6 5F       		.byte	95
 1326 01f7 04       		.byte	4
 1327 01f8 62       		.byte	98
 1328 01f9 A0       		.byte	-96
 1329 01fa 63       		.byte	99
 1330 01fb 20       		.byte	32
 1331 01fc 66       		.byte	102
 1332 01fd 20       		.byte	32
 1333 01fe 76       		.byte	118
 1334 01ff 80       		.byte	-128
 1335 0200 77       		.byte	119
 1336 0201 40       		.byte	64
 1337 0202 80       		.byte	-128
 1338 0203 21       		.byte	33
 1339 0204 85       		.byte	-123
 1340 0205 40       		.byte	64
 1341 0206 8A       		.byte	-118
 1342 0207 06       		.byte	6
 1343 0208 8B       		.byte	-117
 1344 0209 04       		.byte	4
 1345 020a 8E       		.byte	-114
 1346 020b 04       		.byte	4
ARM GAS  C:\Users\Jared\AppData\Local\Temp\ccItjWnl.s 			page 38


 1347 020c 91       		.byte	-111
 1348 020d 69       		.byte	105
 1349 020e 9A       		.byte	-102
 1350 020f 44       		.byte	68
 1351 0210 9B       		.byte	-101
 1352 0211 04       		.byte	4
 1353 0212 9D       		.byte	-99
 1354 0213 01       		.byte	1
 1355 0214 A0       		.byte	-96
 1356 0215 68       		.byte	104
 1357 0216 A2       		.byte	-94
 1358 0217 A0       		.byte	-96
 1359 0218 AA       		.byte	-86
 1360 0219 04       		.byte	4
 1361 021a AB       		.byte	-85
 1362 021b 01       		.byte	1
 1363 021c AE       		.byte	-82
 1364 021d 01       		.byte	1
 1365 021e B2       		.byte	-78
 1366 021f 40       		.byte	64
 1367 0220 B3       		.byte	-77
 1368 0221 10       		.byte	16
 1369 0222 C0       		.byte	-64
 1370 0223 0F       		.byte	15
 1371 0224 C2       		.byte	-62
 1372 0225 CD       		.byte	-51
 1373 0226 C4       		.byte	-60
 1374 0227 8F       		.byte	-113
 1375 0228 CA       		.byte	-54
 1376 0229 01       		.byte	1
 1377 022a CC       		.byte	-52
 1378 022b 66       		.byte	102
 1379 022c CE       		.byte	-50
 1380 022d 96       		.byte	-106
 1381 022e D0       		.byte	-48
 1382 022f 42       		.byte	66
 1383 0230 D2       		.byte	-46
 1384 0231 18       		.byte	24
 1385 0232 D6       		.byte	-42
 1386 0233 F0       		.byte	-16
 1387 0234 D8       		.byte	-40
 1388 0235 2E       		.byte	46
 1389 0236 E2       		.byte	-30
 1390 0237 C4       		.byte	-60
 1391 0238 E6       		.byte	-26
 1392 0239 10       		.byte	16
 1393 023a 03       		.byte	3
 1394 023b 20       		.byte	32
 1395 023c 0F       		.byte	15
 1396 023d 10       		.byte	16
 1397 023e 60       		.byte	96
 1398 023f 20       		.byte	32
 1399 0240 66       		.byte	102
 1400 0241 08       		.byte	8
 1401 0242 6F       		.byte	111
 1402 0243 20       		.byte	32
 1403 0244 82       		.byte	-126
ARM GAS  C:\Users\Jared\AppData\Local\Temp\ccItjWnl.s 			page 39


 1404 0245 08       		.byte	8
 1405 0246 C0       		.byte	-64
 1406 0247 10       		.byte	16
 1407 0248 C2       		.byte	-62
 1408 0249 20       		.byte	32
 1409 024a D8       		.byte	-40
 1410 024b C0       		.byte	-64
 1411 024c DA       		.byte	-38
 1412 024d 80       		.byte	-128
 1413 024e E6       		.byte	-26
 1414 024f 80       		.byte	-128
 1415 0250 52       		.byte	82
 1416 0251 08       		.byte	8
 1417 0252 56       		.byte	86
 1418 0253 02       		.byte	2
 1419 0254 57       		.byte	87
 1420 0255 20       		.byte	32
 1421 0256 5B       		.byte	91
 1422 0257 20       		.byte	32
 1423 0258 82       		.byte	-126
 1424 0259 08       		.byte	8
 1425 025a 87       		.byte	-121
 1426 025b 20       		.byte	32
 1427 025c 88       		.byte	-120
 1428 025d 20       		.byte	32
 1429 025e 8E       		.byte	-114
 1430 025f 02       		.byte	2
 1431 0260 8F       		.byte	-113
 1432 0261 20       		.byte	32
 1433 0262 9C       		.byte	-100
 1434 0263 20       		.byte	32
 1435 0264 AF       		.byte	-81
 1436 0265 10       		.byte	16
 1437 0266 D4       		.byte	-44
 1438 0267 E0       		.byte	-32
 1439 0268 D6       		.byte	-42
 1440 0269 20       		.byte	32
 1441 026a E2       		.byte	-30
 1442 026b 20       		.byte	32
 1443 026c E6       		.byte	-26
 1444 026d 10       		.byte	16
 1445 026e E8       		.byte	-24
 1446 026f 10       		.byte	16
 1447 0270 18       		.byte	24
 1448 0271 80       		.byte	-128
 1449 0272 1F       		.byte	31
 1450 0273 02       		.byte	2
 1451 0274 83       		.byte	-125
 1452 0275 02       		.byte	2
 1453 0276 8C       		.byte	-116
 1454 0277 40       		.byte	64
 1455 0278 C6       		.byte	-58
 1456 0279 0C       		.byte	12
 1457 027a E6       		.byte	-26
 1458 027b 08       		.byte	8
 1459 027c 10       		.byte	16
 1460 027d 0A       		.byte	10
ARM GAS  C:\Users\Jared\AppData\Local\Temp\ccItjWnl.s 			page 40


 1461 027e 11       		.byte	17
 1462 027f 01       		.byte	1
 1463              		.align	2
 1464              		.type	BS_UDB_0_1_0_CONFIG_VAL.4674, %object
 1465              		.size	BS_UDB_0_1_0_CONFIG_VAL.4674, 128
 1466              	BS_UDB_0_1_0_CONFIG_VAL.4674:
 1467 0280 56       		.byte	86
 1468 0281 00       		.byte	0
 1469 0282 09       		.byte	9
 1470 0283 00       		.byte	0
 1471 0284 07       		.byte	7
 1472 0285 92       		.byte	-110
 1473 0286 38       		.byte	56
 1474 0287 04       		.byte	4
 1475 0288 01       		.byte	1
 1476 0289 04       		.byte	4
 1477 028a 00       		.byte	0
 1478 028b 92       		.byte	-110
 1479 028c 04       		.byte	4
 1480 028d 92       		.byte	-110
 1481 028e 80       		.byte	-128
 1482 028f 04       		.byte	4
 1483 0290 00       		.byte	0
 1484 0291 32       		.byte	50
 1485 0292 00       		.byte	0
 1486 0293 C0       		.byte	-64
 1487 0294 60       		.byte	96
 1488 0295 21       		.byte	33
 1489 0296 00       		.byte	0
 1490 0297 D2       		.byte	-46
 1491 0298 0A       		.byte	10
 1492 0299 07       		.byte	7
 1493 029a 10       		.byte	16
 1494 029b 68       		.byte	104
 1495 029c 84       		.byte	-124
 1496 029d 96       		.byte	-106
 1497 029e 00       		.byte	0
 1498 029f 00       		.byte	0
 1499 02a0 84       		.byte	-124
 1500 02a1 FA       		.byte	-6
 1501 02a2 00       		.byte	0
 1502 02a3 05       		.byte	5
 1503 02a4 84       		.byte	-124
 1504 02a5 96       		.byte	-106
 1505 02a6 00       		.byte	0
 1506 02a7 00       		.byte	0
 1507 02a8 80       		.byte	-128
 1508 02a9 00       		.byte	0
 1509 02aa 04       		.byte	4
 1510 02ab 00       		.byte	0
 1511 02ac 04       		.byte	4
 1512 02ad 04       		.byte	4
 1513 02ae 00       		.byte	0
 1514 02af 00       		.byte	0
 1515 02b0 00       		.byte	0
 1516 02b1 E0       		.byte	-32
 1517 02b2 7F       		.byte	127
ARM GAS  C:\Users\Jared\AppData\Local\Temp\ccItjWnl.s 			page 41


 1518 02b3 1D       		.byte	29
 1519 02b4 80       		.byte	-128
 1520 02b5 07       		.byte	7
 1521 02b6 00       		.byte	0
 1522 02b7 00       		.byte	0
 1523 02b8 08       		.byte	8
 1524 02b9 00       		.byte	0
 1525 02ba 00       		.byte	0
 1526 02bb 0A       		.byte	10
 1527 02bc 00       		.byte	0
 1528 02bd 00       		.byte	0
 1529 02be 10       		.byte	16
 1530 02bf 00       		.byte	0
 1531 02c0 34       		.byte	52
 1532 02c1 06       		.byte	6
 1533 02c2 20       		.byte	32
 1534 02c3 00       		.byte	0
 1535 02c4 01       		.byte	1
 1536 02c5 DE       		.byte	-34
 1537 02c6 FC       		.byte	-4
 1538 02c7 0B       		.byte	11
 1539 02c8 1F       		.byte	31
 1540 02c9 FF       		.byte	-1
 1541 02ca FF       		.byte	-1
 1542 02cb FF       		.byte	-1
 1543 02cc 22       		.byte	34
 1544 02cd 00       		.byte	0
 1545 02ce F0       		.byte	-16
 1546 02cf 08       		.byte	8
 1547 02d0 04       		.byte	4
 1548 02d1 00       		.byte	0
 1549 02d2 00       		.byte	0
 1550 02d3 00       		.byte	0
 1551 02d4 00       		.byte	0
 1552 02d5 00       		.byte	0
 1553 02d6 02       		.byte	2
 1554 02d7 28       		.byte	40
 1555 02d8 04       		.byte	4
 1556 02d9 04       		.byte	4
 1557 02da 04       		.byte	4
 1558 02db 04       		.byte	4
 1559 02dc 11       		.byte	17
 1560 02dd 11       		.byte	17
 1561 02de 00       		.byte	0
 1562 02df 01       		.byte	1
 1563 02e0 00       		.byte	0
 1564 02e1 00       		.byte	0
 1565 02e2 C0       		.byte	-64
 1566 02e3 00       		.byte	0
 1567 02e4 40       		.byte	64
 1568 02e5 01       		.byte	1
 1569 02e6 10       		.byte	16
 1570 02e7 11       		.byte	17
 1571 02e8 C0       		.byte	-64
 1572 02e9 01       		.byte	1
 1573 02ea 00       		.byte	0
 1574 02eb 11       		.byte	17
ARM GAS  C:\Users\Jared\AppData\Local\Temp\ccItjWnl.s 			page 42


 1575 02ec 40       		.byte	64
 1576 02ed 01       		.byte	1
 1577 02ee 40       		.byte	64
 1578 02ef 01       		.byte	1
 1579 02f0 00       		.byte	0
 1580 02f1 00       		.byte	0
 1581 02f2 00       		.byte	0
 1582 02f3 00       		.byte	0
 1583 02f4 00       		.byte	0
 1584 02f5 00       		.byte	0
 1585 02f6 00       		.byte	0
 1586 02f7 00       		.byte	0
 1587 02f8 00       		.byte	0
 1588 02f9 00       		.byte	0
 1589 02fa 00       		.byte	0
 1590 02fb 00       		.byte	0
 1591 02fc 00       		.byte	0
 1592 02fd 00       		.byte	0
 1593 02fe 00       		.byte	0
 1594 02ff 00       		.byte	0
 1595              		.align	2
 1596              		.type	IMO_TRIM_FREQ_TABLE_ENTRIES.4642, %object
 1597              		.size	IMO_TRIM_FREQ_TABLE_ENTRIES.4642, 4
 1598              	IMO_TRIM_FREQ_TABLE_ENTRIES.4642:
 1599 0300 04000000 		.word	4
 1600              		.data
 1601              		.align	2
 1602              		.type	imo_trim_table.4641, %object
 1603              		.size	imo_trim_table.4641, 4
 1604              	imo_trim_table.4641:
 1605 0000 C0F1FF0F 		.word	268431808
 1606              		.text
 1607              	.Letext0:
 1608              		.file 2 "c:\\program files (x86)\\cypress\\psoc creator\\3.0\\psoc creator\\import\\gnu_cs\\arm\\4
 1609              		.file 3 "./Generated_Source/PSoC4/cytypes.h"