ARM GAS  C:\Users\Jared\AppData\Local\Temp\cc4WT1Tu.s 			page 1


   1              		.cpu cortex-m0
   2              		.fpu softvfp
   3              		.eabi_attribute 20, 1
   4              		.eabi_attribute 21, 1
   5              		.eabi_attribute 23, 3
   6              		.eabi_attribute 24, 1
   7              		.eabi_attribute 25, 1
   8              		.eabi_attribute 26, 1
   9              		.eabi_attribute 30, 6
  10              		.eabi_attribute 34, 0
  11              		.eabi_attribute 18, 4
  12              		.code	16
  13              		.file	"Gimbal.c"
  14              		.text
  15              	.Ltext0:
  16              		.cfi_sections	.debug_frame
  17              		.global	Gimbal_initVar
  18              		.bss
  19              		.type	Gimbal_initVar, %object
  20              		.size	Gimbal_initVar, 1
  21              	Gimbal_initVar:
  22 0000 00       		.space	1
  23              		.section	.text.Gimbal_Start,"ax",%progbits
  24              		.align	2
  25              		.global	Gimbal_Start
  26              		.code	16
  27              		.thumb_func
  28              		.type	Gimbal_Start, %function
  29              	Gimbal_Start:
  30              	.LFB0:
  31              		.file 1 ".\\Generated_Source\\PSoC4\\Gimbal.c"
   1:.\Generated_Source\PSoC4/Gimbal.c **** /*******************************************************************************
   2:.\Generated_Source\PSoC4/Gimbal.c **** * File Name: Gimbal.c  
   3:.\Generated_Source\PSoC4/Gimbal.c **** * Version 3.0
   4:.\Generated_Source\PSoC4/Gimbal.c **** *
   5:.\Generated_Source\PSoC4/Gimbal.c **** * Description:
   6:.\Generated_Source\PSoC4/Gimbal.c **** *  The PWM User Module consist of an 8 or 16-bit counter with two 8 or 16-bit
   7:.\Generated_Source\PSoC4/Gimbal.c **** *  comparitors. Each instance of this user module is capable of generating
   8:.\Generated_Source\PSoC4/Gimbal.c **** *  two PWM outputs with the same period. The pulse width is selectable between
   9:.\Generated_Source\PSoC4/Gimbal.c **** *  1 and 255/65535. The period is selectable between 2 and 255/65536 clocks. 
  10:.\Generated_Source\PSoC4/Gimbal.c **** *  The compare value output may be configured to be active when the present 
  11:.\Generated_Source\PSoC4/Gimbal.c **** *  counter is less than or less than/equal to the compare value.
  12:.\Generated_Source\PSoC4/Gimbal.c **** *  A terminal count output is also provided. It generates a pulse one clock
  13:.\Generated_Source\PSoC4/Gimbal.c **** *  width wide when the counter is equal to zero.
  14:.\Generated_Source\PSoC4/Gimbal.c **** *
  15:.\Generated_Source\PSoC4/Gimbal.c **** * Note:
  16:.\Generated_Source\PSoC4/Gimbal.c **** *
  17:.\Generated_Source\PSoC4/Gimbal.c **** *******************************************************************************
  18:.\Generated_Source\PSoC4/Gimbal.c **** * Copyright 2008-2012, Cypress Semiconductor Corporation.  All rights reserved.
  19:.\Generated_Source\PSoC4/Gimbal.c **** * You may use this file only in accordance with the license, terms, conditions, 
  20:.\Generated_Source\PSoC4/Gimbal.c **** * disclaimers, and limitations in the end user license agreement accompanying 
  21:.\Generated_Source\PSoC4/Gimbal.c **** * the software package with which this file was provided.
  22:.\Generated_Source\PSoC4/Gimbal.c **** ********************************************************************************/
  23:.\Generated_Source\PSoC4/Gimbal.c **** 
  24:.\Generated_Source\PSoC4/Gimbal.c **** #include "cytypes.h"
  25:.\Generated_Source\PSoC4/Gimbal.c **** #include "Gimbal.h"
  26:.\Generated_Source\PSoC4/Gimbal.c **** 
ARM GAS  C:\Users\Jared\AppData\Local\Temp\cc4WT1Tu.s 			page 2


  27:.\Generated_Source\PSoC4/Gimbal.c **** uint8 Gimbal_initVar = 0u;
  28:.\Generated_Source\PSoC4/Gimbal.c **** 
  29:.\Generated_Source\PSoC4/Gimbal.c **** 
  30:.\Generated_Source\PSoC4/Gimbal.c **** /*******************************************************************************
  31:.\Generated_Source\PSoC4/Gimbal.c **** * Function Name: Gimbal_Start
  32:.\Generated_Source\PSoC4/Gimbal.c **** ********************************************************************************
  33:.\Generated_Source\PSoC4/Gimbal.c **** *
  34:.\Generated_Source\PSoC4/Gimbal.c **** * Summary:
  35:.\Generated_Source\PSoC4/Gimbal.c **** *  The start function initializes the pwm with the default values, the 
  36:.\Generated_Source\PSoC4/Gimbal.c **** *  enables the counter to begin counting.  It does not enable interrupts,
  37:.\Generated_Source\PSoC4/Gimbal.c **** *  the EnableInt command should be called if interrupt generation is required.
  38:.\Generated_Source\PSoC4/Gimbal.c **** *
  39:.\Generated_Source\PSoC4/Gimbal.c **** * Parameters:  
  40:.\Generated_Source\PSoC4/Gimbal.c **** *  None  
  41:.\Generated_Source\PSoC4/Gimbal.c **** *
  42:.\Generated_Source\PSoC4/Gimbal.c **** * Return: 
  43:.\Generated_Source\PSoC4/Gimbal.c **** *  None
  44:.\Generated_Source\PSoC4/Gimbal.c **** *
  45:.\Generated_Source\PSoC4/Gimbal.c **** * Global variables:
  46:.\Generated_Source\PSoC4/Gimbal.c **** *  Gimbal_initVar: Is modified when this function is called for the 
  47:.\Generated_Source\PSoC4/Gimbal.c **** *   first time. Is used to ensure that initialization happens only once.
  48:.\Generated_Source\PSoC4/Gimbal.c **** *
  49:.\Generated_Source\PSoC4/Gimbal.c **** *******************************************************************************/
  50:.\Generated_Source\PSoC4/Gimbal.c **** void Gimbal_Start(void) 
  51:.\Generated_Source\PSoC4/Gimbal.c **** {
  32              		.loc 1 51 0
  33              		.cfi_startproc
  34 0000 80B5     		push	{r7, lr}
  35              	.LCFI0:
  36              		.cfi_def_cfa_offset 8
  37              		.cfi_offset 7, -8
  38              		.cfi_offset 14, -4
  39 0002 00AF     		add	r7, sp, #0
  40              	.LCFI1:
  41              		.cfi_def_cfa_register 7
  52:.\Generated_Source\PSoC4/Gimbal.c ****     /* If not Initialized then initialize all required hardware and software */
  53:.\Generated_Source\PSoC4/Gimbal.c ****     if(Gimbal_initVar == 0u)
  42              		.loc 1 53 0
  43 0004 064B     		ldr	r3, .L3
  44 0006 1B78     		ldrb	r3, [r3]
  45 0008 002B     		cmp	r3, #0
  46 000a 04D1     		bne	.L2
  54:.\Generated_Source\PSoC4/Gimbal.c ****     {
  55:.\Generated_Source\PSoC4/Gimbal.c ****         Gimbal_Init();
  47              		.loc 1 55 0
  48 000c FFF7FEFF 		bl	Gimbal_Init
  56:.\Generated_Source\PSoC4/Gimbal.c ****         Gimbal_initVar = 1u;
  49              		.loc 1 56 0
  50 0010 034B     		ldr	r3, .L3
  51 0012 0122     		mov	r2, #1
  52 0014 1A70     		strb	r2, [r3]
  53              	.L2:
  57:.\Generated_Source\PSoC4/Gimbal.c ****     }
  58:.\Generated_Source\PSoC4/Gimbal.c ****     Gimbal_Enable();
  54              		.loc 1 58 0
  55 0016 FFF7FEFF 		bl	Gimbal_Enable
  59:.\Generated_Source\PSoC4/Gimbal.c **** 
ARM GAS  C:\Users\Jared\AppData\Local\Temp\cc4WT1Tu.s 			page 3


  60:.\Generated_Source\PSoC4/Gimbal.c **** }
  56              		.loc 1 60 0
  57 001a BD46     		mov	sp, r7
  58              		@ sp needed for prologue
  59 001c 80BD     		pop	{r7, pc}
  60              	.L4:
  61 001e C046     		.align	2
  62              	.L3:
  63 0020 00000000 		.word	Gimbal_initVar
  64              		.cfi_endproc
  65              	.LFE0:
  66              		.size	Gimbal_Start, .-Gimbal_Start
  67              		.section	.text.Gimbal_Init,"ax",%progbits
  68              		.align	2
  69              		.global	Gimbal_Init
  70              		.code	16
  71              		.thumb_func
  72              		.type	Gimbal_Init, %function
  73              	Gimbal_Init:
  74              	.LFB1:
  61:.\Generated_Source\PSoC4/Gimbal.c **** 
  62:.\Generated_Source\PSoC4/Gimbal.c **** 
  63:.\Generated_Source\PSoC4/Gimbal.c **** /*******************************************************************************
  64:.\Generated_Source\PSoC4/Gimbal.c **** * Function Name: Gimbal_Init
  65:.\Generated_Source\PSoC4/Gimbal.c **** ********************************************************************************
  66:.\Generated_Source\PSoC4/Gimbal.c **** *
  67:.\Generated_Source\PSoC4/Gimbal.c **** * Summary:
  68:.\Generated_Source\PSoC4/Gimbal.c **** *  Initialize component's parameters to the parameters set by user in the 
  69:.\Generated_Source\PSoC4/Gimbal.c **** *  customizer of the component placed onto schematic. Usually called in 
  70:.\Generated_Source\PSoC4/Gimbal.c **** *  Gimbal_Start().
  71:.\Generated_Source\PSoC4/Gimbal.c **** *
  72:.\Generated_Source\PSoC4/Gimbal.c **** * Parameters:  
  73:.\Generated_Source\PSoC4/Gimbal.c **** *  None
  74:.\Generated_Source\PSoC4/Gimbal.c **** *
  75:.\Generated_Source\PSoC4/Gimbal.c **** * Return: 
  76:.\Generated_Source\PSoC4/Gimbal.c **** *  None
  77:.\Generated_Source\PSoC4/Gimbal.c **** *
  78:.\Generated_Source\PSoC4/Gimbal.c **** *******************************************************************************/
  79:.\Generated_Source\PSoC4/Gimbal.c **** void Gimbal_Init(void) 
  80:.\Generated_Source\PSoC4/Gimbal.c **** {
  75              		.loc 1 80 0
  76              		.cfi_startproc
  77 0000 90B5     		push	{r4, r7, lr}
  78              	.LCFI2:
  79              		.cfi_def_cfa_offset 12
  80              		.cfi_offset 4, -12
  81              		.cfi_offset 7, -8
  82              		.cfi_offset 14, -4
  83 0002 83B0     		sub	sp, sp, #12
  84              	.LCFI3:
  85              		.cfi_def_cfa_offset 24
  86 0004 00AF     		add	r7, sp, #0
  87              	.LCFI4:
  88              		.cfi_def_cfa_register 7
  81:.\Generated_Source\PSoC4/Gimbal.c ****     #if (Gimbal_UsingFixedFunction || Gimbal_UseControl)
  82:.\Generated_Source\PSoC4/Gimbal.c ****         uint8 ctrl;
  83:.\Generated_Source\PSoC4/Gimbal.c ****     #endif /* (Gimbal_UsingFixedFunction || Gimbal_UseControl) */
ARM GAS  C:\Users\Jared\AppData\Local\Temp\cc4WT1Tu.s 			page 4


  84:.\Generated_Source\PSoC4/Gimbal.c ****     
  85:.\Generated_Source\PSoC4/Gimbal.c ****     #if(!Gimbal_UsingFixedFunction) 
  86:.\Generated_Source\PSoC4/Gimbal.c ****         #if(Gimbal_UseStatus)
  87:.\Generated_Source\PSoC4/Gimbal.c ****             /* Interrupt State Backup for Critical Region*/
  88:.\Generated_Source\PSoC4/Gimbal.c ****             uint8 Gimbal_interruptState;
  89:.\Generated_Source\PSoC4/Gimbal.c ****         #endif /* (Gimbal_UseStatus) */
  90:.\Generated_Source\PSoC4/Gimbal.c ****     #endif /* (!Gimbal_UsingFixedFunction) */
  91:.\Generated_Source\PSoC4/Gimbal.c ****     
  92:.\Generated_Source\PSoC4/Gimbal.c ****     #if (Gimbal_UsingFixedFunction)
  93:.\Generated_Source\PSoC4/Gimbal.c ****         /* You are allowed to write the compare value (FF only) */
  94:.\Generated_Source\PSoC4/Gimbal.c ****         Gimbal_CONTROL |= Gimbal_CFG0_MODE;
  95:.\Generated_Source\PSoC4/Gimbal.c ****         #if (Gimbal_DeadBand2_4)
  96:.\Generated_Source\PSoC4/Gimbal.c ****             Gimbal_CONTROL |= Gimbal_CFG0_DB;
  97:.\Generated_Source\PSoC4/Gimbal.c ****         #endif /* (Gimbal_DeadBand2_4) */
  98:.\Generated_Source\PSoC4/Gimbal.c ****                 
  99:.\Generated_Source\PSoC4/Gimbal.c ****         ctrl = Gimbal_CONTROL3 & ((uint8 )(~Gimbal_CTRL_CMPMODE1_MASK));
 100:.\Generated_Source\PSoC4/Gimbal.c ****         Gimbal_CONTROL3 = ctrl | Gimbal_DEFAULT_COMPARE1_MODE;
 101:.\Generated_Source\PSoC4/Gimbal.c ****         
 102:.\Generated_Source\PSoC4/Gimbal.c ****          /* Clear and Set SYNCTC and SYNCCMP bits of RT1 register */
 103:.\Generated_Source\PSoC4/Gimbal.c ****         Gimbal_RT1 &= ((uint8)(~Gimbal_RT1_MASK));
 104:.\Generated_Source\PSoC4/Gimbal.c ****         Gimbal_RT1 |= Gimbal_SYNC;     
 105:.\Generated_Source\PSoC4/Gimbal.c ****                 
 106:.\Generated_Source\PSoC4/Gimbal.c ****         /*Enable DSI Sync all all inputs of the PWM*/
 107:.\Generated_Source\PSoC4/Gimbal.c ****         Gimbal_RT1 &= ((uint8)(~Gimbal_SYNCDSI_MASK));
 108:.\Generated_Source\PSoC4/Gimbal.c ****         Gimbal_RT1 |= Gimbal_SYNCDSI_EN;
 109:.\Generated_Source\PSoC4/Gimbal.c ****        
 110:.\Generated_Source\PSoC4/Gimbal.c ****     #elif (Gimbal_UseControl)
 111:.\Generated_Source\PSoC4/Gimbal.c ****         /* Set the default compare mode defined in the parameter */
 112:.\Generated_Source\PSoC4/Gimbal.c ****         ctrl = Gimbal_CONTROL & ((uint8)(~Gimbal_CTRL_CMPMODE2_MASK)) & ((uint8)(~Gimbal_CTRL_CMPMO
  89              		.loc 1 112 0
  90 0006 244B     		ldr	r3, .L6
  91 0008 1B78     		ldrb	r3, [r3]
  92 000a DAB2     		uxtb	r2, r3
  93 000c FB1D     		add	r3, r7, #7
  94 000e 3F21     		mov	r1, #63
  95 0010 8A43     		bic	r2, r1
  96 0012 1A70     		strb	r2, [r3]
 113:.\Generated_Source\PSoC4/Gimbal.c ****         Gimbal_CONTROL = ctrl | Gimbal_DEFAULT_COMPARE2_MODE | 
  97              		.loc 1 113 0
  98 0014 204B     		ldr	r3, .L6
  99 0016 FA1D     		add	r2, r7, #7
 100 0018 1278     		ldrb	r2, [r2]
 101 001a 0921     		mov	r1, #9
 102 001c 0A43     		orr	r2, r1
 103 001e D2B2     		uxtb	r2, r2
 104 0020 1A70     		strb	r2, [r3]
 114:.\Generated_Source\PSoC4/Gimbal.c ****                                    Gimbal_DEFAULT_COMPARE1_MODE;
 115:.\Generated_Source\PSoC4/Gimbal.c ****     #endif /* (Gimbal_UsingFixedFunction) */
 116:.\Generated_Source\PSoC4/Gimbal.c ****         
 117:.\Generated_Source\PSoC4/Gimbal.c ****     #if (!Gimbal_UsingFixedFunction)
 118:.\Generated_Source\PSoC4/Gimbal.c ****         #if (Gimbal_Resolution == 8)
 119:.\Generated_Source\PSoC4/Gimbal.c ****             /* Set FIFO 0 to 1 byte register for period*/
 120:.\Generated_Source\PSoC4/Gimbal.c ****             Gimbal_AUX_CONTROLDP0 |= (Gimbal_AUX_CTRL_FIFO0_CLR);
 121:.\Generated_Source\PSoC4/Gimbal.c ****         #else /* (Gimbal_Resolution == 16)*/
 122:.\Generated_Source\PSoC4/Gimbal.c ****             /* Set FIFO 0 to 1 byte register for period */
 123:.\Generated_Source\PSoC4/Gimbal.c ****             Gimbal_AUX_CONTROLDP0 |= (Gimbal_AUX_CTRL_FIFO0_CLR);
 105              		.loc 1 123 0
ARM GAS  C:\Users\Jared\AppData\Local\Temp\cc4WT1Tu.s 			page 5


 106 0022 1E4B     		ldr	r3, .L6+4
 107 0024 1D4A     		ldr	r2, .L6+4
 108 0026 1278     		ldrb	r2, [r2]
 109 0028 D2B2     		uxtb	r2, r2
 110 002a 0121     		mov	r1, #1
 111 002c 0A43     		orr	r2, r1
 112 002e D2B2     		uxtb	r2, r2
 113 0030 1A70     		strb	r2, [r3]
 124:.\Generated_Source\PSoC4/Gimbal.c ****             Gimbal_AUX_CONTROLDP1 |= (Gimbal_AUX_CTRL_FIFO0_CLR);
 114              		.loc 1 124 0
 115 0032 1B4B     		ldr	r3, .L6+8
 116 0034 1A4A     		ldr	r2, .L6+8
 117 0036 1278     		ldrb	r2, [r2]
 118 0038 D2B2     		uxtb	r2, r2
 119 003a 0121     		mov	r1, #1
 120 003c 0A43     		orr	r2, r1
 121 003e D2B2     		uxtb	r2, r2
 122 0040 1A70     		strb	r2, [r3]
 125:.\Generated_Source\PSoC4/Gimbal.c ****         #endif /* (Gimbal_Resolution == 8) */
 126:.\Generated_Source\PSoC4/Gimbal.c **** 
 127:.\Generated_Source\PSoC4/Gimbal.c ****         Gimbal_WriteCounter(Gimbal_INIT_PERIOD_VALUE);
 123              		.loc 1 127 0
 124 0042 184B     		ldr	r3, .L6+12
 125 0044 181C     		mov	r0, r3
 126 0046 FFF7FEFF 		bl	Gimbal_WriteCounter
 128:.\Generated_Source\PSoC4/Gimbal.c ****     #endif /* (!Gimbal_UsingFixedFunction) */
 129:.\Generated_Source\PSoC4/Gimbal.c ****         
 130:.\Generated_Source\PSoC4/Gimbal.c ****     Gimbal_WritePeriod(Gimbal_INIT_PERIOD_VALUE);
 127              		.loc 1 130 0
 128 004a 164B     		ldr	r3, .L6+12
 129 004c 181C     		mov	r0, r3
 130 004e FFF7FEFF 		bl	Gimbal_WritePeriod
 131:.\Generated_Source\PSoC4/Gimbal.c **** 
 132:.\Generated_Source\PSoC4/Gimbal.c ****         #if (Gimbal_UseOneCompareMode)
 133:.\Generated_Source\PSoC4/Gimbal.c ****             Gimbal_WriteCompare(Gimbal_INIT_COMPARE_VALUE1);
 134:.\Generated_Source\PSoC4/Gimbal.c ****         #else
 135:.\Generated_Source\PSoC4/Gimbal.c ****             Gimbal_WriteCompare1(Gimbal_INIT_COMPARE_VALUE1);
 131              		.loc 1 135 0
 132 0052 154B     		ldr	r3, .L6+16
 133 0054 181C     		mov	r0, r3
 134 0056 FFF7FEFF 		bl	Gimbal_WriteCompare1
 136:.\Generated_Source\PSoC4/Gimbal.c ****             Gimbal_WriteCompare2(Gimbal_INIT_COMPARE_VALUE2);
 135              		.loc 1 136 0
 136 005a 134B     		ldr	r3, .L6+16
 137 005c 181C     		mov	r0, r3
 138 005e FFF7FEFF 		bl	Gimbal_WriteCompare2
 137:.\Generated_Source\PSoC4/Gimbal.c ****         #endif /* (Gimbal_UseOneCompareMode) */
 138:.\Generated_Source\PSoC4/Gimbal.c ****         
 139:.\Generated_Source\PSoC4/Gimbal.c ****         #if (Gimbal_KillModeMinTime)
 140:.\Generated_Source\PSoC4/Gimbal.c ****             Gimbal_WriteKillTime(Gimbal_MinimumKillTime);
 141:.\Generated_Source\PSoC4/Gimbal.c ****         #endif /* (Gimbal_KillModeMinTime) */
 142:.\Generated_Source\PSoC4/Gimbal.c ****         
 143:.\Generated_Source\PSoC4/Gimbal.c ****         #if (Gimbal_DeadBandUsed)
 144:.\Generated_Source\PSoC4/Gimbal.c ****             Gimbal_WriteDeadTime(Gimbal_INIT_DEAD_TIME);
 145:.\Generated_Source\PSoC4/Gimbal.c ****         #endif /* (Gimbal_DeadBandUsed) */
 146:.\Generated_Source\PSoC4/Gimbal.c **** 
 147:.\Generated_Source\PSoC4/Gimbal.c ****     #if (Gimbal_UseStatus || Gimbal_UsingFixedFunction)
ARM GAS  C:\Users\Jared\AppData\Local\Temp\cc4WT1Tu.s 			page 6


 148:.\Generated_Source\PSoC4/Gimbal.c ****         Gimbal_SetInterruptMode(Gimbal_INIT_INTERRUPTS_MODE);
 139              		.loc 1 148 0
 140 0062 0020     		mov	r0, #0
 141 0064 FFF7FEFF 		bl	Gimbal_SetInterruptMode
 149:.\Generated_Source\PSoC4/Gimbal.c ****     #endif /* (Gimbal_UseStatus || Gimbal_UsingFixedFunction) */
 150:.\Generated_Source\PSoC4/Gimbal.c ****         
 151:.\Generated_Source\PSoC4/Gimbal.c ****     #if (Gimbal_UsingFixedFunction)
 152:.\Generated_Source\PSoC4/Gimbal.c ****         /* Globally Enable the Fixed Function Block chosen */
 153:.\Generated_Source\PSoC4/Gimbal.c ****         Gimbal_GLOBAL_ENABLE |= Gimbal_BLOCK_EN_MASK;
 154:.\Generated_Source\PSoC4/Gimbal.c ****         /* Set the Interrupt source to come from the status register */
 155:.\Generated_Source\PSoC4/Gimbal.c ****         Gimbal_CONTROL2 |= Gimbal_CTRL2_IRQ_SEL;
 156:.\Generated_Source\PSoC4/Gimbal.c ****     #else
 157:.\Generated_Source\PSoC4/Gimbal.c ****         #if(Gimbal_UseStatus)
 158:.\Generated_Source\PSoC4/Gimbal.c ****             
 159:.\Generated_Source\PSoC4/Gimbal.c ****             /* CyEnterCriticalRegion and CyExitCriticalRegion are used to mark following region cri
 160:.\Generated_Source\PSoC4/Gimbal.c ****             /* Enter Critical Region*/
 161:.\Generated_Source\PSoC4/Gimbal.c ****             Gimbal_interruptState = CyEnterCriticalSection();
 142              		.loc 1 161 0
 143 0068 BC1D     		add	r4, r7, #6
 144 006a FFF7FEFF 		bl	CyEnterCriticalSection
 145 006e 031C     		mov	r3, r0
 146 0070 2370     		strb	r3, [r4]
 162:.\Generated_Source\PSoC4/Gimbal.c ****             /* Use the interrupt output of the status register for IRQ output */
 163:.\Generated_Source\PSoC4/Gimbal.c ****             Gimbal_STATUS_AUX_CTRL |= Gimbal_STATUS_ACTL_INT_EN_MASK;
 147              		.loc 1 163 0
 148 0072 0A4B     		ldr	r3, .L6+4
 149 0074 094A     		ldr	r2, .L6+4
 150 0076 1278     		ldrb	r2, [r2]
 151 0078 D2B2     		uxtb	r2, r2
 152 007a 1021     		mov	r1, #16
 153 007c 0A43     		orr	r2, r1
 154 007e D2B2     		uxtb	r2, r2
 155 0080 1A70     		strb	r2, [r3]
 164:.\Generated_Source\PSoC4/Gimbal.c ****             
 165:.\Generated_Source\PSoC4/Gimbal.c ****              /* Exit Critical Region*/
 166:.\Generated_Source\PSoC4/Gimbal.c ****             CyExitCriticalSection(Gimbal_interruptState);
 156              		.loc 1 166 0
 157 0082 BB1D     		add	r3, r7, #6
 158 0084 1B78     		ldrb	r3, [r3]
 159 0086 181C     		mov	r0, r3
 160 0088 FFF7FEFF 		bl	CyExitCriticalSection
 167:.\Generated_Source\PSoC4/Gimbal.c ****             
 168:.\Generated_Source\PSoC4/Gimbal.c ****             /* Clear the FIFO to enable the Gimbal_STATUS_FIFOFULL
 169:.\Generated_Source\PSoC4/Gimbal.c ****                    bit to be set on FIFO full. */
 170:.\Generated_Source\PSoC4/Gimbal.c ****             Gimbal_ClearFIFO();
 161              		.loc 1 170 0
 162 008c FFF7FEFF 		bl	Gimbal_ClearFIFO
 171:.\Generated_Source\PSoC4/Gimbal.c ****         #endif /* (Gimbal_UseStatus) */
 172:.\Generated_Source\PSoC4/Gimbal.c ****     #endif /* (Gimbal_UsingFixedFunction) */
 173:.\Generated_Source\PSoC4/Gimbal.c **** }
 163              		.loc 1 173 0
 164 0090 BD46     		mov	sp, r7
 165 0092 03B0     		add	sp, sp, #12
 166              		@ sp needed for prologue
 167 0094 90BD     		pop	{r4, r7, pc}
 168              	.L7:
 169 0096 C046     		.align	2
ARM GAS  C:\Users\Jared\AppData\Local\Temp\cc4WT1Tu.s 			page 7


 170              	.L6:
 171 0098 72000F40 		.word	1074724978
 172 009c 92000F40 		.word	1074725010
 173 00a0 93000F40 		.word	1074725011
 174 00a4 204E0000 		.word	20000
 175 00a8 DC050000 		.word	1500
 176              		.cfi_endproc
 177              	.LFE1:
 178              		.size	Gimbal_Init, .-Gimbal_Init
 179              		.section	.text.Gimbal_Enable,"ax",%progbits
 180              		.align	2
 181              		.global	Gimbal_Enable
 182              		.code	16
 183              		.thumb_func
 184              		.type	Gimbal_Enable, %function
 185              	Gimbal_Enable:
 186              	.LFB2:
 174:.\Generated_Source\PSoC4/Gimbal.c **** 
 175:.\Generated_Source\PSoC4/Gimbal.c **** 
 176:.\Generated_Source\PSoC4/Gimbal.c **** /*******************************************************************************
 177:.\Generated_Source\PSoC4/Gimbal.c **** * Function Name: Gimbal_Enable
 178:.\Generated_Source\PSoC4/Gimbal.c **** ********************************************************************************
 179:.\Generated_Source\PSoC4/Gimbal.c **** *
 180:.\Generated_Source\PSoC4/Gimbal.c **** * Summary: 
 181:.\Generated_Source\PSoC4/Gimbal.c **** *  Enables the PWM block operation
 182:.\Generated_Source\PSoC4/Gimbal.c **** *
 183:.\Generated_Source\PSoC4/Gimbal.c **** * Parameters:  
 184:.\Generated_Source\PSoC4/Gimbal.c **** *  None
 185:.\Generated_Source\PSoC4/Gimbal.c **** *
 186:.\Generated_Source\PSoC4/Gimbal.c **** * Return: 
 187:.\Generated_Source\PSoC4/Gimbal.c **** *  None
 188:.\Generated_Source\PSoC4/Gimbal.c **** *
 189:.\Generated_Source\PSoC4/Gimbal.c **** * Side Effects: 
 190:.\Generated_Source\PSoC4/Gimbal.c **** *  This works only if software enable mode is chosen
 191:.\Generated_Source\PSoC4/Gimbal.c **** *
 192:.\Generated_Source\PSoC4/Gimbal.c **** *******************************************************************************/
 193:.\Generated_Source\PSoC4/Gimbal.c **** void Gimbal_Enable(void) 
 194:.\Generated_Source\PSoC4/Gimbal.c **** {
 187              		.loc 1 194 0
 188              		.cfi_startproc
 189 0000 80B5     		push	{r7, lr}
 190              	.LCFI5:
 191              		.cfi_def_cfa_offset 8
 192              		.cfi_offset 7, -8
 193              		.cfi_offset 14, -4
 194 0002 00AF     		add	r7, sp, #0
 195              	.LCFI6:
 196              		.cfi_def_cfa_register 7
 195:.\Generated_Source\PSoC4/Gimbal.c ****     /* Globally Enable the Fixed Function Block chosen */
 196:.\Generated_Source\PSoC4/Gimbal.c ****     #if (Gimbal_UsingFixedFunction)
 197:.\Generated_Source\PSoC4/Gimbal.c ****         Gimbal_GLOBAL_ENABLE |= Gimbal_BLOCK_EN_MASK;
 198:.\Generated_Source\PSoC4/Gimbal.c ****         Gimbal_GLOBAL_STBY_ENABLE |= Gimbal_BLOCK_STBY_EN_MASK;
 199:.\Generated_Source\PSoC4/Gimbal.c ****     #endif /* (Gimbal_UsingFixedFunction) */
 200:.\Generated_Source\PSoC4/Gimbal.c ****     
 201:.\Generated_Source\PSoC4/Gimbal.c ****     /* Enable the PWM from the control register  */
 202:.\Generated_Source\PSoC4/Gimbal.c ****     #if (Gimbal_UseControl || Gimbal_UsingFixedFunction)
 203:.\Generated_Source\PSoC4/Gimbal.c ****         Gimbal_CONTROL |= Gimbal_CTRL_ENABLE;
ARM GAS  C:\Users\Jared\AppData\Local\Temp\cc4WT1Tu.s 			page 8


 197              		.loc 1 203 0
 198 0004 054B     		ldr	r3, .L9
 199 0006 054A     		ldr	r2, .L9
 200 0008 1278     		ldrb	r2, [r2]
 201 000a D2B2     		uxtb	r2, r2
 202 000c 8021     		mov	r1, #128
 203 000e 4942     		neg	r1, r1
 204 0010 0A43     		orr	r2, r1
 205 0012 D2B2     		uxtb	r2, r2
 206 0014 1A70     		strb	r2, [r3]
 204:.\Generated_Source\PSoC4/Gimbal.c ****     #endif /* (Gimbal_UseControl || Gimbal_UsingFixedFunction) */
 205:.\Generated_Source\PSoC4/Gimbal.c **** }
 207              		.loc 1 205 0
 208 0016 BD46     		mov	sp, r7
 209              		@ sp needed for prologue
 210 0018 80BD     		pop	{r7, pc}
 211              	.L10:
 212 001a C046     		.align	2
 213              	.L9:
 214 001c 72000F40 		.word	1074724978
 215              		.cfi_endproc
 216              	.LFE2:
 217              		.size	Gimbal_Enable, .-Gimbal_Enable
 218              		.section	.text.Gimbal_Stop,"ax",%progbits
 219              		.align	2
 220              		.global	Gimbal_Stop
 221              		.code	16
 222              		.thumb_func
 223              		.type	Gimbal_Stop, %function
 224              	Gimbal_Stop:
 225              	.LFB3:
 206:.\Generated_Source\PSoC4/Gimbal.c **** 
 207:.\Generated_Source\PSoC4/Gimbal.c **** 
 208:.\Generated_Source\PSoC4/Gimbal.c **** /*******************************************************************************
 209:.\Generated_Source\PSoC4/Gimbal.c **** * Function Name: Gimbal_Stop
 210:.\Generated_Source\PSoC4/Gimbal.c **** ********************************************************************************
 211:.\Generated_Source\PSoC4/Gimbal.c **** *
 212:.\Generated_Source\PSoC4/Gimbal.c **** * Summary:
 213:.\Generated_Source\PSoC4/Gimbal.c **** *  The stop function halts the PWM, but does not change any modes or disable
 214:.\Generated_Source\PSoC4/Gimbal.c **** *  interrupts.
 215:.\Generated_Source\PSoC4/Gimbal.c **** *
 216:.\Generated_Source\PSoC4/Gimbal.c **** * Parameters:  
 217:.\Generated_Source\PSoC4/Gimbal.c **** *  None  
 218:.\Generated_Source\PSoC4/Gimbal.c **** *
 219:.\Generated_Source\PSoC4/Gimbal.c **** * Return: 
 220:.\Generated_Source\PSoC4/Gimbal.c **** *  None
 221:.\Generated_Source\PSoC4/Gimbal.c **** *
 222:.\Generated_Source\PSoC4/Gimbal.c **** * Side Effects:
 223:.\Generated_Source\PSoC4/Gimbal.c **** *  If the Enable mode is set to Hardware only then this function
 224:.\Generated_Source\PSoC4/Gimbal.c **** *  has no effect on the operation of the PWM
 225:.\Generated_Source\PSoC4/Gimbal.c **** *
 226:.\Generated_Source\PSoC4/Gimbal.c **** *******************************************************************************/
 227:.\Generated_Source\PSoC4/Gimbal.c **** void Gimbal_Stop(void) 
 228:.\Generated_Source\PSoC4/Gimbal.c **** {
 226              		.loc 1 228 0
 227              		.cfi_startproc
 228 0000 80B5     		push	{r7, lr}
ARM GAS  C:\Users\Jared\AppData\Local\Temp\cc4WT1Tu.s 			page 9


 229              	.LCFI7:
 230              		.cfi_def_cfa_offset 8
 231              		.cfi_offset 7, -8
 232              		.cfi_offset 14, -4
 233 0002 00AF     		add	r7, sp, #0
 234              	.LCFI8:
 235              		.cfi_def_cfa_register 7
 229:.\Generated_Source\PSoC4/Gimbal.c ****     #if (Gimbal_UseControl || Gimbal_UsingFixedFunction)
 230:.\Generated_Source\PSoC4/Gimbal.c ****         Gimbal_CONTROL &= ((uint8)(~Gimbal_CTRL_ENABLE));
 236              		.loc 1 230 0
 237 0004 044B     		ldr	r3, .L12
 238 0006 044A     		ldr	r2, .L12
 239 0008 1278     		ldrb	r2, [r2]
 240 000a D1B2     		uxtb	r1, r2
 241 000c 7F22     		mov	r2, #127
 242 000e 0A40     		and	r2, r1
 243 0010 D2B2     		uxtb	r2, r2
 244 0012 1A70     		strb	r2, [r3]
 231:.\Generated_Source\PSoC4/Gimbal.c ****     #endif /* (Gimbal_UseControl || Gimbal_UsingFixedFunction) */
 232:.\Generated_Source\PSoC4/Gimbal.c ****     
 233:.\Generated_Source\PSoC4/Gimbal.c ****     /* Globally disable the Fixed Function Block chosen */
 234:.\Generated_Source\PSoC4/Gimbal.c ****     #if (Gimbal_UsingFixedFunction)
 235:.\Generated_Source\PSoC4/Gimbal.c ****         Gimbal_GLOBAL_ENABLE &= ((uint8)(~Gimbal_BLOCK_EN_MASK));
 236:.\Generated_Source\PSoC4/Gimbal.c ****         Gimbal_GLOBAL_STBY_ENABLE &= ((uint8)(~Gimbal_BLOCK_STBY_EN_MASK));
 237:.\Generated_Source\PSoC4/Gimbal.c ****     #endif /* (Gimbal_UsingFixedFunction) */
 238:.\Generated_Source\PSoC4/Gimbal.c **** }
 245              		.loc 1 238 0
 246 0014 BD46     		mov	sp, r7
 247              		@ sp needed for prologue
 248 0016 80BD     		pop	{r7, pc}
 249              	.L13:
 250              		.align	2
 251              	.L12:
 252 0018 72000F40 		.word	1074724978
 253              		.cfi_endproc
 254              	.LFE3:
 255              		.size	Gimbal_Stop, .-Gimbal_Stop
 256              		.section	.text.Gimbal_WriteCounter,"ax",%progbits
 257              		.align	2
 258              		.global	Gimbal_WriteCounter
 259              		.code	16
 260              		.thumb_func
 261              		.type	Gimbal_WriteCounter, %function
 262              	Gimbal_WriteCounter:
 263              	.LFB4:
 239:.\Generated_Source\PSoC4/Gimbal.c **** 
 240:.\Generated_Source\PSoC4/Gimbal.c **** 
 241:.\Generated_Source\PSoC4/Gimbal.c **** #if (Gimbal_UseOneCompareMode)
 242:.\Generated_Source\PSoC4/Gimbal.c **** 	#if (Gimbal_CompareMode1SW)
 243:.\Generated_Source\PSoC4/Gimbal.c **** 
 244:.\Generated_Source\PSoC4/Gimbal.c **** 
 245:.\Generated_Source\PSoC4/Gimbal.c **** 		/*******************************************************************************
 246:.\Generated_Source\PSoC4/Gimbal.c **** 		* Function Name: Gimbal_SetCompareMode
 247:.\Generated_Source\PSoC4/Gimbal.c **** 		********************************************************************************
 248:.\Generated_Source\PSoC4/Gimbal.c **** 		* 
 249:.\Generated_Source\PSoC4/Gimbal.c **** 		* Summary:
 250:.\Generated_Source\PSoC4/Gimbal.c **** 		*  This function writes the Compare Mode for the pwm output when in Dither mode,
ARM GAS  C:\Users\Jared\AppData\Local\Temp\cc4WT1Tu.s 			page 10


 251:.\Generated_Source\PSoC4/Gimbal.c **** 		*  Center Align Mode or One Output Mode.
 252:.\Generated_Source\PSoC4/Gimbal.c **** 		*
 253:.\Generated_Source\PSoC4/Gimbal.c **** 		* Parameters:
 254:.\Generated_Source\PSoC4/Gimbal.c **** 		*  comparemode:  The new compare mode for the PWM output. Use the compare types
 255:.\Generated_Source\PSoC4/Gimbal.c **** 		*                defined in the H file as input arguments.
 256:.\Generated_Source\PSoC4/Gimbal.c **** 		*
 257:.\Generated_Source\PSoC4/Gimbal.c **** 		* Return:
 258:.\Generated_Source\PSoC4/Gimbal.c **** 		*  None
 259:.\Generated_Source\PSoC4/Gimbal.c **** 		*
 260:.\Generated_Source\PSoC4/Gimbal.c **** 		*******************************************************************************/
 261:.\Generated_Source\PSoC4/Gimbal.c **** 		void Gimbal_SetCompareMode(uint8 comparemode) 
 262:.\Generated_Source\PSoC4/Gimbal.c **** 		{
 263:.\Generated_Source\PSoC4/Gimbal.c **** 		    #if(Gimbal_UsingFixedFunction)
 264:.\Generated_Source\PSoC4/Gimbal.c ****             
 265:.\Generated_Source\PSoC4/Gimbal.c ****                 #if(0 != Gimbal_CTRL_CMPMODE1_SHIFT)
 266:.\Generated_Source\PSoC4/Gimbal.c ****                     uint8 comparemodemasked = ((uint8)((uint8)comparemode << Gimbal_CTRL_CMPMODE1_S
 267:.\Generated_Source\PSoC4/Gimbal.c ****                 #else
 268:.\Generated_Source\PSoC4/Gimbal.c ****                     uint8 comparemodemasked = comparemode;
 269:.\Generated_Source\PSoC4/Gimbal.c ****                 #endif /* (0 != Gimbal_CTRL_CMPMODE1_SHIFT) */
 270:.\Generated_Source\PSoC4/Gimbal.c ****             
 271:.\Generated_Source\PSoC4/Gimbal.c **** 	            Gimbal_CONTROL3 &= ((uint8)(~Gimbal_CTRL_CMPMODE1_MASK)); /*Clear Existing Data */
 272:.\Generated_Source\PSoC4/Gimbal.c **** 	            Gimbal_CONTROL3 |= comparemodemasked;     
 273:.\Generated_Source\PSoC4/Gimbal.c **** 		                
 274:.\Generated_Source\PSoC4/Gimbal.c **** 		    #elif (Gimbal_UseControl)
 275:.\Generated_Source\PSoC4/Gimbal.c **** 		        
 276:.\Generated_Source\PSoC4/Gimbal.c ****                 #if(0 != Gimbal_CTRL_CMPMODE1_SHIFT)
 277:.\Generated_Source\PSoC4/Gimbal.c ****                     uint8 comparemode1masked = ((uint8)((uint8)comparemode << Gimbal_CTRL_CMPMODE1_
 278:.\Generated_Source\PSoC4/Gimbal.c ****     		                                    Gimbal_CTRL_CMPMODE1_MASK;
 279:.\Generated_Source\PSoC4/Gimbal.c ****                 #else
 280:.\Generated_Source\PSoC4/Gimbal.c ****                     uint8 comparemode1masked = comparemode & Gimbal_CTRL_CMPMODE1_MASK;            
 281:.\Generated_Source\PSoC4/Gimbal.c ****                 #endif /* (0 != Gimbal_CTRL_CMPMODE1_SHIFT) */
 282:.\Generated_Source\PSoC4/Gimbal.c ****                 
 283:.\Generated_Source\PSoC4/Gimbal.c ****                 #if(0 != Gimbal_CTRL_CMPMODE2_SHIFT)                            
 284:.\Generated_Source\PSoC4/Gimbal.c ****     		        uint8 comparemode2masked = ((uint8)((uint8)comparemode << Gimbal_CTRL_CMPMODE2_SHIFT)
 285:.\Generated_Source\PSoC4/Gimbal.c ****     		                                   Gimbal_CTRL_CMPMODE2_MASK;
 286:.\Generated_Source\PSoC4/Gimbal.c ****                 #else
 287:.\Generated_Source\PSoC4/Gimbal.c ****     		        uint8 comparemode2masked = comparemode & Gimbal_CTRL_CMPMODE2_MASK;                
 288:.\Generated_Source\PSoC4/Gimbal.c ****                 #endif /* (0 != Gimbal_CTRL_CMPMODE2_SHIFT) */
 289:.\Generated_Source\PSoC4/Gimbal.c ****                 
 290:.\Generated_Source\PSoC4/Gimbal.c **** 		        /*Clear existing mode */
 291:.\Generated_Source\PSoC4/Gimbal.c **** 		        Gimbal_CONTROL &= ((uint8)(~(Gimbal_CTRL_CMPMODE1_MASK | Gimbal_CTRL_CMPMODE2_MASK))); 
 292:.\Generated_Source\PSoC4/Gimbal.c **** 		        Gimbal_CONTROL |= (comparemode1masked | comparemode2masked);
 293:.\Generated_Source\PSoC4/Gimbal.c **** 		        
 294:.\Generated_Source\PSoC4/Gimbal.c **** 		    #else
 295:.\Generated_Source\PSoC4/Gimbal.c **** 		        uint8 temp = comparemode;
 296:.\Generated_Source\PSoC4/Gimbal.c **** 		    #endif /* (Gimbal_UsingFixedFunction) */
 297:.\Generated_Source\PSoC4/Gimbal.c **** 		}
 298:.\Generated_Source\PSoC4/Gimbal.c **** 	#endif /* Gimbal_CompareMode1SW */
 299:.\Generated_Source\PSoC4/Gimbal.c **** 
 300:.\Generated_Source\PSoC4/Gimbal.c **** #else /* UseOneCompareMode */
 301:.\Generated_Source\PSoC4/Gimbal.c **** 
 302:.\Generated_Source\PSoC4/Gimbal.c **** 	#if (Gimbal_CompareMode1SW)
 303:.\Generated_Source\PSoC4/Gimbal.c **** 
 304:.\Generated_Source\PSoC4/Gimbal.c **** 
 305:.\Generated_Source\PSoC4/Gimbal.c **** 		/*******************************************************************************
 306:.\Generated_Source\PSoC4/Gimbal.c **** 		* Function Name: Gimbal_SetCompareMode1
 307:.\Generated_Source\PSoC4/Gimbal.c **** 		********************************************************************************
ARM GAS  C:\Users\Jared\AppData\Local\Temp\cc4WT1Tu.s 			page 11


 308:.\Generated_Source\PSoC4/Gimbal.c **** 		* 
 309:.\Generated_Source\PSoC4/Gimbal.c **** 		* Summary:
 310:.\Generated_Source\PSoC4/Gimbal.c **** 		*  This function writes the Compare Mode for the pwm or pwm1 output
 311:.\Generated_Source\PSoC4/Gimbal.c **** 		*
 312:.\Generated_Source\PSoC4/Gimbal.c **** 		* Parameters:  
 313:.\Generated_Source\PSoC4/Gimbal.c **** 		*  comparemode:  The new compare mode for the PWM output. Use the compare types
 314:.\Generated_Source\PSoC4/Gimbal.c **** 		*                defined in the H file as input arguments.
 315:.\Generated_Source\PSoC4/Gimbal.c **** 		*
 316:.\Generated_Source\PSoC4/Gimbal.c **** 		* Return: 
 317:.\Generated_Source\PSoC4/Gimbal.c **** 		*  None
 318:.\Generated_Source\PSoC4/Gimbal.c **** 		*
 319:.\Generated_Source\PSoC4/Gimbal.c **** 		*******************************************************************************/
 320:.\Generated_Source\PSoC4/Gimbal.c **** 		void Gimbal_SetCompareMode1(uint8 comparemode) 
 321:.\Generated_Source\PSoC4/Gimbal.c **** 		{
 322:.\Generated_Source\PSoC4/Gimbal.c **** 		    #if(0 != Gimbal_CTRL_CMPMODE1_SHIFT)
 323:.\Generated_Source\PSoC4/Gimbal.c ****                 uint8 comparemodemasked = ((uint8)((uint8)comparemode << Gimbal_CTRL_CMPMODE1_SHIFT
 324:.\Generated_Source\PSoC4/Gimbal.c ****     		                               Gimbal_CTRL_CMPMODE1_MASK;
 325:.\Generated_Source\PSoC4/Gimbal.c **** 		    #else
 326:.\Generated_Source\PSoC4/Gimbal.c ****                 uint8 comparemodemasked = comparemode & Gimbal_CTRL_CMPMODE1_MASK;                
 327:.\Generated_Source\PSoC4/Gimbal.c ****             #endif /* (0 != Gimbal_CTRL_CMPMODE1_SHIFT) */
 328:.\Generated_Source\PSoC4/Gimbal.c ****                    
 329:.\Generated_Source\PSoC4/Gimbal.c **** 		    #if (Gimbal_UseControl)
 330:.\Generated_Source\PSoC4/Gimbal.c **** 		        Gimbal_CONTROL &= ((uint8)(~Gimbal_CTRL_CMPMODE1_MASK)); /*Clear existing mode */
 331:.\Generated_Source\PSoC4/Gimbal.c **** 		        Gimbal_CONTROL |= comparemodemasked;
 332:.\Generated_Source\PSoC4/Gimbal.c **** 		    #endif /* (Gimbal_UseControl) */
 333:.\Generated_Source\PSoC4/Gimbal.c **** 		}
 334:.\Generated_Source\PSoC4/Gimbal.c **** 	#endif /* Gimbal_CompareMode1SW */
 335:.\Generated_Source\PSoC4/Gimbal.c **** 
 336:.\Generated_Source\PSoC4/Gimbal.c **** #if (Gimbal_CompareMode2SW)
 337:.\Generated_Source\PSoC4/Gimbal.c **** 
 338:.\Generated_Source\PSoC4/Gimbal.c **** 
 339:.\Generated_Source\PSoC4/Gimbal.c ****     /*******************************************************************************
 340:.\Generated_Source\PSoC4/Gimbal.c ****     * Function Name: Gimbal_SetCompareMode2
 341:.\Generated_Source\PSoC4/Gimbal.c ****     ********************************************************************************
 342:.\Generated_Source\PSoC4/Gimbal.c ****     * 
 343:.\Generated_Source\PSoC4/Gimbal.c ****     * Summary:
 344:.\Generated_Source\PSoC4/Gimbal.c ****     *  This function writes the Compare Mode for the pwm or pwm2 output
 345:.\Generated_Source\PSoC4/Gimbal.c ****     *
 346:.\Generated_Source\PSoC4/Gimbal.c ****     * Parameters:  
 347:.\Generated_Source\PSoC4/Gimbal.c ****     *  comparemode:  The new compare mode for the PWM output. Use the compare types
 348:.\Generated_Source\PSoC4/Gimbal.c ****     *                defined in the H file as input arguments.
 349:.\Generated_Source\PSoC4/Gimbal.c ****     *
 350:.\Generated_Source\PSoC4/Gimbal.c ****     * Return: 
 351:.\Generated_Source\PSoC4/Gimbal.c ****     *  None
 352:.\Generated_Source\PSoC4/Gimbal.c ****     *
 353:.\Generated_Source\PSoC4/Gimbal.c ****     *******************************************************************************/
 354:.\Generated_Source\PSoC4/Gimbal.c ****     void Gimbal_SetCompareMode2(uint8 comparemode) 
 355:.\Generated_Source\PSoC4/Gimbal.c ****     {
 356:.\Generated_Source\PSoC4/Gimbal.c **** 
 357:.\Generated_Source\PSoC4/Gimbal.c ****         #if(0 != Gimbal_CTRL_CMPMODE2_SHIFT)
 358:.\Generated_Source\PSoC4/Gimbal.c ****             uint8 comparemodemasked = ((uint8)((uint8)comparemode << Gimbal_CTRL_CMPMODE2_SHIFT)) &
 359:.\Generated_Source\PSoC4/Gimbal.c ****                                                  Gimbal_CTRL_CMPMODE2_MASK;
 360:.\Generated_Source\PSoC4/Gimbal.c ****         #else
 361:.\Generated_Source\PSoC4/Gimbal.c ****             uint8 comparemodemasked = comparemode & Gimbal_CTRL_CMPMODE2_MASK;            
 362:.\Generated_Source\PSoC4/Gimbal.c ****         #endif /* (0 != Gimbal_CTRL_CMPMODE2_SHIFT) */
 363:.\Generated_Source\PSoC4/Gimbal.c ****         
 364:.\Generated_Source\PSoC4/Gimbal.c ****         #if (Gimbal_UseControl)
ARM GAS  C:\Users\Jared\AppData\Local\Temp\cc4WT1Tu.s 			page 12


 365:.\Generated_Source\PSoC4/Gimbal.c ****             Gimbal_CONTROL &= ((uint8)(~Gimbal_CTRL_CMPMODE2_MASK)); /*Clear existing mode */
 366:.\Generated_Source\PSoC4/Gimbal.c ****             Gimbal_CONTROL |= comparemodemasked;
 367:.\Generated_Source\PSoC4/Gimbal.c ****         #endif /* (Gimbal_UseControl) */
 368:.\Generated_Source\PSoC4/Gimbal.c ****     }
 369:.\Generated_Source\PSoC4/Gimbal.c ****     #endif /*Gimbal_CompareMode2SW */
 370:.\Generated_Source\PSoC4/Gimbal.c **** 
 371:.\Generated_Source\PSoC4/Gimbal.c **** #endif /* UseOneCompareMode */
 372:.\Generated_Source\PSoC4/Gimbal.c **** 
 373:.\Generated_Source\PSoC4/Gimbal.c **** 
 374:.\Generated_Source\PSoC4/Gimbal.c **** #if (!Gimbal_UsingFixedFunction)
 375:.\Generated_Source\PSoC4/Gimbal.c **** 
 376:.\Generated_Source\PSoC4/Gimbal.c **** 
 377:.\Generated_Source\PSoC4/Gimbal.c ****     /*******************************************************************************
 378:.\Generated_Source\PSoC4/Gimbal.c ****     * Function Name: Gimbal_WriteCounter
 379:.\Generated_Source\PSoC4/Gimbal.c ****     ********************************************************************************
 380:.\Generated_Source\PSoC4/Gimbal.c ****     * 
 381:.\Generated_Source\PSoC4/Gimbal.c ****     * Summary:
 382:.\Generated_Source\PSoC4/Gimbal.c ****     *  Writes a new counter value directly to the counter register. This will be 
 383:.\Generated_Source\PSoC4/Gimbal.c ****     *  implemented for that currently running period and only that period. This API 
 384:.\Generated_Source\PSoC4/Gimbal.c ****     *  is valid only for UDB implementation and not available for fixed function 
 385:.\Generated_Source\PSoC4/Gimbal.c ****     *  PWM implementation.    
 386:.\Generated_Source\PSoC4/Gimbal.c ****     *
 387:.\Generated_Source\PSoC4/Gimbal.c ****     * Parameters:  
 388:.\Generated_Source\PSoC4/Gimbal.c ****     *  counter:  The period new period counter value.
 389:.\Generated_Source\PSoC4/Gimbal.c ****     *
 390:.\Generated_Source\PSoC4/Gimbal.c ****     * Return: 
 391:.\Generated_Source\PSoC4/Gimbal.c ****     *  None
 392:.\Generated_Source\PSoC4/Gimbal.c ****     *
 393:.\Generated_Source\PSoC4/Gimbal.c ****     * Side Effects: 
 394:.\Generated_Source\PSoC4/Gimbal.c ****     *  The PWM Period will be reloaded when a counter value will be a zero
 395:.\Generated_Source\PSoC4/Gimbal.c ****     *
 396:.\Generated_Source\PSoC4/Gimbal.c ****     *******************************************************************************/
 397:.\Generated_Source\PSoC4/Gimbal.c ****     void Gimbal_WriteCounter(uint16 counter) \
 398:.\Generated_Source\PSoC4/Gimbal.c ****                                        
 399:.\Generated_Source\PSoC4/Gimbal.c ****     {
 264              		.loc 1 399 0
 265              		.cfi_startproc
 266 0000 80B5     		push	{r7, lr}
 267              	.LCFI9:
 268              		.cfi_def_cfa_offset 8
 269              		.cfi_offset 7, -8
 270              		.cfi_offset 14, -4
 271 0002 82B0     		sub	sp, sp, #8
 272              	.LCFI10:
 273              		.cfi_def_cfa_offset 16
 274 0004 00AF     		add	r7, sp, #0
 275              	.LCFI11:
 276              		.cfi_def_cfa_register 7
 277 0006 021C     		mov	r2, r0
 278 0008 BB1D     		add	r3, r7, #6
 279 000a 1A80     		strh	r2, [r3]
 400:.\Generated_Source\PSoC4/Gimbal.c ****         CY_SET_REG16(Gimbal_COUNTER_LSB_PTR, counter);
 280              		.loc 1 400 0
 281 000c 034B     		ldr	r3, .L15
 282 000e BA1D     		add	r2, r7, #6
 283 0010 1288     		ldrh	r2, [r2]
 284 0012 1A80     		strh	r2, [r3]
ARM GAS  C:\Users\Jared\AppData\Local\Temp\cc4WT1Tu.s 			page 13


 401:.\Generated_Source\PSoC4/Gimbal.c ****     }
 285              		.loc 1 401 0
 286 0014 BD46     		mov	sp, r7
 287 0016 02B0     		add	sp, sp, #8
 288              		@ sp needed for prologue
 289 0018 80BD     		pop	{r7, pc}
 290              	.L16:
 291 001a C046     		.align	2
 292              	.L15:
 293 001c 04100F40 		.word	1074728964
 294              		.cfi_endproc
 295              	.LFE4:
 296              		.size	Gimbal_WriteCounter, .-Gimbal_WriteCounter
 297              		.section	.text.Gimbal_ReadCounter,"ax",%progbits
 298              		.align	2
 299              		.global	Gimbal_ReadCounter
 300              		.code	16
 301              		.thumb_func
 302              		.type	Gimbal_ReadCounter, %function
 303              	Gimbal_ReadCounter:
 304              	.LFB5:
 402:.\Generated_Source\PSoC4/Gimbal.c **** 
 403:.\Generated_Source\PSoC4/Gimbal.c **** 
 404:.\Generated_Source\PSoC4/Gimbal.c ****     /*******************************************************************************
 405:.\Generated_Source\PSoC4/Gimbal.c ****     * Function Name: Gimbal_ReadCounter
 406:.\Generated_Source\PSoC4/Gimbal.c ****     ********************************************************************************
 407:.\Generated_Source\PSoC4/Gimbal.c ****     * 
 408:.\Generated_Source\PSoC4/Gimbal.c ****     * Summary:
 409:.\Generated_Source\PSoC4/Gimbal.c ****     *  This function returns the current value of the counter.  It doesn't matter
 410:.\Generated_Source\PSoC4/Gimbal.c ****     *  if the counter is enabled or running.
 411:.\Generated_Source\PSoC4/Gimbal.c ****     *
 412:.\Generated_Source\PSoC4/Gimbal.c ****     * Parameters:  
 413:.\Generated_Source\PSoC4/Gimbal.c ****     *  None  
 414:.\Generated_Source\PSoC4/Gimbal.c ****     *
 415:.\Generated_Source\PSoC4/Gimbal.c ****     * Return: 
 416:.\Generated_Source\PSoC4/Gimbal.c ****     *  The current value of the counter.
 417:.\Generated_Source\PSoC4/Gimbal.c ****     *
 418:.\Generated_Source\PSoC4/Gimbal.c ****     *******************************************************************************/
 419:.\Generated_Source\PSoC4/Gimbal.c ****     uint16 Gimbal_ReadCounter(void) 
 420:.\Generated_Source\PSoC4/Gimbal.c ****     {
 305              		.loc 1 420 0
 306              		.cfi_startproc
 307 0000 80B5     		push	{r7, lr}
 308              	.LCFI12:
 309              		.cfi_def_cfa_offset 8
 310              		.cfi_offset 7, -8
 311              		.cfi_offset 14, -4
 312 0002 00AF     		add	r7, sp, #0
 313              	.LCFI13:
 314              		.cfi_def_cfa_register 7
 421:.\Generated_Source\PSoC4/Gimbal.c ****         /* Force capture by reading Accumulator */
 422:.\Generated_Source\PSoC4/Gimbal.c ****         /* Must first do a software capture to be able to read the counter */
 423:.\Generated_Source\PSoC4/Gimbal.c ****         /* It is up to the user code to make sure there isn't already captured data in the FIFO */
 424:.\Generated_Source\PSoC4/Gimbal.c ****         (void)Gimbal_COUNTERCAP_LSB;
 315              		.loc 1 424 0
 316 0004 034B     		ldr	r3, .L19
 317 0006 1B88     		ldrh	r3, [r3]
ARM GAS  C:\Users\Jared\AppData\Local\Temp\cc4WT1Tu.s 			page 14


 425:.\Generated_Source\PSoC4/Gimbal.c ****         
 426:.\Generated_Source\PSoC4/Gimbal.c ****         /* Read the data from the FIFO (or capture register for Fixed Function)*/
 427:.\Generated_Source\PSoC4/Gimbal.c ****         return (CY_GET_REG16(Gimbal_CAPTURE_LSB_PTR));
 318              		.loc 1 427 0
 319 0008 034B     		ldr	r3, .L19+4
 320 000a 1B88     		ldrh	r3, [r3]
 321 000c 9BB2     		uxth	r3, r3
 428:.\Generated_Source\PSoC4/Gimbal.c ****     }
 322              		.loc 1 428 0
 323 000e 181C     		mov	r0, r3
 324 0010 BD46     		mov	sp, r7
 325              		@ sp needed for prologue
 326 0012 80BD     		pop	{r7, pc}
 327              	.L20:
 328              		.align	2
 329              	.L19:
 330 0014 24100F40 		.word	1074728996
 331 0018 A4100F40 		.word	1074729124
 332              		.cfi_endproc
 333              	.LFE5:
 334              		.size	Gimbal_ReadCounter, .-Gimbal_ReadCounter
 335              		.section	.text.Gimbal_ClearFIFO,"ax",%progbits
 336              		.align	2
 337              		.global	Gimbal_ClearFIFO
 338              		.code	16
 339              		.thumb_func
 340              		.type	Gimbal_ClearFIFO, %function
 341              	Gimbal_ClearFIFO:
 342              	.LFB6:
 429:.\Generated_Source\PSoC4/Gimbal.c **** 
 430:.\Generated_Source\PSoC4/Gimbal.c ****         #if (Gimbal_UseStatus)
 431:.\Generated_Source\PSoC4/Gimbal.c **** 
 432:.\Generated_Source\PSoC4/Gimbal.c **** 
 433:.\Generated_Source\PSoC4/Gimbal.c ****             /*******************************************************************************
 434:.\Generated_Source\PSoC4/Gimbal.c ****             * Function Name: Gimbal_ClearFIFO
 435:.\Generated_Source\PSoC4/Gimbal.c ****             ********************************************************************************
 436:.\Generated_Source\PSoC4/Gimbal.c ****             * 
 437:.\Generated_Source\PSoC4/Gimbal.c ****             * Summary:
 438:.\Generated_Source\PSoC4/Gimbal.c ****             *  This function clears all capture data from the capture FIFO
 439:.\Generated_Source\PSoC4/Gimbal.c ****             *
 440:.\Generated_Source\PSoC4/Gimbal.c ****             * Parameters:  
 441:.\Generated_Source\PSoC4/Gimbal.c ****             *  None
 442:.\Generated_Source\PSoC4/Gimbal.c ****             *
 443:.\Generated_Source\PSoC4/Gimbal.c ****             * Return: 
 444:.\Generated_Source\PSoC4/Gimbal.c ****             *  None
 445:.\Generated_Source\PSoC4/Gimbal.c ****             *
 446:.\Generated_Source\PSoC4/Gimbal.c ****             *******************************************************************************/
 447:.\Generated_Source\PSoC4/Gimbal.c ****             void Gimbal_ClearFIFO(void) 
 448:.\Generated_Source\PSoC4/Gimbal.c ****             {
 343              		.loc 1 448 0
 344              		.cfi_startproc
 345 0000 80B5     		push	{r7, lr}
 346              	.LCFI14:
 347              		.cfi_def_cfa_offset 8
 348              		.cfi_offset 7, -8
 349              		.cfi_offset 14, -4
 350 0002 00AF     		add	r7, sp, #0
ARM GAS  C:\Users\Jared\AppData\Local\Temp\cc4WT1Tu.s 			page 15


 351              	.LCFI15:
 352              		.cfi_def_cfa_register 7
 449:.\Generated_Source\PSoC4/Gimbal.c ****                 while(0u != (Gimbal_ReadStatusRegister() & Gimbal_STATUS_FIFONEMPTY))
 353              		.loc 1 449 0
 354 0004 01E0     		b	.L22
 355              	.L23:
 450:.\Generated_Source\PSoC4/Gimbal.c ****                 {
 451:.\Generated_Source\PSoC4/Gimbal.c ****                     (void)Gimbal_ReadCapture();
 356              		.loc 1 451 0
 357 0006 FFF7FEFF 		bl	Gimbal_ReadCapture
 358              	.L22:
 449:.\Generated_Source\PSoC4/Gimbal.c ****                 while(0u != (Gimbal_ReadStatusRegister() & Gimbal_STATUS_FIFONEMPTY))
 359              		.loc 1 449 0 discriminator 1
 360 000a FFF7FEFF 		bl	Gimbal_ReadStatusRegister
 361 000e 031C     		mov	r3, r0
 362 0010 1A1C     		mov	r2, r3
 363 0012 1023     		mov	r3, #16
 364 0014 1340     		and	r3, r2
 365 0016 F6D1     		bne	.L23
 452:.\Generated_Source\PSoC4/Gimbal.c ****                 }
 453:.\Generated_Source\PSoC4/Gimbal.c ****             }
 366              		.loc 1 453 0
 367 0018 BD46     		mov	sp, r7
 368              		@ sp needed for prologue
 369 001a 80BD     		pop	{r7, pc}
 370              		.cfi_endproc
 371              	.LFE6:
 372              		.size	Gimbal_ClearFIFO, .-Gimbal_ClearFIFO
 373              		.section	.text.Gimbal_WritePeriod,"ax",%progbits
 374              		.align	2
 375              		.global	Gimbal_WritePeriod
 376              		.code	16
 377              		.thumb_func
 378              		.type	Gimbal_WritePeriod, %function
 379              	Gimbal_WritePeriod:
 380              	.LFB7:
 454:.\Generated_Source\PSoC4/Gimbal.c **** 
 455:.\Generated_Source\PSoC4/Gimbal.c ****         #endif /* Gimbal_UseStatus */
 456:.\Generated_Source\PSoC4/Gimbal.c **** 
 457:.\Generated_Source\PSoC4/Gimbal.c **** #endif /* !Gimbal_UsingFixedFunction */
 458:.\Generated_Source\PSoC4/Gimbal.c **** 
 459:.\Generated_Source\PSoC4/Gimbal.c **** 
 460:.\Generated_Source\PSoC4/Gimbal.c **** /*******************************************************************************
 461:.\Generated_Source\PSoC4/Gimbal.c **** * Function Name: Gimbal_WritePeriod
 462:.\Generated_Source\PSoC4/Gimbal.c **** ********************************************************************************
 463:.\Generated_Source\PSoC4/Gimbal.c **** * 
 464:.\Generated_Source\PSoC4/Gimbal.c **** * Summary:
 465:.\Generated_Source\PSoC4/Gimbal.c **** *  This function is used to change the period of the counter.  The new period 
 466:.\Generated_Source\PSoC4/Gimbal.c **** *  will be loaded the next time terminal count is detected.
 467:.\Generated_Source\PSoC4/Gimbal.c **** *
 468:.\Generated_Source\PSoC4/Gimbal.c **** * Parameters:  
 469:.\Generated_Source\PSoC4/Gimbal.c **** *  period:  Period value. May be between 1 and (2^Resolution)-1.  A value of 0 
 470:.\Generated_Source\PSoC4/Gimbal.c **** *           will result in the counter remaining at zero.
 471:.\Generated_Source\PSoC4/Gimbal.c **** *
 472:.\Generated_Source\PSoC4/Gimbal.c **** * Return: 
 473:.\Generated_Source\PSoC4/Gimbal.c **** *  None
 474:.\Generated_Source\PSoC4/Gimbal.c **** *
ARM GAS  C:\Users\Jared\AppData\Local\Temp\cc4WT1Tu.s 			page 16


 475:.\Generated_Source\PSoC4/Gimbal.c **** *******************************************************************************/
 476:.\Generated_Source\PSoC4/Gimbal.c **** void Gimbal_WritePeriod(uint16 period) 
 477:.\Generated_Source\PSoC4/Gimbal.c **** {
 381              		.loc 1 477 0
 382              		.cfi_startproc
 383 0000 80B5     		push	{r7, lr}
 384              	.LCFI16:
 385              		.cfi_def_cfa_offset 8
 386              		.cfi_offset 7, -8
 387              		.cfi_offset 14, -4
 388 0002 82B0     		sub	sp, sp, #8
 389              	.LCFI17:
 390              		.cfi_def_cfa_offset 16
 391 0004 00AF     		add	r7, sp, #0
 392              	.LCFI18:
 393              		.cfi_def_cfa_register 7
 394 0006 021C     		mov	r2, r0
 395 0008 BB1D     		add	r3, r7, #6
 396 000a 1A80     		strh	r2, [r3]
 478:.\Generated_Source\PSoC4/Gimbal.c ****     #if(Gimbal_UsingFixedFunction)
 479:.\Generated_Source\PSoC4/Gimbal.c ****         CY_SET_REG16(Gimbal_PERIOD_LSB_PTR, (uint16)period);
 480:.\Generated_Source\PSoC4/Gimbal.c ****     #else
 481:.\Generated_Source\PSoC4/Gimbal.c ****         CY_SET_REG16(Gimbal_PERIOD_LSB_PTR, period);
 397              		.loc 1 481 0
 398 000c 034B     		ldr	r3, .L25
 399 000e BA1D     		add	r2, r7, #6
 400 0010 1288     		ldrh	r2, [r2]
 401 0012 1A80     		strh	r2, [r3]
 482:.\Generated_Source\PSoC4/Gimbal.c ****     #endif /* (Gimbal_UsingFixedFunction) */
 483:.\Generated_Source\PSoC4/Gimbal.c **** }
 402              		.loc 1 483 0
 403 0014 BD46     		mov	sp, r7
 404 0016 02B0     		add	sp, sp, #8
 405              		@ sp needed for prologue
 406 0018 80BD     		pop	{r7, pc}
 407              	.L26:
 408 001a C046     		.align	2
 409              	.L25:
 410 001c 84100F40 		.word	1074729092
 411              		.cfi_endproc
 412              	.LFE7:
 413              		.size	Gimbal_WritePeriod, .-Gimbal_WritePeriod
 414              		.section	.text.Gimbal_WriteCompare1,"ax",%progbits
 415              		.align	2
 416              		.global	Gimbal_WriteCompare1
 417              		.code	16
 418              		.thumb_func
 419              		.type	Gimbal_WriteCompare1, %function
 420              	Gimbal_WriteCompare1:
 421              	.LFB8:
 484:.\Generated_Source\PSoC4/Gimbal.c **** 
 485:.\Generated_Source\PSoC4/Gimbal.c **** #if (Gimbal_UseOneCompareMode)
 486:.\Generated_Source\PSoC4/Gimbal.c **** 
 487:.\Generated_Source\PSoC4/Gimbal.c **** 
 488:.\Generated_Source\PSoC4/Gimbal.c ****     /*******************************************************************************
 489:.\Generated_Source\PSoC4/Gimbal.c ****     * Function Name: Gimbal_WriteCompare
 490:.\Generated_Source\PSoC4/Gimbal.c ****     ********************************************************************************
ARM GAS  C:\Users\Jared\AppData\Local\Temp\cc4WT1Tu.s 			page 17


 491:.\Generated_Source\PSoC4/Gimbal.c ****     * 
 492:.\Generated_Source\PSoC4/Gimbal.c ****     * Summary:
 493:.\Generated_Source\PSoC4/Gimbal.c ****     *  This funtion is used to change the compare1 value when the PWM is in Dither
 494:.\Generated_Source\PSoC4/Gimbal.c ****     *  mode. The compare output will reflect the new value on the next UDB clock. 
 495:.\Generated_Source\PSoC4/Gimbal.c ****     *  The compare output will be driven high when the present counter value is 
 496:.\Generated_Source\PSoC4/Gimbal.c ****     *  compared to the compare value based on the compare mode defined in 
 497:.\Generated_Source\PSoC4/Gimbal.c ****     *  Dither Mode.
 498:.\Generated_Source\PSoC4/Gimbal.c ****     *
 499:.\Generated_Source\PSoC4/Gimbal.c ****     * Parameters:  
 500:.\Generated_Source\PSoC4/Gimbal.c ****     *  compare:  New compare value.  
 501:.\Generated_Source\PSoC4/Gimbal.c ****     *
 502:.\Generated_Source\PSoC4/Gimbal.c ****     * Return: 
 503:.\Generated_Source\PSoC4/Gimbal.c ****     *  None
 504:.\Generated_Source\PSoC4/Gimbal.c ****     *
 505:.\Generated_Source\PSoC4/Gimbal.c ****     * Side Effects:
 506:.\Generated_Source\PSoC4/Gimbal.c ****     *  This function is only available if the PWM mode parameter is set to
 507:.\Generated_Source\PSoC4/Gimbal.c ****     *  Dither Mode, Center Aligned Mode or One Output Mode
 508:.\Generated_Source\PSoC4/Gimbal.c ****     *
 509:.\Generated_Source\PSoC4/Gimbal.c ****     *******************************************************************************/
 510:.\Generated_Source\PSoC4/Gimbal.c ****     void Gimbal_WriteCompare(uint16 compare) \
 511:.\Generated_Source\PSoC4/Gimbal.c ****                                        
 512:.\Generated_Source\PSoC4/Gimbal.c ****     {	
 513:.\Generated_Source\PSoC4/Gimbal.c **** 		#if(Gimbal_UsingFixedFunction)
 514:.\Generated_Source\PSoC4/Gimbal.c **** 			CY_SET_REG16(Gimbal_COMPARE1_LSB_PTR, (uint16)compare);
 515:.\Generated_Source\PSoC4/Gimbal.c **** 		#else
 516:.\Generated_Source\PSoC4/Gimbal.c **** 	        CY_SET_REG16(Gimbal_COMPARE1_LSB_PTR, compare);	
 517:.\Generated_Source\PSoC4/Gimbal.c **** 		#endif /* (Gimbal_UsingFixedFunction) */
 518:.\Generated_Source\PSoC4/Gimbal.c ****         
 519:.\Generated_Source\PSoC4/Gimbal.c ****         #if (Gimbal_PWMMode == Gimbal__B_PWM__DITHER)
 520:.\Generated_Source\PSoC4/Gimbal.c ****             #if(Gimbal_UsingFixedFunction)
 521:.\Generated_Source\PSoC4/Gimbal.c ****     			CY_SET_REG16(Gimbal_COMPARE2_LSB_PTR, (uint16)(compare + 1u));
 522:.\Generated_Source\PSoC4/Gimbal.c ****     		#else
 523:.\Generated_Source\PSoC4/Gimbal.c ****     	        CY_SET_REG16(Gimbal_COMPARE2_LSB_PTR, (compare + 1u));	
 524:.\Generated_Source\PSoC4/Gimbal.c ****     		#endif /* (Gimbal_UsingFixedFunction) */
 525:.\Generated_Source\PSoC4/Gimbal.c ****         #endif /* (Gimbal_PWMMode == Gimbal__B_PWM__DITHER) */
 526:.\Generated_Source\PSoC4/Gimbal.c ****     }
 527:.\Generated_Source\PSoC4/Gimbal.c **** 
 528:.\Generated_Source\PSoC4/Gimbal.c **** 
 529:.\Generated_Source\PSoC4/Gimbal.c **** #else
 530:.\Generated_Source\PSoC4/Gimbal.c **** 
 531:.\Generated_Source\PSoC4/Gimbal.c **** 
 532:.\Generated_Source\PSoC4/Gimbal.c ****     /*******************************************************************************
 533:.\Generated_Source\PSoC4/Gimbal.c ****     * Function Name: Gimbal_WriteCompare1
 534:.\Generated_Source\PSoC4/Gimbal.c ****     ********************************************************************************
 535:.\Generated_Source\PSoC4/Gimbal.c ****     * 
 536:.\Generated_Source\PSoC4/Gimbal.c ****     * Summary:
 537:.\Generated_Source\PSoC4/Gimbal.c ****     *  This funtion is used to change the compare1 value.  The compare output will 
 538:.\Generated_Source\PSoC4/Gimbal.c ****     *  reflect the new value on the next UDB clock.  The compare output will be 
 539:.\Generated_Source\PSoC4/Gimbal.c ****     *  driven high when the present counter value is less than or less than or 
 540:.\Generated_Source\PSoC4/Gimbal.c ****     *  equal to the compare register, depending on the mode.
 541:.\Generated_Source\PSoC4/Gimbal.c ****     *
 542:.\Generated_Source\PSoC4/Gimbal.c ****     * Parameters:  
 543:.\Generated_Source\PSoC4/Gimbal.c ****     *  compare:  New compare value.  
 544:.\Generated_Source\PSoC4/Gimbal.c ****     *
 545:.\Generated_Source\PSoC4/Gimbal.c ****     * Return: 
 546:.\Generated_Source\PSoC4/Gimbal.c ****     *  None
 547:.\Generated_Source\PSoC4/Gimbal.c ****     *
ARM GAS  C:\Users\Jared\AppData\Local\Temp\cc4WT1Tu.s 			page 18


 548:.\Generated_Source\PSoC4/Gimbal.c ****     *******************************************************************************/
 549:.\Generated_Source\PSoC4/Gimbal.c ****     void Gimbal_WriteCompare1(uint16 compare) \
 550:.\Generated_Source\PSoC4/Gimbal.c ****                                         
 551:.\Generated_Source\PSoC4/Gimbal.c ****     {
 422              		.loc 1 551 0
 423              		.cfi_startproc
 424 0000 80B5     		push	{r7, lr}
 425              	.LCFI19:
 426              		.cfi_def_cfa_offset 8
 427              		.cfi_offset 7, -8
 428              		.cfi_offset 14, -4
 429 0002 82B0     		sub	sp, sp, #8
 430              	.LCFI20:
 431              		.cfi_def_cfa_offset 16
 432 0004 00AF     		add	r7, sp, #0
 433              	.LCFI21:
 434              		.cfi_def_cfa_register 7
 435 0006 021C     		mov	r2, r0
 436 0008 BB1D     		add	r3, r7, #6
 437 000a 1A80     		strh	r2, [r3]
 552:.\Generated_Source\PSoC4/Gimbal.c ****         #if(Gimbal_UsingFixedFunction)
 553:.\Generated_Source\PSoC4/Gimbal.c ****             CY_SET_REG16(Gimbal_COMPARE1_LSB_PTR, (uint16)compare);
 554:.\Generated_Source\PSoC4/Gimbal.c ****         #else
 555:.\Generated_Source\PSoC4/Gimbal.c ****             CY_SET_REG16(Gimbal_COMPARE1_LSB_PTR, compare);
 438              		.loc 1 555 0
 439 000c 034B     		ldr	r3, .L28
 440 000e BA1D     		add	r2, r7, #6
 441 0010 1288     		ldrh	r2, [r2]
 442 0012 1A80     		strh	r2, [r3]
 556:.\Generated_Source\PSoC4/Gimbal.c ****         #endif /* (Gimbal_UsingFixedFunction) */
 557:.\Generated_Source\PSoC4/Gimbal.c ****     }
 443              		.loc 1 557 0
 444 0014 BD46     		mov	sp, r7
 445 0016 02B0     		add	sp, sp, #8
 446              		@ sp needed for prologue
 447 0018 80BD     		pop	{r7, pc}
 448              	.L29:
 449 001a C046     		.align	2
 450              	.L28:
 451 001c 44100F40 		.word	1074729028
 452              		.cfi_endproc
 453              	.LFE8:
 454              		.size	Gimbal_WriteCompare1, .-Gimbal_WriteCompare1
 455              		.section	.text.Gimbal_WriteCompare2,"ax",%progbits
 456              		.align	2
 457              		.global	Gimbal_WriteCompare2
 458              		.code	16
 459              		.thumb_func
 460              		.type	Gimbal_WriteCompare2, %function
 461              	Gimbal_WriteCompare2:
 462              	.LFB9:
 558:.\Generated_Source\PSoC4/Gimbal.c **** 
 559:.\Generated_Source\PSoC4/Gimbal.c **** 
 560:.\Generated_Source\PSoC4/Gimbal.c ****     /*******************************************************************************
 561:.\Generated_Source\PSoC4/Gimbal.c ****     * Function Name: Gimbal_WriteCompare2
 562:.\Generated_Source\PSoC4/Gimbal.c ****     ********************************************************************************
 563:.\Generated_Source\PSoC4/Gimbal.c ****     * 
ARM GAS  C:\Users\Jared\AppData\Local\Temp\cc4WT1Tu.s 			page 19


 564:.\Generated_Source\PSoC4/Gimbal.c ****     * Summary:
 565:.\Generated_Source\PSoC4/Gimbal.c ****     *  This funtion is used to change the compare value, for compare1 output.  
 566:.\Generated_Source\PSoC4/Gimbal.c ****     *  The compare output will reflect the new value on the next UDB clock.  
 567:.\Generated_Source\PSoC4/Gimbal.c ****     *  The compare output will be driven high when the present counter value is 
 568:.\Generated_Source\PSoC4/Gimbal.c ****     *  less than or less than or equal to the compare register, depending on the 
 569:.\Generated_Source\PSoC4/Gimbal.c ****     *  mode.
 570:.\Generated_Source\PSoC4/Gimbal.c ****     *
 571:.\Generated_Source\PSoC4/Gimbal.c ****     * Parameters:  
 572:.\Generated_Source\PSoC4/Gimbal.c ****     *  compare:  New compare value.  
 573:.\Generated_Source\PSoC4/Gimbal.c ****     *
 574:.\Generated_Source\PSoC4/Gimbal.c ****     * Return: 
 575:.\Generated_Source\PSoC4/Gimbal.c ****     *  None
 576:.\Generated_Source\PSoC4/Gimbal.c ****     *
 577:.\Generated_Source\PSoC4/Gimbal.c ****     *******************************************************************************/
 578:.\Generated_Source\PSoC4/Gimbal.c ****     void Gimbal_WriteCompare2(uint16 compare) \
 579:.\Generated_Source\PSoC4/Gimbal.c ****                                         
 580:.\Generated_Source\PSoC4/Gimbal.c ****     {
 463              		.loc 1 580 0
 464              		.cfi_startproc
 465 0000 80B5     		push	{r7, lr}
 466              	.LCFI22:
 467              		.cfi_def_cfa_offset 8
 468              		.cfi_offset 7, -8
 469              		.cfi_offset 14, -4
 470 0002 82B0     		sub	sp, sp, #8
 471              	.LCFI23:
 472              		.cfi_def_cfa_offset 16
 473 0004 00AF     		add	r7, sp, #0
 474              	.LCFI24:
 475              		.cfi_def_cfa_register 7
 476 0006 021C     		mov	r2, r0
 477 0008 BB1D     		add	r3, r7, #6
 478 000a 1A80     		strh	r2, [r3]
 581:.\Generated_Source\PSoC4/Gimbal.c ****         #if(Gimbal_UsingFixedFunction)
 582:.\Generated_Source\PSoC4/Gimbal.c ****             CY_SET_REG16(Gimbal_COMPARE2_LSB_PTR, compare);
 583:.\Generated_Source\PSoC4/Gimbal.c ****         #else
 584:.\Generated_Source\PSoC4/Gimbal.c ****             CY_SET_REG16(Gimbal_COMPARE2_LSB_PTR, compare);
 479              		.loc 1 584 0
 480 000c 034B     		ldr	r3, .L31
 481 000e BA1D     		add	r2, r7, #6
 482 0010 1288     		ldrh	r2, [r2]
 483 0012 1A80     		strh	r2, [r3]
 585:.\Generated_Source\PSoC4/Gimbal.c ****         #endif /* (Gimbal_UsingFixedFunction) */
 586:.\Generated_Source\PSoC4/Gimbal.c ****     }
 484              		.loc 1 586 0
 485 0014 BD46     		mov	sp, r7
 486 0016 02B0     		add	sp, sp, #8
 487              		@ sp needed for prologue
 488 0018 80BD     		pop	{r7, pc}
 489              	.L32:
 490 001a C046     		.align	2
 491              	.L31:
 492 001c 64100F40 		.word	1074729060
 493              		.cfi_endproc
 494              	.LFE9:
 495              		.size	Gimbal_WriteCompare2, .-Gimbal_WriteCompare2
 496              		.section	.text.Gimbal_SetInterruptMode,"ax",%progbits
ARM GAS  C:\Users\Jared\AppData\Local\Temp\cc4WT1Tu.s 			page 20


 497              		.align	2
 498              		.global	Gimbal_SetInterruptMode
 499              		.code	16
 500              		.thumb_func
 501              		.type	Gimbal_SetInterruptMode, %function
 502              	Gimbal_SetInterruptMode:
 503              	.LFB10:
 587:.\Generated_Source\PSoC4/Gimbal.c **** #endif /* UseOneCompareMode */
 588:.\Generated_Source\PSoC4/Gimbal.c **** 
 589:.\Generated_Source\PSoC4/Gimbal.c **** #if (Gimbal_DeadBandUsed)
 590:.\Generated_Source\PSoC4/Gimbal.c **** 
 591:.\Generated_Source\PSoC4/Gimbal.c **** 
 592:.\Generated_Source\PSoC4/Gimbal.c ****     /*******************************************************************************
 593:.\Generated_Source\PSoC4/Gimbal.c ****     * Function Name: Gimbal_WriteDeadTime
 594:.\Generated_Source\PSoC4/Gimbal.c ****     ********************************************************************************
 595:.\Generated_Source\PSoC4/Gimbal.c ****     * 
 596:.\Generated_Source\PSoC4/Gimbal.c ****     * Summary:
 597:.\Generated_Source\PSoC4/Gimbal.c ****     *  This function writes the dead-band counts to the corresponding register
 598:.\Generated_Source\PSoC4/Gimbal.c ****     *
 599:.\Generated_Source\PSoC4/Gimbal.c ****     * Parameters:  
 600:.\Generated_Source\PSoC4/Gimbal.c ****     *  deadtime:  Number of counts for dead time 
 601:.\Generated_Source\PSoC4/Gimbal.c ****     *
 602:.\Generated_Source\PSoC4/Gimbal.c ****     * Return: 
 603:.\Generated_Source\PSoC4/Gimbal.c ****     *  None
 604:.\Generated_Source\PSoC4/Gimbal.c ****     *
 605:.\Generated_Source\PSoC4/Gimbal.c ****     *******************************************************************************/
 606:.\Generated_Source\PSoC4/Gimbal.c ****     void Gimbal_WriteDeadTime(uint8 deadtime) 
 607:.\Generated_Source\PSoC4/Gimbal.c ****     {
 608:.\Generated_Source\PSoC4/Gimbal.c ****         /* If using the Dead Band 1-255 mode then just write the register */
 609:.\Generated_Source\PSoC4/Gimbal.c ****         #if(!Gimbal_DeadBand2_4)
 610:.\Generated_Source\PSoC4/Gimbal.c ****             CY_SET_REG8(Gimbal_DEADBAND_COUNT_PTR, deadtime);
 611:.\Generated_Source\PSoC4/Gimbal.c ****         #else
 612:.\Generated_Source\PSoC4/Gimbal.c ****             /* Otherwise the data has to be masked and offset */        
 613:.\Generated_Source\PSoC4/Gimbal.c ****             /* Clear existing data */
 614:.\Generated_Source\PSoC4/Gimbal.c ****             Gimbal_DEADBAND_COUNT &= ((uint8)(~Gimbal_DEADBAND_COUNT_MASK));
 615:.\Generated_Source\PSoC4/Gimbal.c ****             
 616:.\Generated_Source\PSoC4/Gimbal.c ****             /* Set new dead time */
 617:.\Generated_Source\PSoC4/Gimbal.c ****             #if(Gimbal_DEADBAND_COUNT_SHIFT)        
 618:.\Generated_Source\PSoC4/Gimbal.c ****                 Gimbal_DEADBAND_COUNT |= ((uint8)((uint8)deadtime << Gimbal_DEADBAND_COUNT_SHIFT)) 
 619:.\Generated_Source\PSoC4/Gimbal.c ****                                                     Gimbal_DEADBAND_COUNT_MASK;
 620:.\Generated_Source\PSoC4/Gimbal.c ****             #else
 621:.\Generated_Source\PSoC4/Gimbal.c ****                 Gimbal_DEADBAND_COUNT |= deadtime & Gimbal_DEADBAND_COUNT_MASK;        
 622:.\Generated_Source\PSoC4/Gimbal.c ****             #endif /* (Gimbal_DEADBAND_COUNT_SHIFT) */
 623:.\Generated_Source\PSoC4/Gimbal.c ****         
 624:.\Generated_Source\PSoC4/Gimbal.c ****         #endif /* (!Gimbal_DeadBand2_4) */
 625:.\Generated_Source\PSoC4/Gimbal.c ****     }
 626:.\Generated_Source\PSoC4/Gimbal.c **** 
 627:.\Generated_Source\PSoC4/Gimbal.c **** 
 628:.\Generated_Source\PSoC4/Gimbal.c ****     /*******************************************************************************
 629:.\Generated_Source\PSoC4/Gimbal.c ****     * Function Name: Gimbal_ReadDeadTime
 630:.\Generated_Source\PSoC4/Gimbal.c ****     ********************************************************************************
 631:.\Generated_Source\PSoC4/Gimbal.c ****     * 
 632:.\Generated_Source\PSoC4/Gimbal.c ****     * Summary:
 633:.\Generated_Source\PSoC4/Gimbal.c ****     *  This function reads the dead-band counts from the corresponding register
 634:.\Generated_Source\PSoC4/Gimbal.c ****     *
 635:.\Generated_Source\PSoC4/Gimbal.c ****     * Parameters:  
 636:.\Generated_Source\PSoC4/Gimbal.c ****     *  None
ARM GAS  C:\Users\Jared\AppData\Local\Temp\cc4WT1Tu.s 			page 21


 637:.\Generated_Source\PSoC4/Gimbal.c ****     *
 638:.\Generated_Source\PSoC4/Gimbal.c ****     * Return: 
 639:.\Generated_Source\PSoC4/Gimbal.c ****     *  Dead Band Counts
 640:.\Generated_Source\PSoC4/Gimbal.c ****     *
 641:.\Generated_Source\PSoC4/Gimbal.c ****     *******************************************************************************/
 642:.\Generated_Source\PSoC4/Gimbal.c ****     uint8 Gimbal_ReadDeadTime(void) 
 643:.\Generated_Source\PSoC4/Gimbal.c ****     {
 644:.\Generated_Source\PSoC4/Gimbal.c ****         /* If using the Dead Band 1-255 mode then just read the register */
 645:.\Generated_Source\PSoC4/Gimbal.c ****         #if(!Gimbal_DeadBand2_4)
 646:.\Generated_Source\PSoC4/Gimbal.c ****             return (CY_GET_REG8(Gimbal_DEADBAND_COUNT_PTR));
 647:.\Generated_Source\PSoC4/Gimbal.c ****         #else
 648:.\Generated_Source\PSoC4/Gimbal.c ****         
 649:.\Generated_Source\PSoC4/Gimbal.c ****             /* Otherwise the data has to be masked and offset */
 650:.\Generated_Source\PSoC4/Gimbal.c ****             #if(Gimbal_DEADBAND_COUNT_SHIFT)      
 651:.\Generated_Source\PSoC4/Gimbal.c ****                 return ((uint8)(((uint8)(Gimbal_DEADBAND_COUNT & Gimbal_DEADBAND_COUNT_MASK)) >> 
 652:.\Generated_Source\PSoC4/Gimbal.c ****                                                                            Gimbal_DEADBAND_COUNT_SH
 653:.\Generated_Source\PSoC4/Gimbal.c ****             #else
 654:.\Generated_Source\PSoC4/Gimbal.c ****                 return (Gimbal_DEADBAND_COUNT & Gimbal_DEADBAND_COUNT_MASK);
 655:.\Generated_Source\PSoC4/Gimbal.c ****             #endif /* (Gimbal_DEADBAND_COUNT_SHIFT) */
 656:.\Generated_Source\PSoC4/Gimbal.c ****         #endif /* (!Gimbal_DeadBand2_4) */
 657:.\Generated_Source\PSoC4/Gimbal.c ****     }
 658:.\Generated_Source\PSoC4/Gimbal.c **** #endif /* DeadBandUsed */
 659:.\Generated_Source\PSoC4/Gimbal.c **** 
 660:.\Generated_Source\PSoC4/Gimbal.c **** #if (Gimbal_UseStatus || Gimbal_UsingFixedFunction)
 661:.\Generated_Source\PSoC4/Gimbal.c **** 
 662:.\Generated_Source\PSoC4/Gimbal.c **** 
 663:.\Generated_Source\PSoC4/Gimbal.c ****     /*******************************************************************************
 664:.\Generated_Source\PSoC4/Gimbal.c ****     * Function Name: Gimbal_SetInterruptMode
 665:.\Generated_Source\PSoC4/Gimbal.c ****     ********************************************************************************
 666:.\Generated_Source\PSoC4/Gimbal.c ****     * 
 667:.\Generated_Source\PSoC4/Gimbal.c ****     * Summary:
 668:.\Generated_Source\PSoC4/Gimbal.c ****     *  This function configures the interrupts mask control of theinterrupt 
 669:.\Generated_Source\PSoC4/Gimbal.c ****     *  source status register.
 670:.\Generated_Source\PSoC4/Gimbal.c ****     *
 671:.\Generated_Source\PSoC4/Gimbal.c ****     * Parameters:  
 672:.\Generated_Source\PSoC4/Gimbal.c ****     *  uint8 interruptMode: Bit field containing the interrupt sources enabled 
 673:.\Generated_Source\PSoC4/Gimbal.c ****     *
 674:.\Generated_Source\PSoC4/Gimbal.c ****     * Return: 
 675:.\Generated_Source\PSoC4/Gimbal.c ****     *  None
 676:.\Generated_Source\PSoC4/Gimbal.c ****     *
 677:.\Generated_Source\PSoC4/Gimbal.c ****     *******************************************************************************/
 678:.\Generated_Source\PSoC4/Gimbal.c ****     void Gimbal_SetInterruptMode(uint8 interruptMode)  
 679:.\Generated_Source\PSoC4/Gimbal.c ****     {
 504              		.loc 1 679 0
 505              		.cfi_startproc
 506 0000 80B5     		push	{r7, lr}
 507              	.LCFI25:
 508              		.cfi_def_cfa_offset 8
 509              		.cfi_offset 7, -8
 510              		.cfi_offset 14, -4
 511 0002 82B0     		sub	sp, sp, #8
 512              	.LCFI26:
 513              		.cfi_def_cfa_offset 16
 514 0004 00AF     		add	r7, sp, #0
 515              	.LCFI27:
 516              		.cfi_def_cfa_register 7
 517 0006 021C     		mov	r2, r0
ARM GAS  C:\Users\Jared\AppData\Local\Temp\cc4WT1Tu.s 			page 22


 518 0008 FB1D     		add	r3, r7, #7
 519 000a 1A70     		strb	r2, [r3]
 680:.\Generated_Source\PSoC4/Gimbal.c ****     	CY_SET_REG8(Gimbal_STATUS_MASK_PTR, interruptMode);
 520              		.loc 1 680 0
 521 000c 034B     		ldr	r3, .L34
 522 000e FA1D     		add	r2, r7, #7
 523 0010 1278     		ldrb	r2, [r2]
 524 0012 1A70     		strb	r2, [r3]
 681:.\Generated_Source\PSoC4/Gimbal.c ****     }
 525              		.loc 1 681 0
 526 0014 BD46     		mov	sp, r7
 527 0016 02B0     		add	sp, sp, #8
 528              		@ sp needed for prologue
 529 0018 80BD     		pop	{r7, pc}
 530              	.L35:
 531 001a C046     		.align	2
 532              	.L34:
 533 001c 82000F40 		.word	1074724994
 534              		.cfi_endproc
 535              	.LFE10:
 536              		.size	Gimbal_SetInterruptMode, .-Gimbal_SetInterruptMode
 537              		.section	.text.Gimbal_ReadStatusRegister,"ax",%progbits
 538              		.align	2
 539              		.global	Gimbal_ReadStatusRegister
 540              		.code	16
 541              		.thumb_func
 542              		.type	Gimbal_ReadStatusRegister, %function
 543              	Gimbal_ReadStatusRegister:
 544              	.LFB11:
 682:.\Generated_Source\PSoC4/Gimbal.c **** 
 683:.\Generated_Source\PSoC4/Gimbal.c **** 
 684:.\Generated_Source\PSoC4/Gimbal.c ****     /*******************************************************************************
 685:.\Generated_Source\PSoC4/Gimbal.c ****     * Function Name: Gimbal_ReadStatusRegister
 686:.\Generated_Source\PSoC4/Gimbal.c ****     ********************************************************************************
 687:.\Generated_Source\PSoC4/Gimbal.c ****     * 
 688:.\Generated_Source\PSoC4/Gimbal.c ****     * Summary:
 689:.\Generated_Source\PSoC4/Gimbal.c ****     *  This function returns the current state of the status register. 
 690:.\Generated_Source\PSoC4/Gimbal.c ****     *
 691:.\Generated_Source\PSoC4/Gimbal.c ****     * Parameters:  
 692:.\Generated_Source\PSoC4/Gimbal.c ****     *  None
 693:.\Generated_Source\PSoC4/Gimbal.c ****     *
 694:.\Generated_Source\PSoC4/Gimbal.c ****     * Return: 
 695:.\Generated_Source\PSoC4/Gimbal.c ****     *  uint8 : Current status register value. The status register bits are:
 696:.\Generated_Source\PSoC4/Gimbal.c ****     *  [7:6] : Unused(0)
 697:.\Generated_Source\PSoC4/Gimbal.c ****     *  [5]   : Kill event output
 698:.\Generated_Source\PSoC4/Gimbal.c ****     *  [4]   : FIFO not empty
 699:.\Generated_Source\PSoC4/Gimbal.c ****     *  [3]   : FIFO full
 700:.\Generated_Source\PSoC4/Gimbal.c ****     *  [2]   : Terminal count
 701:.\Generated_Source\PSoC4/Gimbal.c ****     *  [1]   : Compare output 2
 702:.\Generated_Source\PSoC4/Gimbal.c ****     *  [0]   : Compare output 1
 703:.\Generated_Source\PSoC4/Gimbal.c ****     *
 704:.\Generated_Source\PSoC4/Gimbal.c ****     *******************************************************************************/
 705:.\Generated_Source\PSoC4/Gimbal.c ****     uint8 Gimbal_ReadStatusRegister(void)   
 706:.\Generated_Source\PSoC4/Gimbal.c ****     {
 545              		.loc 1 706 0
 546              		.cfi_startproc
 547 0000 80B5     		push	{r7, lr}
ARM GAS  C:\Users\Jared\AppData\Local\Temp\cc4WT1Tu.s 			page 23


 548              	.LCFI28:
 549              		.cfi_def_cfa_offset 8
 550              		.cfi_offset 7, -8
 551              		.cfi_offset 14, -4
 552 0002 82B0     		sub	sp, sp, #8
 553              	.LCFI29:
 554              		.cfi_def_cfa_offset 16
 555 0004 00AF     		add	r7, sp, #0
 556              	.LCFI30:
 557              		.cfi_def_cfa_register 7
 707:.\Generated_Source\PSoC4/Gimbal.c ****     	uint8 result;
 708:.\Generated_Source\PSoC4/Gimbal.c ****     	
 709:.\Generated_Source\PSoC4/Gimbal.c ****     	result = CY_GET_REG8(Gimbal_STATUS_PTR);
 558              		.loc 1 709 0
 559 0006 054A     		ldr	r2, .L38
 560 0008 FB1D     		add	r3, r7, #7
 561 000a 1278     		ldrb	r2, [r2]
 562 000c 1A70     		strb	r2, [r3]
 710:.\Generated_Source\PSoC4/Gimbal.c ****     	return (result);
 563              		.loc 1 710 0
 564 000e FB1D     		add	r3, r7, #7
 565 0010 1B78     		ldrb	r3, [r3]
 711:.\Generated_Source\PSoC4/Gimbal.c ****     }
 566              		.loc 1 711 0
 567 0012 181C     		mov	r0, r3
 568 0014 BD46     		mov	sp, r7
 569 0016 02B0     		add	sp, sp, #8
 570              		@ sp needed for prologue
 571 0018 80BD     		pop	{r7, pc}
 572              	.L39:
 573 001a C046     		.align	2
 574              	.L38:
 575 001c 62000F40 		.word	1074724962
 576              		.cfi_endproc
 577              	.LFE11:
 578              		.size	Gimbal_ReadStatusRegister, .-Gimbal_ReadStatusRegister
 579              		.section	.text.Gimbal_ReadControlRegister,"ax",%progbits
 580              		.align	2
 581              		.global	Gimbal_ReadControlRegister
 582              		.code	16
 583              		.thumb_func
 584              		.type	Gimbal_ReadControlRegister, %function
 585              	Gimbal_ReadControlRegister:
 586              	.LFB12:
 712:.\Generated_Source\PSoC4/Gimbal.c **** 
 713:.\Generated_Source\PSoC4/Gimbal.c **** #endif /* (Gimbal_UseStatus || Gimbal_UsingFixedFunction) */
 714:.\Generated_Source\PSoC4/Gimbal.c **** 
 715:.\Generated_Source\PSoC4/Gimbal.c **** 
 716:.\Generated_Source\PSoC4/Gimbal.c **** #if (Gimbal_UseControl)
 717:.\Generated_Source\PSoC4/Gimbal.c **** 
 718:.\Generated_Source\PSoC4/Gimbal.c **** 
 719:.\Generated_Source\PSoC4/Gimbal.c ****     /*******************************************************************************
 720:.\Generated_Source\PSoC4/Gimbal.c ****     * Function Name: Gimbal_ReadControlRegister
 721:.\Generated_Source\PSoC4/Gimbal.c ****     ********************************************************************************
 722:.\Generated_Source\PSoC4/Gimbal.c ****     * 
 723:.\Generated_Source\PSoC4/Gimbal.c ****     * Summary:
 724:.\Generated_Source\PSoC4/Gimbal.c ****     *  Returns the current state of the control register. This API is available 
ARM GAS  C:\Users\Jared\AppData\Local\Temp\cc4WT1Tu.s 			page 24


 725:.\Generated_Source\PSoC4/Gimbal.c ****     *  only if the control register is not removed.
 726:.\Generated_Source\PSoC4/Gimbal.c ****     *
 727:.\Generated_Source\PSoC4/Gimbal.c ****     * Parameters:  
 728:.\Generated_Source\PSoC4/Gimbal.c ****     *  None 
 729:.\Generated_Source\PSoC4/Gimbal.c ****     *
 730:.\Generated_Source\PSoC4/Gimbal.c ****     * Return: 
 731:.\Generated_Source\PSoC4/Gimbal.c ****     *  uint8 : Current control register value
 732:.\Generated_Source\PSoC4/Gimbal.c ****     *
 733:.\Generated_Source\PSoC4/Gimbal.c ****     *******************************************************************************/    
 734:.\Generated_Source\PSoC4/Gimbal.c ****     uint8 Gimbal_ReadControlRegister(void) 
 735:.\Generated_Source\PSoC4/Gimbal.c ****     {
 587              		.loc 1 735 0
 588              		.cfi_startproc
 589 0000 80B5     		push	{r7, lr}
 590              	.LCFI31:
 591              		.cfi_def_cfa_offset 8
 592              		.cfi_offset 7, -8
 593              		.cfi_offset 14, -4
 594 0002 82B0     		sub	sp, sp, #8
 595              	.LCFI32:
 596              		.cfi_def_cfa_offset 16
 597 0004 00AF     		add	r7, sp, #0
 598              	.LCFI33:
 599              		.cfi_def_cfa_register 7
 736:.\Generated_Source\PSoC4/Gimbal.c ****     	uint8 result;
 737:.\Generated_Source\PSoC4/Gimbal.c ****     	
 738:.\Generated_Source\PSoC4/Gimbal.c ****     	result = CY_GET_REG8(Gimbal_CONTROL_PTR);
 600              		.loc 1 738 0
 601 0006 054A     		ldr	r2, .L42
 602 0008 FB1D     		add	r3, r7, #7
 603 000a 1278     		ldrb	r2, [r2]
 604 000c 1A70     		strb	r2, [r3]
 739:.\Generated_Source\PSoC4/Gimbal.c ****     	return (result);
 605              		.loc 1 739 0
 606 000e FB1D     		add	r3, r7, #7
 607 0010 1B78     		ldrb	r3, [r3]
 740:.\Generated_Source\PSoC4/Gimbal.c ****     }
 608              		.loc 1 740 0
 609 0012 181C     		mov	r0, r3
 610 0014 BD46     		mov	sp, r7
 611 0016 02B0     		add	sp, sp, #8
 612              		@ sp needed for prologue
 613 0018 80BD     		pop	{r7, pc}
 614              	.L43:
 615 001a C046     		.align	2
 616              	.L42:
 617 001c 72000F40 		.word	1074724978
 618              		.cfi_endproc
 619              	.LFE12:
 620              		.size	Gimbal_ReadControlRegister, .-Gimbal_ReadControlRegister
 621              		.section	.text.Gimbal_WriteControlRegister,"ax",%progbits
 622              		.align	2
 623              		.global	Gimbal_WriteControlRegister
 624              		.code	16
 625              		.thumb_func
 626              		.type	Gimbal_WriteControlRegister, %function
 627              	Gimbal_WriteControlRegister:
ARM GAS  C:\Users\Jared\AppData\Local\Temp\cc4WT1Tu.s 			page 25


 628              	.LFB13:
 741:.\Generated_Source\PSoC4/Gimbal.c **** 
 742:.\Generated_Source\PSoC4/Gimbal.c **** 
 743:.\Generated_Source\PSoC4/Gimbal.c ****     /*******************************************************************************
 744:.\Generated_Source\PSoC4/Gimbal.c ****     * Function Name: Gimbal_WriteControlRegister
 745:.\Generated_Source\PSoC4/Gimbal.c ****     ********************************************************************************
 746:.\Generated_Source\PSoC4/Gimbal.c ****     * 
 747:.\Generated_Source\PSoC4/Gimbal.c ****     * Summary:
 748:.\Generated_Source\PSoC4/Gimbal.c ****     *  Sets the bit field of the control register. This API is available only if 
 749:.\Generated_Source\PSoC4/Gimbal.c ****     *  the control register is not removed.
 750:.\Generated_Source\PSoC4/Gimbal.c ****     *
 751:.\Generated_Source\PSoC4/Gimbal.c ****     * Parameters:  
 752:.\Generated_Source\PSoC4/Gimbal.c ****     *  uint8 control: Control register bit field, The status register bits are:
 753:.\Generated_Source\PSoC4/Gimbal.c ****     *  [7]   : PWM Enable
 754:.\Generated_Source\PSoC4/Gimbal.c ****     *  [6]   : Reset
 755:.\Generated_Source\PSoC4/Gimbal.c ****     *  [5:3] : Compare Mode2
 756:.\Generated_Source\PSoC4/Gimbal.c ****     *  [2:0] : Compare Mode2
 757:.\Generated_Source\PSoC4/Gimbal.c ****     *
 758:.\Generated_Source\PSoC4/Gimbal.c ****     * Return: 
 759:.\Generated_Source\PSoC4/Gimbal.c ****     *  None
 760:.\Generated_Source\PSoC4/Gimbal.c ****     *
 761:.\Generated_Source\PSoC4/Gimbal.c ****     *******************************************************************************/  
 762:.\Generated_Source\PSoC4/Gimbal.c ****     void Gimbal_WriteControlRegister(uint8 control) 
 763:.\Generated_Source\PSoC4/Gimbal.c ****     {
 629              		.loc 1 763 0
 630              		.cfi_startproc
 631 0000 80B5     		push	{r7, lr}
 632              	.LCFI34:
 633              		.cfi_def_cfa_offset 8
 634              		.cfi_offset 7, -8
 635              		.cfi_offset 14, -4
 636 0002 82B0     		sub	sp, sp, #8
 637              	.LCFI35:
 638              		.cfi_def_cfa_offset 16
 639 0004 00AF     		add	r7, sp, #0
 640              	.LCFI36:
 641              		.cfi_def_cfa_register 7
 642 0006 021C     		mov	r2, r0
 643 0008 FB1D     		add	r3, r7, #7
 644 000a 1A70     		strb	r2, [r3]
 764:.\Generated_Source\PSoC4/Gimbal.c ****     	CY_SET_REG8(Gimbal_CONTROL_PTR, control);
 645              		.loc 1 764 0
 646 000c 034B     		ldr	r3, .L45
 647 000e FA1D     		add	r2, r7, #7
 648 0010 1278     		ldrb	r2, [r2]
 649 0012 1A70     		strb	r2, [r3]
 765:.\Generated_Source\PSoC4/Gimbal.c ****     }
 650              		.loc 1 765 0
 651 0014 BD46     		mov	sp, r7
 652 0016 02B0     		add	sp, sp, #8
 653              		@ sp needed for prologue
 654 0018 80BD     		pop	{r7, pc}
 655              	.L46:
 656 001a C046     		.align	2
 657              	.L45:
 658 001c 72000F40 		.word	1074724978
 659              		.cfi_endproc
ARM GAS  C:\Users\Jared\AppData\Local\Temp\cc4WT1Tu.s 			page 26


 660              	.LFE13:
 661              		.size	Gimbal_WriteControlRegister, .-Gimbal_WriteControlRegister
 662              		.section	.text.Gimbal_ReadCapture,"ax",%progbits
 663              		.align	2
 664              		.global	Gimbal_ReadCapture
 665              		.code	16
 666              		.thumb_func
 667              		.type	Gimbal_ReadCapture, %function
 668              	Gimbal_ReadCapture:
 669              	.LFB14:
 766:.\Generated_Source\PSoC4/Gimbal.c **** 	
 767:.\Generated_Source\PSoC4/Gimbal.c **** #endif /* (Gimbal_UseControl) */
 768:.\Generated_Source\PSoC4/Gimbal.c **** 
 769:.\Generated_Source\PSoC4/Gimbal.c **** 
 770:.\Generated_Source\PSoC4/Gimbal.c **** #if (!Gimbal_UsingFixedFunction)
 771:.\Generated_Source\PSoC4/Gimbal.c **** 
 772:.\Generated_Source\PSoC4/Gimbal.c **** 
 773:.\Generated_Source\PSoC4/Gimbal.c ****     /*******************************************************************************
 774:.\Generated_Source\PSoC4/Gimbal.c ****     * Function Name: Gimbal_ReadCapture
 775:.\Generated_Source\PSoC4/Gimbal.c ****     ********************************************************************************
 776:.\Generated_Source\PSoC4/Gimbal.c ****     * 
 777:.\Generated_Source\PSoC4/Gimbal.c ****     * Summary:
 778:.\Generated_Source\PSoC4/Gimbal.c ****     *  Reads the capture value from the capture FIFO.
 779:.\Generated_Source\PSoC4/Gimbal.c ****     *
 780:.\Generated_Source\PSoC4/Gimbal.c ****     * Parameters:  
 781:.\Generated_Source\PSoC4/Gimbal.c ****     *  None
 782:.\Generated_Source\PSoC4/Gimbal.c ****     *
 783:.\Generated_Source\PSoC4/Gimbal.c ****     * Return: 
 784:.\Generated_Source\PSoC4/Gimbal.c ****     *  uint8/uint16: The current capture value
 785:.\Generated_Source\PSoC4/Gimbal.c ****     *
 786:.\Generated_Source\PSoC4/Gimbal.c ****     *******************************************************************************/  
 787:.\Generated_Source\PSoC4/Gimbal.c ****     uint16 Gimbal_ReadCapture(void)  
 788:.\Generated_Source\PSoC4/Gimbal.c ****     {
 670              		.loc 1 788 0
 671              		.cfi_startproc
 672 0000 80B5     		push	{r7, lr}
 673              	.LCFI37:
 674              		.cfi_def_cfa_offset 8
 675              		.cfi_offset 7, -8
 676              		.cfi_offset 14, -4
 677 0002 00AF     		add	r7, sp, #0
 678              	.LCFI38:
 679              		.cfi_def_cfa_register 7
 789:.\Generated_Source\PSoC4/Gimbal.c ****     	return (CY_GET_REG16(Gimbal_CAPTURE_LSB_PTR));
 680              		.loc 1 789 0
 681 0004 024B     		ldr	r3, .L49
 682 0006 1B88     		ldrh	r3, [r3]
 683 0008 9BB2     		uxth	r3, r3
 790:.\Generated_Source\PSoC4/Gimbal.c ****     }
 684              		.loc 1 790 0
 685 000a 181C     		mov	r0, r3
 686 000c BD46     		mov	sp, r7
 687              		@ sp needed for prologue
 688 000e 80BD     		pop	{r7, pc}
 689              	.L50:
 690              		.align	2
 691              	.L49:
ARM GAS  C:\Users\Jared\AppData\Local\Temp\cc4WT1Tu.s 			page 27


 692 0010 A4100F40 		.word	1074729124
 693              		.cfi_endproc
 694              	.LFE14:
 695              		.size	Gimbal_ReadCapture, .-Gimbal_ReadCapture
 696              		.section	.text.Gimbal_ReadCompare1,"ax",%progbits
 697              		.align	2
 698              		.global	Gimbal_ReadCompare1
 699              		.code	16
 700              		.thumb_func
 701              		.type	Gimbal_ReadCompare1, %function
 702              	Gimbal_ReadCompare1:
 703              	.LFB15:
 791:.\Generated_Source\PSoC4/Gimbal.c **** 	
 792:.\Generated_Source\PSoC4/Gimbal.c **** #endif /* (!Gimbal_UsingFixedFunction) */
 793:.\Generated_Source\PSoC4/Gimbal.c **** 
 794:.\Generated_Source\PSoC4/Gimbal.c **** 
 795:.\Generated_Source\PSoC4/Gimbal.c **** #if (Gimbal_UseOneCompareMode)
 796:.\Generated_Source\PSoC4/Gimbal.c **** 
 797:.\Generated_Source\PSoC4/Gimbal.c **** 
 798:.\Generated_Source\PSoC4/Gimbal.c ****     /*******************************************************************************
 799:.\Generated_Source\PSoC4/Gimbal.c ****     * Function Name: Gimbal_ReadCompare
 800:.\Generated_Source\PSoC4/Gimbal.c ****     ********************************************************************************
 801:.\Generated_Source\PSoC4/Gimbal.c ****     * 
 802:.\Generated_Source\PSoC4/Gimbal.c ****     * Summary:
 803:.\Generated_Source\PSoC4/Gimbal.c ****     *  Reads the compare value for the compare output when the PWM Mode parameter is 
 804:.\Generated_Source\PSoC4/Gimbal.c ****     *  set to Dither mode, Center Aligned mode, or One Output mode.
 805:.\Generated_Source\PSoC4/Gimbal.c ****     *
 806:.\Generated_Source\PSoC4/Gimbal.c ****     * Parameters:  
 807:.\Generated_Source\PSoC4/Gimbal.c ****     *  None
 808:.\Generated_Source\PSoC4/Gimbal.c ****     *
 809:.\Generated_Source\PSoC4/Gimbal.c ****     * Return: 
 810:.\Generated_Source\PSoC4/Gimbal.c ****     *  uint8/uint16: Current compare value
 811:.\Generated_Source\PSoC4/Gimbal.c ****     *
 812:.\Generated_Source\PSoC4/Gimbal.c ****     *******************************************************************************/  
 813:.\Generated_Source\PSoC4/Gimbal.c ****     uint16 Gimbal_ReadCompare(void)  
 814:.\Generated_Source\PSoC4/Gimbal.c ****     {
 815:.\Generated_Source\PSoC4/Gimbal.c **** 		#if(Gimbal_UsingFixedFunction)
 816:.\Generated_Source\PSoC4/Gimbal.c ****             return ((uint16)CY_GET_REG16(Gimbal_COMPARE1_LSB_PTR));
 817:.\Generated_Source\PSoC4/Gimbal.c ****         #else
 818:.\Generated_Source\PSoC4/Gimbal.c ****             return (CY_GET_REG16(Gimbal_COMPARE1_LSB_PTR));
 819:.\Generated_Source\PSoC4/Gimbal.c ****         #endif /* (Gimbal_UsingFixedFunction) */
 820:.\Generated_Source\PSoC4/Gimbal.c ****     }
 821:.\Generated_Source\PSoC4/Gimbal.c **** 
 822:.\Generated_Source\PSoC4/Gimbal.c **** #else
 823:.\Generated_Source\PSoC4/Gimbal.c **** 
 824:.\Generated_Source\PSoC4/Gimbal.c **** 
 825:.\Generated_Source\PSoC4/Gimbal.c ****     /*******************************************************************************
 826:.\Generated_Source\PSoC4/Gimbal.c ****     * Function Name: Gimbal_ReadCompare1
 827:.\Generated_Source\PSoC4/Gimbal.c ****     ********************************************************************************
 828:.\Generated_Source\PSoC4/Gimbal.c ****     * 
 829:.\Generated_Source\PSoC4/Gimbal.c ****     * Summary:
 830:.\Generated_Source\PSoC4/Gimbal.c ****     *  Reads the compare value for the compare1 output.
 831:.\Generated_Source\PSoC4/Gimbal.c ****     *
 832:.\Generated_Source\PSoC4/Gimbal.c ****     * Parameters:  
 833:.\Generated_Source\PSoC4/Gimbal.c ****     *  None
 834:.\Generated_Source\PSoC4/Gimbal.c ****     *
 835:.\Generated_Source\PSoC4/Gimbal.c ****     * Return: 
ARM GAS  C:\Users\Jared\AppData\Local\Temp\cc4WT1Tu.s 			page 28


 836:.\Generated_Source\PSoC4/Gimbal.c ****     *  uint8/uint16: Current compare value.
 837:.\Generated_Source\PSoC4/Gimbal.c ****     *
 838:.\Generated_Source\PSoC4/Gimbal.c ****     *******************************************************************************/  
 839:.\Generated_Source\PSoC4/Gimbal.c ****     uint16 Gimbal_ReadCompare1(void) 
 840:.\Generated_Source\PSoC4/Gimbal.c ****     {
 704              		.loc 1 840 0
 705              		.cfi_startproc
 706 0000 80B5     		push	{r7, lr}
 707              	.LCFI39:
 708              		.cfi_def_cfa_offset 8
 709              		.cfi_offset 7, -8
 710              		.cfi_offset 14, -4
 711 0002 00AF     		add	r7, sp, #0
 712              	.LCFI40:
 713              		.cfi_def_cfa_register 7
 841:.\Generated_Source\PSoC4/Gimbal.c **** 		return (CY_GET_REG16(Gimbal_COMPARE1_LSB_PTR));
 714              		.loc 1 841 0
 715 0004 024B     		ldr	r3, .L53
 716 0006 1B88     		ldrh	r3, [r3]
 717 0008 9BB2     		uxth	r3, r3
 842:.\Generated_Source\PSoC4/Gimbal.c ****     }
 718              		.loc 1 842 0
 719 000a 181C     		mov	r0, r3
 720 000c BD46     		mov	sp, r7
 721              		@ sp needed for prologue
 722 000e 80BD     		pop	{r7, pc}
 723              	.L54:
 724              		.align	2
 725              	.L53:
 726 0010 44100F40 		.word	1074729028
 727              		.cfi_endproc
 728              	.LFE15:
 729              		.size	Gimbal_ReadCompare1, .-Gimbal_ReadCompare1
 730              		.section	.text.Gimbal_ReadCompare2,"ax",%progbits
 731              		.align	2
 732              		.global	Gimbal_ReadCompare2
 733              		.code	16
 734              		.thumb_func
 735              		.type	Gimbal_ReadCompare2, %function
 736              	Gimbal_ReadCompare2:
 737              	.LFB16:
 843:.\Generated_Source\PSoC4/Gimbal.c **** 
 844:.\Generated_Source\PSoC4/Gimbal.c **** 
 845:.\Generated_Source\PSoC4/Gimbal.c ****     /*******************************************************************************
 846:.\Generated_Source\PSoC4/Gimbal.c ****     * Function Name: Gimbal_ReadCompare2
 847:.\Generated_Source\PSoC4/Gimbal.c ****     ********************************************************************************
 848:.\Generated_Source\PSoC4/Gimbal.c ****     * 
 849:.\Generated_Source\PSoC4/Gimbal.c ****     * Summary:
 850:.\Generated_Source\PSoC4/Gimbal.c ****     *  Reads the compare value for the compare2 output.
 851:.\Generated_Source\PSoC4/Gimbal.c ****     *
 852:.\Generated_Source\PSoC4/Gimbal.c ****     * Parameters:  
 853:.\Generated_Source\PSoC4/Gimbal.c ****     *  None
 854:.\Generated_Source\PSoC4/Gimbal.c ****     *
 855:.\Generated_Source\PSoC4/Gimbal.c ****     * Return: 
 856:.\Generated_Source\PSoC4/Gimbal.c ****     *  uint8/uint16: Current compare value.
 857:.\Generated_Source\PSoC4/Gimbal.c ****     *
 858:.\Generated_Source\PSoC4/Gimbal.c ****     *******************************************************************************/  
ARM GAS  C:\Users\Jared\AppData\Local\Temp\cc4WT1Tu.s 			page 29


 859:.\Generated_Source\PSoC4/Gimbal.c ****     uint16 Gimbal_ReadCompare2(void)  
 860:.\Generated_Source\PSoC4/Gimbal.c ****     {
 738              		.loc 1 860 0
 739              		.cfi_startproc
 740 0000 80B5     		push	{r7, lr}
 741              	.LCFI41:
 742              		.cfi_def_cfa_offset 8
 743              		.cfi_offset 7, -8
 744              		.cfi_offset 14, -4
 745 0002 00AF     		add	r7, sp, #0
 746              	.LCFI42:
 747              		.cfi_def_cfa_register 7
 861:.\Generated_Source\PSoC4/Gimbal.c **** 		return (CY_GET_REG16(Gimbal_COMPARE2_LSB_PTR));
 748              		.loc 1 861 0
 749 0004 024B     		ldr	r3, .L57
 750 0006 1B88     		ldrh	r3, [r3]
 751 0008 9BB2     		uxth	r3, r3
 862:.\Generated_Source\PSoC4/Gimbal.c ****     }
 752              		.loc 1 862 0
 753 000a 181C     		mov	r0, r3
 754 000c BD46     		mov	sp, r7
 755              		@ sp needed for prologue
 756 000e 80BD     		pop	{r7, pc}
 757              	.L58:
 758              		.align	2
 759              	.L57:
 760 0010 64100F40 		.word	1074729060
 761              		.cfi_endproc
 762              	.LFE16:
 763              		.size	Gimbal_ReadCompare2, .-Gimbal_ReadCompare2
 764              		.section	.text.Gimbal_ReadPeriod,"ax",%progbits
 765              		.align	2
 766              		.global	Gimbal_ReadPeriod
 767              		.code	16
 768              		.thumb_func
 769              		.type	Gimbal_ReadPeriod, %function
 770              	Gimbal_ReadPeriod:
 771              	.LFB17:
 863:.\Generated_Source\PSoC4/Gimbal.c **** 
 864:.\Generated_Source\PSoC4/Gimbal.c **** #endif /* (Gimbal_UseOneCompareMode) */
 865:.\Generated_Source\PSoC4/Gimbal.c **** 
 866:.\Generated_Source\PSoC4/Gimbal.c **** 
 867:.\Generated_Source\PSoC4/Gimbal.c **** /*******************************************************************************
 868:.\Generated_Source\PSoC4/Gimbal.c **** * Function Name: Gimbal_ReadPeriod
 869:.\Generated_Source\PSoC4/Gimbal.c **** ********************************************************************************
 870:.\Generated_Source\PSoC4/Gimbal.c **** * 
 871:.\Generated_Source\PSoC4/Gimbal.c **** * Summary:
 872:.\Generated_Source\PSoC4/Gimbal.c **** *  Reads the period value used by the PWM hardware.
 873:.\Generated_Source\PSoC4/Gimbal.c **** *
 874:.\Generated_Source\PSoC4/Gimbal.c **** * Parameters:  
 875:.\Generated_Source\PSoC4/Gimbal.c **** *  None
 876:.\Generated_Source\PSoC4/Gimbal.c **** *
 877:.\Generated_Source\PSoC4/Gimbal.c **** * Return: 
 878:.\Generated_Source\PSoC4/Gimbal.c **** *  uint8/16: Period value
 879:.\Generated_Source\PSoC4/Gimbal.c **** *
 880:.\Generated_Source\PSoC4/Gimbal.c **** *******************************************************************************/ 
 881:.\Generated_Source\PSoC4/Gimbal.c **** uint16 Gimbal_ReadPeriod(void) 
ARM GAS  C:\Users\Jared\AppData\Local\Temp\cc4WT1Tu.s 			page 30


 882:.\Generated_Source\PSoC4/Gimbal.c **** {
 772              		.loc 1 882 0
 773              		.cfi_startproc
 774 0000 80B5     		push	{r7, lr}
 775              	.LCFI43:
 776              		.cfi_def_cfa_offset 8
 777              		.cfi_offset 7, -8
 778              		.cfi_offset 14, -4
 779 0002 00AF     		add	r7, sp, #0
 780              	.LCFI44:
 781              		.cfi_def_cfa_register 7
 883:.\Generated_Source\PSoC4/Gimbal.c **** 	#if(Gimbal_UsingFixedFunction)
 884:.\Generated_Source\PSoC4/Gimbal.c ****         return ((uint16)CY_GET_REG16(Gimbal_PERIOD_LSB_PTR));
 885:.\Generated_Source\PSoC4/Gimbal.c ****     #else
 886:.\Generated_Source\PSoC4/Gimbal.c ****         return (CY_GET_REG16(Gimbal_PERIOD_LSB_PTR));
 782              		.loc 1 886 0
 783 0004 024B     		ldr	r3, .L61
 784 0006 1B88     		ldrh	r3, [r3]
 785 0008 9BB2     		uxth	r3, r3
 887:.\Generated_Source\PSoC4/Gimbal.c ****     #endif /* (Gimbal_UsingFixedFunction) */
 888:.\Generated_Source\PSoC4/Gimbal.c **** }
 786              		.loc 1 888 0
 787 000a 181C     		mov	r0, r3
 788 000c BD46     		mov	sp, r7
 789              		@ sp needed for prologue
 790 000e 80BD     		pop	{r7, pc}
 791              	.L62:
 792              		.align	2
 793              	.L61:
 794 0010 84100F40 		.word	1074729092
 795              		.cfi_endproc
 796              	.LFE17:
 797              		.size	Gimbal_ReadPeriod, .-Gimbal_ReadPeriod
 798              		.text
 799              	.Letext0:
 800              		.file 2 ".\\Generated_Source\\PSoC4\\cytypes.h"