ARM GAS  C:\Users\Jared\AppData\Local\Temp\ccVPfheS.s 			page 1


   1              		.cpu cortex-m0
   2              		.fpu softvfp
   3              		.eabi_attribute 20, 1
   4              		.eabi_attribute 21, 1
   5              		.eabi_attribute 23, 3
   6              		.eabi_attribute 24, 1
   7              		.eabi_attribute 25, 1
   8              		.eabi_attribute 26, 1
   9              		.eabi_attribute 30, 6
  10              		.eabi_attribute 34, 0
  11              		.eabi_attribute 18, 4
  12              		.code	16
  13              		.file	"Gimbal_PM.c"
  14              		.text
  15              	.Ltext0:
  16              		.cfi_sections	.debug_frame
  17              		.bss
  18              		.align	2
  19              	Gimbal_backup:
  20 0000 00000000 		.space	8
  20      00000000 
  21              		.section	.text.Gimbal_SaveConfig,"ax",%progbits
  22              		.align	2
  23              		.global	Gimbal_SaveConfig
  24              		.code	16
  25              		.thumb_func
  26              		.type	Gimbal_SaveConfig, %function
  27              	Gimbal_SaveConfig:
  28              	.LFB0:
  29              		.file 1 ".\\Generated_Source\\PSoC4\\Gimbal_PM.c"
   1:.\Generated_Source\PSoC4/Gimbal_PM.c **** /*******************************************************************************
   2:.\Generated_Source\PSoC4/Gimbal_PM.c **** * File Name: Gimbal_PM.c
   3:.\Generated_Source\PSoC4/Gimbal_PM.c **** * Version 3.0
   4:.\Generated_Source\PSoC4/Gimbal_PM.c **** *
   5:.\Generated_Source\PSoC4/Gimbal_PM.c **** * Description:
   6:.\Generated_Source\PSoC4/Gimbal_PM.c **** *  This file provides the power management source code to API for the
   7:.\Generated_Source\PSoC4/Gimbal_PM.c **** *  PWM.
   8:.\Generated_Source\PSoC4/Gimbal_PM.c **** *
   9:.\Generated_Source\PSoC4/Gimbal_PM.c **** * Note:
  10:.\Generated_Source\PSoC4/Gimbal_PM.c **** *
  11:.\Generated_Source\PSoC4/Gimbal_PM.c **** ********************************************************************************
  12:.\Generated_Source\PSoC4/Gimbal_PM.c **** * Copyright 2008-2012, Cypress Semiconductor Corporation.  All rights reserved.
  13:.\Generated_Source\PSoC4/Gimbal_PM.c **** * You may use this file only in accordance with the license, terms, conditions,
  14:.\Generated_Source\PSoC4/Gimbal_PM.c **** * disclaimers, and limitations in the end user license agreement accompanying
  15:.\Generated_Source\PSoC4/Gimbal_PM.c **** * the software package with which this file was provided.
  16:.\Generated_Source\PSoC4/Gimbal_PM.c **** *******************************************************************************/
  17:.\Generated_Source\PSoC4/Gimbal_PM.c **** #include "cytypes.h"
  18:.\Generated_Source\PSoC4/Gimbal_PM.c **** #include "Gimbal.h"
  19:.\Generated_Source\PSoC4/Gimbal_PM.c **** 
  20:.\Generated_Source\PSoC4/Gimbal_PM.c **** static Gimbal_backupStruct Gimbal_backup;
  21:.\Generated_Source\PSoC4/Gimbal_PM.c **** 
  22:.\Generated_Source\PSoC4/Gimbal_PM.c **** 
  23:.\Generated_Source\PSoC4/Gimbal_PM.c **** /*******************************************************************************
  24:.\Generated_Source\PSoC4/Gimbal_PM.c **** * Function Name: Gimbal_SaveConfig
  25:.\Generated_Source\PSoC4/Gimbal_PM.c **** ********************************************************************************
  26:.\Generated_Source\PSoC4/Gimbal_PM.c **** *
  27:.\Generated_Source\PSoC4/Gimbal_PM.c **** * Summary:
ARM GAS  C:\Users\Jared\AppData\Local\Temp\ccVPfheS.s 			page 2


  28:.\Generated_Source\PSoC4/Gimbal_PM.c **** *  Saves the current user configuration of the component.
  29:.\Generated_Source\PSoC4/Gimbal_PM.c **** *  
  30:.\Generated_Source\PSoC4/Gimbal_PM.c **** * Parameters:  
  31:.\Generated_Source\PSoC4/Gimbal_PM.c **** *  None
  32:.\Generated_Source\PSoC4/Gimbal_PM.c **** *
  33:.\Generated_Source\PSoC4/Gimbal_PM.c **** * Return: 
  34:.\Generated_Source\PSoC4/Gimbal_PM.c **** *  None
  35:.\Generated_Source\PSoC4/Gimbal_PM.c **** *
  36:.\Generated_Source\PSoC4/Gimbal_PM.c **** * Global variables:
  37:.\Generated_Source\PSoC4/Gimbal_PM.c **** *  Gimbal_backup:  Variables of this global structure are modified to 
  38:.\Generated_Source\PSoC4/Gimbal_PM.c **** *  store the values of non retention configuration registers when Sleep() API is 
  39:.\Generated_Source\PSoC4/Gimbal_PM.c **** *  called.
  40:.\Generated_Source\PSoC4/Gimbal_PM.c **** *
  41:.\Generated_Source\PSoC4/Gimbal_PM.c **** *******************************************************************************/
  42:.\Generated_Source\PSoC4/Gimbal_PM.c **** void Gimbal_SaveConfig(void) 
  43:.\Generated_Source\PSoC4/Gimbal_PM.c **** {
  30              		.loc 1 43 0
  31              		.cfi_startproc
  32 0000 80B5     		push	{r7, lr}
  33              	.LCFI0:
  34              		.cfi_def_cfa_offset 8
  35              		.cfi_offset 7, -8
  36              		.cfi_offset 14, -4
  37 0002 00AF     		add	r7, sp, #0
  38              	.LCFI1:
  39              		.cfi_def_cfa_register 7
  44:.\Generated_Source\PSoC4/Gimbal_PM.c ****     
  45:.\Generated_Source\PSoC4/Gimbal_PM.c ****     #if(!Gimbal_UsingFixedFunction)
  46:.\Generated_Source\PSoC4/Gimbal_PM.c ****         #if(!Gimbal_PWMModeIsCenterAligned)
  47:.\Generated_Source\PSoC4/Gimbal_PM.c ****             Gimbal_backup.PWMPeriod = Gimbal_ReadPeriod();
  40              		.loc 1 47 0
  41 0004 FFF7FEFF 		bl	Gimbal_ReadPeriod
  42 0008 031C     		mov	r3, r0
  43 000a 1A1C     		mov	r2, r3
  44 000c 0A4B     		ldr	r3, .L2
  45 000e 9A80     		strh	r2, [r3, #4]
  48:.\Generated_Source\PSoC4/Gimbal_PM.c ****         #endif /* (!Gimbal_PWMModeIsCenterAligned) */
  49:.\Generated_Source\PSoC4/Gimbal_PM.c ****         Gimbal_backup.PWMUdb = Gimbal_ReadCounter();
  46              		.loc 1 49 0
  47 0010 FFF7FEFF 		bl	Gimbal_ReadCounter
  48 0014 031C     		mov	r3, r0
  49 0016 1A1C     		mov	r2, r3
  50 0018 074B     		ldr	r3, .L2
  51 001a 5A80     		strh	r2, [r3, #2]
  50:.\Generated_Source\PSoC4/Gimbal_PM.c ****         #if (Gimbal_UseStatus)
  51:.\Generated_Source\PSoC4/Gimbal_PM.c ****             Gimbal_backup.InterruptMaskValue = Gimbal_STATUS_MASK;
  52              		.loc 1 51 0
  53 001c 074B     		ldr	r3, .L2+4
  54 001e 1B78     		ldrb	r3, [r3]
  55 0020 DAB2     		uxtb	r2, r3
  56 0022 054B     		ldr	r3, .L2
  57 0024 9A71     		strb	r2, [r3, #6]
  52:.\Generated_Source\PSoC4/Gimbal_PM.c ****         #endif /* (Gimbal_UseStatus) */
  53:.\Generated_Source\PSoC4/Gimbal_PM.c ****         
  54:.\Generated_Source\PSoC4/Gimbal_PM.c ****         #if(Gimbal_DeadBandMode == Gimbal__B_PWM__DBM_256_CLOCKS || \
  55:.\Generated_Source\PSoC4/Gimbal_PM.c ****             Gimbal_DeadBandMode == Gimbal__B_PWM__DBM_2_4_CLOCKS)
  56:.\Generated_Source\PSoC4/Gimbal_PM.c ****             Gimbal_backup.PWMdeadBandValue = Gimbal_ReadDeadTime();
ARM GAS  C:\Users\Jared\AppData\Local\Temp\ccVPfheS.s 			page 3


  57:.\Generated_Source\PSoC4/Gimbal_PM.c ****         #endif /*  deadband count is either 2-4 clocks or 256 clocks */
  58:.\Generated_Source\PSoC4/Gimbal_PM.c ****         
  59:.\Generated_Source\PSoC4/Gimbal_PM.c ****         #if(Gimbal_KillModeMinTime)
  60:.\Generated_Source\PSoC4/Gimbal_PM.c ****              Gimbal_backup.PWMKillCounterPeriod = Gimbal_ReadKillTime();
  61:.\Generated_Source\PSoC4/Gimbal_PM.c ****         #endif /* (Gimbal_KillModeMinTime) */
  62:.\Generated_Source\PSoC4/Gimbal_PM.c ****         
  63:.\Generated_Source\PSoC4/Gimbal_PM.c ****         #if(Gimbal_UseControl)
  64:.\Generated_Source\PSoC4/Gimbal_PM.c ****             Gimbal_backup.PWMControlRegister = Gimbal_ReadControlRegister();
  58              		.loc 1 64 0
  59 0026 FFF7FEFF 		bl	Gimbal_ReadControlRegister
  60 002a 031C     		mov	r3, r0
  61 002c 1A1C     		mov	r2, r3
  62 002e 024B     		ldr	r3, .L2
  63 0030 DA71     		strb	r2, [r3, #7]
  65:.\Generated_Source\PSoC4/Gimbal_PM.c ****         #endif /* (Gimbal_UseControl) */
  66:.\Generated_Source\PSoC4/Gimbal_PM.c ****     #endif  /* (!Gimbal_UsingFixedFunction) */
  67:.\Generated_Source\PSoC4/Gimbal_PM.c **** }
  64              		.loc 1 67 0
  65 0032 BD46     		mov	sp, r7
  66              		@ sp needed for prologue
  67 0034 80BD     		pop	{r7, pc}
  68              	.L3:
  69 0036 C046     		.align	2
  70              	.L2:
  71 0038 00000000 		.word	Gimbal_backup
  72 003c 82000F40 		.word	1074724994
  73              		.cfi_endproc
  74              	.LFE0:
  75              		.size	Gimbal_SaveConfig, .-Gimbal_SaveConfig
  76              		.section	.text.Gimbal_RestoreConfig,"ax",%progbits
  77              		.align	2
  78              		.global	Gimbal_RestoreConfig
  79              		.code	16
  80              		.thumb_func
  81              		.type	Gimbal_RestoreConfig, %function
  82              	Gimbal_RestoreConfig:
  83              	.LFB1:
  68:.\Generated_Source\PSoC4/Gimbal_PM.c **** 
  69:.\Generated_Source\PSoC4/Gimbal_PM.c **** 
  70:.\Generated_Source\PSoC4/Gimbal_PM.c **** /*******************************************************************************
  71:.\Generated_Source\PSoC4/Gimbal_PM.c **** * Function Name: Gimbal_RestoreConfig
  72:.\Generated_Source\PSoC4/Gimbal_PM.c **** ********************************************************************************
  73:.\Generated_Source\PSoC4/Gimbal_PM.c **** * 
  74:.\Generated_Source\PSoC4/Gimbal_PM.c **** * Summary:
  75:.\Generated_Source\PSoC4/Gimbal_PM.c **** *  Restores the current user configuration of the component.
  76:.\Generated_Source\PSoC4/Gimbal_PM.c **** *
  77:.\Generated_Source\PSoC4/Gimbal_PM.c **** * Parameters:  
  78:.\Generated_Source\PSoC4/Gimbal_PM.c **** *  None
  79:.\Generated_Source\PSoC4/Gimbal_PM.c **** *
  80:.\Generated_Source\PSoC4/Gimbal_PM.c **** * Return: 
  81:.\Generated_Source\PSoC4/Gimbal_PM.c **** *  None
  82:.\Generated_Source\PSoC4/Gimbal_PM.c **** *
  83:.\Generated_Source\PSoC4/Gimbal_PM.c **** * Global variables:
  84:.\Generated_Source\PSoC4/Gimbal_PM.c **** *  Gimbal_backup:  Variables of this global structure are used to  
  85:.\Generated_Source\PSoC4/Gimbal_PM.c **** *  restore the values of non retention registers on wakeup from sleep mode.
  86:.\Generated_Source\PSoC4/Gimbal_PM.c **** *
  87:.\Generated_Source\PSoC4/Gimbal_PM.c **** *******************************************************************************/
ARM GAS  C:\Users\Jared\AppData\Local\Temp\ccVPfheS.s 			page 4


  88:.\Generated_Source\PSoC4/Gimbal_PM.c **** void Gimbal_RestoreConfig(void) 
  89:.\Generated_Source\PSoC4/Gimbal_PM.c **** {
  84              		.loc 1 89 0
  85              		.cfi_startproc
  86 0000 80B5     		push	{r7, lr}
  87              	.LCFI2:
  88              		.cfi_def_cfa_offset 8
  89              		.cfi_offset 7, -8
  90              		.cfi_offset 14, -4
  91 0002 00AF     		add	r7, sp, #0
  92              	.LCFI3:
  93              		.cfi_def_cfa_register 7
  90:.\Generated_Source\PSoC4/Gimbal_PM.c ****         #if(!Gimbal_UsingFixedFunction)
  91:.\Generated_Source\PSoC4/Gimbal_PM.c ****             #if(!Gimbal_PWMModeIsCenterAligned)
  92:.\Generated_Source\PSoC4/Gimbal_PM.c ****                 Gimbal_WritePeriod(Gimbal_backup.PWMPeriod);
  94              		.loc 1 92 0
  95 0004 0A4B     		ldr	r3, .L5
  96 0006 9B88     		ldrh	r3, [r3, #4]
  97 0008 181C     		mov	r0, r3
  98 000a FFF7FEFF 		bl	Gimbal_WritePeriod
  93:.\Generated_Source\PSoC4/Gimbal_PM.c ****             #endif /* (!Gimbal_PWMModeIsCenterAligned) */
  94:.\Generated_Source\PSoC4/Gimbal_PM.c ****             Gimbal_WriteCounter(Gimbal_backup.PWMUdb);
  99              		.loc 1 94 0
 100 000e 084B     		ldr	r3, .L5
 101 0010 5B88     		ldrh	r3, [r3, #2]
 102 0012 181C     		mov	r0, r3
 103 0014 FFF7FEFF 		bl	Gimbal_WriteCounter
  95:.\Generated_Source\PSoC4/Gimbal_PM.c ****             #if (Gimbal_UseStatus)
  96:.\Generated_Source\PSoC4/Gimbal_PM.c ****                 Gimbal_STATUS_MASK = Gimbal_backup.InterruptMaskValue;
 104              		.loc 1 96 0
 105 0018 064B     		ldr	r3, .L5+4
 106 001a 054A     		ldr	r2, .L5
 107 001c 9279     		ldrb	r2, [r2, #6]
 108 001e 1A70     		strb	r2, [r3]
  97:.\Generated_Source\PSoC4/Gimbal_PM.c ****             #endif /* (Gimbal_UseStatus) */
  98:.\Generated_Source\PSoC4/Gimbal_PM.c ****             
  99:.\Generated_Source\PSoC4/Gimbal_PM.c ****             #if(Gimbal_DeadBandMode == Gimbal__B_PWM__DBM_256_CLOCKS || \
 100:.\Generated_Source\PSoC4/Gimbal_PM.c ****                 Gimbal_DeadBandMode == Gimbal__B_PWM__DBM_2_4_CLOCKS)
 101:.\Generated_Source\PSoC4/Gimbal_PM.c ****                 Gimbal_WriteDeadTime(Gimbal_backup.PWMdeadBandValue);
 102:.\Generated_Source\PSoC4/Gimbal_PM.c ****             #endif /* deadband count is either 2-4 clocks or 256 clocks */
 103:.\Generated_Source\PSoC4/Gimbal_PM.c ****             
 104:.\Generated_Source\PSoC4/Gimbal_PM.c ****             #if(Gimbal_KillModeMinTime)
 105:.\Generated_Source\PSoC4/Gimbal_PM.c ****                 Gimbal_WriteKillTime(Gimbal_backup.PWMKillCounterPeriod);
 106:.\Generated_Source\PSoC4/Gimbal_PM.c ****             #endif /* (Gimbal_KillModeMinTime) */
 107:.\Generated_Source\PSoC4/Gimbal_PM.c ****             
 108:.\Generated_Source\PSoC4/Gimbal_PM.c ****             #if(Gimbal_UseControl)
 109:.\Generated_Source\PSoC4/Gimbal_PM.c ****                 Gimbal_WriteControlRegister(Gimbal_backup.PWMControlRegister); 
 109              		.loc 1 109 0
 110 0020 034B     		ldr	r3, .L5
 111 0022 DB79     		ldrb	r3, [r3, #7]
 112 0024 181C     		mov	r0, r3
 113 0026 FFF7FEFF 		bl	Gimbal_WriteControlRegister
 110:.\Generated_Source\PSoC4/Gimbal_PM.c ****             #endif /* (Gimbal_UseControl) */
 111:.\Generated_Source\PSoC4/Gimbal_PM.c ****         #endif  /* (!Gimbal_UsingFixedFunction) */
 112:.\Generated_Source\PSoC4/Gimbal_PM.c ****     }
 114              		.loc 1 112 0
 115 002a BD46     		mov	sp, r7
ARM GAS  C:\Users\Jared\AppData\Local\Temp\ccVPfheS.s 			page 5


 116              		@ sp needed for prologue
 117 002c 80BD     		pop	{r7, pc}
 118              	.L6:
 119 002e C046     		.align	2
 120              	.L5:
 121 0030 00000000 		.word	Gimbal_backup
 122 0034 82000F40 		.word	1074724994
 123              		.cfi_endproc
 124              	.LFE1:
 125              		.size	Gimbal_RestoreConfig, .-Gimbal_RestoreConfig
 126              		.section	.text.Gimbal_Sleep,"ax",%progbits
 127              		.align	2
 128              		.global	Gimbal_Sleep
 129              		.code	16
 130              		.thumb_func
 131              		.type	Gimbal_Sleep, %function
 132              	Gimbal_Sleep:
 133              	.LFB2:
 113:.\Generated_Source\PSoC4/Gimbal_PM.c **** 
 114:.\Generated_Source\PSoC4/Gimbal_PM.c **** 
 115:.\Generated_Source\PSoC4/Gimbal_PM.c **** /*******************************************************************************
 116:.\Generated_Source\PSoC4/Gimbal_PM.c **** * Function Name: Gimbal_Sleep
 117:.\Generated_Source\PSoC4/Gimbal_PM.c **** ********************************************************************************
 118:.\Generated_Source\PSoC4/Gimbal_PM.c **** * 
 119:.\Generated_Source\PSoC4/Gimbal_PM.c **** * Summary:
 120:.\Generated_Source\PSoC4/Gimbal_PM.c **** *  Disables block's operation and saves the user configuration. Should be called 
 121:.\Generated_Source\PSoC4/Gimbal_PM.c **** *  just prior to entering sleep.
 122:.\Generated_Source\PSoC4/Gimbal_PM.c **** *  
 123:.\Generated_Source\PSoC4/Gimbal_PM.c **** * Parameters:  
 124:.\Generated_Source\PSoC4/Gimbal_PM.c **** *  None
 125:.\Generated_Source\PSoC4/Gimbal_PM.c **** *
 126:.\Generated_Source\PSoC4/Gimbal_PM.c **** * Return: 
 127:.\Generated_Source\PSoC4/Gimbal_PM.c **** *  None
 128:.\Generated_Source\PSoC4/Gimbal_PM.c **** *
 129:.\Generated_Source\PSoC4/Gimbal_PM.c **** * Global variables:
 130:.\Generated_Source\PSoC4/Gimbal_PM.c **** *  Gimbal_backup.PWMEnableState:  Is modified depending on the enable 
 131:.\Generated_Source\PSoC4/Gimbal_PM.c **** *  state of the block before entering sleep mode.
 132:.\Generated_Source\PSoC4/Gimbal_PM.c **** *
 133:.\Generated_Source\PSoC4/Gimbal_PM.c **** *******************************************************************************/
 134:.\Generated_Source\PSoC4/Gimbal_PM.c **** void Gimbal_Sleep(void) 
 135:.\Generated_Source\PSoC4/Gimbal_PM.c **** {
 134              		.loc 1 135 0
 135              		.cfi_startproc
 136 0000 80B5     		push	{r7, lr}
 137              	.LCFI4:
 138              		.cfi_def_cfa_offset 8
 139              		.cfi_offset 7, -8
 140              		.cfi_offset 14, -4
 141 0002 00AF     		add	r7, sp, #0
 142              	.LCFI5:
 143              		.cfi_def_cfa_register 7
 136:.\Generated_Source\PSoC4/Gimbal_PM.c ****     #if(Gimbal_UseControl)
 137:.\Generated_Source\PSoC4/Gimbal_PM.c ****         if(Gimbal_CTRL_ENABLE == (Gimbal_CONTROL & Gimbal_CTRL_ENABLE))
 144              		.loc 1 137 0
 145 0004 094B     		ldr	r3, .L10
 146 0006 1B78     		ldrb	r3, [r3]
 147 0008 DBB2     		uxtb	r3, r3
ARM GAS  C:\Users\Jared\AppData\Local\Temp\ccVPfheS.s 			page 6


 148 000a DBB2     		uxtb	r3, r3
 149 000c 5BB2     		sxtb	r3, r3
 150 000e 002B     		cmp	r3, #0
 151 0010 03DA     		bge	.L8
 138:.\Generated_Source\PSoC4/Gimbal_PM.c ****         {
 139:.\Generated_Source\PSoC4/Gimbal_PM.c ****             /*Component is enabled */
 140:.\Generated_Source\PSoC4/Gimbal_PM.c ****             Gimbal_backup.PWMEnableState = 1u;
 152              		.loc 1 140 0
 153 0012 074B     		ldr	r3, .L10+4
 154 0014 0122     		mov	r2, #1
 155 0016 1A70     		strb	r2, [r3]
 156 0018 02E0     		b	.L9
 157              	.L8:
 141:.\Generated_Source\PSoC4/Gimbal_PM.c ****         }
 142:.\Generated_Source\PSoC4/Gimbal_PM.c ****         else
 143:.\Generated_Source\PSoC4/Gimbal_PM.c ****         {
 144:.\Generated_Source\PSoC4/Gimbal_PM.c ****             /* Component is disabled */
 145:.\Generated_Source\PSoC4/Gimbal_PM.c ****             Gimbal_backup.PWMEnableState = 0u;
 158              		.loc 1 145 0
 159 001a 054B     		ldr	r3, .L10+4
 160 001c 0022     		mov	r2, #0
 161 001e 1A70     		strb	r2, [r3]
 162              	.L9:
 146:.\Generated_Source\PSoC4/Gimbal_PM.c ****         }
 147:.\Generated_Source\PSoC4/Gimbal_PM.c ****     #endif /* (Gimbal_UseControl) */
 148:.\Generated_Source\PSoC4/Gimbal_PM.c **** 
 149:.\Generated_Source\PSoC4/Gimbal_PM.c ****     /* Stop component */
 150:.\Generated_Source\PSoC4/Gimbal_PM.c ****     Gimbal_Stop();
 163              		.loc 1 150 0
 164 0020 FFF7FEFF 		bl	Gimbal_Stop
 151:.\Generated_Source\PSoC4/Gimbal_PM.c ****     
 152:.\Generated_Source\PSoC4/Gimbal_PM.c ****     /* Save registers configuration */
 153:.\Generated_Source\PSoC4/Gimbal_PM.c ****     Gimbal_SaveConfig();
 165              		.loc 1 153 0
 166 0024 FFF7FEFF 		bl	Gimbal_SaveConfig
 154:.\Generated_Source\PSoC4/Gimbal_PM.c **** }
 167              		.loc 1 154 0
 168 0028 BD46     		mov	sp, r7
 169              		@ sp needed for prologue
 170 002a 80BD     		pop	{r7, pc}
 171              	.L11:
 172              		.align	2
 173              	.L10:
 174 002c 72000F40 		.word	1074724978
 175 0030 00000000 		.word	Gimbal_backup
 176              		.cfi_endproc
 177              	.LFE2:
 178              		.size	Gimbal_Sleep, .-Gimbal_Sleep
 179              		.section	.text.Gimbal_Wakeup,"ax",%progbits
 180              		.align	2
 181              		.global	Gimbal_Wakeup
 182              		.code	16
 183              		.thumb_func
 184              		.type	Gimbal_Wakeup, %function
 185              	Gimbal_Wakeup:
 186              	.LFB3:
 155:.\Generated_Source\PSoC4/Gimbal_PM.c **** 
ARM GAS  C:\Users\Jared\AppData\Local\Temp\ccVPfheS.s 			page 7


 156:.\Generated_Source\PSoC4/Gimbal_PM.c **** 
 157:.\Generated_Source\PSoC4/Gimbal_PM.c **** /*******************************************************************************
 158:.\Generated_Source\PSoC4/Gimbal_PM.c **** * Function Name: Gimbal_Wakeup
 159:.\Generated_Source\PSoC4/Gimbal_PM.c **** ********************************************************************************
 160:.\Generated_Source\PSoC4/Gimbal_PM.c **** * 
 161:.\Generated_Source\PSoC4/Gimbal_PM.c **** * Summary:
 162:.\Generated_Source\PSoC4/Gimbal_PM.c **** *  Restores and enables the user configuration. Should be called just after 
 163:.\Generated_Source\PSoC4/Gimbal_PM.c **** *  awaking from sleep.
 164:.\Generated_Source\PSoC4/Gimbal_PM.c **** *  
 165:.\Generated_Source\PSoC4/Gimbal_PM.c **** * Parameters:  
 166:.\Generated_Source\PSoC4/Gimbal_PM.c **** *  None
 167:.\Generated_Source\PSoC4/Gimbal_PM.c **** *
 168:.\Generated_Source\PSoC4/Gimbal_PM.c **** * Return: 
 169:.\Generated_Source\PSoC4/Gimbal_PM.c **** *  None
 170:.\Generated_Source\PSoC4/Gimbal_PM.c **** *
 171:.\Generated_Source\PSoC4/Gimbal_PM.c **** * Global variables:
 172:.\Generated_Source\PSoC4/Gimbal_PM.c **** *  Gimbal_backup.pwmEnable:  Is used to restore the enable state of 
 173:.\Generated_Source\PSoC4/Gimbal_PM.c **** *  block on wakeup from sleep mode.
 174:.\Generated_Source\PSoC4/Gimbal_PM.c **** *
 175:.\Generated_Source\PSoC4/Gimbal_PM.c **** *******************************************************************************/
 176:.\Generated_Source\PSoC4/Gimbal_PM.c **** void Gimbal_Wakeup(void) 
 177:.\Generated_Source\PSoC4/Gimbal_PM.c **** {
 187              		.loc 1 177 0
 188              		.cfi_startproc
 189 0000 80B5     		push	{r7, lr}
 190              	.LCFI6:
 191              		.cfi_def_cfa_offset 8
 192              		.cfi_offset 7, -8
 193              		.cfi_offset 14, -4
 194 0002 00AF     		add	r7, sp, #0
 195              	.LCFI7:
 196              		.cfi_def_cfa_register 7
 178:.\Generated_Source\PSoC4/Gimbal_PM.c ****      /* Restore registers values */
 179:.\Generated_Source\PSoC4/Gimbal_PM.c ****     Gimbal_RestoreConfig();
 197              		.loc 1 179 0
 198 0004 FFF7FEFF 		bl	Gimbal_RestoreConfig
 180:.\Generated_Source\PSoC4/Gimbal_PM.c ****     
 181:.\Generated_Source\PSoC4/Gimbal_PM.c ****     if(Gimbal_backup.PWMEnableState != 0u)
 199              		.loc 1 181 0
 200 0008 034B     		ldr	r3, .L14
 201 000a 1B78     		ldrb	r3, [r3]
 202 000c 002B     		cmp	r3, #0
 203 000e 01D0     		beq	.L12
 182:.\Generated_Source\PSoC4/Gimbal_PM.c ****     {
 183:.\Generated_Source\PSoC4/Gimbal_PM.c ****         /* Enable component's operation */
 184:.\Generated_Source\PSoC4/Gimbal_PM.c ****         Gimbal_Enable();
 204              		.loc 1 184 0
 205 0010 FFF7FEFF 		bl	Gimbal_Enable
 206              	.L12:
 185:.\Generated_Source\PSoC4/Gimbal_PM.c ****     } /* Do nothing if component's block was disabled before */
 186:.\Generated_Source\PSoC4/Gimbal_PM.c ****     
 187:.\Generated_Source\PSoC4/Gimbal_PM.c **** }
 207              		.loc 1 187 0
 208 0014 BD46     		mov	sp, r7
 209              		@ sp needed for prologue
 210 0016 80BD     		pop	{r7, pc}
 211              	.L15:
ARM GAS  C:\Users\Jared\AppData\Local\Temp\ccVPfheS.s 			page 8


 212              		.align	2
 213              	.L14:
 214 0018 00000000 		.word	Gimbal_backup
 215              		.cfi_endproc
 216              	.LFE3:
 217              		.size	Gimbal_Wakeup, .-Gimbal_Wakeup
 218              		.text
 219              	.Letext0:
 220              		.file 2 ".\\Generated_Source\\PSoC4\\cytypes.h"
 221              		.file 3 ".\\Generated_Source\\PSoC4\\Gimbal.h"