ARM GAS  C:\Users\Jared\AppData\Local\Temp\ccmtck4Q.s 			page 1


   1              		.cpu cortex-m0
   2              		.fpu softvfp
   3              		.eabi_attribute 20, 1
   4              		.eabi_attribute 21, 1
   5              		.eabi_attribute 23, 3
   6              		.eabi_attribute 24, 1
   7              		.eabi_attribute 25, 1
   8              		.eabi_attribute 26, 1
   9              		.eabi_attribute 30, 6
  10              		.eabi_attribute 34, 0
  11              		.eabi_attribute 18, 4
  12              		.code	16
  13              		.file	"Scheduler.c"
  14              		.text
  15              	.Ltext0:
  16              		.cfi_sections	.debug_frame
  17              		.comm	timeoutCounter,2,2
  18              		.global	recievedMessage
  19              		.bss
  20              		.type	recievedMessage, %object
  21              		.size	recievedMessage, 1
  22              	recievedMessage:
  23 0000 00       		.space	1
  24              		.global	messageStillNotRecievedError
  25              		.type	messageStillNotRecievedError, %object
  26              		.size	messageStillNotRecievedError, 1
  27              	messageStillNotRecievedError:
  28 0001 00       		.space	1
  29              		.section	.text.initTodoList,"ax",%progbits
  30              		.align	2
  31              		.global	initTodoList
  32              		.code	16
  33              		.thumb_func
  34              		.type	initTodoList, %function
  35              	initTodoList:
  36              	.LFB33:
  37              		.file 1 ".\\Scheduler.c"
   1:.\Scheduler.c **** /* ========================================
   2:.\Scheduler.c ****  *
   3:.\Scheduler.c ****  * Copyright YOUR COMPANY, THE YEAR
   4:.\Scheduler.c ****  * All Rights Reserved
   5:.\Scheduler.c ****  * UNPUBLISHED, LICENSED SOFTWARE.
   6:.\Scheduler.c ****  *
   7:.\Scheduler.c ****  * CONFIDENTIAL AND PROPRIETARY INFORMATION
   8:.\Scheduler.c ****  * WHICH IS THE PROPERTY OF your company.
   9:.\Scheduler.c ****  *
  10:.\Scheduler.c ****  * ========================================
  11:.\Scheduler.c **** */
  12:.\Scheduler.c **** #include "Scheduler.h"
  13:.\Scheduler.c **** 
  14:.\Scheduler.c **** 
  15:.\Scheduler.c **** volatile uint16 timeoutCounter;
  16:.\Scheduler.c **** volatile bool recievedMessage = false;
  17:.\Scheduler.c **** bool messageStillNotRecievedError = false;
  18:.\Scheduler.c **** 
  19:.\Scheduler.c **** void initTodoList(ToDoList* todo)
  20:.\Scheduler.c **** {
ARM GAS  C:\Users\Jared\AppData\Local\Temp\ccmtck4Q.s 			page 2


  38              		.loc 1 20 0
  39              		.cfi_startproc
  40 0000 80B5     		push	{r7, lr}
  41              	.LCFI0:
  42              		.cfi_def_cfa_offset 8
  43              		.cfi_offset 7, -8
  44              		.cfi_offset 14, -4
  45 0002 82B0     		sub	sp, sp, #8
  46              	.LCFI1:
  47              		.cfi_def_cfa_offset 16
  48 0004 00AF     		add	r7, sp, #0
  49              	.LCFI2:
  50              		.cfi_def_cfa_register 7
  51 0006 7860     		str	r0, [r7, #4]
  21:.\Scheduler.c ****     todo->gimbalPan   = 1500;
  52              		.loc 1 21 0
  53 0008 7B68     		ldr	r3, [r7, #4]
  54 000a 074A     		ldr	r2, .L2
  55 000c 9A80     		strh	r2, [r3, #4]
  22:.\Scheduler.c ****     todo->gimbalTilt  = 1500;
  56              		.loc 1 22 0
  57 000e 7B68     		ldr	r3, [r7, #4]
  58 0010 054A     		ldr	r2, .L2
  59 0012 DA80     		strh	r2, [r3, #6]
  23:.\Scheduler.c ****     todo->leftWheels  = 1500;
  60              		.loc 1 23 0
  61 0014 7B68     		ldr	r3, [r7, #4]
  62 0016 044A     		ldr	r2, .L2
  63 0018 1A80     		strh	r2, [r3]
  24:.\Scheduler.c ****     todo->rightWheels = 1500;
  64              		.loc 1 24 0
  65 001a 7B68     		ldr	r3, [r7, #4]
  66 001c 024A     		ldr	r2, .L2
  67 001e 5A80     		strh	r2, [r3, #2]
  25:.\Scheduler.c **** }
  68              		.loc 1 25 0
  69 0020 BD46     		mov	sp, r7
  70 0022 02B0     		add	sp, sp, #8
  71              		@ sp needed for prologue
  72 0024 80BD     		pop	{r7, pc}
  73              	.L3:
  74 0026 C046     		.align	2
  75              	.L2:
  76 0028 DC050000 		.word	1500
  77              		.cfi_endproc
  78              	.LFE33:
  79              		.size	initTodoList, .-initTodoList
  80              		.section	.text.initReport,"ax",%progbits
  81              		.align	2
  82              		.global	initReport
  83              		.code	16
  84              		.thumb_func
  85              		.type	initReport, %function
  86              	initReport:
  87              	.LFB34:
  26:.\Scheduler.c **** 
  27:.\Scheduler.c **** void initReport(Report* report)
ARM GAS  C:\Users\Jared\AppData\Local\Temp\ccmtck4Q.s 			page 3


  28:.\Scheduler.c **** {
  88              		.loc 1 28 0
  89              		.cfi_startproc
  90 0000 80B5     		push	{r7, lr}
  91              	.LCFI3:
  92              		.cfi_def_cfa_offset 8
  93              		.cfi_offset 7, -8
  94              		.cfi_offset 14, -4
  95 0002 82B0     		sub	sp, sp, #8
  96              	.LCFI4:
  97              		.cfi_def_cfa_offset 16
  98 0004 00AF     		add	r7, sp, #0
  99              	.LCFI5:
 100              		.cfi_def_cfa_register 7
 101 0006 7860     		str	r0, [r7, #4]
  29:.\Scheduler.c ****     report->gimbalPan   = 1500;
 102              		.loc 1 29 0
 103 0008 7B68     		ldr	r3, [r7, #4]
 104 000a 074A     		ldr	r2, .L5
 105 000c 9A80     		strh	r2, [r3, #4]
  30:.\Scheduler.c ****     report->gimbalTilt  = 1500;
 106              		.loc 1 30 0
 107 000e 7B68     		ldr	r3, [r7, #4]
 108 0010 054A     		ldr	r2, .L5
 109 0012 DA80     		strh	r2, [r3, #6]
  31:.\Scheduler.c **** //    memset(report->gpsData, 0, CHAR_ARRAY_MAX_SIZE);
  32:.\Scheduler.c ****     report->leftWheels  = 1500;
 110              		.loc 1 32 0
 111 0014 7B68     		ldr	r3, [r7, #4]
 112 0016 044A     		ldr	r2, .L5
 113 0018 1A80     		strh	r2, [r3]
  33:.\Scheduler.c ****     report->rightWheels = 1500;
 114              		.loc 1 33 0
 115 001a 7B68     		ldr	r3, [r7, #4]
 116 001c 024A     		ldr	r2, .L5
 117 001e 5A80     		strh	r2, [r3, #2]
  34:.\Scheduler.c **** }
 118              		.loc 1 34 0
 119 0020 BD46     		mov	sp, r7
 120 0022 02B0     		add	sp, sp, #8
 121              		@ sp needed for prologue
 122 0024 80BD     		pop	{r7, pc}
 123              	.L6:
 124 0026 C046     		.align	2
 125              	.L5:
 126 0028 DC050000 		.word	1500
 127              		.cfi_endproc
 128              	.LFE34:
 129              		.size	initReport, .-initReport
 130              		.comm	taskSchedulerState,1,1
 131              		.section	.text.taskScheduler,"ax",%progbits
 132              		.align	2
 133              		.global	taskScheduler
 134              		.code	16
 135              		.thumb_func
 136              		.type	taskScheduler, %function
 137              	taskScheduler:
ARM GAS  C:\Users\Jared\AppData\Local\Temp\ccmtck4Q.s 			page 4


 138              	.LFB35:
  35:.\Scheduler.c **** 
  36:.\Scheduler.c **** //static void gps_printArray(Scheduler* sch)
  37:.\Scheduler.c **** //{
  38:.\Scheduler.c **** //    printf("Printing gps data array:\r\n");
  39:.\Scheduler.c **** //    uint8_t i = 0;
  40:.\Scheduler.c **** //    for(i = 0; i < GPS_MAX_DATA; i++)
  41:.\Scheduler.c **** //    {
  42:.\Scheduler.c **** //        printf("%c",sch->gpsIncoming[i]);    
  43:.\Scheduler.c **** //    }
  44:.\Scheduler.c **** //    printf("\r\n");
  45:.\Scheduler.c **** //    return;
  46:.\Scheduler.c **** //}
  47:.\Scheduler.c **** 
  48:.\Scheduler.c **** enum taskSchedulerStates {init_taskScheduler, read, update, read_sensors, report, wait, reset} task
  49:.\Scheduler.c **** 
  50:.\Scheduler.c **** 
  51:.\Scheduler.c **** void taskScheduler(Scheduler* sch, volatile uint8_t* testSignal)
  52:.\Scheduler.c **** {
 139              		.loc 1 52 0
 140              		.cfi_startproc
 141 0000 80B5     		push	{r7, lr}
 142              	.LCFI6:
 143              		.cfi_def_cfa_offset 8
 144              		.cfi_offset 7, -8
 145              		.cfi_offset 14, -4
 146 0002 82B0     		sub	sp, sp, #8
 147              	.LCFI7:
 148              		.cfi_def_cfa_offset 16
 149 0004 00AF     		add	r7, sp, #0
 150              	.LCFI8:
 151              		.cfi_def_cfa_register 7
 152 0006 7860     		str	r0, [r7, #4]
 153 0008 3960     		str	r1, [r7]
  53:.\Scheduler.c ****     //State Actions
  54:.\Scheduler.c ****     switch (taskSchedulerState) 
 154              		.loc 1 54 0
 155 000a 354B     		ldr	r3, .L30
 156 000c 1B78     		ldrb	r3, [r3]
 157 000e 062B     		cmp	r3, #6
 158 0010 34D8     		bhi	.L8
 159 0012 9A00     		lsl	r2, r3, #2
 160 0014 334B     		ldr	r3, .L30+4
 161 0016 D318     		add	r3, r2, r3
 162 0018 1B68     		ldr	r3, [r3]
 163 001a 9F46     		mov	pc, r3
 164              		.section	.rodata
 165              		.align	2
 166              	.L16:
 167 0000 1C000000 		.word	.L9
 168 0004 24000000 		.word	.L10
 169 0008 32000000 		.word	.L11
 170 000c 7A000000 		.word	.L28
 171 0010 7A000000 		.word	.L28
 172 0014 5C000000 		.word	.L14
 173 0018 6C000000 		.word	.L15
 174              		.section	.text.taskScheduler
ARM GAS  C:\Users\Jared\AppData\Local\Temp\ccmtck4Q.s 			page 5


 175              	.L9:
  55:.\Scheduler.c ****     {
  56:.\Scheduler.c ****         case init_taskScheduler:
  57:.\Scheduler.c ****         //printf("init state");
  58:.\Scheduler.c ****         timeoutCounter = 0;
 176              		.loc 1 58 0
 177 001c 324B     		ldr	r3, .L30+8
 178 001e 0022     		mov	r2, #0
 179 0020 1A80     		strh	r2, [r3]
  59:.\Scheduler.c **** //        gps_enableGps();
  60:.\Scheduler.c ****             
  61:.\Scheduler.c ****         break;
 180              		.loc 1 61 0
 181 0022 2BE0     		b	.L8
 182              	.L10:
  62:.\Scheduler.c ****         case read:
  63:.\Scheduler.c ****         
  64:.\Scheduler.c ****         //Take top Package off of Wiznet Buffer
  65:.\Scheduler.c ****        /* sch->todo.leftWheels = testSignal[0]; 
  66:.\Scheduler.c ****         //printf("Test Signal 0 value read: %u", testSignal[0]);
  67:.\Scheduler.c ****         sch->todo.rightWheels = testSignal[1];
  68:.\Scheduler.c ****         sch->todo.gimbalPan = testSignal[2];
  69:.\Scheduler.c ****         sch->todo.gimbalTilt = testSignal[3];*/
  70:.\Scheduler.c ****         //Open it up
  71:.\Scheduler.c ****         //Parse and save all pieces of data into ToDo list struct
  72:.\Scheduler.c ****         
  73:.\Scheduler.c ****         
  74:.\Scheduler.c ****         
  75:.\Scheduler.c ****         wiznet_parse(&(sch->todo), testSignal);
 183              		.loc 1 75 0
 184 0024 7A68     		ldr	r2, [r7, #4]
 185 0026 3B68     		ldr	r3, [r7]
 186 0028 101C     		mov	r0, r2
 187 002a 191C     		mov	r1, r3
 188 002c FFF7FEFF 		bl	wiznet_parse
  76:.\Scheduler.c ****         
  77:.\Scheduler.c ****         //printf("Left wheelie: %u \n\r", sch->todo.leftWheels);
  78:.\Scheduler.c ****         //printf("Right Wheelie: %u \n\r", sch->todo.leftWheels);
  79:.\Scheduler.c ****         //printf("Gimbal Peter Pan: %u \n\r", sch->todo.gimbalPan);
  80:.\Scheduler.c ****         //printf("Gimbal Tilt-a-Whirl: %u \n\r", sch->todo.gimbalTilt);
  81:.\Scheduler.c ****         
  82:.\Scheduler.c ****         //printf("READ\n\r");
  83:.\Scheduler.c ****         break;
 189              		.loc 1 83 0
 190 0030 24E0     		b	.L8
 191              	.L11:
  84:.\Scheduler.c ****         
  85:.\Scheduler.c ****         case update:
  86:.\Scheduler.c ****         
  87:.\Scheduler.c ****         //Write var to pwm components
  88:.\Scheduler.c ****         Wheels_1_WriteCompare(sch->todo.leftWheels);
 192              		.loc 1 88 0
 193 0032 7B68     		ldr	r3, [r7, #4]
 194 0034 1B88     		ldrh	r3, [r3]
 195 0036 181C     		mov	r0, r3
 196 0038 FFF7FEFF 		bl	Wheels_1_WriteCompare
  89:.\Scheduler.c ****         Wheels_2_WriteCompare(sch->todo.rightWheels);
ARM GAS  C:\Users\Jared\AppData\Local\Temp\ccmtck4Q.s 			page 6


 197              		.loc 1 89 0
 198 003c 7B68     		ldr	r3, [r7, #4]
 199 003e 5B88     		ldrh	r3, [r3, #2]
 200 0040 181C     		mov	r0, r3
 201 0042 FFF7FEFF 		bl	Wheels_2_WriteCompare
  90:.\Scheduler.c ****         Gimbal_WriteCompare1(sch->todo.gimbalPan);
 202              		.loc 1 90 0
 203 0046 7B68     		ldr	r3, [r7, #4]
 204 0048 9B88     		ldrh	r3, [r3, #4]
 205 004a 181C     		mov	r0, r3
 206 004c FFF7FEFF 		bl	Gimbal_WriteCompare1
  91:.\Scheduler.c ****         Gimbal_WriteCompare2(sch->todo.gimbalTilt);
 207              		.loc 1 91 0
 208 0050 7B68     		ldr	r3, [r7, #4]
 209 0052 DB88     		ldrh	r3, [r3, #6]
 210 0054 181C     		mov	r0, r3
 211 0056 FFF7FEFF 		bl	Gimbal_WriteCompare2
  92:.\Scheduler.c ****         
  93:.\Scheduler.c ****        // printf("..............Update\n\r");
  94:.\Scheduler.c ****         
  95:.\Scheduler.c ****         //Switch camera
  96:.\Scheduler.c ****         break;
 212              		.loc 1 96 0
 213 005a 0FE0     		b	.L8
 214              	.L14:
  97:.\Scheduler.c ****        
  98:.\Scheduler.c ****         //read incomming GPS and IMU data
  99:.\Scheduler.c ****         case read_sensors:
 100:.\Scheduler.c **** //            if(gps_isGoodData())
 101:.\Scheduler.c **** //            {
 102:.\Scheduler.c **** //                gps_readGpsData(sch->gpsIncoming);
 103:.\Scheduler.c **** //                //gps_printArray(sch);
 104:.\Scheduler.c **** //            }
 105:.\Scheduler.c ****         break;
 106:.\Scheduler.c ****         
 107:.\Scheduler.c ****         case report:
 108:.\Scheduler.c ****             //wiznetWriteUdpFrame(sch->gpsIncoming, sizeof(sch->gpsIncoming));
 109:.\Scheduler.c ****             //wiznetSend();
 110:.\Scheduler.c ****         break;
 111:.\Scheduler.c ****         case wait:
 112:.\Scheduler.c ****         timeoutCounter++;
 215              		.loc 1 112 0
 216 005c 224B     		ldr	r3, .L30+8
 217 005e 1B88     		ldrh	r3, [r3]
 218 0060 9BB2     		uxth	r3, r3
 219 0062 0133     		add	r3, r3, #1
 220 0064 9AB2     		uxth	r2, r3
 221 0066 204B     		ldr	r3, .L30+8
 222 0068 1A80     		strh	r2, [r3]
 113:.\Scheduler.c ****         break;
 223              		.loc 1 113 0
 224 006a 07E0     		b	.L8
 225              	.L15:
 114:.\Scheduler.c ****         case reset:
 115:.\Scheduler.c ****             sch->todo.leftWheels = 1500;
 226              		.loc 1 115 0
 227 006c 7B68     		ldr	r3, [r7, #4]
ARM GAS  C:\Users\Jared\AppData\Local\Temp\ccmtck4Q.s 			page 7


 228 006e 1F4A     		ldr	r2, .L30+12
 229 0070 1A80     		strh	r2, [r3]
 116:.\Scheduler.c ****             sch->todo.rightWheels = 1500;
 230              		.loc 1 116 0
 231 0072 7B68     		ldr	r3, [r7, #4]
 232 0074 1D4A     		ldr	r2, .L30+12
 233 0076 5A80     		strh	r2, [r3, #2]
 117:.\Scheduler.c ****         break;
 234              		.loc 1 117 0
 235 0078 00E0     		b	.L8
 236              	.L28:
 105:.\Scheduler.c ****         break;
 237              		.loc 1 105 0
 238 007a C046     		mov	r8, r8
 239              	.L8:
 118:.\Scheduler.c ****     }    
 119:.\Scheduler.c ****        
 120:.\Scheduler.c ****     //Transitions
 121:.\Scheduler.c ****     switch(taskSchedulerState)
 240              		.loc 1 121 0
 241 007c 184B     		ldr	r3, .L30
 242 007e 1B78     		ldrb	r3, [r3]
 243 0080 062B     		cmp	r3, #6
 244 0082 29D8     		bhi	.L7
 245 0084 9A00     		lsl	r2, r3, #2
 246 0086 1A4B     		ldr	r3, .L30+16
 247 0088 D318     		add	r3, r2, r3
 248 008a 1B68     		ldr	r3, [r3]
 249 008c 9F46     		mov	pc, r3
 250              		.section	.rodata
 251              		.align	2
 252              	.L25:
 253 001c 8E000000 		.word	.L18
 254 0020 96000000 		.word	.L19
 255 0024 9E000000 		.word	.L20
 256 0028 A6000000 		.word	.L21
 257 002c AE000000 		.word	.L22
 258 0030 B6000000 		.word	.L23
 259 0034 BE000000 		.word	.L24
 260              		.section	.text.taskScheduler
 261              	.L18:
 122:.\Scheduler.c ****     {
 123:.\Scheduler.c ****         case init_taskScheduler:
 124:.\Scheduler.c ****             taskSchedulerState = wait;
 262              		.loc 1 124 0
 263 008e 144B     		ldr	r3, .L30
 264 0090 0522     		mov	r2, #5
 265 0092 1A70     		strb	r2, [r3]
 125:.\Scheduler.c ****         break;
 266              		.loc 1 125 0
 267 0094 20E0     		b	.L7
 268              	.L19:
 126:.\Scheduler.c ****         case read:
 127:.\Scheduler.c ****             taskSchedulerState = update;
 269              		.loc 1 127 0
 270 0096 124B     		ldr	r3, .L30
 271 0098 0222     		mov	r2, #2
ARM GAS  C:\Users\Jared\AppData\Local\Temp\ccmtck4Q.s 			page 8


 272 009a 1A70     		strb	r2, [r3]
 128:.\Scheduler.c ****         break;
 273              		.loc 1 128 0
 274 009c 1CE0     		b	.L7
 275              	.L20:
 129:.\Scheduler.c ****         case update:
 130:.\Scheduler.c ****             taskSchedulerState = read_sensors;
 276              		.loc 1 130 0
 277 009e 104B     		ldr	r3, .L30
 278 00a0 0322     		mov	r2, #3
 279 00a2 1A70     		strb	r2, [r3]
 131:.\Scheduler.c ****         break;
 280              		.loc 1 131 0
 281 00a4 18E0     		b	.L7
 282              	.L21:
 132:.\Scheduler.c ****         case read_sensors:
 133:.\Scheduler.c ****             taskSchedulerState = report;
 283              		.loc 1 133 0
 284 00a6 0E4B     		ldr	r3, .L30
 285 00a8 0422     		mov	r2, #4
 286 00aa 1A70     		strb	r2, [r3]
 134:.\Scheduler.c ****         break;
 287              		.loc 1 134 0
 288 00ac 14E0     		b	.L7
 289              	.L22:
 135:.\Scheduler.c ****         case report:
 136:.\Scheduler.c ****             taskSchedulerState = wait;
 290              		.loc 1 136 0
 291 00ae 0C4B     		ldr	r3, .L30
 292 00b0 0522     		mov	r2, #5
 293 00b2 1A70     		strb	r2, [r3]
 137:.\Scheduler.c ****         break;
 294              		.loc 1 137 0
 295 00b4 10E0     		b	.L7
 296              	.L23:
 138:.\Scheduler.c ****         case wait:
 139:.\Scheduler.c ****             taskSchedulerState = read;
 297              		.loc 1 139 0
 298 00b6 0A4B     		ldr	r3, .L30
 299 00b8 0122     		mov	r2, #1
 300 00ba 1A70     		strb	r2, [r3]
 140:.\Scheduler.c **** //            if(WIZ_INT_Read() == 0)
 141:.\Scheduler.c **** //            {
 142:.\Scheduler.c **** //                timeoutCounter = 0;
 143:.\Scheduler.c **** //                taskSchedulerState = read;
 144:.\Scheduler.c **** //            }
 145:.\Scheduler.c **** //            else if(timeoutCounter >= 2000)
 146:.\Scheduler.c **** //            {
 147:.\Scheduler.c **** //                timeoutCounter = 0;
 148:.\Scheduler.c **** //                taskSchedulerState = reset;   
 149:.\Scheduler.c **** //            }
 150:.\Scheduler.c **** //            else
 151:.\Scheduler.c **** //            {
 152:.\Scheduler.c **** //                
 153:.\Scheduler.c **** //                messageStillNotRecievedError = false;
 154:.\Scheduler.c **** //                taskSchedulerState = wait;
 155:.\Scheduler.c **** //            }
ARM GAS  C:\Users\Jared\AppData\Local\Temp\ccmtck4Q.s 			page 9


 156:.\Scheduler.c ****         break;
 301              		.loc 1 156 0
 302 00bc 0CE0     		b	.L7
 303              	.L24:
 157:.\Scheduler.c ****         case reset:
 158:.\Scheduler.c ****             if(WIZ_INT_Read() == 0)
 304              		.loc 1 158 0
 305 00be FFF7FEFF 		bl	WIZ_INT_Read
 306 00c2 031C     		mov	r3, r0
 307 00c4 002B     		cmp	r3, #0
 308 00c6 03D1     		bne	.L26
 159:.\Scheduler.c ****             {
 160:.\Scheduler.c ****             taskSchedulerState = read;
 309              		.loc 1 160 0
 310 00c8 054B     		ldr	r3, .L30
 311 00ca 0122     		mov	r2, #1
 312 00cc 1A70     		strb	r2, [r3]
 161:.\Scheduler.c ****             }
 162:.\Scheduler.c ****             else
 163:.\Scheduler.c ****             {
 164:.\Scheduler.c ****             taskSchedulerState = reset;   
 165:.\Scheduler.c ****             }
 166:.\Scheduler.c ****         break;
 313              		.loc 1 166 0
 314 00ce 02E0     		b	.L29
 315              	.L26:
 164:.\Scheduler.c ****             taskSchedulerState = reset;   
 316              		.loc 1 164 0
 317 00d0 034B     		ldr	r3, .L30
 318 00d2 0622     		mov	r2, #6
 319 00d4 1A70     		strb	r2, [r3]
 320              	.L29:
 321              		.loc 1 166 0
 322 00d6 C046     		mov	r8, r8
 323              	.L7:
 167:.\Scheduler.c ****         
 168:.\Scheduler.c ****     }
 169:.\Scheduler.c ****     
 170:.\Scheduler.c **** }
 324              		.loc 1 170 0
 325 00d8 BD46     		mov	sp, r7
 326 00da 02B0     		add	sp, sp, #8
 327              		@ sp needed for prologue
 328 00dc 80BD     		pop	{r7, pc}
 329              	.L31:
 330 00de C046     		.align	2
 331              	.L30:
 332 00e0 00000000 		.word	taskSchedulerState
 333 00e4 00000000 		.word	.L16
 334 00e8 00000000 		.word	timeoutCounter
 335 00ec DC050000 		.word	1500
 336 00f0 1C000000 		.word	.L25
 337              		.cfi_endproc
 338              	.LFE35:
 339              		.size	taskScheduler, .-taskScheduler
 340              		.text
 341              	.Letext0:
ARM GAS  C:\Users\Jared\AppData\Local\Temp\ccmtck4Q.s 			page 10


 342              		.file 2 "c:\\program files (x86)\\cypress\\psoc creator\\3.0\\psoc creator\\import\\gnu_cs\\arm\\4
 343              		.file 3 "./Generated_Source/PSoC4/cytypes.h"
 344              		.file 4 ".\\infoReports.h"
 345              		.file 5 ".\\Scheduler.h"