ARM GAS  C:\Users\Jared\AppData\Local\Temp\ccOOnCAQ.s 			page 1


   1              		.cpu cortex-m0
   2              		.fpu softvfp
   3              		.eabi_attribute 20, 1
   4              		.eabi_attribute 21, 1
   5              		.eabi_attribute 23, 3
   6              		.eabi_attribute 24, 1
   7              		.eabi_attribute 25, 1
   8              		.eabi_attribute 26, 1
   9              		.eabi_attribute 30, 6
  10              		.eabi_attribute 34, 0
  11              		.eabi_attribute 18, 4
  12              		.code	16
  13              		.file	"Timer.c"
  14              		.text
  15              	.Ltext0:
  16              		.cfi_sections	.debug_frame
  17              		.global	Timer_initVar
  18              		.bss
  19              		.type	Timer_initVar, %object
  20              		.size	Timer_initVar, 1
  21              	Timer_initVar:
  22 0000 00       		.space	1
  23              		.section	.text.Timer_Init,"ax",%progbits
  24              		.align	2
  25              		.global	Timer_Init
  26              		.code	16
  27              		.thumb_func
  28              		.type	Timer_Init, %function
  29              	Timer_Init:
  30              	.LFB0:
  31              		.file 1 ".\\Generated_Source\\PSoC4\\Timer.c"
   1:.\Generated_Source\PSoC4/Timer.c **** /*******************************************************************************
   2:.\Generated_Source\PSoC4/Timer.c **** * File Name: Timer.c
   3:.\Generated_Source\PSoC4/Timer.c **** * Version 1.10
   4:.\Generated_Source\PSoC4/Timer.c **** *
   5:.\Generated_Source\PSoC4/Timer.c **** * Description:
   6:.\Generated_Source\PSoC4/Timer.c **** *  This file provides the source code to the API for the Timer
   7:.\Generated_Source\PSoC4/Timer.c **** *  component
   8:.\Generated_Source\PSoC4/Timer.c **** *
   9:.\Generated_Source\PSoC4/Timer.c **** * Note:
  10:.\Generated_Source\PSoC4/Timer.c **** *  None
  11:.\Generated_Source\PSoC4/Timer.c **** *
  12:.\Generated_Source\PSoC4/Timer.c **** ********************************************************************************
  13:.\Generated_Source\PSoC4/Timer.c **** * Copyright 2013-2014, Cypress Semiconductor Corporation.  All rights reserved.
  14:.\Generated_Source\PSoC4/Timer.c **** * You may use this file only in accordance with the license, terms, conditions,
  15:.\Generated_Source\PSoC4/Timer.c **** * disclaimers, and limitations in the end user license agreement accompanying
  16:.\Generated_Source\PSoC4/Timer.c **** * the software package with which this file was provided.
  17:.\Generated_Source\PSoC4/Timer.c **** *******************************************************************************/
  18:.\Generated_Source\PSoC4/Timer.c **** 
  19:.\Generated_Source\PSoC4/Timer.c **** #include "Timer.h"
  20:.\Generated_Source\PSoC4/Timer.c **** #include "CyLib.h"
  21:.\Generated_Source\PSoC4/Timer.c **** 
  22:.\Generated_Source\PSoC4/Timer.c **** uint8 Timer_initVar = 0u;
  23:.\Generated_Source\PSoC4/Timer.c **** 
  24:.\Generated_Source\PSoC4/Timer.c **** 
  25:.\Generated_Source\PSoC4/Timer.c **** /*******************************************************************************
  26:.\Generated_Source\PSoC4/Timer.c **** * Function Name: Timer_Init
ARM GAS  C:\Users\Jared\AppData\Local\Temp\ccOOnCAQ.s 			page 2


  27:.\Generated_Source\PSoC4/Timer.c **** ********************************************************************************
  28:.\Generated_Source\PSoC4/Timer.c **** *
  29:.\Generated_Source\PSoC4/Timer.c **** * Summary:
  30:.\Generated_Source\PSoC4/Timer.c **** *  Initialize/Restore default Timer configuration.
  31:.\Generated_Source\PSoC4/Timer.c **** *
  32:.\Generated_Source\PSoC4/Timer.c **** * Parameters:
  33:.\Generated_Source\PSoC4/Timer.c **** *  None
  34:.\Generated_Source\PSoC4/Timer.c **** *
  35:.\Generated_Source\PSoC4/Timer.c **** * Return:
  36:.\Generated_Source\PSoC4/Timer.c **** *  None
  37:.\Generated_Source\PSoC4/Timer.c **** *
  38:.\Generated_Source\PSoC4/Timer.c **** *******************************************************************************/
  39:.\Generated_Source\PSoC4/Timer.c **** void Timer_Init(void)
  40:.\Generated_Source\PSoC4/Timer.c **** {
  32              		.loc 1 40 0
  33              		.cfi_startproc
  34 0000 80B5     		push	{r7, lr}
  35              	.LCFI0:
  36              		.cfi_def_cfa_offset 8
  37              		.cfi_offset 7, -8
  38              		.cfi_offset 14, -4
  39 0002 00AF     		add	r7, sp, #0
  40              	.LCFI1:
  41              		.cfi_def_cfa_register 7
  41:.\Generated_Source\PSoC4/Timer.c **** 
  42:.\Generated_Source\PSoC4/Timer.c ****     /* Set values from customizer to CTRL */
  43:.\Generated_Source\PSoC4/Timer.c ****     #if (Timer__QUAD == Timer_CONFIG)
  44:.\Generated_Source\PSoC4/Timer.c ****         Timer_CONTROL_REG =
  45:.\Generated_Source\PSoC4/Timer.c ****         (((uint32)(Timer_QUAD_ENCODING_MODES     << Timer_QUAD_MODE_SHIFT))       |
  46:.\Generated_Source\PSoC4/Timer.c ****          ((uint32)(Timer_CONFIG                  << Timer_MODE_SHIFT)));
  47:.\Generated_Source\PSoC4/Timer.c ****     #endif  /* (Timer__QUAD == Timer_CONFIG) */
  48:.\Generated_Source\PSoC4/Timer.c **** 
  49:.\Generated_Source\PSoC4/Timer.c ****     #if (Timer__PWM_SEL == Timer_CONFIG)
  50:.\Generated_Source\PSoC4/Timer.c ****         Timer_CONTROL_REG =
  51:.\Generated_Source\PSoC4/Timer.c ****         (((uint32)(Timer_PWM_STOP_EVENT          << Timer_PWM_STOP_KILL_SHIFT))    |
  52:.\Generated_Source\PSoC4/Timer.c ****          ((uint32)(Timer_PWM_OUT_INVERT          << Timer_INV_OUT_SHIFT))         |
  53:.\Generated_Source\PSoC4/Timer.c ****          ((uint32)(Timer_PWM_OUT_N_INVERT        << Timer_INV_COMPL_OUT_SHIFT))     |
  54:.\Generated_Source\PSoC4/Timer.c ****          ((uint32)(Timer_PWM_MODE                << Timer_MODE_SHIFT)));
  55:.\Generated_Source\PSoC4/Timer.c **** 
  56:.\Generated_Source\PSoC4/Timer.c ****         #if (Timer__PWM_PR == Timer_PWM_MODE)
  57:.\Generated_Source\PSoC4/Timer.c ****             Timer_CONTROL_REG |=
  58:.\Generated_Source\PSoC4/Timer.c ****             ((uint32)(Timer_PWM_RUN_MODE         << Timer_ONESHOT_SHIFT));
  59:.\Generated_Source\PSoC4/Timer.c **** 
  60:.\Generated_Source\PSoC4/Timer.c ****             Timer_WriteCounter(Timer_PWM_PR_INIT_VALUE);
  61:.\Generated_Source\PSoC4/Timer.c ****         #else
  62:.\Generated_Source\PSoC4/Timer.c ****             Timer_CONTROL_REG |=
  63:.\Generated_Source\PSoC4/Timer.c ****             (((uint32)(Timer_PWM_ALIGN           << Timer_UPDOWN_SHIFT))          |
  64:.\Generated_Source\PSoC4/Timer.c ****              ((uint32)(Timer_PWM_KILL_EVENT      << Timer_PWM_SYNC_KILL_SHIFT)));
  65:.\Generated_Source\PSoC4/Timer.c ****         #endif  /* (Timer__PWM_PR == Timer_PWM_MODE) */
  66:.\Generated_Source\PSoC4/Timer.c **** 
  67:.\Generated_Source\PSoC4/Timer.c ****         #if (Timer__PWM_DT == Timer_PWM_MODE)
  68:.\Generated_Source\PSoC4/Timer.c ****             Timer_CONTROL_REG |=
  69:.\Generated_Source\PSoC4/Timer.c ****             ((uint32)(Timer_PWM_DEAD_TIME_CYCLE  << Timer_PRESCALER_SHIFT));
  70:.\Generated_Source\PSoC4/Timer.c ****         #endif  /* (Timer__PWM_DT == Timer_PWM_MODE) */
  71:.\Generated_Source\PSoC4/Timer.c **** 
  72:.\Generated_Source\PSoC4/Timer.c ****         #if (Timer__PWM == Timer_PWM_MODE)
  73:.\Generated_Source\PSoC4/Timer.c ****             Timer_CONTROL_REG |=
ARM GAS  C:\Users\Jared\AppData\Local\Temp\ccOOnCAQ.s 			page 3


  74:.\Generated_Source\PSoC4/Timer.c ****             ((uint32)Timer_PWM_PRESCALER         << Timer_PRESCALER_SHIFT);
  75:.\Generated_Source\PSoC4/Timer.c ****         #endif  /* (Timer__PWM == Timer_PWM_MODE) */
  76:.\Generated_Source\PSoC4/Timer.c ****     #endif  /* (Timer__PWM_SEL == Timer_CONFIG) */
  77:.\Generated_Source\PSoC4/Timer.c **** 
  78:.\Generated_Source\PSoC4/Timer.c ****     #if (Timer__TIMER == Timer_CONFIG)
  79:.\Generated_Source\PSoC4/Timer.c ****         Timer_CONTROL_REG =
  42              		.loc 1 79 0
  43 0004 094B     		ldr	r3, .L2
  44 0006 0022     		mov	r2, #0
  45 0008 1A60     		str	r2, [r3]
  80:.\Generated_Source\PSoC4/Timer.c ****         (((uint32)(Timer_TC_PRESCALER            << Timer_PRESCALER_SHIFT))   |
  81:.\Generated_Source\PSoC4/Timer.c ****          ((uint32)(Timer_TC_COUNTER_MODE         << Timer_UPDOWN_SHIFT))      |
  82:.\Generated_Source\PSoC4/Timer.c ****          ((uint32)(Timer_TC_RUN_MODE             << Timer_ONESHOT_SHIFT))     |
  83:.\Generated_Source\PSoC4/Timer.c ****          ((uint32)(Timer_TC_COMP_CAP_MODE        << Timer_MODE_SHIFT)));
  84:.\Generated_Source\PSoC4/Timer.c ****     #endif  /* (Timer__TIMER == Timer_CONFIG) */
  85:.\Generated_Source\PSoC4/Timer.c **** 
  86:.\Generated_Source\PSoC4/Timer.c ****     /* Set values from customizer to CTRL1 */
  87:.\Generated_Source\PSoC4/Timer.c ****     #if (Timer__QUAD == Timer_CONFIG)
  88:.\Generated_Source\PSoC4/Timer.c ****         Timer_TRIG_CONTROL1_REG  =
  89:.\Generated_Source\PSoC4/Timer.c ****         (((uint32)(Timer_QUAD_PHIA_SIGNAL_MODE   << Timer_COUNT_SHIFT))       |
  90:.\Generated_Source\PSoC4/Timer.c ****          ((uint32)(Timer_QUAD_INDEX_SIGNAL_MODE  << Timer_RELOAD_SHIFT))      |
  91:.\Generated_Source\PSoC4/Timer.c ****          ((uint32)(Timer_QUAD_STOP_SIGNAL_MODE   << Timer_STOP_SHIFT))        |
  92:.\Generated_Source\PSoC4/Timer.c ****          ((uint32)(Timer_QUAD_PHIB_SIGNAL_MODE   << Timer_START_SHIFT)));
  93:.\Generated_Source\PSoC4/Timer.c ****     #endif  /* (Timer__QUAD == Timer_CONFIG) */
  94:.\Generated_Source\PSoC4/Timer.c **** 
  95:.\Generated_Source\PSoC4/Timer.c ****     #if (Timer__PWM_SEL == Timer_CONFIG)
  96:.\Generated_Source\PSoC4/Timer.c ****         Timer_TRIG_CONTROL1_REG  =
  97:.\Generated_Source\PSoC4/Timer.c ****         (((uint32)(Timer_PWM_SWITCH_SIGNAL_MODE  << Timer_CAPTURE_SHIFT))     |
  98:.\Generated_Source\PSoC4/Timer.c ****          ((uint32)(Timer_PWM_COUNT_SIGNAL_MODE   << Timer_COUNT_SHIFT))       |
  99:.\Generated_Source\PSoC4/Timer.c ****          ((uint32)(Timer_PWM_RELOAD_SIGNAL_MODE  << Timer_RELOAD_SHIFT))      |
 100:.\Generated_Source\PSoC4/Timer.c ****          ((uint32)(Timer_PWM_STOP_SIGNAL_MODE    << Timer_STOP_SHIFT))        |
 101:.\Generated_Source\PSoC4/Timer.c ****          ((uint32)(Timer_PWM_START_SIGNAL_MODE   << Timer_START_SHIFT)));
 102:.\Generated_Source\PSoC4/Timer.c ****     #endif  /* (Timer__PWM_SEL == Timer_CONFIG) */
 103:.\Generated_Source\PSoC4/Timer.c **** 
 104:.\Generated_Source\PSoC4/Timer.c ****     #if (Timer__TIMER == Timer_CONFIG)
 105:.\Generated_Source\PSoC4/Timer.c ****         Timer_TRIG_CONTROL1_REG  =
  46              		.loc 1 105 0
  47 000a 094B     		ldr	r3, .L2+4
  48 000c 0C22     		mov	r2, #12
  49 000e 1A60     		str	r2, [r3]
 106:.\Generated_Source\PSoC4/Timer.c ****         (((uint32)(Timer_TC_CAPTURE_SIGNAL_MODE  << Timer_CAPTURE_SHIFT))     |
 107:.\Generated_Source\PSoC4/Timer.c ****          ((uint32)(Timer_TC_COUNT_SIGNAL_MODE    << Timer_COUNT_SHIFT))       |
 108:.\Generated_Source\PSoC4/Timer.c ****          ((uint32)(Timer_TC_RELOAD_SIGNAL_MODE   << Timer_RELOAD_SHIFT))      |
 109:.\Generated_Source\PSoC4/Timer.c ****          ((uint32)(Timer_TC_STOP_SIGNAL_MODE     << Timer_STOP_SHIFT))        |
 110:.\Generated_Source\PSoC4/Timer.c ****          ((uint32)(Timer_TC_START_SIGNAL_MODE    << Timer_START_SHIFT)));
 111:.\Generated_Source\PSoC4/Timer.c ****     #endif  /* (Timer__TIMER == Timer_CONFIG) */
 112:.\Generated_Source\PSoC4/Timer.c **** 
 113:.\Generated_Source\PSoC4/Timer.c ****     /* Set values from customizer to INTR */
 114:.\Generated_Source\PSoC4/Timer.c ****     #if (Timer__QUAD == Timer_CONFIG)
 115:.\Generated_Source\PSoC4/Timer.c ****         Timer_SetInterruptMode(Timer_QUAD_INTERRUPT_MASK);
 116:.\Generated_Source\PSoC4/Timer.c ****     #endif  /* (Timer__QUAD == Timer_CONFIG) */
 117:.\Generated_Source\PSoC4/Timer.c **** 
 118:.\Generated_Source\PSoC4/Timer.c ****     #if (Timer__PWM_SEL == Timer_CONFIG)
 119:.\Generated_Source\PSoC4/Timer.c ****         Timer_SetInterruptMode(Timer_PWM_INTERRUPT_MASK);
 120:.\Generated_Source\PSoC4/Timer.c ****     #endif  /* (Timer__PWM_SEL == Timer_CONFIG) */
 121:.\Generated_Source\PSoC4/Timer.c **** 
 122:.\Generated_Source\PSoC4/Timer.c ****     #if (Timer__TIMER == Timer_CONFIG)
ARM GAS  C:\Users\Jared\AppData\Local\Temp\ccOOnCAQ.s 			page 4


 123:.\Generated_Source\PSoC4/Timer.c ****         Timer_SetInterruptMode(Timer_TC_INTERRUPT_MASK);
  50              		.loc 1 123 0
  51 0010 0120     		mov	r0, #1
  52 0012 FFF7FEFF 		bl	Timer_SetInterruptMode
 124:.\Generated_Source\PSoC4/Timer.c ****     #endif  /* (Timer__TIMER == Timer_CONFIG) */
 125:.\Generated_Source\PSoC4/Timer.c **** 
 126:.\Generated_Source\PSoC4/Timer.c ****     /* Set other values from customizer */
 127:.\Generated_Source\PSoC4/Timer.c ****     #if (Timer__TIMER == Timer_CONFIG)
 128:.\Generated_Source\PSoC4/Timer.c ****         Timer_WritePeriod(Timer_TC_PERIOD_VALUE );
  53              		.loc 1 128 0
  54 0016 FA23     		mov	r3, #250
  55 0018 9B00     		lsl	r3, r3, #2
  56 001a 181C     		mov	r0, r3
  57 001c FFF7FEFF 		bl	Timer_WritePeriod
 129:.\Generated_Source\PSoC4/Timer.c **** 
 130:.\Generated_Source\PSoC4/Timer.c ****         #if (Timer__COUNT_DOWN == Timer_TC_COUNTER_MODE)
 131:.\Generated_Source\PSoC4/Timer.c ****             Timer_WriteCounter(Timer_TC_PERIOD_VALUE );
 132:.\Generated_Source\PSoC4/Timer.c ****         #endif  /* (Timer__COUNT_DOWN == Timer_TC_COUNTER_MODE) */
 133:.\Generated_Source\PSoC4/Timer.c **** 
 134:.\Generated_Source\PSoC4/Timer.c ****         #if (Timer__COMPARE == Timer_TC_COMP_CAP_MODE)
 135:.\Generated_Source\PSoC4/Timer.c ****             Timer_WriteCompare(Timer_TC_COMPARE_VALUE);
  58              		.loc 1 135 0
  59 0020 3220     		mov	r0, #50
  60 0022 FFF7FEFF 		bl	Timer_WriteCompare
 136:.\Generated_Source\PSoC4/Timer.c **** 
 137:.\Generated_Source\PSoC4/Timer.c ****             #if (1u == Timer_TC_COMPARE_SWAP)
 138:.\Generated_Source\PSoC4/Timer.c ****                 Timer_SetCompareSwap(1u);
 139:.\Generated_Source\PSoC4/Timer.c ****                 Timer_WriteCompareBuf(Timer_TC_COMPARE_BUF_VALUE);
 140:.\Generated_Source\PSoC4/Timer.c ****             #endif  /* (1u == Timer_TC_COMPARE_SWAP) */
 141:.\Generated_Source\PSoC4/Timer.c ****         #endif  /* (Timer__COMPARE == Timer_TC_COMP_CAP_MODE) */
 142:.\Generated_Source\PSoC4/Timer.c ****     #endif  /* (Timer__TIMER == Timer_CONFIG) */
 143:.\Generated_Source\PSoC4/Timer.c **** 
 144:.\Generated_Source\PSoC4/Timer.c ****     #if (Timer__PWM_SEL == Timer_CONFIG)
 145:.\Generated_Source\PSoC4/Timer.c ****         Timer_WritePeriod(Timer_PWM_PERIOD_VALUE );
 146:.\Generated_Source\PSoC4/Timer.c ****         Timer_WriteCompare(Timer_PWM_COMPARE_VALUE);
 147:.\Generated_Source\PSoC4/Timer.c **** 
 148:.\Generated_Source\PSoC4/Timer.c ****         #if (1u == Timer_PWM_COMPARE_SWAP)
 149:.\Generated_Source\PSoC4/Timer.c ****             Timer_SetCompareSwap(1u);
 150:.\Generated_Source\PSoC4/Timer.c ****             Timer_WriteCompareBuf(Timer_PWM_COMPARE_BUF_VALUE);
 151:.\Generated_Source\PSoC4/Timer.c ****         #endif  /* (1u == Timer_PWM_COMPARE_SWAP) */
 152:.\Generated_Source\PSoC4/Timer.c **** 
 153:.\Generated_Source\PSoC4/Timer.c ****         #if (1u == Timer_PWM_PERIOD_SWAP)
 154:.\Generated_Source\PSoC4/Timer.c ****             Timer_SetPeriodSwap(1u);
 155:.\Generated_Source\PSoC4/Timer.c ****             Timer_WritePeriodBuf(Timer_PWM_PERIOD_BUF_VALUE);
 156:.\Generated_Source\PSoC4/Timer.c ****         #endif  /* (1u == Timer_PWM_PERIOD_SWAP) */
 157:.\Generated_Source\PSoC4/Timer.c **** 
 158:.\Generated_Source\PSoC4/Timer.c ****         /* Set values from customizer to CTRL2 */
 159:.\Generated_Source\PSoC4/Timer.c ****         #if (Timer__PWM_PR == Timer_PWM_MODE)
 160:.\Generated_Source\PSoC4/Timer.c ****             Timer_TRIG_CONTROL2_REG =
 161:.\Generated_Source\PSoC4/Timer.c ****                     (Timer_CC_MATCH_NO_CHANGE    |
 162:.\Generated_Source\PSoC4/Timer.c ****                     Timer_OVERLOW_NO_CHANGE      |
 163:.\Generated_Source\PSoC4/Timer.c ****                     Timer_UNDERFLOW_NO_CHANGE);
 164:.\Generated_Source\PSoC4/Timer.c ****         #else
 165:.\Generated_Source\PSoC4/Timer.c ****             #if (Timer__LEFT == Timer_PWM_ALIGN)
 166:.\Generated_Source\PSoC4/Timer.c ****                 Timer_TRIG_CONTROL2_REG = Timer_PWM_MODE_LEFT;
 167:.\Generated_Source\PSoC4/Timer.c ****             #endif  /* ( Timer_PWM_LEFT == Timer_PWM_ALIGN) */
 168:.\Generated_Source\PSoC4/Timer.c **** 
ARM GAS  C:\Users\Jared\AppData\Local\Temp\ccOOnCAQ.s 			page 5


 169:.\Generated_Source\PSoC4/Timer.c ****             #if (Timer__RIGHT == Timer_PWM_ALIGN)
 170:.\Generated_Source\PSoC4/Timer.c ****                 Timer_WriteCounter(Timer_PWM_PERIOD_VALUE);
 171:.\Generated_Source\PSoC4/Timer.c ****                 Timer_TRIG_CONTROL2_REG = Timer_PWM_MODE_RIGHT;
 172:.\Generated_Source\PSoC4/Timer.c ****             #endif  /* ( Timer_PWM_RIGHT == Timer_PWM_ALIGN) */
 173:.\Generated_Source\PSoC4/Timer.c **** 
 174:.\Generated_Source\PSoC4/Timer.c ****             #if (Timer__CENTER == Timer_PWM_ALIGN)
 175:.\Generated_Source\PSoC4/Timer.c ****                 Timer_TRIG_CONTROL2_REG = Timer_PWM_MODE_CENTER;
 176:.\Generated_Source\PSoC4/Timer.c ****             #endif  /* ( Timer_PWM_CENTER == Timer_PWM_ALIGN) */
 177:.\Generated_Source\PSoC4/Timer.c **** 
 178:.\Generated_Source\PSoC4/Timer.c ****             #if (Timer__ASYMMETRIC == Timer_PWM_ALIGN)
 179:.\Generated_Source\PSoC4/Timer.c ****                 Timer_TRIG_CONTROL2_REG = Timer_PWM_MODE_ASYM;
 180:.\Generated_Source\PSoC4/Timer.c ****             #endif  /* (Timer__ASYMMETRIC == Timer_PWM_ALIGN) */
 181:.\Generated_Source\PSoC4/Timer.c ****         #endif  /* (Timer__PWM_PR == Timer_PWM_MODE) */
 182:.\Generated_Source\PSoC4/Timer.c ****     #endif  /* (Timer__PWM_SEL == Timer_CONFIG) */
 183:.\Generated_Source\PSoC4/Timer.c **** }
  61              		.loc 1 183 0
  62 0026 BD46     		mov	sp, r7
  63              		@ sp needed for prologue
  64 0028 80BD     		pop	{r7, pc}
  65              	.L3:
  66 002a C046     		.align	2
  67              	.L2:
  68 002c 80010540 		.word	1074069888
  69 0030 A4010540 		.word	1074069924
  70              		.cfi_endproc
  71              	.LFE0:
  72              		.size	Timer_Init, .-Timer_Init
  73              		.section	.text.Timer_Enable,"ax",%progbits
  74              		.align	2
  75              		.global	Timer_Enable
  76              		.code	16
  77              		.thumb_func
  78              		.type	Timer_Enable, %function
  79              	Timer_Enable:
  80              	.LFB1:
 184:.\Generated_Source\PSoC4/Timer.c **** 
 185:.\Generated_Source\PSoC4/Timer.c **** 
 186:.\Generated_Source\PSoC4/Timer.c **** /*******************************************************************************
 187:.\Generated_Source\PSoC4/Timer.c **** * Function Name: Timer_Enable
 188:.\Generated_Source\PSoC4/Timer.c **** ********************************************************************************
 189:.\Generated_Source\PSoC4/Timer.c **** *
 190:.\Generated_Source\PSoC4/Timer.c **** * Summary:
 191:.\Generated_Source\PSoC4/Timer.c **** *  Enables the Timer.
 192:.\Generated_Source\PSoC4/Timer.c **** *
 193:.\Generated_Source\PSoC4/Timer.c **** * Parameters:
 194:.\Generated_Source\PSoC4/Timer.c **** *  None
 195:.\Generated_Source\PSoC4/Timer.c **** *
 196:.\Generated_Source\PSoC4/Timer.c **** * Return:
 197:.\Generated_Source\PSoC4/Timer.c **** *  None
 198:.\Generated_Source\PSoC4/Timer.c **** *
 199:.\Generated_Source\PSoC4/Timer.c **** *******************************************************************************/
 200:.\Generated_Source\PSoC4/Timer.c **** void Timer_Enable(void)
 201:.\Generated_Source\PSoC4/Timer.c **** {
  81              		.loc 1 201 0
  82              		.cfi_startproc
  83 0000 90B5     		push	{r4, r7, lr}
  84              	.LCFI2:
ARM GAS  C:\Users\Jared\AppData\Local\Temp\ccOOnCAQ.s 			page 6


  85              		.cfi_def_cfa_offset 12
  86              		.cfi_offset 4, -12
  87              		.cfi_offset 7, -8
  88              		.cfi_offset 14, -4
  89 0002 83B0     		sub	sp, sp, #12
  90              	.LCFI3:
  91              		.cfi_def_cfa_offset 24
  92 0004 00AF     		add	r7, sp, #0
  93              	.LCFI4:
  94              		.cfi_def_cfa_register 7
 202:.\Generated_Source\PSoC4/Timer.c ****     uint8 enableInterrupts;
 203:.\Generated_Source\PSoC4/Timer.c **** 
 204:.\Generated_Source\PSoC4/Timer.c ****     enableInterrupts = CyEnterCriticalSection();
  95              		.loc 1 204 0
  96 0006 FC1D     		add	r4, r7, #7
  97 0008 FFF7FEFF 		bl	CyEnterCriticalSection
  98 000c 031C     		mov	r3, r0
  99 000e 2370     		strb	r3, [r4]
 205:.\Generated_Source\PSoC4/Timer.c ****     Timer_BLOCK_CONTROL_REG |= Timer_MASK;
 100              		.loc 1 205 0
 101 0010 084B     		ldr	r3, .L5
 102 0012 084A     		ldr	r2, .L5
 103 0014 1268     		ldr	r2, [r2]
 104 0016 0421     		mov	r1, #4
 105 0018 0A43     		orr	r2, r1
 106 001a 1A60     		str	r2, [r3]
 206:.\Generated_Source\PSoC4/Timer.c ****     CyExitCriticalSection(enableInterrupts);
 107              		.loc 1 206 0
 108 001c FB1D     		add	r3, r7, #7
 109 001e 1B78     		ldrb	r3, [r3]
 110 0020 181C     		mov	r0, r3
 111 0022 FFF7FEFF 		bl	CyExitCriticalSection
 207:.\Generated_Source\PSoC4/Timer.c **** 
 208:.\Generated_Source\PSoC4/Timer.c ****     /* Start Timer or PWM if start input is absent */
 209:.\Generated_Source\PSoC4/Timer.c ****     #if (Timer__PWM_SEL == Timer_CONFIG)
 210:.\Generated_Source\PSoC4/Timer.c ****         #if (0u == Timer_PWM_START_SIGNAL_PRESENT)
 211:.\Generated_Source\PSoC4/Timer.c ****             Timer_TriggerCommand(Timer_MASK, Timer_CMD_START);
 212:.\Generated_Source\PSoC4/Timer.c ****         #endif /* (0u == Timer_PWM_START_SIGNAL_PRESENT) */
 213:.\Generated_Source\PSoC4/Timer.c ****     #endif /* (Timer__PWM_SEL == Timer_CONFIG) */
 214:.\Generated_Source\PSoC4/Timer.c **** 
 215:.\Generated_Source\PSoC4/Timer.c ****     #if (Timer__TIMER == Timer_CONFIG)
 216:.\Generated_Source\PSoC4/Timer.c ****         #if (0u == Timer_TC_START_SIGNAL_PRESENT)
 217:.\Generated_Source\PSoC4/Timer.c ****             Timer_TriggerCommand(Timer_MASK, Timer_CMD_START);
 112              		.loc 1 217 0
 113 0026 0420     		mov	r0, #4
 114 0028 1821     		mov	r1, #24
 115 002a FFF7FEFF 		bl	Timer_TriggerCommand
 218:.\Generated_Source\PSoC4/Timer.c ****         #endif /* (0u == Timer_TC_START_SIGNAL_PRESENT) */
 219:.\Generated_Source\PSoC4/Timer.c ****     #endif /* (Timer__TIMER == Timer_CONFIG) */
 220:.\Generated_Source\PSoC4/Timer.c **** }
 116              		.loc 1 220 0
 117 002e BD46     		mov	sp, r7
 118 0030 03B0     		add	sp, sp, #12
 119              		@ sp needed for prologue
 120 0032 90BD     		pop	{r4, r7, pc}
 121              	.L6:
 122              		.align	2
ARM GAS  C:\Users\Jared\AppData\Local\Temp\ccOOnCAQ.s 			page 7


 123              	.L5:
 124 0034 00000540 		.word	1074069504
 125              		.cfi_endproc
 126              	.LFE1:
 127              		.size	Timer_Enable, .-Timer_Enable
 128              		.section	.text.Timer_Start,"ax",%progbits
 129              		.align	2
 130              		.global	Timer_Start
 131              		.code	16
 132              		.thumb_func
 133              		.type	Timer_Start, %function
 134              	Timer_Start:
 135              	.LFB2:
 221:.\Generated_Source\PSoC4/Timer.c **** 
 222:.\Generated_Source\PSoC4/Timer.c **** 
 223:.\Generated_Source\PSoC4/Timer.c **** /*******************************************************************************
 224:.\Generated_Source\PSoC4/Timer.c **** * Function Name: Timer_Start
 225:.\Generated_Source\PSoC4/Timer.c **** ********************************************************************************
 226:.\Generated_Source\PSoC4/Timer.c **** *
 227:.\Generated_Source\PSoC4/Timer.c **** * Summary:
 228:.\Generated_Source\PSoC4/Timer.c **** *  Initializes the Timer with default customizer
 229:.\Generated_Source\PSoC4/Timer.c **** *  values when called the first time and enables the Timer.
 230:.\Generated_Source\PSoC4/Timer.c **** *  For subsequent calls the configuration is left unchanged and the component is
 231:.\Generated_Source\PSoC4/Timer.c **** *  just enabled.
 232:.\Generated_Source\PSoC4/Timer.c **** *
 233:.\Generated_Source\PSoC4/Timer.c **** * Parameters:
 234:.\Generated_Source\PSoC4/Timer.c **** *  None
 235:.\Generated_Source\PSoC4/Timer.c **** *
 236:.\Generated_Source\PSoC4/Timer.c **** * Return:
 237:.\Generated_Source\PSoC4/Timer.c **** *  None
 238:.\Generated_Source\PSoC4/Timer.c **** *
 239:.\Generated_Source\PSoC4/Timer.c **** * Global variables:
 240:.\Generated_Source\PSoC4/Timer.c **** *  Timer_initVar: global variable is used to indicate initial
 241:.\Generated_Source\PSoC4/Timer.c **** *  configuration of this component.  The variable is initialized to zero and set
 242:.\Generated_Source\PSoC4/Timer.c **** *  to 1 the first time Timer_Start() is called. This allows
 243:.\Generated_Source\PSoC4/Timer.c **** *  enabling/disabling a component without re-initialization in all subsequent
 244:.\Generated_Source\PSoC4/Timer.c **** *  calls to the Timer_Start() routine.
 245:.\Generated_Source\PSoC4/Timer.c **** *
 246:.\Generated_Source\PSoC4/Timer.c **** *******************************************************************************/
 247:.\Generated_Source\PSoC4/Timer.c **** void Timer_Start(void)
 248:.\Generated_Source\PSoC4/Timer.c **** {
 136              		.loc 1 248 0
 137              		.cfi_startproc
 138 0000 80B5     		push	{r7, lr}
 139              	.LCFI5:
 140              		.cfi_def_cfa_offset 8
 141              		.cfi_offset 7, -8
 142              		.cfi_offset 14, -4
 143 0002 00AF     		add	r7, sp, #0
 144              	.LCFI6:
 145              		.cfi_def_cfa_register 7
 249:.\Generated_Source\PSoC4/Timer.c ****     if (0u == Timer_initVar)
 146              		.loc 1 249 0
 147 0004 064B     		ldr	r3, .L9
 148 0006 1B78     		ldrb	r3, [r3]
 149 0008 002B     		cmp	r3, #0
 150 000a 04D1     		bne	.L8
ARM GAS  C:\Users\Jared\AppData\Local\Temp\ccOOnCAQ.s 			page 8


 250:.\Generated_Source\PSoC4/Timer.c ****     {
 251:.\Generated_Source\PSoC4/Timer.c ****         Timer_Init();
 151              		.loc 1 251 0
 152 000c FFF7FEFF 		bl	Timer_Init
 252:.\Generated_Source\PSoC4/Timer.c ****         Timer_initVar = 1u;
 153              		.loc 1 252 0
 154 0010 034B     		ldr	r3, .L9
 155 0012 0122     		mov	r2, #1
 156 0014 1A70     		strb	r2, [r3]
 157              	.L8:
 253:.\Generated_Source\PSoC4/Timer.c ****     }
 254:.\Generated_Source\PSoC4/Timer.c **** 
 255:.\Generated_Source\PSoC4/Timer.c ****     Timer_Enable();
 158              		.loc 1 255 0
 159 0016 FFF7FEFF 		bl	Timer_Enable
 256:.\Generated_Source\PSoC4/Timer.c **** }
 160              		.loc 1 256 0
 161 001a BD46     		mov	sp, r7
 162              		@ sp needed for prologue
 163 001c 80BD     		pop	{r7, pc}
 164              	.L10:
 165 001e C046     		.align	2
 166              	.L9:
 167 0020 00000000 		.word	Timer_initVar
 168              		.cfi_endproc
 169              	.LFE2:
 170              		.size	Timer_Start, .-Timer_Start
 171              		.section	.text.Timer_Stop,"ax",%progbits
 172              		.align	2
 173              		.global	Timer_Stop
 174              		.code	16
 175              		.thumb_func
 176              		.type	Timer_Stop, %function
 177              	Timer_Stop:
 178              	.LFB3:
 257:.\Generated_Source\PSoC4/Timer.c **** 
 258:.\Generated_Source\PSoC4/Timer.c **** 
 259:.\Generated_Source\PSoC4/Timer.c **** /*******************************************************************************
 260:.\Generated_Source\PSoC4/Timer.c **** * Function Name: Timer_Stop
 261:.\Generated_Source\PSoC4/Timer.c **** ********************************************************************************
 262:.\Generated_Source\PSoC4/Timer.c **** *
 263:.\Generated_Source\PSoC4/Timer.c **** * Summary:
 264:.\Generated_Source\PSoC4/Timer.c **** *  Disables the Timer.
 265:.\Generated_Source\PSoC4/Timer.c **** *
 266:.\Generated_Source\PSoC4/Timer.c **** * Parameters:
 267:.\Generated_Source\PSoC4/Timer.c **** *  None
 268:.\Generated_Source\PSoC4/Timer.c **** *
 269:.\Generated_Source\PSoC4/Timer.c **** * Return:
 270:.\Generated_Source\PSoC4/Timer.c **** *  None
 271:.\Generated_Source\PSoC4/Timer.c **** *
 272:.\Generated_Source\PSoC4/Timer.c **** *******************************************************************************/
 273:.\Generated_Source\PSoC4/Timer.c **** void Timer_Stop(void)
 274:.\Generated_Source\PSoC4/Timer.c **** {
 179              		.loc 1 274 0
 180              		.cfi_startproc
 181 0000 90B5     		push	{r4, r7, lr}
 182              	.LCFI7:
ARM GAS  C:\Users\Jared\AppData\Local\Temp\ccOOnCAQ.s 			page 9


 183              		.cfi_def_cfa_offset 12
 184              		.cfi_offset 4, -12
 185              		.cfi_offset 7, -8
 186              		.cfi_offset 14, -4
 187 0002 83B0     		sub	sp, sp, #12
 188              	.LCFI8:
 189              		.cfi_def_cfa_offset 24
 190 0004 00AF     		add	r7, sp, #0
 191              	.LCFI9:
 192              		.cfi_def_cfa_register 7
 275:.\Generated_Source\PSoC4/Timer.c ****     uint8 enableInterrupts;
 276:.\Generated_Source\PSoC4/Timer.c **** 
 277:.\Generated_Source\PSoC4/Timer.c ****     enableInterrupts = CyEnterCriticalSection();
 193              		.loc 1 277 0
 194 0006 FC1D     		add	r4, r7, #7
 195 0008 FFF7FEFF 		bl	CyEnterCriticalSection
 196 000c 031C     		mov	r3, r0
 197 000e 2370     		strb	r3, [r4]
 278:.\Generated_Source\PSoC4/Timer.c **** 
 279:.\Generated_Source\PSoC4/Timer.c ****     Timer_BLOCK_CONTROL_REG &= (uint32)~Timer_MASK;
 198              		.loc 1 279 0
 199 0010 064B     		ldr	r3, .L12
 200 0012 064A     		ldr	r2, .L12
 201 0014 1268     		ldr	r2, [r2]
 202 0016 0421     		mov	r1, #4
 203 0018 8A43     		bic	r2, r1
 204 001a 1A60     		str	r2, [r3]
 280:.\Generated_Source\PSoC4/Timer.c **** 
 281:.\Generated_Source\PSoC4/Timer.c ****     CyExitCriticalSection(enableInterrupts);
 205              		.loc 1 281 0
 206 001c FB1D     		add	r3, r7, #7
 207 001e 1B78     		ldrb	r3, [r3]
 208 0020 181C     		mov	r0, r3
 209 0022 FFF7FEFF 		bl	CyExitCriticalSection
 282:.\Generated_Source\PSoC4/Timer.c **** }
 210              		.loc 1 282 0
 211 0026 BD46     		mov	sp, r7
 212 0028 03B0     		add	sp, sp, #12
 213              		@ sp needed for prologue
 214 002a 90BD     		pop	{r4, r7, pc}
 215              	.L13:
 216              		.align	2
 217              	.L12:
 218 002c 00000540 		.word	1074069504
 219              		.cfi_endproc
 220              	.LFE3:
 221              		.size	Timer_Stop, .-Timer_Stop
 222              		.section	.text.Timer_SetMode,"ax",%progbits
 223              		.align	2
 224              		.global	Timer_SetMode
 225              		.code	16
 226              		.thumb_func
 227              		.type	Timer_SetMode, %function
 228              	Timer_SetMode:
 229              	.LFB4:
 283:.\Generated_Source\PSoC4/Timer.c **** 
 284:.\Generated_Source\PSoC4/Timer.c **** 
ARM GAS  C:\Users\Jared\AppData\Local\Temp\ccOOnCAQ.s 			page 10


 285:.\Generated_Source\PSoC4/Timer.c **** /*******************************************************************************
 286:.\Generated_Source\PSoC4/Timer.c **** * Function Name: Timer_SetMode
 287:.\Generated_Source\PSoC4/Timer.c **** ********************************************************************************
 288:.\Generated_Source\PSoC4/Timer.c **** *
 289:.\Generated_Source\PSoC4/Timer.c **** * Summary:
 290:.\Generated_Source\PSoC4/Timer.c **** *  Sets the operation mode of the Timer. This function is used when
 291:.\Generated_Source\PSoC4/Timer.c **** *  configured as a generic Timer and the actual mode of operation is
 292:.\Generated_Source\PSoC4/Timer.c **** *  set at runtime. The mode must be set while the component is disabled.
 293:.\Generated_Source\PSoC4/Timer.c **** *
 294:.\Generated_Source\PSoC4/Timer.c **** * Parameters:
 295:.\Generated_Source\PSoC4/Timer.c **** *  mode: Mode for the Timer to operate in
 296:.\Generated_Source\PSoC4/Timer.c **** *   Values:
 297:.\Generated_Source\PSoC4/Timer.c **** *   - Timer_MODE_TIMER_COMPARE - Timer / Counter with
 298:.\Generated_Source\PSoC4/Timer.c **** *                                                 compare capability
 299:.\Generated_Source\PSoC4/Timer.c **** *         - Timer_MODE_TIMER_CAPTURE - Timer / Counter with
 300:.\Generated_Source\PSoC4/Timer.c **** *                                                 capture capability
 301:.\Generated_Source\PSoC4/Timer.c **** *         - Timer_MODE_QUAD - Quadrature decoder
 302:.\Generated_Source\PSoC4/Timer.c **** *         - Timer_MODE_PWM - PWM
 303:.\Generated_Source\PSoC4/Timer.c **** *         - Timer_MODE_PWM_DT - PWM with dead time
 304:.\Generated_Source\PSoC4/Timer.c **** *         - Timer_MODE_PWM_PR - PWM with pseudo random capability
 305:.\Generated_Source\PSoC4/Timer.c **** *
 306:.\Generated_Source\PSoC4/Timer.c **** * Return:
 307:.\Generated_Source\PSoC4/Timer.c **** *  None
 308:.\Generated_Source\PSoC4/Timer.c **** *
 309:.\Generated_Source\PSoC4/Timer.c **** *******************************************************************************/
 310:.\Generated_Source\PSoC4/Timer.c **** void Timer_SetMode(uint32 mode)
 311:.\Generated_Source\PSoC4/Timer.c **** {
 230              		.loc 1 311 0
 231              		.cfi_startproc
 232 0000 90B5     		push	{r4, r7, lr}
 233              	.LCFI10:
 234              		.cfi_def_cfa_offset 12
 235              		.cfi_offset 4, -12
 236              		.cfi_offset 7, -8
 237              		.cfi_offset 14, -4
 238 0002 85B0     		sub	sp, sp, #20
 239              	.LCFI11:
 240              		.cfi_def_cfa_offset 32
 241 0004 00AF     		add	r7, sp, #0
 242              	.LCFI12:
 243              		.cfi_def_cfa_register 7
 244 0006 7860     		str	r0, [r7, #4]
 312:.\Generated_Source\PSoC4/Timer.c ****     uint8 enableInterrupts;
 313:.\Generated_Source\PSoC4/Timer.c **** 
 314:.\Generated_Source\PSoC4/Timer.c ****     enableInterrupts = CyEnterCriticalSection();
 245              		.loc 1 314 0
 246 0008 3C1C     		mov	r4, r7
 247 000a 0F34     		add	r4, r4, #15
 248 000c FFF7FEFF 		bl	CyEnterCriticalSection
 249 0010 031C     		mov	r3, r0
 250 0012 2370     		strb	r3, [r4]
 315:.\Generated_Source\PSoC4/Timer.c **** 
 316:.\Generated_Source\PSoC4/Timer.c ****     Timer_CONTROL_REG &= (uint32)~Timer_MODE_MASK;
 251              		.loc 1 316 0
 252 0014 0A4B     		ldr	r3, .L15
 253 0016 0A4A     		ldr	r2, .L15
 254 0018 1168     		ldr	r1, [r2]
ARM GAS  C:\Users\Jared\AppData\Local\Temp\ccOOnCAQ.s 			page 11


 255 001a 0A4A     		ldr	r2, .L15+4
 256 001c 0A40     		and	r2, r1
 257 001e 1A60     		str	r2, [r3]
 317:.\Generated_Source\PSoC4/Timer.c ****     Timer_CONTROL_REG |= mode;
 258              		.loc 1 317 0
 259 0020 074B     		ldr	r3, .L15
 260 0022 074A     		ldr	r2, .L15
 261 0024 1168     		ldr	r1, [r2]
 262 0026 7A68     		ldr	r2, [r7, #4]
 263 0028 0A43     		orr	r2, r1
 264 002a 1A60     		str	r2, [r3]
 318:.\Generated_Source\PSoC4/Timer.c **** 
 319:.\Generated_Source\PSoC4/Timer.c ****     CyExitCriticalSection(enableInterrupts);
 265              		.loc 1 319 0
 266 002c 3B1C     		mov	r3, r7
 267 002e 0F33     		add	r3, r3, #15
 268 0030 1B78     		ldrb	r3, [r3]
 269 0032 181C     		mov	r0, r3
 270 0034 FFF7FEFF 		bl	CyExitCriticalSection
 320:.\Generated_Source\PSoC4/Timer.c **** }
 271              		.loc 1 320 0
 272 0038 BD46     		mov	sp, r7
 273 003a 05B0     		add	sp, sp, #20
 274              		@ sp needed for prologue
 275 003c 90BD     		pop	{r4, r7, pc}
 276              	.L16:
 277 003e C046     		.align	2
 278              	.L15:
 279 0040 80010540 		.word	1074069888
 280 0044 FFFFFFF8 		.word	-117440513
 281              		.cfi_endproc
 282              	.LFE4:
 283              		.size	Timer_SetMode, .-Timer_SetMode
 284              		.section	.text.Timer_SetQDMode,"ax",%progbits
 285              		.align	2
 286              		.global	Timer_SetQDMode
 287              		.code	16
 288              		.thumb_func
 289              		.type	Timer_SetQDMode, %function
 290              	Timer_SetQDMode:
 291              	.LFB5:
 321:.\Generated_Source\PSoC4/Timer.c **** 
 322:.\Generated_Source\PSoC4/Timer.c **** 
 323:.\Generated_Source\PSoC4/Timer.c **** /*******************************************************************************
 324:.\Generated_Source\PSoC4/Timer.c **** * Function Name: Timer_SetQDMode
 325:.\Generated_Source\PSoC4/Timer.c **** ********************************************************************************
 326:.\Generated_Source\PSoC4/Timer.c **** *
 327:.\Generated_Source\PSoC4/Timer.c **** * Summary:
 328:.\Generated_Source\PSoC4/Timer.c **** *  Sets the the Quadrature Decoder to one of the 3 supported modes.
 329:.\Generated_Source\PSoC4/Timer.c **** *  Its functionality is only applicable to Quadrature Decoder operation.
 330:.\Generated_Source\PSoC4/Timer.c **** *
 331:.\Generated_Source\PSoC4/Timer.c **** * Parameters:
 332:.\Generated_Source\PSoC4/Timer.c **** *  qdMode: Quadrature Decoder mode
 333:.\Generated_Source\PSoC4/Timer.c **** *   Values:
 334:.\Generated_Source\PSoC4/Timer.c **** *         - Timer_MODE_X1 - Counts on phi 1 rising
 335:.\Generated_Source\PSoC4/Timer.c **** *         - Timer_MODE_X2 - Counts on both edges of phi1 (2x faster)
 336:.\Generated_Source\PSoC4/Timer.c **** *         - Timer_MODE_X4 - Counts on both edges of phi1 and phi2
ARM GAS  C:\Users\Jared\AppData\Local\Temp\ccOOnCAQ.s 			page 12


 337:.\Generated_Source\PSoC4/Timer.c **** *                                        (4x faster)
 338:.\Generated_Source\PSoC4/Timer.c **** *
 339:.\Generated_Source\PSoC4/Timer.c **** * Return:
 340:.\Generated_Source\PSoC4/Timer.c **** *  None
 341:.\Generated_Source\PSoC4/Timer.c **** *
 342:.\Generated_Source\PSoC4/Timer.c **** *******************************************************************************/
 343:.\Generated_Source\PSoC4/Timer.c **** void Timer_SetQDMode(uint32 qdMode)
 344:.\Generated_Source\PSoC4/Timer.c **** {
 292              		.loc 1 344 0
 293              		.cfi_startproc
 294 0000 90B5     		push	{r4, r7, lr}
 295              	.LCFI13:
 296              		.cfi_def_cfa_offset 12
 297              		.cfi_offset 4, -12
 298              		.cfi_offset 7, -8
 299              		.cfi_offset 14, -4
 300 0002 85B0     		sub	sp, sp, #20
 301              	.LCFI14:
 302              		.cfi_def_cfa_offset 32
 303 0004 00AF     		add	r7, sp, #0
 304              	.LCFI15:
 305              		.cfi_def_cfa_register 7
 306 0006 7860     		str	r0, [r7, #4]
 345:.\Generated_Source\PSoC4/Timer.c ****     uint8 enableInterrupts;
 346:.\Generated_Source\PSoC4/Timer.c **** 
 347:.\Generated_Source\PSoC4/Timer.c ****     enableInterrupts = CyEnterCriticalSection();
 307              		.loc 1 347 0
 308 0008 3C1C     		mov	r4, r7
 309 000a 0F34     		add	r4, r4, #15
 310 000c FFF7FEFF 		bl	CyEnterCriticalSection
 311 0010 031C     		mov	r3, r0
 312 0012 2370     		strb	r3, [r4]
 348:.\Generated_Source\PSoC4/Timer.c **** 
 349:.\Generated_Source\PSoC4/Timer.c ****     Timer_CONTROL_REG &= (uint32)~Timer_QUAD_MODE_MASK;
 313              		.loc 1 349 0
 314 0014 0A4B     		ldr	r3, .L18
 315 0016 0A4A     		ldr	r2, .L18
 316 0018 1168     		ldr	r1, [r2]
 317 001a 0A4A     		ldr	r2, .L18+4
 318 001c 0A40     		and	r2, r1
 319 001e 1A60     		str	r2, [r3]
 350:.\Generated_Source\PSoC4/Timer.c ****     Timer_CONTROL_REG |= qdMode;
 320              		.loc 1 350 0
 321 0020 074B     		ldr	r3, .L18
 322 0022 074A     		ldr	r2, .L18
 323 0024 1168     		ldr	r1, [r2]
 324 0026 7A68     		ldr	r2, [r7, #4]
 325 0028 0A43     		orr	r2, r1
 326 002a 1A60     		str	r2, [r3]
 351:.\Generated_Source\PSoC4/Timer.c **** 
 352:.\Generated_Source\PSoC4/Timer.c ****     CyExitCriticalSection(enableInterrupts);
 327              		.loc 1 352 0
 328 002c 3B1C     		mov	r3, r7
 329 002e 0F33     		add	r3, r3, #15
 330 0030 1B78     		ldrb	r3, [r3]
 331 0032 181C     		mov	r0, r3
 332 0034 FFF7FEFF 		bl	CyExitCriticalSection
ARM GAS  C:\Users\Jared\AppData\Local\Temp\ccOOnCAQ.s 			page 13


 353:.\Generated_Source\PSoC4/Timer.c **** }
 333              		.loc 1 353 0
 334 0038 BD46     		mov	sp, r7
 335 003a 05B0     		add	sp, sp, #20
 336              		@ sp needed for prologue
 337 003c 90BD     		pop	{r4, r7, pc}
 338              	.L19:
 339 003e C046     		.align	2
 340              	.L18:
 341 0040 80010540 		.word	1074069888
 342 0044 FFFF8FFF 		.word	-7340033
 343              		.cfi_endproc
 344              	.LFE5:
 345              		.size	Timer_SetQDMode, .-Timer_SetQDMode
 346              		.section	.text.Timer_SetPrescaler,"ax",%progbits
 347              		.align	2
 348              		.global	Timer_SetPrescaler
 349              		.code	16
 350              		.thumb_func
 351              		.type	Timer_SetPrescaler, %function
 352              	Timer_SetPrescaler:
 353              	.LFB6:
 354:.\Generated_Source\PSoC4/Timer.c **** 
 355:.\Generated_Source\PSoC4/Timer.c **** 
 356:.\Generated_Source\PSoC4/Timer.c **** /*******************************************************************************
 357:.\Generated_Source\PSoC4/Timer.c **** * Function Name: Timer_SetPrescaler
 358:.\Generated_Source\PSoC4/Timer.c **** ********************************************************************************
 359:.\Generated_Source\PSoC4/Timer.c **** *
 360:.\Generated_Source\PSoC4/Timer.c **** * Summary:
 361:.\Generated_Source\PSoC4/Timer.c **** *  Sets the prescaler value that is applied to the clock input.  Not applicable
 362:.\Generated_Source\PSoC4/Timer.c **** *  to a PWM with the dead time mode or Quadrature Decoder mode.
 363:.\Generated_Source\PSoC4/Timer.c **** *
 364:.\Generated_Source\PSoC4/Timer.c **** * Parameters:
 365:.\Generated_Source\PSoC4/Timer.c **** *  prescaler: Prescaler divider value
 366:.\Generated_Source\PSoC4/Timer.c **** *   Values:
 367:.\Generated_Source\PSoC4/Timer.c **** *         - Timer_PRESCALE_DIVBY1    - Divide by 1 (no prescaling)
 368:.\Generated_Source\PSoC4/Timer.c **** *         - Timer_PRESCALE_DIVBY2    - Divide by 2
 369:.\Generated_Source\PSoC4/Timer.c **** *         - Timer_PRESCALE_DIVBY4    - Divide by 4
 370:.\Generated_Source\PSoC4/Timer.c **** *         - Timer_PRESCALE_DIVBY8    - Divide by 8
 371:.\Generated_Source\PSoC4/Timer.c **** *         - Timer_PRESCALE_DIVBY16   - Divide by 16
 372:.\Generated_Source\PSoC4/Timer.c **** *         - Timer_PRESCALE_DIVBY32   - Divide by 32
 373:.\Generated_Source\PSoC4/Timer.c **** *         - Timer_PRESCALE_DIVBY64   - Divide by 64
 374:.\Generated_Source\PSoC4/Timer.c **** *         - Timer_PRESCALE_DIVBY128  - Divide by 128
 375:.\Generated_Source\PSoC4/Timer.c **** *
 376:.\Generated_Source\PSoC4/Timer.c **** * Return:
 377:.\Generated_Source\PSoC4/Timer.c **** *  None
 378:.\Generated_Source\PSoC4/Timer.c **** *
 379:.\Generated_Source\PSoC4/Timer.c **** *******************************************************************************/
 380:.\Generated_Source\PSoC4/Timer.c **** void Timer_SetPrescaler(uint32 prescaler)
 381:.\Generated_Source\PSoC4/Timer.c **** {
 354              		.loc 1 381 0
 355              		.cfi_startproc
 356 0000 90B5     		push	{r4, r7, lr}
 357              	.LCFI16:
 358              		.cfi_def_cfa_offset 12
 359              		.cfi_offset 4, -12
 360              		.cfi_offset 7, -8
ARM GAS  C:\Users\Jared\AppData\Local\Temp\ccOOnCAQ.s 			page 14


 361              		.cfi_offset 14, -4
 362 0002 85B0     		sub	sp, sp, #20
 363              	.LCFI17:
 364              		.cfi_def_cfa_offset 32
 365 0004 00AF     		add	r7, sp, #0
 366              	.LCFI18:
 367              		.cfi_def_cfa_register 7
 368 0006 7860     		str	r0, [r7, #4]
 382:.\Generated_Source\PSoC4/Timer.c ****     uint8 enableInterrupts;
 383:.\Generated_Source\PSoC4/Timer.c **** 
 384:.\Generated_Source\PSoC4/Timer.c ****     enableInterrupts = CyEnterCriticalSection();
 369              		.loc 1 384 0
 370 0008 3C1C     		mov	r4, r7
 371 000a 0F34     		add	r4, r4, #15
 372 000c FFF7FEFF 		bl	CyEnterCriticalSection
 373 0010 031C     		mov	r3, r0
 374 0012 2370     		strb	r3, [r4]
 385:.\Generated_Source\PSoC4/Timer.c **** 
 386:.\Generated_Source\PSoC4/Timer.c ****     Timer_CONTROL_REG &= (uint32)~Timer_PRESCALER_MASK;
 375              		.loc 1 386 0
 376 0014 0A4B     		ldr	r3, .L21
 377 0016 0A4A     		ldr	r2, .L21
 378 0018 1168     		ldr	r1, [r2]
 379 001a 0A4A     		ldr	r2, .L21+4
 380 001c 0A40     		and	r2, r1
 381 001e 1A60     		str	r2, [r3]
 387:.\Generated_Source\PSoC4/Timer.c ****     Timer_CONTROL_REG |= prescaler;
 382              		.loc 1 387 0
 383 0020 074B     		ldr	r3, .L21
 384 0022 074A     		ldr	r2, .L21
 385 0024 1168     		ldr	r1, [r2]
 386 0026 7A68     		ldr	r2, [r7, #4]
 387 0028 0A43     		orr	r2, r1
 388 002a 1A60     		str	r2, [r3]
 388:.\Generated_Source\PSoC4/Timer.c **** 
 389:.\Generated_Source\PSoC4/Timer.c ****     CyExitCriticalSection(enableInterrupts);
 389              		.loc 1 389 0
 390 002c 3B1C     		mov	r3, r7
 391 002e 0F33     		add	r3, r3, #15
 392 0030 1B78     		ldrb	r3, [r3]
 393 0032 181C     		mov	r0, r3
 394 0034 FFF7FEFF 		bl	CyExitCriticalSection
 390:.\Generated_Source\PSoC4/Timer.c **** }
 395              		.loc 1 390 0
 396 0038 BD46     		mov	sp, r7
 397 003a 05B0     		add	sp, sp, #20
 398              		@ sp needed for prologue
 399 003c 90BD     		pop	{r4, r7, pc}
 400              	.L22:
 401 003e C046     		.align	2
 402              	.L21:
 403 0040 80010540 		.word	1074069888
 404 0044 FF00FFFF 		.word	-65281
 405              		.cfi_endproc
 406              	.LFE6:
 407              		.size	Timer_SetPrescaler, .-Timer_SetPrescaler
 408              		.section	.text.Timer_SetOneShot,"ax",%progbits
ARM GAS  C:\Users\Jared\AppData\Local\Temp\ccOOnCAQ.s 			page 15


 409              		.align	2
 410              		.global	Timer_SetOneShot
 411              		.code	16
 412              		.thumb_func
 413              		.type	Timer_SetOneShot, %function
 414              	Timer_SetOneShot:
 415              	.LFB7:
 391:.\Generated_Source\PSoC4/Timer.c **** 
 392:.\Generated_Source\PSoC4/Timer.c **** 
 393:.\Generated_Source\PSoC4/Timer.c **** /*******************************************************************************
 394:.\Generated_Source\PSoC4/Timer.c **** * Function Name: Timer_SetOneShot
 395:.\Generated_Source\PSoC4/Timer.c **** ********************************************************************************
 396:.\Generated_Source\PSoC4/Timer.c **** *
 397:.\Generated_Source\PSoC4/Timer.c **** * Summary:
 398:.\Generated_Source\PSoC4/Timer.c **** *  Writes the register that controls whether the Timer runs
 399:.\Generated_Source\PSoC4/Timer.c **** *  continuously or stops when terminal count is reached.  By default the
 400:.\Generated_Source\PSoC4/Timer.c **** *  Timer operates in the continuous mode.
 401:.\Generated_Source\PSoC4/Timer.c **** *
 402:.\Generated_Source\PSoC4/Timer.c **** * Parameters:
 403:.\Generated_Source\PSoC4/Timer.c **** *  oneShotEnable
 404:.\Generated_Source\PSoC4/Timer.c **** *   Values:
 405:.\Generated_Source\PSoC4/Timer.c **** *     - 0 - Continuous
 406:.\Generated_Source\PSoC4/Timer.c **** *     - 1 - Enable One Shot
 407:.\Generated_Source\PSoC4/Timer.c **** *
 408:.\Generated_Source\PSoC4/Timer.c **** * Return:
 409:.\Generated_Source\PSoC4/Timer.c **** *  None
 410:.\Generated_Source\PSoC4/Timer.c **** *
 411:.\Generated_Source\PSoC4/Timer.c **** *******************************************************************************/
 412:.\Generated_Source\PSoC4/Timer.c **** void Timer_SetOneShot(uint32 oneShotEnable)
 413:.\Generated_Source\PSoC4/Timer.c **** {
 416              		.loc 1 413 0
 417              		.cfi_startproc
 418 0000 90B5     		push	{r4, r7, lr}
 419              	.LCFI19:
 420              		.cfi_def_cfa_offset 12
 421              		.cfi_offset 4, -12
 422              		.cfi_offset 7, -8
 423              		.cfi_offset 14, -4
 424 0002 85B0     		sub	sp, sp, #20
 425              	.LCFI20:
 426              		.cfi_def_cfa_offset 32
 427 0004 00AF     		add	r7, sp, #0
 428              	.LCFI21:
 429              		.cfi_def_cfa_register 7
 430 0006 7860     		str	r0, [r7, #4]
 414:.\Generated_Source\PSoC4/Timer.c ****     uint8 enableInterrupts;
 415:.\Generated_Source\PSoC4/Timer.c **** 
 416:.\Generated_Source\PSoC4/Timer.c ****     enableInterrupts = CyEnterCriticalSection();
 431              		.loc 1 416 0
 432 0008 3C1C     		mov	r4, r7
 433 000a 0F34     		add	r4, r4, #15
 434 000c FFF7FEFF 		bl	CyEnterCriticalSection
 435 0010 031C     		mov	r3, r0
 436 0012 2370     		strb	r3, [r4]
 417:.\Generated_Source\PSoC4/Timer.c **** 
 418:.\Generated_Source\PSoC4/Timer.c ****     Timer_CONTROL_REG &= (uint32)~Timer_ONESHOT_MASK;
 437              		.loc 1 418 0
ARM GAS  C:\Users\Jared\AppData\Local\Temp\ccOOnCAQ.s 			page 16


 438 0014 0B4B     		ldr	r3, .L24
 439 0016 0B4A     		ldr	r2, .L24
 440 0018 1168     		ldr	r1, [r2]
 441 001a 0B4A     		ldr	r2, .L24+4
 442 001c 0A40     		and	r2, r1
 443 001e 1A60     		str	r2, [r3]
 419:.\Generated_Source\PSoC4/Timer.c ****     Timer_CONTROL_REG |= ((uint32)((oneShotEnable & Timer_1BIT_MASK) <<
 444              		.loc 1 419 0
 445 0020 084B     		ldr	r3, .L24
 446 0022 084A     		ldr	r2, .L24
 447 0024 1168     		ldr	r1, [r2]
 448 0026 7868     		ldr	r0, [r7, #4]
 449 0028 0122     		mov	r2, #1
 450 002a 0240     		and	r2, r0
 451 002c 9204     		lsl	r2, r2, #18
 452 002e 0A43     		orr	r2, r1
 453 0030 1A60     		str	r2, [r3]
 420:.\Generated_Source\PSoC4/Timer.c ****                                                                Timer_ONESHOT_SHIFT));
 421:.\Generated_Source\PSoC4/Timer.c **** 
 422:.\Generated_Source\PSoC4/Timer.c ****     CyExitCriticalSection(enableInterrupts);
 454              		.loc 1 422 0
 455 0032 3B1C     		mov	r3, r7
 456 0034 0F33     		add	r3, r3, #15
 457 0036 1B78     		ldrb	r3, [r3]
 458 0038 181C     		mov	r0, r3
 459 003a FFF7FEFF 		bl	CyExitCriticalSection
 423:.\Generated_Source\PSoC4/Timer.c **** }
 460              		.loc 1 423 0
 461 003e BD46     		mov	sp, r7
 462 0040 05B0     		add	sp, sp, #20
 463              		@ sp needed for prologue
 464 0042 90BD     		pop	{r4, r7, pc}
 465              	.L25:
 466              		.align	2
 467              	.L24:
 468 0044 80010540 		.word	1074069888
 469 0048 FFFFFBFF 		.word	-262145
 470              		.cfi_endproc
 471              	.LFE7:
 472              		.size	Timer_SetOneShot, .-Timer_SetOneShot
 473              		.section	.text.Timer_SetPWMMode,"ax",%progbits
 474              		.align	2
 475              		.global	Timer_SetPWMMode
 476              		.code	16
 477              		.thumb_func
 478              		.type	Timer_SetPWMMode, %function
 479              	Timer_SetPWMMode:
 480              	.LFB8:
 424:.\Generated_Source\PSoC4/Timer.c **** 
 425:.\Generated_Source\PSoC4/Timer.c **** 
 426:.\Generated_Source\PSoC4/Timer.c **** /*******************************************************************************
 427:.\Generated_Source\PSoC4/Timer.c **** * Function Name: Timer_SetPWMMode
 428:.\Generated_Source\PSoC4/Timer.c **** ********************************************************************************
 429:.\Generated_Source\PSoC4/Timer.c **** *
 430:.\Generated_Source\PSoC4/Timer.c **** * Summary:
 431:.\Generated_Source\PSoC4/Timer.c **** *  Writes the control register that determines what mode of operation the PWM
 432:.\Generated_Source\PSoC4/Timer.c **** *  output lines are driven in.  There is a setting for what to do on a
ARM GAS  C:\Users\Jared\AppData\Local\Temp\ccOOnCAQ.s 			page 17


 433:.\Generated_Source\PSoC4/Timer.c **** *  comparison match (CC_MATCH), on an overflow (OVERFLOW) and on an underflow
 434:.\Generated_Source\PSoC4/Timer.c **** *  (UNDERFLOW).  The value for each of the three must be ORed together to form
 435:.\Generated_Source\PSoC4/Timer.c **** *  the mode.
 436:.\Generated_Source\PSoC4/Timer.c **** *
 437:.\Generated_Source\PSoC4/Timer.c **** * Parameters:
 438:.\Generated_Source\PSoC4/Timer.c **** *  modeMask: A combination of three mode settings.  Mask must include a value
 439:.\Generated_Source\PSoC4/Timer.c **** *  for each of the three or use one of the preconfigured PWM settings.
 440:.\Generated_Source\PSoC4/Timer.c **** *   Values:
 441:.\Generated_Source\PSoC4/Timer.c **** *     - CC_MATCH_SET        - Set on comparison match
 442:.\Generated_Source\PSoC4/Timer.c **** *     - CC_MATCH_CLEAR      - Clear on comparison match
 443:.\Generated_Source\PSoC4/Timer.c **** *     - CC_MATCH_INVERT     - Invert on comparison match
 444:.\Generated_Source\PSoC4/Timer.c **** *     - CC_MATCH_NO_CHANGE  - No change on comparison match
 445:.\Generated_Source\PSoC4/Timer.c **** *     - OVERLOW_SET         - Set on overflow
 446:.\Generated_Source\PSoC4/Timer.c **** *     - OVERLOW_CLEAR       - Clear on  overflow
 447:.\Generated_Source\PSoC4/Timer.c **** *     - OVERLOW_INVERT      - Invert on overflow
 448:.\Generated_Source\PSoC4/Timer.c **** *     - OVERLOW_NO_CHANGE   - No change on overflow
 449:.\Generated_Source\PSoC4/Timer.c **** *     - UNDERFLOW_SET       - Set on underflow
 450:.\Generated_Source\PSoC4/Timer.c **** *     - UNDERFLOW_CLEAR     - Clear on underflow
 451:.\Generated_Source\PSoC4/Timer.c **** *     - UNDERFLOW_INVERT    - Invert on underflow
 452:.\Generated_Source\PSoC4/Timer.c **** *     - UNDERFLOW_NO_CHANGE - No change on underflow
 453:.\Generated_Source\PSoC4/Timer.c **** *     - PWM_MODE_LEFT       - Setting for left aligned PWM.  Should be combined
 454:.\Generated_Source\PSoC4/Timer.c **** *                             with up counting mode
 455:.\Generated_Source\PSoC4/Timer.c **** *     - PWM_MODE_RIGHT      - Setting for right aligned PWM.  Should be combined
 456:.\Generated_Source\PSoC4/Timer.c **** *                             with down counting mode
 457:.\Generated_Source\PSoC4/Timer.c **** *     - PWM_MODE_CENTER     - Setting for center aligned PWM.  Should be
 458:.\Generated_Source\PSoC4/Timer.c **** *                             combined with up/down 0 mode
 459:.\Generated_Source\PSoC4/Timer.c **** *     - PWM_MODE_ASYM       - Setting for asymmetric PWM.  Should be combined
 460:.\Generated_Source\PSoC4/Timer.c **** *                             with up/down 1 mode
 461:.\Generated_Source\PSoC4/Timer.c **** *
 462:.\Generated_Source\PSoC4/Timer.c **** * Return:
 463:.\Generated_Source\PSoC4/Timer.c **** *  None
 464:.\Generated_Source\PSoC4/Timer.c **** *
 465:.\Generated_Source\PSoC4/Timer.c **** *******************************************************************************/
 466:.\Generated_Source\PSoC4/Timer.c **** void Timer_SetPWMMode(uint32 modeMask)
 467:.\Generated_Source\PSoC4/Timer.c **** {
 481              		.loc 1 467 0
 482              		.cfi_startproc
 483 0000 80B5     		push	{r7, lr}
 484              	.LCFI22:
 485              		.cfi_def_cfa_offset 8
 486              		.cfi_offset 7, -8
 487              		.cfi_offset 14, -4
 488 0002 82B0     		sub	sp, sp, #8
 489              	.LCFI23:
 490              		.cfi_def_cfa_offset 16
 491 0004 00AF     		add	r7, sp, #0
 492              	.LCFI24:
 493              		.cfi_def_cfa_register 7
 494 0006 7860     		str	r0, [r7, #4]
 468:.\Generated_Source\PSoC4/Timer.c ****     Timer_TRIG_CONTROL2_REG = (modeMask & Timer_6BIT_MASK);
 495              		.loc 1 468 0
 496 0008 034B     		ldr	r3, .L27
 497 000a 7968     		ldr	r1, [r7, #4]
 498 000c 3F22     		mov	r2, #63
 499 000e 0A40     		and	r2, r1
 500 0010 1A60     		str	r2, [r3]
 469:.\Generated_Source\PSoC4/Timer.c **** }
ARM GAS  C:\Users\Jared\AppData\Local\Temp\ccOOnCAQ.s 			page 18


 501              		.loc 1 469 0
 502 0012 BD46     		mov	sp, r7
 503 0014 02B0     		add	sp, sp, #8
 504              		@ sp needed for prologue
 505 0016 80BD     		pop	{r7, pc}
 506              	.L28:
 507              		.align	2
 508              	.L27:
 509 0018 A8010540 		.word	1074069928
 510              		.cfi_endproc
 511              	.LFE8:
 512              		.size	Timer_SetPWMMode, .-Timer_SetPWMMode
 513              		.section	.text.Timer_SetPWMSyncKill,"ax",%progbits
 514              		.align	2
 515              		.global	Timer_SetPWMSyncKill
 516              		.code	16
 517              		.thumb_func
 518              		.type	Timer_SetPWMSyncKill, %function
 519              	Timer_SetPWMSyncKill:
 520              	.LFB9:
 470:.\Generated_Source\PSoC4/Timer.c **** 
 471:.\Generated_Source\PSoC4/Timer.c **** 
 472:.\Generated_Source\PSoC4/Timer.c **** 
 473:.\Generated_Source\PSoC4/Timer.c **** /*******************************************************************************
 474:.\Generated_Source\PSoC4/Timer.c **** * Function Name: Timer_SetPWMSyncKill
 475:.\Generated_Source\PSoC4/Timer.c **** ********************************************************************************
 476:.\Generated_Source\PSoC4/Timer.c **** *
 477:.\Generated_Source\PSoC4/Timer.c **** * Summary:
 478:.\Generated_Source\PSoC4/Timer.c **** *  Writes the register that controls whether the PWM kill signal (stop input)
 479:.\Generated_Source\PSoC4/Timer.c **** *  causes asynchronous or synchronous kill operation.  By default the kill
 480:.\Generated_Source\PSoC4/Timer.c **** *  operation is asynchronous.  This functionality is only applicable to the PWM
 481:.\Generated_Source\PSoC4/Timer.c **** *  and PWM with dead time modes.
 482:.\Generated_Source\PSoC4/Timer.c **** *
 483:.\Generated_Source\PSoC4/Timer.c **** *  For Synchronous mode the kill signal disables both the line and line_n
 484:.\Generated_Source\PSoC4/Timer.c **** *  signals until the next terminal count.
 485:.\Generated_Source\PSoC4/Timer.c **** *
 486:.\Generated_Source\PSoC4/Timer.c **** *  For Asynchronous mode the kill signal disables both the line and line_n
 487:.\Generated_Source\PSoC4/Timer.c **** *  signals when the kill signal is present.  This mode should only be used
 488:.\Generated_Source\PSoC4/Timer.c **** *  when the kill signal (stop input) is configured in the pass through mode
 489:.\Generated_Source\PSoC4/Timer.c **** *  (Level sensitive signal).
 490:.\Generated_Source\PSoC4/Timer.c **** 
 491:.\Generated_Source\PSoC4/Timer.c **** *
 492:.\Generated_Source\PSoC4/Timer.c **** * Parameters:
 493:.\Generated_Source\PSoC4/Timer.c **** *  syncKillEnable
 494:.\Generated_Source\PSoC4/Timer.c **** *   Values:
 495:.\Generated_Source\PSoC4/Timer.c **** *     - 0 - Asynchronous
 496:.\Generated_Source\PSoC4/Timer.c **** *     - 1 - Synchronous
 497:.\Generated_Source\PSoC4/Timer.c **** *
 498:.\Generated_Source\PSoC4/Timer.c **** * Return:
 499:.\Generated_Source\PSoC4/Timer.c **** *  None
 500:.\Generated_Source\PSoC4/Timer.c **** *
 501:.\Generated_Source\PSoC4/Timer.c **** *******************************************************************************/
 502:.\Generated_Source\PSoC4/Timer.c **** void Timer_SetPWMSyncKill(uint32 syncKillEnable)
 503:.\Generated_Source\PSoC4/Timer.c **** {
 521              		.loc 1 503 0
 522              		.cfi_startproc
 523 0000 90B5     		push	{r4, r7, lr}
ARM GAS  C:\Users\Jared\AppData\Local\Temp\ccOOnCAQ.s 			page 19


 524              	.LCFI25:
 525              		.cfi_def_cfa_offset 12
 526              		.cfi_offset 4, -12
 527              		.cfi_offset 7, -8
 528              		.cfi_offset 14, -4
 529 0002 85B0     		sub	sp, sp, #20
 530              	.LCFI26:
 531              		.cfi_def_cfa_offset 32
 532 0004 00AF     		add	r7, sp, #0
 533              	.LCFI27:
 534              		.cfi_def_cfa_register 7
 535 0006 7860     		str	r0, [r7, #4]
 504:.\Generated_Source\PSoC4/Timer.c ****     uint8 enableInterrupts;
 505:.\Generated_Source\PSoC4/Timer.c **** 
 506:.\Generated_Source\PSoC4/Timer.c ****     enableInterrupts = CyEnterCriticalSection();
 536              		.loc 1 506 0
 537 0008 3C1C     		mov	r4, r7
 538 000a 0F34     		add	r4, r4, #15
 539 000c FFF7FEFF 		bl	CyEnterCriticalSection
 540 0010 031C     		mov	r3, r0
 541 0012 2370     		strb	r3, [r4]
 507:.\Generated_Source\PSoC4/Timer.c **** 
 508:.\Generated_Source\PSoC4/Timer.c ****     Timer_CONTROL_REG &= (uint32)~Timer_PWM_SYNC_KILL_MASK;
 542              		.loc 1 508 0
 543 0014 0B4B     		ldr	r3, .L30
 544 0016 0B4A     		ldr	r2, .L30
 545 0018 1268     		ldr	r2, [r2]
 546 001a 0421     		mov	r1, #4
 547 001c 8A43     		bic	r2, r1
 548 001e 1A60     		str	r2, [r3]
 509:.\Generated_Source\PSoC4/Timer.c ****     Timer_CONTROL_REG |= ((uint32)((syncKillEnable & Timer_1BIT_MASK)  <<
 549              		.loc 1 509 0
 550 0020 084B     		ldr	r3, .L30
 551 0022 084A     		ldr	r2, .L30
 552 0024 1168     		ldr	r1, [r2]
 553 0026 7868     		ldr	r0, [r7, #4]
 554 0028 0122     		mov	r2, #1
 555 002a 0240     		and	r2, r0
 556 002c 9200     		lsl	r2, r2, #2
 557 002e 0A43     		orr	r2, r1
 558 0030 1A60     		str	r2, [r3]
 510:.\Generated_Source\PSoC4/Timer.c ****                                                Timer_PWM_SYNC_KILL_SHIFT));
 511:.\Generated_Source\PSoC4/Timer.c **** 
 512:.\Generated_Source\PSoC4/Timer.c ****     CyExitCriticalSection(enableInterrupts);
 559              		.loc 1 512 0
 560 0032 3B1C     		mov	r3, r7
 561 0034 0F33     		add	r3, r3, #15
 562 0036 1B78     		ldrb	r3, [r3]
 563 0038 181C     		mov	r0, r3
 564 003a FFF7FEFF 		bl	CyExitCriticalSection
 513:.\Generated_Source\PSoC4/Timer.c **** }
 565              		.loc 1 513 0
 566 003e BD46     		mov	sp, r7
 567 0040 05B0     		add	sp, sp, #20
 568              		@ sp needed for prologue
 569 0042 90BD     		pop	{r4, r7, pc}
 570              	.L31:
ARM GAS  C:\Users\Jared\AppData\Local\Temp\ccOOnCAQ.s 			page 20


 571              		.align	2
 572              	.L30:
 573 0044 80010540 		.word	1074069888
 574              		.cfi_endproc
 575              	.LFE9:
 576              		.size	Timer_SetPWMSyncKill, .-Timer_SetPWMSyncKill
 577              		.section	.text.Timer_SetPWMStopOnKill,"ax",%progbits
 578              		.align	2
 579              		.global	Timer_SetPWMStopOnKill
 580              		.code	16
 581              		.thumb_func
 582              		.type	Timer_SetPWMStopOnKill, %function
 583              	Timer_SetPWMStopOnKill:
 584              	.LFB10:
 514:.\Generated_Source\PSoC4/Timer.c **** 
 515:.\Generated_Source\PSoC4/Timer.c **** 
 516:.\Generated_Source\PSoC4/Timer.c **** /*******************************************************************************
 517:.\Generated_Source\PSoC4/Timer.c **** * Function Name: Timer_SetPWMStopOnKill
 518:.\Generated_Source\PSoC4/Timer.c **** ********************************************************************************
 519:.\Generated_Source\PSoC4/Timer.c **** *
 520:.\Generated_Source\PSoC4/Timer.c **** * Summary:
 521:.\Generated_Source\PSoC4/Timer.c **** *  Writes the register that controls whether the PWM kill signal (stop input)
 522:.\Generated_Source\PSoC4/Timer.c **** *  causes the PWM counter to stop.  By default the kill operation does not stop
 523:.\Generated_Source\PSoC4/Timer.c **** *  the counter.  This functionality is only applicable to the three PWM modes.
 524:.\Generated_Source\PSoC4/Timer.c **** *
 525:.\Generated_Source\PSoC4/Timer.c **** *
 526:.\Generated_Source\PSoC4/Timer.c **** * Parameters:
 527:.\Generated_Source\PSoC4/Timer.c **** *  stopOnKillEnable
 528:.\Generated_Source\PSoC4/Timer.c **** *   Values:
 529:.\Generated_Source\PSoC4/Timer.c **** *     - 0 - Don't stop
 530:.\Generated_Source\PSoC4/Timer.c **** *     - 1 - Stop
 531:.\Generated_Source\PSoC4/Timer.c **** *
 532:.\Generated_Source\PSoC4/Timer.c **** * Return:
 533:.\Generated_Source\PSoC4/Timer.c **** *  None
 534:.\Generated_Source\PSoC4/Timer.c **** *
 535:.\Generated_Source\PSoC4/Timer.c **** *******************************************************************************/
 536:.\Generated_Source\PSoC4/Timer.c **** void Timer_SetPWMStopOnKill(uint32 stopOnKillEnable)
 537:.\Generated_Source\PSoC4/Timer.c **** {
 585              		.loc 1 537 0
 586              		.cfi_startproc
 587 0000 90B5     		push	{r4, r7, lr}
 588              	.LCFI28:
 589              		.cfi_def_cfa_offset 12
 590              		.cfi_offset 4, -12
 591              		.cfi_offset 7, -8
 592              		.cfi_offset 14, -4
 593 0002 85B0     		sub	sp, sp, #20
 594              	.LCFI29:
 595              		.cfi_def_cfa_offset 32
 596 0004 00AF     		add	r7, sp, #0
 597              	.LCFI30:
 598              		.cfi_def_cfa_register 7
 599 0006 7860     		str	r0, [r7, #4]
 538:.\Generated_Source\PSoC4/Timer.c ****     uint8 enableInterrupts;
 539:.\Generated_Source\PSoC4/Timer.c **** 
 540:.\Generated_Source\PSoC4/Timer.c ****     enableInterrupts = CyEnterCriticalSection();
 600              		.loc 1 540 0
ARM GAS  C:\Users\Jared\AppData\Local\Temp\ccOOnCAQ.s 			page 21


 601 0008 3C1C     		mov	r4, r7
 602 000a 0F34     		add	r4, r4, #15
 603 000c FFF7FEFF 		bl	CyEnterCriticalSection
 604 0010 031C     		mov	r3, r0
 605 0012 2370     		strb	r3, [r4]
 541:.\Generated_Source\PSoC4/Timer.c **** 
 542:.\Generated_Source\PSoC4/Timer.c ****     Timer_CONTROL_REG &= (uint32)~Timer_PWM_STOP_KILL_MASK;
 606              		.loc 1 542 0
 607 0014 0B4B     		ldr	r3, .L33
 608 0016 0B4A     		ldr	r2, .L33
 609 0018 1268     		ldr	r2, [r2]
 610 001a 0821     		mov	r1, #8
 611 001c 8A43     		bic	r2, r1
 612 001e 1A60     		str	r2, [r3]
 543:.\Generated_Source\PSoC4/Timer.c ****     Timer_CONTROL_REG |= ((uint32)((stopOnKillEnable & Timer_1BIT_MASK)  <<
 613              		.loc 1 543 0
 614 0020 084B     		ldr	r3, .L33
 615 0022 084A     		ldr	r2, .L33
 616 0024 1168     		ldr	r1, [r2]
 617 0026 7868     		ldr	r0, [r7, #4]
 618 0028 0122     		mov	r2, #1
 619 002a 0240     		and	r2, r0
 620 002c D200     		lsl	r2, r2, #3
 621 002e 0A43     		orr	r2, r1
 622 0030 1A60     		str	r2, [r3]
 544:.\Generated_Source\PSoC4/Timer.c ****                                                          Timer_PWM_STOP_KILL_SHIFT));
 545:.\Generated_Source\PSoC4/Timer.c **** 
 546:.\Generated_Source\PSoC4/Timer.c ****     CyExitCriticalSection(enableInterrupts);
 623              		.loc 1 546 0
 624 0032 3B1C     		mov	r3, r7
 625 0034 0F33     		add	r3, r3, #15
 626 0036 1B78     		ldrb	r3, [r3]
 627 0038 181C     		mov	r0, r3
 628 003a FFF7FEFF 		bl	CyExitCriticalSection
 547:.\Generated_Source\PSoC4/Timer.c **** }
 629              		.loc 1 547 0
 630 003e BD46     		mov	sp, r7
 631 0040 05B0     		add	sp, sp, #20
 632              		@ sp needed for prologue
 633 0042 90BD     		pop	{r4, r7, pc}
 634              	.L34:
 635              		.align	2
 636              	.L33:
 637 0044 80010540 		.word	1074069888
 638              		.cfi_endproc
 639              	.LFE10:
 640              		.size	Timer_SetPWMStopOnKill, .-Timer_SetPWMStopOnKill
 641              		.section	.text.Timer_SetPWMDeadTime,"ax",%progbits
 642              		.align	2
 643              		.global	Timer_SetPWMDeadTime
 644              		.code	16
 645              		.thumb_func
 646              		.type	Timer_SetPWMDeadTime, %function
 647              	Timer_SetPWMDeadTime:
 648              	.LFB11:
 548:.\Generated_Source\PSoC4/Timer.c **** 
 549:.\Generated_Source\PSoC4/Timer.c **** 
ARM GAS  C:\Users\Jared\AppData\Local\Temp\ccOOnCAQ.s 			page 22


 550:.\Generated_Source\PSoC4/Timer.c **** /*******************************************************************************
 551:.\Generated_Source\PSoC4/Timer.c **** * Function Name: Timer_SetPWMDeadTime
 552:.\Generated_Source\PSoC4/Timer.c **** ********************************************************************************
 553:.\Generated_Source\PSoC4/Timer.c **** *
 554:.\Generated_Source\PSoC4/Timer.c **** * Summary:
 555:.\Generated_Source\PSoC4/Timer.c **** *  Writes the dead time control value.  This value delays the rising edge of
 556:.\Generated_Source\PSoC4/Timer.c **** *  both the line and line_n signals the designated number of cycles resulting
 557:.\Generated_Source\PSoC4/Timer.c **** *  in both signals being inactive for that many cycles.  This functionality is
 558:.\Generated_Source\PSoC4/Timer.c **** *  only applicable to the PWM in the dead time mode.
 559:.\Generated_Source\PSoC4/Timer.c **** 
 560:.\Generated_Source\PSoC4/Timer.c **** *
 561:.\Generated_Source\PSoC4/Timer.c **** * Parameters:
 562:.\Generated_Source\PSoC4/Timer.c **** *  Dead time to insert
 563:.\Generated_Source\PSoC4/Timer.c **** *   Values: 0 to 255
 564:.\Generated_Source\PSoC4/Timer.c **** *
 565:.\Generated_Source\PSoC4/Timer.c **** * Return:
 566:.\Generated_Source\PSoC4/Timer.c **** *  None
 567:.\Generated_Source\PSoC4/Timer.c **** *
 568:.\Generated_Source\PSoC4/Timer.c **** *******************************************************************************/
 569:.\Generated_Source\PSoC4/Timer.c **** void Timer_SetPWMDeadTime(uint32 deadTime)
 570:.\Generated_Source\PSoC4/Timer.c **** {
 649              		.loc 1 570 0
 650              		.cfi_startproc
 651 0000 90B5     		push	{r4, r7, lr}
 652              	.LCFI31:
 653              		.cfi_def_cfa_offset 12
 654              		.cfi_offset 4, -12
 655              		.cfi_offset 7, -8
 656              		.cfi_offset 14, -4
 657 0002 85B0     		sub	sp, sp, #20
 658              	.LCFI32:
 659              		.cfi_def_cfa_offset 32
 660 0004 00AF     		add	r7, sp, #0
 661              	.LCFI33:
 662              		.cfi_def_cfa_register 7
 663 0006 7860     		str	r0, [r7, #4]
 571:.\Generated_Source\PSoC4/Timer.c ****     uint8 enableInterrupts;
 572:.\Generated_Source\PSoC4/Timer.c **** 
 573:.\Generated_Source\PSoC4/Timer.c ****     enableInterrupts = CyEnterCriticalSection();
 664              		.loc 1 573 0
 665 0008 3C1C     		mov	r4, r7
 666 000a 0F34     		add	r4, r4, #15
 667 000c FFF7FEFF 		bl	CyEnterCriticalSection
 668 0010 031C     		mov	r3, r0
 669 0012 2370     		strb	r3, [r4]
 574:.\Generated_Source\PSoC4/Timer.c **** 
 575:.\Generated_Source\PSoC4/Timer.c ****     Timer_CONTROL_REG &= (uint32)~Timer_PRESCALER_MASK;
 670              		.loc 1 575 0
 671 0014 0B4B     		ldr	r3, .L36
 672 0016 0B4A     		ldr	r2, .L36
 673 0018 1168     		ldr	r1, [r2]
 674 001a 0B4A     		ldr	r2, .L36+4
 675 001c 0A40     		and	r2, r1
 676 001e 1A60     		str	r2, [r3]
 576:.\Generated_Source\PSoC4/Timer.c ****     Timer_CONTROL_REG |= ((uint32)((deadTime & Timer_8BIT_MASK) <<
 677              		.loc 1 576 0
 678 0020 084B     		ldr	r3, .L36
ARM GAS  C:\Users\Jared\AppData\Local\Temp\ccOOnCAQ.s 			page 23


 679 0022 084A     		ldr	r2, .L36
 680 0024 1168     		ldr	r1, [r2]
 681 0026 7A68     		ldr	r2, [r7, #4]
 682 0028 1202     		lsl	r2, r2, #8
 683 002a 1204     		lsl	r2, r2, #16
 684 002c 120C     		lsr	r2, r2, #16
 685 002e 0A43     		orr	r2, r1
 686 0030 1A60     		str	r2, [r3]
 577:.\Generated_Source\PSoC4/Timer.c ****                                                           Timer_PRESCALER_SHIFT));
 578:.\Generated_Source\PSoC4/Timer.c **** 
 579:.\Generated_Source\PSoC4/Timer.c ****     CyExitCriticalSection(enableInterrupts);
 687              		.loc 1 579 0
 688 0032 3B1C     		mov	r3, r7
 689 0034 0F33     		add	r3, r3, #15
 690 0036 1B78     		ldrb	r3, [r3]
 691 0038 181C     		mov	r0, r3
 692 003a FFF7FEFF 		bl	CyExitCriticalSection
 580:.\Generated_Source\PSoC4/Timer.c **** }
 693              		.loc 1 580 0
 694 003e BD46     		mov	sp, r7
 695 0040 05B0     		add	sp, sp, #20
 696              		@ sp needed for prologue
 697 0042 90BD     		pop	{r4, r7, pc}
 698              	.L37:
 699              		.align	2
 700              	.L36:
 701 0044 80010540 		.word	1074069888
 702 0048 FF00FFFF 		.word	-65281
 703              		.cfi_endproc
 704              	.LFE11:
 705              		.size	Timer_SetPWMDeadTime, .-Timer_SetPWMDeadTime
 706              		.section	.text.Timer_SetPWMInvert,"ax",%progbits
 707              		.align	2
 708              		.global	Timer_SetPWMInvert
 709              		.code	16
 710              		.thumb_func
 711              		.type	Timer_SetPWMInvert, %function
 712              	Timer_SetPWMInvert:
 713              	.LFB12:
 581:.\Generated_Source\PSoC4/Timer.c **** 
 582:.\Generated_Source\PSoC4/Timer.c **** 
 583:.\Generated_Source\PSoC4/Timer.c **** /*******************************************************************************
 584:.\Generated_Source\PSoC4/Timer.c **** * Function Name: Timer_SetPWMInvert
 585:.\Generated_Source\PSoC4/Timer.c **** ********************************************************************************
 586:.\Generated_Source\PSoC4/Timer.c **** *
 587:.\Generated_Source\PSoC4/Timer.c **** * Summary:
 588:.\Generated_Source\PSoC4/Timer.c **** *  Writes the bits that control whether the line and line_n outputs are
 589:.\Generated_Source\PSoC4/Timer.c **** *  inverted from their normal output values.  This functionality is only
 590:.\Generated_Source\PSoC4/Timer.c **** *  applicable to the three PWM modes.
 591:.\Generated_Source\PSoC4/Timer.c **** *
 592:.\Generated_Source\PSoC4/Timer.c **** * Parameters:
 593:.\Generated_Source\PSoC4/Timer.c **** *  mask: Mask of outputs to invert.
 594:.\Generated_Source\PSoC4/Timer.c **** *   Values:
 595:.\Generated_Source\PSoC4/Timer.c **** *         - Timer_INVERT_LINE   - Inverts the line output
 596:.\Generated_Source\PSoC4/Timer.c **** *         - Timer_INVERT_LINE_N - Inverts the line_n output
 597:.\Generated_Source\PSoC4/Timer.c **** *
 598:.\Generated_Source\PSoC4/Timer.c **** * Return:
ARM GAS  C:\Users\Jared\AppData\Local\Temp\ccOOnCAQ.s 			page 24


 599:.\Generated_Source\PSoC4/Timer.c **** *  None
 600:.\Generated_Source\PSoC4/Timer.c **** *
 601:.\Generated_Source\PSoC4/Timer.c **** *******************************************************************************/
 602:.\Generated_Source\PSoC4/Timer.c **** void Timer_SetPWMInvert(uint32 mask)
 603:.\Generated_Source\PSoC4/Timer.c **** {
 714              		.loc 1 603 0
 715              		.cfi_startproc
 716 0000 90B5     		push	{r4, r7, lr}
 717              	.LCFI34:
 718              		.cfi_def_cfa_offset 12
 719              		.cfi_offset 4, -12
 720              		.cfi_offset 7, -8
 721              		.cfi_offset 14, -4
 722 0002 85B0     		sub	sp, sp, #20
 723              	.LCFI35:
 724              		.cfi_def_cfa_offset 32
 725 0004 00AF     		add	r7, sp, #0
 726              	.LCFI36:
 727              		.cfi_def_cfa_register 7
 728 0006 7860     		str	r0, [r7, #4]
 604:.\Generated_Source\PSoC4/Timer.c ****     uint8 enableInterrupts;
 605:.\Generated_Source\PSoC4/Timer.c **** 
 606:.\Generated_Source\PSoC4/Timer.c ****     enableInterrupts = CyEnterCriticalSection();
 729              		.loc 1 606 0
 730 0008 3C1C     		mov	r4, r7
 731 000a 0F34     		add	r4, r4, #15
 732 000c FFF7FEFF 		bl	CyEnterCriticalSection
 733 0010 031C     		mov	r3, r0
 734 0012 2370     		strb	r3, [r4]
 607:.\Generated_Source\PSoC4/Timer.c **** 
 608:.\Generated_Source\PSoC4/Timer.c ****     Timer_CONTROL_REG &= (uint32)~Timer_INV_OUT_MASK;
 735              		.loc 1 608 0
 736 0014 0A4B     		ldr	r3, .L39
 737 0016 0A4A     		ldr	r2, .L39
 738 0018 1168     		ldr	r1, [r2]
 739 001a 0A4A     		ldr	r2, .L39+4
 740 001c 0A40     		and	r2, r1
 741 001e 1A60     		str	r2, [r3]
 609:.\Generated_Source\PSoC4/Timer.c ****     Timer_CONTROL_REG |= mask;
 742              		.loc 1 609 0
 743 0020 074B     		ldr	r3, .L39
 744 0022 074A     		ldr	r2, .L39
 745 0024 1168     		ldr	r1, [r2]
 746 0026 7A68     		ldr	r2, [r7, #4]
 747 0028 0A43     		orr	r2, r1
 748 002a 1A60     		str	r2, [r3]
 610:.\Generated_Source\PSoC4/Timer.c **** 
 611:.\Generated_Source\PSoC4/Timer.c ****     CyExitCriticalSection(enableInterrupts);
 749              		.loc 1 611 0
 750 002c 3B1C     		mov	r3, r7
 751 002e 0F33     		add	r3, r3, #15
 752 0030 1B78     		ldrb	r3, [r3]
 753 0032 181C     		mov	r0, r3
 754 0034 FFF7FEFF 		bl	CyExitCriticalSection
 612:.\Generated_Source\PSoC4/Timer.c **** }
 755              		.loc 1 612 0
 756 0038 BD46     		mov	sp, r7
ARM GAS  C:\Users\Jared\AppData\Local\Temp\ccOOnCAQ.s 			page 25


 757 003a 05B0     		add	sp, sp, #20
 758              		@ sp needed for prologue
 759 003c 90BD     		pop	{r4, r7, pc}
 760              	.L40:
 761 003e C046     		.align	2
 762              	.L39:
 763 0040 80010540 		.word	1074069888
 764 0044 FFFFCFFF 		.word	-3145729
 765              		.cfi_endproc
 766              	.LFE12:
 767              		.size	Timer_SetPWMInvert, .-Timer_SetPWMInvert
 768              		.section	.text.Timer_WriteCounter,"ax",%progbits
 769              		.align	2
 770              		.global	Timer_WriteCounter
 771              		.code	16
 772              		.thumb_func
 773              		.type	Timer_WriteCounter, %function
 774              	Timer_WriteCounter:
 775              	.LFB13:
 613:.\Generated_Source\PSoC4/Timer.c **** 
 614:.\Generated_Source\PSoC4/Timer.c **** 
 615:.\Generated_Source\PSoC4/Timer.c **** 
 616:.\Generated_Source\PSoC4/Timer.c **** /*******************************************************************************
 617:.\Generated_Source\PSoC4/Timer.c **** * Function Name: Timer_WriteCounter
 618:.\Generated_Source\PSoC4/Timer.c **** ********************************************************************************
 619:.\Generated_Source\PSoC4/Timer.c **** *
 620:.\Generated_Source\PSoC4/Timer.c **** * Summary:
 621:.\Generated_Source\PSoC4/Timer.c **** *  Writes a new 16bit counter value directly into the counter register, thus
 622:.\Generated_Source\PSoC4/Timer.c **** *  setting the counter (not the period) to the value written. It is not
 623:.\Generated_Source\PSoC4/Timer.c **** *  advised to write to this field when the counter is running.
 624:.\Generated_Source\PSoC4/Timer.c **** *
 625:.\Generated_Source\PSoC4/Timer.c **** * Parameters:
 626:.\Generated_Source\PSoC4/Timer.c **** *  count: value to write
 627:.\Generated_Source\PSoC4/Timer.c **** *
 628:.\Generated_Source\PSoC4/Timer.c **** * Return:
 629:.\Generated_Source\PSoC4/Timer.c **** *  None
 630:.\Generated_Source\PSoC4/Timer.c **** *
 631:.\Generated_Source\PSoC4/Timer.c **** *******************************************************************************/
 632:.\Generated_Source\PSoC4/Timer.c **** void Timer_WriteCounter(uint32 count)
 633:.\Generated_Source\PSoC4/Timer.c **** {
 776              		.loc 1 633 0
 777              		.cfi_startproc
 778 0000 80B5     		push	{r7, lr}
 779              	.LCFI37:
 780              		.cfi_def_cfa_offset 8
 781              		.cfi_offset 7, -8
 782              		.cfi_offset 14, -4
 783 0002 82B0     		sub	sp, sp, #8
 784              	.LCFI38:
 785              		.cfi_def_cfa_offset 16
 786 0004 00AF     		add	r7, sp, #0
 787              	.LCFI39:
 788              		.cfi_def_cfa_register 7
 789 0006 7860     		str	r0, [r7, #4]
 634:.\Generated_Source\PSoC4/Timer.c ****     Timer_COUNTER_REG = (count & Timer_16BIT_MASK);
 790              		.loc 1 634 0
 791 0008 034B     		ldr	r3, .L42
ARM GAS  C:\Users\Jared\AppData\Local\Temp\ccOOnCAQ.s 			page 26


 792 000a 7A68     		ldr	r2, [r7, #4]
 793 000c 1204     		lsl	r2, r2, #16
 794 000e 120C     		lsr	r2, r2, #16
 795 0010 1A60     		str	r2, [r3]
 635:.\Generated_Source\PSoC4/Timer.c **** }
 796              		.loc 1 635 0
 797 0012 BD46     		mov	sp, r7
 798 0014 02B0     		add	sp, sp, #8
 799              		@ sp needed for prologue
 800 0016 80BD     		pop	{r7, pc}
 801              	.L43:
 802              		.align	2
 803              	.L42:
 804 0018 88010540 		.word	1074069896
 805              		.cfi_endproc
 806              	.LFE13:
 807              		.size	Timer_WriteCounter, .-Timer_WriteCounter
 808              		.section	.text.Timer_ReadCounter,"ax",%progbits
 809              		.align	2
 810              		.global	Timer_ReadCounter
 811              		.code	16
 812              		.thumb_func
 813              		.type	Timer_ReadCounter, %function
 814              	Timer_ReadCounter:
 815              	.LFB14:
 636:.\Generated_Source\PSoC4/Timer.c **** 
 637:.\Generated_Source\PSoC4/Timer.c **** 
 638:.\Generated_Source\PSoC4/Timer.c **** /*******************************************************************************
 639:.\Generated_Source\PSoC4/Timer.c **** * Function Name: Timer_ReadCounter
 640:.\Generated_Source\PSoC4/Timer.c **** ********************************************************************************
 641:.\Generated_Source\PSoC4/Timer.c **** *
 642:.\Generated_Source\PSoC4/Timer.c **** * Summary:
 643:.\Generated_Source\PSoC4/Timer.c **** *  Reads the current counter value.
 644:.\Generated_Source\PSoC4/Timer.c **** *
 645:.\Generated_Source\PSoC4/Timer.c **** * Parameters:
 646:.\Generated_Source\PSoC4/Timer.c **** *  None
 647:.\Generated_Source\PSoC4/Timer.c **** *
 648:.\Generated_Source\PSoC4/Timer.c **** * Return:
 649:.\Generated_Source\PSoC4/Timer.c **** *  Current counter value
 650:.\Generated_Source\PSoC4/Timer.c **** *
 651:.\Generated_Source\PSoC4/Timer.c **** *******************************************************************************/
 652:.\Generated_Source\PSoC4/Timer.c **** uint32 Timer_ReadCounter(void)
 653:.\Generated_Source\PSoC4/Timer.c **** {
 816              		.loc 1 653 0
 817              		.cfi_startproc
 818 0000 80B5     		push	{r7, lr}
 819              	.LCFI40:
 820              		.cfi_def_cfa_offset 8
 821              		.cfi_offset 7, -8
 822              		.cfi_offset 14, -4
 823 0002 00AF     		add	r7, sp, #0
 824              	.LCFI41:
 825              		.cfi_def_cfa_register 7
 654:.\Generated_Source\PSoC4/Timer.c ****     return (Timer_COUNTER_REG & Timer_16BIT_MASK);
 826              		.loc 1 654 0
 827 0004 034B     		ldr	r3, .L46
 828 0006 1B68     		ldr	r3, [r3]
ARM GAS  C:\Users\Jared\AppData\Local\Temp\ccOOnCAQ.s 			page 27


 829 0008 1B04     		lsl	r3, r3, #16
 830 000a 1B0C     		lsr	r3, r3, #16
 655:.\Generated_Source\PSoC4/Timer.c **** }
 831              		.loc 1 655 0
 832 000c 181C     		mov	r0, r3
 833 000e BD46     		mov	sp, r7
 834              		@ sp needed for prologue
 835 0010 80BD     		pop	{r7, pc}
 836              	.L47:
 837 0012 C046     		.align	2
 838              	.L46:
 839 0014 88010540 		.word	1074069896
 840              		.cfi_endproc
 841              	.LFE14:
 842              		.size	Timer_ReadCounter, .-Timer_ReadCounter
 843              		.section	.text.Timer_SetCounterMode,"ax",%progbits
 844              		.align	2
 845              		.global	Timer_SetCounterMode
 846              		.code	16
 847              		.thumb_func
 848              		.type	Timer_SetCounterMode, %function
 849              	Timer_SetCounterMode:
 850              	.LFB15:
 656:.\Generated_Source\PSoC4/Timer.c **** 
 657:.\Generated_Source\PSoC4/Timer.c **** 
 658:.\Generated_Source\PSoC4/Timer.c **** /*******************************************************************************
 659:.\Generated_Source\PSoC4/Timer.c **** * Function Name: Timer_SetCounterMode
 660:.\Generated_Source\PSoC4/Timer.c **** ********************************************************************************
 661:.\Generated_Source\PSoC4/Timer.c **** *
 662:.\Generated_Source\PSoC4/Timer.c **** * Summary:
 663:.\Generated_Source\PSoC4/Timer.c **** *  Sets the counter mode.  Applicable to all modes except Quadrature Decoder
 664:.\Generated_Source\PSoC4/Timer.c **** *  and the PWM with a pseudo random output.
 665:.\Generated_Source\PSoC4/Timer.c **** *
 666:.\Generated_Source\PSoC4/Timer.c **** * Parameters:
 667:.\Generated_Source\PSoC4/Timer.c **** *  counterMode: Enumerated counter type values
 668:.\Generated_Source\PSoC4/Timer.c **** *   Values:
 669:.\Generated_Source\PSoC4/Timer.c **** *     - Timer_COUNT_UP       - Counts up
 670:.\Generated_Source\PSoC4/Timer.c **** *     - Timer_COUNT_DOWN     - Counts down
 671:.\Generated_Source\PSoC4/Timer.c **** *     - Timer_COUNT_UPDOWN0  - Counts up and down. Terminal count
 672:.\Generated_Source\PSoC4/Timer.c **** *                                         generated when counter reaches 0
 673:.\Generated_Source\PSoC4/Timer.c **** *     - Timer_COUNT_UPDOWN1  - Counts up and down. Terminal count
 674:.\Generated_Source\PSoC4/Timer.c **** *                                         generated both when counter reaches 0
 675:.\Generated_Source\PSoC4/Timer.c **** *                                         and period
 676:.\Generated_Source\PSoC4/Timer.c **** *
 677:.\Generated_Source\PSoC4/Timer.c **** * Return:
 678:.\Generated_Source\PSoC4/Timer.c **** *  None
 679:.\Generated_Source\PSoC4/Timer.c **** *
 680:.\Generated_Source\PSoC4/Timer.c **** *******************************************************************************/
 681:.\Generated_Source\PSoC4/Timer.c **** void Timer_SetCounterMode(uint32 counterMode)
 682:.\Generated_Source\PSoC4/Timer.c **** {
 851              		.loc 1 682 0
 852              		.cfi_startproc
 853 0000 90B5     		push	{r4, r7, lr}
 854              	.LCFI42:
 855              		.cfi_def_cfa_offset 12
 856              		.cfi_offset 4, -12
 857              		.cfi_offset 7, -8
ARM GAS  C:\Users\Jared\AppData\Local\Temp\ccOOnCAQ.s 			page 28


 858              		.cfi_offset 14, -4
 859 0002 85B0     		sub	sp, sp, #20
 860              	.LCFI43:
 861              		.cfi_def_cfa_offset 32
 862 0004 00AF     		add	r7, sp, #0
 863              	.LCFI44:
 864              		.cfi_def_cfa_register 7
 865 0006 7860     		str	r0, [r7, #4]
 683:.\Generated_Source\PSoC4/Timer.c ****     uint8 enableInterrupts;
 684:.\Generated_Source\PSoC4/Timer.c **** 
 685:.\Generated_Source\PSoC4/Timer.c ****     enableInterrupts = CyEnterCriticalSection();
 866              		.loc 1 685 0
 867 0008 3C1C     		mov	r4, r7
 868 000a 0F34     		add	r4, r4, #15
 869 000c FFF7FEFF 		bl	CyEnterCriticalSection
 870 0010 031C     		mov	r3, r0
 871 0012 2370     		strb	r3, [r4]
 686:.\Generated_Source\PSoC4/Timer.c **** 
 687:.\Generated_Source\PSoC4/Timer.c ****     Timer_CONTROL_REG &= (uint32)~Timer_UPDOWN_MASK;
 872              		.loc 1 687 0
 873 0014 0A4B     		ldr	r3, .L49
 874 0016 0A4A     		ldr	r2, .L49
 875 0018 1168     		ldr	r1, [r2]
 876 001a 0A4A     		ldr	r2, .L49+4
 877 001c 0A40     		and	r2, r1
 878 001e 1A60     		str	r2, [r3]
 688:.\Generated_Source\PSoC4/Timer.c ****     Timer_CONTROL_REG |= counterMode;
 879              		.loc 1 688 0
 880 0020 074B     		ldr	r3, .L49
 881 0022 074A     		ldr	r2, .L49
 882 0024 1168     		ldr	r1, [r2]
 883 0026 7A68     		ldr	r2, [r7, #4]
 884 0028 0A43     		orr	r2, r1
 885 002a 1A60     		str	r2, [r3]
 689:.\Generated_Source\PSoC4/Timer.c **** 
 690:.\Generated_Source\PSoC4/Timer.c ****     CyExitCriticalSection(enableInterrupts);
 886              		.loc 1 690 0
 887 002c 3B1C     		mov	r3, r7
 888 002e 0F33     		add	r3, r3, #15
 889 0030 1B78     		ldrb	r3, [r3]
 890 0032 181C     		mov	r0, r3
 891 0034 FFF7FEFF 		bl	CyExitCriticalSection
 691:.\Generated_Source\PSoC4/Timer.c **** }
 892              		.loc 1 691 0
 893 0038 BD46     		mov	sp, r7
 894 003a 05B0     		add	sp, sp, #20
 895              		@ sp needed for prologue
 896 003c 90BD     		pop	{r4, r7, pc}
 897              	.L50:
 898 003e C046     		.align	2
 899              	.L49:
 900 0040 80010540 		.word	1074069888
 901 0044 FFFFFCFF 		.word	-196609
 902              		.cfi_endproc
 903              	.LFE15:
 904              		.size	Timer_SetCounterMode, .-Timer_SetCounterMode
 905              		.section	.text.Timer_WritePeriod,"ax",%progbits
ARM GAS  C:\Users\Jared\AppData\Local\Temp\ccOOnCAQ.s 			page 29


 906              		.align	2
 907              		.global	Timer_WritePeriod
 908              		.code	16
 909              		.thumb_func
 910              		.type	Timer_WritePeriod, %function
 911              	Timer_WritePeriod:
 912              	.LFB16:
 692:.\Generated_Source\PSoC4/Timer.c **** 
 693:.\Generated_Source\PSoC4/Timer.c **** 
 694:.\Generated_Source\PSoC4/Timer.c **** /*******************************************************************************
 695:.\Generated_Source\PSoC4/Timer.c **** * Function Name: Timer_WritePeriod
 696:.\Generated_Source\PSoC4/Timer.c **** ********************************************************************************
 697:.\Generated_Source\PSoC4/Timer.c **** *
 698:.\Generated_Source\PSoC4/Timer.c **** * Summary:
 699:.\Generated_Source\PSoC4/Timer.c **** *  Writes the 16 bit period register with the new period value.
 700:.\Generated_Source\PSoC4/Timer.c **** *  To cause the counter to count for N cycles this register should be written
 701:.\Generated_Source\PSoC4/Timer.c **** *  with N-1 (counts from 0 to period inclusive).
 702:.\Generated_Source\PSoC4/Timer.c **** *
 703:.\Generated_Source\PSoC4/Timer.c **** * Parameters:
 704:.\Generated_Source\PSoC4/Timer.c **** *  period: Period value
 705:.\Generated_Source\PSoC4/Timer.c **** *
 706:.\Generated_Source\PSoC4/Timer.c **** * Return:
 707:.\Generated_Source\PSoC4/Timer.c **** *  None
 708:.\Generated_Source\PSoC4/Timer.c **** *
 709:.\Generated_Source\PSoC4/Timer.c **** *******************************************************************************/
 710:.\Generated_Source\PSoC4/Timer.c **** void Timer_WritePeriod(uint32 period)
 711:.\Generated_Source\PSoC4/Timer.c **** {
 913              		.loc 1 711 0
 914              		.cfi_startproc
 915 0000 80B5     		push	{r7, lr}
 916              	.LCFI45:
 917              		.cfi_def_cfa_offset 8
 918              		.cfi_offset 7, -8
 919              		.cfi_offset 14, -4
 920 0002 82B0     		sub	sp, sp, #8
 921              	.LCFI46:
 922              		.cfi_def_cfa_offset 16
 923 0004 00AF     		add	r7, sp, #0
 924              	.LCFI47:
 925              		.cfi_def_cfa_register 7
 926 0006 7860     		str	r0, [r7, #4]
 712:.\Generated_Source\PSoC4/Timer.c ****     Timer_PERIOD_REG = (period & Timer_16BIT_MASK);
 927              		.loc 1 712 0
 928 0008 034B     		ldr	r3, .L52
 929 000a 7A68     		ldr	r2, [r7, #4]
 930 000c 1204     		lsl	r2, r2, #16
 931 000e 120C     		lsr	r2, r2, #16
 932 0010 1A60     		str	r2, [r3]
 713:.\Generated_Source\PSoC4/Timer.c **** }
 933              		.loc 1 713 0
 934 0012 BD46     		mov	sp, r7
 935 0014 02B0     		add	sp, sp, #8
 936              		@ sp needed for prologue
 937 0016 80BD     		pop	{r7, pc}
 938              	.L53:
 939              		.align	2
 940              	.L52:
ARM GAS  C:\Users\Jared\AppData\Local\Temp\ccOOnCAQ.s 			page 30


 941 0018 94010540 		.word	1074069908
 942              		.cfi_endproc
 943              	.LFE16:
 944              		.size	Timer_WritePeriod, .-Timer_WritePeriod
 945              		.section	.text.Timer_ReadPeriod,"ax",%progbits
 946              		.align	2
 947              		.global	Timer_ReadPeriod
 948              		.code	16
 949              		.thumb_func
 950              		.type	Timer_ReadPeriod, %function
 951              	Timer_ReadPeriod:
 952              	.LFB17:
 714:.\Generated_Source\PSoC4/Timer.c **** 
 715:.\Generated_Source\PSoC4/Timer.c **** 
 716:.\Generated_Source\PSoC4/Timer.c **** /*******************************************************************************
 717:.\Generated_Source\PSoC4/Timer.c **** * Function Name: Timer_ReadPeriod
 718:.\Generated_Source\PSoC4/Timer.c **** ********************************************************************************
 719:.\Generated_Source\PSoC4/Timer.c **** *
 720:.\Generated_Source\PSoC4/Timer.c **** * Summary:
 721:.\Generated_Source\PSoC4/Timer.c **** *  Reads the 16 bit period register.
 722:.\Generated_Source\PSoC4/Timer.c **** *
 723:.\Generated_Source\PSoC4/Timer.c **** * Parameters:
 724:.\Generated_Source\PSoC4/Timer.c **** *  None
 725:.\Generated_Source\PSoC4/Timer.c **** *
 726:.\Generated_Source\PSoC4/Timer.c **** * Return:
 727:.\Generated_Source\PSoC4/Timer.c **** *  Period value
 728:.\Generated_Source\PSoC4/Timer.c **** *
 729:.\Generated_Source\PSoC4/Timer.c **** *******************************************************************************/
 730:.\Generated_Source\PSoC4/Timer.c **** uint32 Timer_ReadPeriod(void)
 731:.\Generated_Source\PSoC4/Timer.c **** {
 953              		.loc 1 731 0
 954              		.cfi_startproc
 955 0000 80B5     		push	{r7, lr}
 956              	.LCFI48:
 957              		.cfi_def_cfa_offset 8
 958              		.cfi_offset 7, -8
 959              		.cfi_offset 14, -4
 960 0002 00AF     		add	r7, sp, #0
 961              	.LCFI49:
 962              		.cfi_def_cfa_register 7
 732:.\Generated_Source\PSoC4/Timer.c ****     return (Timer_PERIOD_REG & Timer_16BIT_MASK);
 963              		.loc 1 732 0
 964 0004 034B     		ldr	r3, .L56
 965 0006 1B68     		ldr	r3, [r3]
 966 0008 1B04     		lsl	r3, r3, #16
 967 000a 1B0C     		lsr	r3, r3, #16
 733:.\Generated_Source\PSoC4/Timer.c **** }
 968              		.loc 1 733 0
 969 000c 181C     		mov	r0, r3
 970 000e BD46     		mov	sp, r7
 971              		@ sp needed for prologue
 972 0010 80BD     		pop	{r7, pc}
 973              	.L57:
 974 0012 C046     		.align	2
 975              	.L56:
 976 0014 94010540 		.word	1074069908
 977              		.cfi_endproc
ARM GAS  C:\Users\Jared\AppData\Local\Temp\ccOOnCAQ.s 			page 31


 978              	.LFE17:
 979              		.size	Timer_ReadPeriod, .-Timer_ReadPeriod
 980              		.section	.text.Timer_SetCompareSwap,"ax",%progbits
 981              		.align	2
 982              		.global	Timer_SetCompareSwap
 983              		.code	16
 984              		.thumb_func
 985              		.type	Timer_SetCompareSwap, %function
 986              	Timer_SetCompareSwap:
 987              	.LFB18:
 734:.\Generated_Source\PSoC4/Timer.c **** 
 735:.\Generated_Source\PSoC4/Timer.c **** 
 736:.\Generated_Source\PSoC4/Timer.c **** /*******************************************************************************
 737:.\Generated_Source\PSoC4/Timer.c **** * Function Name: Timer_SetCompareSwap
 738:.\Generated_Source\PSoC4/Timer.c **** ********************************************************************************
 739:.\Generated_Source\PSoC4/Timer.c **** *
 740:.\Generated_Source\PSoC4/Timer.c **** * Summary:
 741:.\Generated_Source\PSoC4/Timer.c **** *  Writes the register that controls whether the compare registers are
 742:.\Generated_Source\PSoC4/Timer.c **** *  swapped. When enabled in the Timer/Counter mode(without capture) the swap
 743:.\Generated_Source\PSoC4/Timer.c **** *  occurs at a TC event. In the PWM mode the swap occurs at the next TC event
 744:.\Generated_Source\PSoC4/Timer.c **** *  following a hardware switch event.
 745:.\Generated_Source\PSoC4/Timer.c **** *
 746:.\Generated_Source\PSoC4/Timer.c **** * Parameters:
 747:.\Generated_Source\PSoC4/Timer.c **** *  swapEnable
 748:.\Generated_Source\PSoC4/Timer.c **** *   Values:
 749:.\Generated_Source\PSoC4/Timer.c **** *     - 0 - Disable swap
 750:.\Generated_Source\PSoC4/Timer.c **** *     - 1 - Enable swap
 751:.\Generated_Source\PSoC4/Timer.c **** *
 752:.\Generated_Source\PSoC4/Timer.c **** * Return:
 753:.\Generated_Source\PSoC4/Timer.c **** *  None
 754:.\Generated_Source\PSoC4/Timer.c **** *
 755:.\Generated_Source\PSoC4/Timer.c **** *******************************************************************************/
 756:.\Generated_Source\PSoC4/Timer.c **** void Timer_SetCompareSwap(uint32 swapEnable)
 757:.\Generated_Source\PSoC4/Timer.c **** {
 988              		.loc 1 757 0
 989              		.cfi_startproc
 990 0000 90B5     		push	{r4, r7, lr}
 991              	.LCFI50:
 992              		.cfi_def_cfa_offset 12
 993              		.cfi_offset 4, -12
 994              		.cfi_offset 7, -8
 995              		.cfi_offset 14, -4
 996 0002 85B0     		sub	sp, sp, #20
 997              	.LCFI51:
 998              		.cfi_def_cfa_offset 32
 999 0004 00AF     		add	r7, sp, #0
 1000              	.LCFI52:
 1001              		.cfi_def_cfa_register 7
 1002 0006 7860     		str	r0, [r7, #4]
 758:.\Generated_Source\PSoC4/Timer.c ****     uint8 enableInterrupts;
 759:.\Generated_Source\PSoC4/Timer.c **** 
 760:.\Generated_Source\PSoC4/Timer.c ****     enableInterrupts = CyEnterCriticalSection();
 1003              		.loc 1 760 0
 1004 0008 3C1C     		mov	r4, r7
 1005 000a 0F34     		add	r4, r4, #15
 1006 000c FFF7FEFF 		bl	CyEnterCriticalSection
 1007 0010 031C     		mov	r3, r0
ARM GAS  C:\Users\Jared\AppData\Local\Temp\ccOOnCAQ.s 			page 32


 1008 0012 2370     		strb	r3, [r4]
 761:.\Generated_Source\PSoC4/Timer.c **** 
 762:.\Generated_Source\PSoC4/Timer.c ****     Timer_CONTROL_REG &= (uint32)~Timer_RELOAD_CC_MASK;
 1009              		.loc 1 762 0
 1010 0014 0B4B     		ldr	r3, .L59
 1011 0016 0B4A     		ldr	r2, .L59
 1012 0018 1268     		ldr	r2, [r2]
 1013 001a 0121     		mov	r1, #1
 1014 001c 8A43     		bic	r2, r1
 1015 001e 1A60     		str	r2, [r3]
 763:.\Generated_Source\PSoC4/Timer.c ****     Timer_CONTROL_REG |= (swapEnable & Timer_1BIT_MASK);
 1016              		.loc 1 763 0
 1017 0020 084B     		ldr	r3, .L59
 1018 0022 084A     		ldr	r2, .L59
 1019 0024 1168     		ldr	r1, [r2]
 1020 0026 7868     		ldr	r0, [r7, #4]
 1021 0028 0122     		mov	r2, #1
 1022 002a 0240     		and	r2, r0
 1023 002c 0A43     		orr	r2, r1
 1024 002e 1A60     		str	r2, [r3]
 764:.\Generated_Source\PSoC4/Timer.c **** 
 765:.\Generated_Source\PSoC4/Timer.c ****     CyExitCriticalSection(enableInterrupts);
 1025              		.loc 1 765 0
 1026 0030 3B1C     		mov	r3, r7
 1027 0032 0F33     		add	r3, r3, #15
 1028 0034 1B78     		ldrb	r3, [r3]
 1029 0036 181C     		mov	r0, r3
 1030 0038 FFF7FEFF 		bl	CyExitCriticalSection
 766:.\Generated_Source\PSoC4/Timer.c **** }
 1031              		.loc 1 766 0
 1032 003c BD46     		mov	sp, r7
 1033 003e 05B0     		add	sp, sp, #20
 1034              		@ sp needed for prologue
 1035 0040 90BD     		pop	{r4, r7, pc}
 1036              	.L60:
 1037 0042 C046     		.align	2
 1038              	.L59:
 1039 0044 80010540 		.word	1074069888
 1040              		.cfi_endproc
 1041              	.LFE18:
 1042              		.size	Timer_SetCompareSwap, .-Timer_SetCompareSwap
 1043              		.section	.text.Timer_WritePeriodBuf,"ax",%progbits
 1044              		.align	2
 1045              		.global	Timer_WritePeriodBuf
 1046              		.code	16
 1047              		.thumb_func
 1048              		.type	Timer_WritePeriodBuf, %function
 1049              	Timer_WritePeriodBuf:
 1050              	.LFB19:
 767:.\Generated_Source\PSoC4/Timer.c **** 
 768:.\Generated_Source\PSoC4/Timer.c **** 
 769:.\Generated_Source\PSoC4/Timer.c **** /*******************************************************************************
 770:.\Generated_Source\PSoC4/Timer.c **** * Function Name: Timer_WritePeriodBuf
 771:.\Generated_Source\PSoC4/Timer.c **** ********************************************************************************
 772:.\Generated_Source\PSoC4/Timer.c **** *
 773:.\Generated_Source\PSoC4/Timer.c **** * Summary:
 774:.\Generated_Source\PSoC4/Timer.c **** *  Writes the 16 bit period buf register with the new period value.
ARM GAS  C:\Users\Jared\AppData\Local\Temp\ccOOnCAQ.s 			page 33


 775:.\Generated_Source\PSoC4/Timer.c **** *
 776:.\Generated_Source\PSoC4/Timer.c **** * Parameters:
 777:.\Generated_Source\PSoC4/Timer.c **** *  periodBuf: Period value
 778:.\Generated_Source\PSoC4/Timer.c **** *
 779:.\Generated_Source\PSoC4/Timer.c **** * Return:
 780:.\Generated_Source\PSoC4/Timer.c **** *  None
 781:.\Generated_Source\PSoC4/Timer.c **** *
 782:.\Generated_Source\PSoC4/Timer.c **** *******************************************************************************/
 783:.\Generated_Source\PSoC4/Timer.c **** void Timer_WritePeriodBuf(uint32 periodBuf)
 784:.\Generated_Source\PSoC4/Timer.c **** {
 1051              		.loc 1 784 0
 1052              		.cfi_startproc
 1053 0000 80B5     		push	{r7, lr}
 1054              	.LCFI53:
 1055              		.cfi_def_cfa_offset 8
 1056              		.cfi_offset 7, -8
 1057              		.cfi_offset 14, -4
 1058 0002 82B0     		sub	sp, sp, #8
 1059              	.LCFI54:
 1060              		.cfi_def_cfa_offset 16
 1061 0004 00AF     		add	r7, sp, #0
 1062              	.LCFI55:
 1063              		.cfi_def_cfa_register 7
 1064 0006 7860     		str	r0, [r7, #4]
 785:.\Generated_Source\PSoC4/Timer.c ****     Timer_PERIOD_BUF_REG = (periodBuf & Timer_16BIT_MASK);
 1065              		.loc 1 785 0
 1066 0008 034B     		ldr	r3, .L62
 1067 000a 7A68     		ldr	r2, [r7, #4]
 1068 000c 1204     		lsl	r2, r2, #16
 1069 000e 120C     		lsr	r2, r2, #16
 1070 0010 1A60     		str	r2, [r3]
 786:.\Generated_Source\PSoC4/Timer.c **** }
 1071              		.loc 1 786 0
 1072 0012 BD46     		mov	sp, r7
 1073 0014 02B0     		add	sp, sp, #8
 1074              		@ sp needed for prologue
 1075 0016 80BD     		pop	{r7, pc}
 1076              	.L63:
 1077              		.align	2
 1078              	.L62:
 1079 0018 98010540 		.word	1074069912
 1080              		.cfi_endproc
 1081              	.LFE19:
 1082              		.size	Timer_WritePeriodBuf, .-Timer_WritePeriodBuf
 1083              		.section	.text.Timer_ReadPeriodBuf,"ax",%progbits
 1084              		.align	2
 1085              		.global	Timer_ReadPeriodBuf
 1086              		.code	16
 1087              		.thumb_func
 1088              		.type	Timer_ReadPeriodBuf, %function
 1089              	Timer_ReadPeriodBuf:
 1090              	.LFB20:
 787:.\Generated_Source\PSoC4/Timer.c **** 
 788:.\Generated_Source\PSoC4/Timer.c **** 
 789:.\Generated_Source\PSoC4/Timer.c **** /*******************************************************************************
 790:.\Generated_Source\PSoC4/Timer.c **** * Function Name: Timer_ReadPeriodBuf
 791:.\Generated_Source\PSoC4/Timer.c **** ********************************************************************************
ARM GAS  C:\Users\Jared\AppData\Local\Temp\ccOOnCAQ.s 			page 34


 792:.\Generated_Source\PSoC4/Timer.c **** *
 793:.\Generated_Source\PSoC4/Timer.c **** * Summary:
 794:.\Generated_Source\PSoC4/Timer.c **** *  Reads the 16 bit period buf register.
 795:.\Generated_Source\PSoC4/Timer.c **** *
 796:.\Generated_Source\PSoC4/Timer.c **** * Parameters:
 797:.\Generated_Source\PSoC4/Timer.c **** *  None
 798:.\Generated_Source\PSoC4/Timer.c **** *
 799:.\Generated_Source\PSoC4/Timer.c **** * Return:
 800:.\Generated_Source\PSoC4/Timer.c **** *  Period value
 801:.\Generated_Source\PSoC4/Timer.c **** *
 802:.\Generated_Source\PSoC4/Timer.c **** *******************************************************************************/
 803:.\Generated_Source\PSoC4/Timer.c **** uint32 Timer_ReadPeriodBuf(void)
 804:.\Generated_Source\PSoC4/Timer.c **** {
 1091              		.loc 1 804 0
 1092              		.cfi_startproc
 1093 0000 80B5     		push	{r7, lr}
 1094              	.LCFI56:
 1095              		.cfi_def_cfa_offset 8
 1096              		.cfi_offset 7, -8
 1097              		.cfi_offset 14, -4
 1098 0002 00AF     		add	r7, sp, #0
 1099              	.LCFI57:
 1100              		.cfi_def_cfa_register 7
 805:.\Generated_Source\PSoC4/Timer.c ****     return (Timer_PERIOD_BUF_REG & Timer_16BIT_MASK);
 1101              		.loc 1 805 0
 1102 0004 034B     		ldr	r3, .L66
 1103 0006 1B68     		ldr	r3, [r3]
 1104 0008 1B04     		lsl	r3, r3, #16
 1105 000a 1B0C     		lsr	r3, r3, #16
 806:.\Generated_Source\PSoC4/Timer.c **** }
 1106              		.loc 1 806 0
 1107 000c 181C     		mov	r0, r3
 1108 000e BD46     		mov	sp, r7
 1109              		@ sp needed for prologue
 1110 0010 80BD     		pop	{r7, pc}
 1111              	.L67:
 1112 0012 C046     		.align	2
 1113              	.L66:
 1114 0014 98010540 		.word	1074069912
 1115              		.cfi_endproc
 1116              	.LFE20:
 1117              		.size	Timer_ReadPeriodBuf, .-Timer_ReadPeriodBuf
 1118              		.section	.text.Timer_SetPeriodSwap,"ax",%progbits
 1119              		.align	2
 1120              		.global	Timer_SetPeriodSwap
 1121              		.code	16
 1122              		.thumb_func
 1123              		.type	Timer_SetPeriodSwap, %function
 1124              	Timer_SetPeriodSwap:
 1125              	.LFB21:
 807:.\Generated_Source\PSoC4/Timer.c **** 
 808:.\Generated_Source\PSoC4/Timer.c **** 
 809:.\Generated_Source\PSoC4/Timer.c **** /*******************************************************************************
 810:.\Generated_Source\PSoC4/Timer.c **** * Function Name: Timer_SetPeriodSwap
 811:.\Generated_Source\PSoC4/Timer.c **** ********************************************************************************
 812:.\Generated_Source\PSoC4/Timer.c **** *
 813:.\Generated_Source\PSoC4/Timer.c **** * Summary:
ARM GAS  C:\Users\Jared\AppData\Local\Temp\ccOOnCAQ.s 			page 35


 814:.\Generated_Source\PSoC4/Timer.c **** *  Writes the register that controls whether the period registers are
 815:.\Generated_Source\PSoC4/Timer.c **** *  swapped. When enabled in Timer/Counter mode the swap occurs at a TC event.
 816:.\Generated_Source\PSoC4/Timer.c **** *  In the PWM mode the swap occurs at the next TC event following a hardware
 817:.\Generated_Source\PSoC4/Timer.c **** *  switch event.
 818:.\Generated_Source\PSoC4/Timer.c **** *
 819:.\Generated_Source\PSoC4/Timer.c **** * Parameters:
 820:.\Generated_Source\PSoC4/Timer.c **** *  swapEnable
 821:.\Generated_Source\PSoC4/Timer.c **** *   Values:
 822:.\Generated_Source\PSoC4/Timer.c **** *     - 0 - Disable swap
 823:.\Generated_Source\PSoC4/Timer.c **** *     - 1 - Enable swap
 824:.\Generated_Source\PSoC4/Timer.c **** *
 825:.\Generated_Source\PSoC4/Timer.c **** * Return:
 826:.\Generated_Source\PSoC4/Timer.c **** *  None
 827:.\Generated_Source\PSoC4/Timer.c **** *
 828:.\Generated_Source\PSoC4/Timer.c **** *******************************************************************************/
 829:.\Generated_Source\PSoC4/Timer.c **** void Timer_SetPeriodSwap(uint32 swapEnable)
 830:.\Generated_Source\PSoC4/Timer.c **** {
 1126              		.loc 1 830 0
 1127              		.cfi_startproc
 1128 0000 90B5     		push	{r4, r7, lr}
 1129              	.LCFI58:
 1130              		.cfi_def_cfa_offset 12
 1131              		.cfi_offset 4, -12
 1132              		.cfi_offset 7, -8
 1133              		.cfi_offset 14, -4
 1134 0002 85B0     		sub	sp, sp, #20
 1135              	.LCFI59:
 1136              		.cfi_def_cfa_offset 32
 1137 0004 00AF     		add	r7, sp, #0
 1138              	.LCFI60:
 1139              		.cfi_def_cfa_register 7
 1140 0006 7860     		str	r0, [r7, #4]
 831:.\Generated_Source\PSoC4/Timer.c ****     uint8 enableInterrupts;
 832:.\Generated_Source\PSoC4/Timer.c **** 
 833:.\Generated_Source\PSoC4/Timer.c ****     enableInterrupts = CyEnterCriticalSection();
 1141              		.loc 1 833 0
 1142 0008 3C1C     		mov	r4, r7
 1143 000a 0F34     		add	r4, r4, #15
 1144 000c FFF7FEFF 		bl	CyEnterCriticalSection
 1145 0010 031C     		mov	r3, r0
 1146 0012 2370     		strb	r3, [r4]
 834:.\Generated_Source\PSoC4/Timer.c **** 
 835:.\Generated_Source\PSoC4/Timer.c ****     Timer_CONTROL_REG &= (uint32)~Timer_RELOAD_PERIOD_MASK;
 1147              		.loc 1 835 0
 1148 0014 0B4B     		ldr	r3, .L69
 1149 0016 0B4A     		ldr	r2, .L69
 1150 0018 1268     		ldr	r2, [r2]
 1151 001a 0221     		mov	r1, #2
 1152 001c 8A43     		bic	r2, r1
 1153 001e 1A60     		str	r2, [r3]
 836:.\Generated_Source\PSoC4/Timer.c ****     Timer_CONTROL_REG |= ((uint32)((swapEnable & Timer_1BIT_MASK) <<
 1154              		.loc 1 836 0
 1155 0020 084B     		ldr	r3, .L69
 1156 0022 084A     		ldr	r2, .L69
 1157 0024 1168     		ldr	r1, [r2]
 1158 0026 7868     		ldr	r0, [r7, #4]
 1159 0028 0122     		mov	r2, #1
ARM GAS  C:\Users\Jared\AppData\Local\Temp\ccOOnCAQ.s 			page 36


 1160 002a 0240     		and	r2, r0
 1161 002c 5200     		lsl	r2, r2, #1
 1162 002e 0A43     		orr	r2, r1
 1163 0030 1A60     		str	r2, [r3]
 837:.\Generated_Source\PSoC4/Timer.c ****                                                             Timer_RELOAD_PERIOD_SHIFT));
 838:.\Generated_Source\PSoC4/Timer.c **** 
 839:.\Generated_Source\PSoC4/Timer.c ****     CyExitCriticalSection(enableInterrupts);
 1164              		.loc 1 839 0
 1165 0032 3B1C     		mov	r3, r7
 1166 0034 0F33     		add	r3, r3, #15
 1167 0036 1B78     		ldrb	r3, [r3]
 1168 0038 181C     		mov	r0, r3
 1169 003a FFF7FEFF 		bl	CyExitCriticalSection
 840:.\Generated_Source\PSoC4/Timer.c **** }
 1170              		.loc 1 840 0
 1171 003e BD46     		mov	sp, r7
 1172 0040 05B0     		add	sp, sp, #20
 1173              		@ sp needed for prologue
 1174 0042 90BD     		pop	{r4, r7, pc}
 1175              	.L70:
 1176              		.align	2
 1177              	.L69:
 1178 0044 80010540 		.word	1074069888
 1179              		.cfi_endproc
 1180              	.LFE21:
 1181              		.size	Timer_SetPeriodSwap, .-Timer_SetPeriodSwap
 1182              		.section	.text.Timer_WriteCompare,"ax",%progbits
 1183              		.align	2
 1184              		.global	Timer_WriteCompare
 1185              		.code	16
 1186              		.thumb_func
 1187              		.type	Timer_WriteCompare, %function
 1188              	Timer_WriteCompare:
 1189              	.LFB22:
 841:.\Generated_Source\PSoC4/Timer.c **** 
 842:.\Generated_Source\PSoC4/Timer.c **** 
 843:.\Generated_Source\PSoC4/Timer.c **** /*******************************************************************************
 844:.\Generated_Source\PSoC4/Timer.c **** * Function Name: Timer_WriteCompare
 845:.\Generated_Source\PSoC4/Timer.c **** ********************************************************************************
 846:.\Generated_Source\PSoC4/Timer.c **** *
 847:.\Generated_Source\PSoC4/Timer.c **** * Summary:
 848:.\Generated_Source\PSoC4/Timer.c **** *  Writes the 16 bit compare register with the new compare value. Not
 849:.\Generated_Source\PSoC4/Timer.c **** *  applicable for Timer/Counter with Capture or in Quadrature Decoder modes.
 850:.\Generated_Source\PSoC4/Timer.c **** *
 851:.\Generated_Source\PSoC4/Timer.c **** * Parameters:
 852:.\Generated_Source\PSoC4/Timer.c **** *  compare: Compare value
 853:.\Generated_Source\PSoC4/Timer.c **** *
 854:.\Generated_Source\PSoC4/Timer.c **** * Return:
 855:.\Generated_Source\PSoC4/Timer.c **** *  None
 856:.\Generated_Source\PSoC4/Timer.c **** *
 857:.\Generated_Source\PSoC4/Timer.c **** *******************************************************************************/
 858:.\Generated_Source\PSoC4/Timer.c **** void Timer_WriteCompare(uint32 compare)
 859:.\Generated_Source\PSoC4/Timer.c **** {
 1190              		.loc 1 859 0
 1191              		.cfi_startproc
 1192 0000 80B5     		push	{r7, lr}
 1193              	.LCFI61:
ARM GAS  C:\Users\Jared\AppData\Local\Temp\ccOOnCAQ.s 			page 37


 1194              		.cfi_def_cfa_offset 8
 1195              		.cfi_offset 7, -8
 1196              		.cfi_offset 14, -4
 1197 0002 82B0     		sub	sp, sp, #8
 1198              	.LCFI62:
 1199              		.cfi_def_cfa_offset 16
 1200 0004 00AF     		add	r7, sp, #0
 1201              	.LCFI63:
 1202              		.cfi_def_cfa_register 7
 1203 0006 7860     		str	r0, [r7, #4]
 860:.\Generated_Source\PSoC4/Timer.c ****     #if (Timer_CY_TCPWM_V2)
 861:.\Generated_Source\PSoC4/Timer.c ****         uint32 currentMode;
 862:.\Generated_Source\PSoC4/Timer.c ****     #endif /* (Timer_CY_TCPWM_V2) */
 863:.\Generated_Source\PSoC4/Timer.c **** 
 864:.\Generated_Source\PSoC4/Timer.c ****     #if (Timer_CY_TCPWM_V2)
 865:.\Generated_Source\PSoC4/Timer.c ****         currentMode = ((Timer_CONTROL_REG & Timer_UPDOWN_MASK) >> Timer_UPDOWN_SHIFT);
 866:.\Generated_Source\PSoC4/Timer.c **** 
 867:.\Generated_Source\PSoC4/Timer.c ****         if (Timer__COUNT_DOWN == currentMode)
 868:.\Generated_Source\PSoC4/Timer.c ****         {
 869:.\Generated_Source\PSoC4/Timer.c ****             Timer_COMP_CAP_REG = ((compare + 1u) & Timer_16BIT_MASK);
 870:.\Generated_Source\PSoC4/Timer.c ****         }
 871:.\Generated_Source\PSoC4/Timer.c ****         else if (Timer__COUNT_UP == currentMode)
 872:.\Generated_Source\PSoC4/Timer.c ****         {
 873:.\Generated_Source\PSoC4/Timer.c ****             Timer_COMP_CAP_REG = ((compare - 1u) & Timer_16BIT_MASK);
 874:.\Generated_Source\PSoC4/Timer.c ****         }
 875:.\Generated_Source\PSoC4/Timer.c ****         else
 876:.\Generated_Source\PSoC4/Timer.c ****         {
 877:.\Generated_Source\PSoC4/Timer.c ****             Timer_COMP_CAP_REG = (compare & Timer_16BIT_MASK);
 878:.\Generated_Source\PSoC4/Timer.c ****         }
 879:.\Generated_Source\PSoC4/Timer.c ****     #else
 880:.\Generated_Source\PSoC4/Timer.c ****         Timer_COMP_CAP_REG = (compare & Timer_16BIT_MASK);
 1204              		.loc 1 880 0
 1205 0008 034B     		ldr	r3, .L72
 1206 000a 7A68     		ldr	r2, [r7, #4]
 1207 000c 1204     		lsl	r2, r2, #16
 1208 000e 120C     		lsr	r2, r2, #16
 1209 0010 1A60     		str	r2, [r3]
 881:.\Generated_Source\PSoC4/Timer.c ****     #endif /* (Timer_CY_TCPWM_V2) */
 882:.\Generated_Source\PSoC4/Timer.c **** }
 1210              		.loc 1 882 0
 1211 0012 BD46     		mov	sp, r7
 1212 0014 02B0     		add	sp, sp, #8
 1213              		@ sp needed for prologue
 1214 0016 80BD     		pop	{r7, pc}
 1215              	.L73:
 1216              		.align	2
 1217              	.L72:
 1218 0018 8C010540 		.word	1074069900
 1219              		.cfi_endproc
 1220              	.LFE22:
 1221              		.size	Timer_WriteCompare, .-Timer_WriteCompare
 1222              		.section	.text.Timer_ReadCompare,"ax",%progbits
 1223              		.align	2
 1224              		.global	Timer_ReadCompare
 1225              		.code	16
 1226              		.thumb_func
 1227              		.type	Timer_ReadCompare, %function
ARM GAS  C:\Users\Jared\AppData\Local\Temp\ccOOnCAQ.s 			page 38


 1228              	Timer_ReadCompare:
 1229              	.LFB23:
 883:.\Generated_Source\PSoC4/Timer.c **** 
 884:.\Generated_Source\PSoC4/Timer.c **** 
 885:.\Generated_Source\PSoC4/Timer.c **** /*******************************************************************************
 886:.\Generated_Source\PSoC4/Timer.c **** * Function Name: Timer_ReadCompare
 887:.\Generated_Source\PSoC4/Timer.c **** ********************************************************************************
 888:.\Generated_Source\PSoC4/Timer.c **** *
 889:.\Generated_Source\PSoC4/Timer.c **** * Summary:
 890:.\Generated_Source\PSoC4/Timer.c **** *  Reads the compare register. Not applicable for Timer/Counter with Capture
 891:.\Generated_Source\PSoC4/Timer.c **** *  or in Quadrature Decoder modes.
 892:.\Generated_Source\PSoC4/Timer.c **** *
 893:.\Generated_Source\PSoC4/Timer.c **** * Parameters:
 894:.\Generated_Source\PSoC4/Timer.c **** *  None
 895:.\Generated_Source\PSoC4/Timer.c **** *
 896:.\Generated_Source\PSoC4/Timer.c **** * Return:
 897:.\Generated_Source\PSoC4/Timer.c **** *  Compare value
 898:.\Generated_Source\PSoC4/Timer.c **** *
 899:.\Generated_Source\PSoC4/Timer.c **** *******************************************************************************/
 900:.\Generated_Source\PSoC4/Timer.c **** uint32 Timer_ReadCompare(void)
 901:.\Generated_Source\PSoC4/Timer.c **** {
 1230              		.loc 1 901 0
 1231              		.cfi_startproc
 1232 0000 80B5     		push	{r7, lr}
 1233              	.LCFI64:
 1234              		.cfi_def_cfa_offset 8
 1235              		.cfi_offset 7, -8
 1236              		.cfi_offset 14, -4
 1237 0002 00AF     		add	r7, sp, #0
 1238              	.LCFI65:
 1239              		.cfi_def_cfa_register 7
 902:.\Generated_Source\PSoC4/Timer.c ****     #if (Timer_CY_TCPWM_V2)
 903:.\Generated_Source\PSoC4/Timer.c ****         uint32 currentMode;
 904:.\Generated_Source\PSoC4/Timer.c ****         uint32 regVal;
 905:.\Generated_Source\PSoC4/Timer.c ****     #endif /* (Timer_CY_TCPWM_V2) */
 906:.\Generated_Source\PSoC4/Timer.c **** 
 907:.\Generated_Source\PSoC4/Timer.c ****     #if (Timer_CY_TCPWM_V2)
 908:.\Generated_Source\PSoC4/Timer.c ****         currentMode = ((Timer_CONTROL_REG & Timer_UPDOWN_MASK) >> Timer_UPDOWN_SHIFT);
 909:.\Generated_Source\PSoC4/Timer.c **** 
 910:.\Generated_Source\PSoC4/Timer.c ****         if (Timer__COUNT_DOWN == currentMode)
 911:.\Generated_Source\PSoC4/Timer.c ****         {
 912:.\Generated_Source\PSoC4/Timer.c ****             regVal = ((Timer_COMP_CAP_REG - 1u) & Timer_16BIT_MASK);
 913:.\Generated_Source\PSoC4/Timer.c ****         }
 914:.\Generated_Source\PSoC4/Timer.c ****         else if (Timer__COUNT_UP == currentMode)
 915:.\Generated_Source\PSoC4/Timer.c ****         {
 916:.\Generated_Source\PSoC4/Timer.c ****             regVal = ((Timer_COMP_CAP_REG + 1u) & Timer_16BIT_MASK);
 917:.\Generated_Source\PSoC4/Timer.c ****         }
 918:.\Generated_Source\PSoC4/Timer.c ****         else
 919:.\Generated_Source\PSoC4/Timer.c ****         {
 920:.\Generated_Source\PSoC4/Timer.c ****             regVal = (Timer_COMP_CAP_REG & Timer_16BIT_MASK);
 921:.\Generated_Source\PSoC4/Timer.c ****         }
 922:.\Generated_Source\PSoC4/Timer.c ****         return (regVal);
 923:.\Generated_Source\PSoC4/Timer.c ****     #else
 924:.\Generated_Source\PSoC4/Timer.c ****         return (Timer_COMP_CAP_REG & Timer_16BIT_MASK);
 1240              		.loc 1 924 0
 1241 0004 034B     		ldr	r3, .L76
 1242 0006 1B68     		ldr	r3, [r3]
ARM GAS  C:\Users\Jared\AppData\Local\Temp\ccOOnCAQ.s 			page 39


 1243 0008 1B04     		lsl	r3, r3, #16
 1244 000a 1B0C     		lsr	r3, r3, #16
 925:.\Generated_Source\PSoC4/Timer.c ****     #endif /* (Timer_CY_TCPWM_V2) */
 926:.\Generated_Source\PSoC4/Timer.c **** }
 1245              		.loc 1 926 0
 1246 000c 181C     		mov	r0, r3
 1247 000e BD46     		mov	sp, r7
 1248              		@ sp needed for prologue
 1249 0010 80BD     		pop	{r7, pc}
 1250              	.L77:
 1251 0012 C046     		.align	2
 1252              	.L76:
 1253 0014 8C010540 		.word	1074069900
 1254              		.cfi_endproc
 1255              	.LFE23:
 1256              		.size	Timer_ReadCompare, .-Timer_ReadCompare
 1257              		.section	.text.Timer_WriteCompareBuf,"ax",%progbits
 1258              		.align	2
 1259              		.global	Timer_WriteCompareBuf
 1260              		.code	16
 1261              		.thumb_func
 1262              		.type	Timer_WriteCompareBuf, %function
 1263              	Timer_WriteCompareBuf:
 1264              	.LFB24:
 927:.\Generated_Source\PSoC4/Timer.c **** 
 928:.\Generated_Source\PSoC4/Timer.c **** 
 929:.\Generated_Source\PSoC4/Timer.c **** /*******************************************************************************
 930:.\Generated_Source\PSoC4/Timer.c **** * Function Name: Timer_WriteCompareBuf
 931:.\Generated_Source\PSoC4/Timer.c **** ********************************************************************************
 932:.\Generated_Source\PSoC4/Timer.c **** *
 933:.\Generated_Source\PSoC4/Timer.c **** * Summary:
 934:.\Generated_Source\PSoC4/Timer.c **** *  Writes the 16 bit compare buffer register with the new compare value. Not
 935:.\Generated_Source\PSoC4/Timer.c **** *  applicable for Timer/Counter with Capture or in Quadrature Decoder modes.
 936:.\Generated_Source\PSoC4/Timer.c **** *
 937:.\Generated_Source\PSoC4/Timer.c **** * Parameters:
 938:.\Generated_Source\PSoC4/Timer.c **** *  compareBuf: Compare value
 939:.\Generated_Source\PSoC4/Timer.c **** *
 940:.\Generated_Source\PSoC4/Timer.c **** * Return:
 941:.\Generated_Source\PSoC4/Timer.c **** *  None
 942:.\Generated_Source\PSoC4/Timer.c **** *
 943:.\Generated_Source\PSoC4/Timer.c **** *******************************************************************************/
 944:.\Generated_Source\PSoC4/Timer.c **** void Timer_WriteCompareBuf(uint32 compareBuf)
 945:.\Generated_Source\PSoC4/Timer.c **** {
 1265              		.loc 1 945 0
 1266              		.cfi_startproc
 1267 0000 80B5     		push	{r7, lr}
 1268              	.LCFI66:
 1269              		.cfi_def_cfa_offset 8
 1270              		.cfi_offset 7, -8
 1271              		.cfi_offset 14, -4
 1272 0002 82B0     		sub	sp, sp, #8
 1273              	.LCFI67:
 1274              		.cfi_def_cfa_offset 16
 1275 0004 00AF     		add	r7, sp, #0
 1276              	.LCFI68:
 1277              		.cfi_def_cfa_register 7
 1278 0006 7860     		str	r0, [r7, #4]
ARM GAS  C:\Users\Jared\AppData\Local\Temp\ccOOnCAQ.s 			page 40


 946:.\Generated_Source\PSoC4/Timer.c ****     #if (Timer_CY_TCPWM_V2)
 947:.\Generated_Source\PSoC4/Timer.c ****         uint32 currentMode;
 948:.\Generated_Source\PSoC4/Timer.c ****     #endif /* (Timer_CY_TCPWM_V2) */
 949:.\Generated_Source\PSoC4/Timer.c **** 
 950:.\Generated_Source\PSoC4/Timer.c ****     #if (Timer_CY_TCPWM_V2)
 951:.\Generated_Source\PSoC4/Timer.c ****         currentMode = ((Timer_CONTROL_REG & Timer_UPDOWN_MASK) >> Timer_UPDOWN_SHIFT);
 952:.\Generated_Source\PSoC4/Timer.c **** 
 953:.\Generated_Source\PSoC4/Timer.c ****         if (Timer__COUNT_DOWN == currentMode)
 954:.\Generated_Source\PSoC4/Timer.c ****         {
 955:.\Generated_Source\PSoC4/Timer.c ****             Timer_COMP_CAP_BUF_REG = ((compareBuf + 1u) & Timer_16BIT_MASK);
 956:.\Generated_Source\PSoC4/Timer.c ****         }
 957:.\Generated_Source\PSoC4/Timer.c ****         else if (Timer__COUNT_UP == currentMode)
 958:.\Generated_Source\PSoC4/Timer.c ****         {
 959:.\Generated_Source\PSoC4/Timer.c ****             Timer_COMP_CAP_BUF_REG = ((compareBuf - 1u) & Timer_16BIT_MASK);
 960:.\Generated_Source\PSoC4/Timer.c ****         }
 961:.\Generated_Source\PSoC4/Timer.c ****         else
 962:.\Generated_Source\PSoC4/Timer.c ****         {
 963:.\Generated_Source\PSoC4/Timer.c ****             Timer_COMP_CAP_BUF_REG = (compareBuf & Timer_16BIT_MASK);
 964:.\Generated_Source\PSoC4/Timer.c ****         }
 965:.\Generated_Source\PSoC4/Timer.c ****     #else
 966:.\Generated_Source\PSoC4/Timer.c ****         Timer_COMP_CAP_BUF_REG = (compareBuf & Timer_16BIT_MASK);
 1279              		.loc 1 966 0
 1280 0008 034B     		ldr	r3, .L79
 1281 000a 7A68     		ldr	r2, [r7, #4]
 1282 000c 1204     		lsl	r2, r2, #16
 1283 000e 120C     		lsr	r2, r2, #16
 1284 0010 1A60     		str	r2, [r3]
 967:.\Generated_Source\PSoC4/Timer.c ****     #endif /* (Timer_CY_TCPWM_V2) */
 968:.\Generated_Source\PSoC4/Timer.c **** }
 1285              		.loc 1 968 0
 1286 0012 BD46     		mov	sp, r7
 1287 0014 02B0     		add	sp, sp, #8
 1288              		@ sp needed for prologue
 1289 0016 80BD     		pop	{r7, pc}
 1290              	.L80:
 1291              		.align	2
 1292              	.L79:
 1293 0018 90010540 		.word	1074069904
 1294              		.cfi_endproc
 1295              	.LFE24:
 1296              		.size	Timer_WriteCompareBuf, .-Timer_WriteCompareBuf
 1297              		.section	.text.Timer_ReadCompareBuf,"ax",%progbits
 1298              		.align	2
 1299              		.global	Timer_ReadCompareBuf
 1300              		.code	16
 1301              		.thumb_func
 1302              		.type	Timer_ReadCompareBuf, %function
 1303              	Timer_ReadCompareBuf:
 1304              	.LFB25:
 969:.\Generated_Source\PSoC4/Timer.c **** 
 970:.\Generated_Source\PSoC4/Timer.c **** 
 971:.\Generated_Source\PSoC4/Timer.c **** /*******************************************************************************
 972:.\Generated_Source\PSoC4/Timer.c **** * Function Name: Timer_ReadCompareBuf
 973:.\Generated_Source\PSoC4/Timer.c **** ********************************************************************************
 974:.\Generated_Source\PSoC4/Timer.c **** *
 975:.\Generated_Source\PSoC4/Timer.c **** * Summary:
 976:.\Generated_Source\PSoC4/Timer.c **** *  Reads the compare buffer register. Not applicable for Timer/Counter with
ARM GAS  C:\Users\Jared\AppData\Local\Temp\ccOOnCAQ.s 			page 41


 977:.\Generated_Source\PSoC4/Timer.c **** *  Capture or in Quadrature Decoder modes.
 978:.\Generated_Source\PSoC4/Timer.c **** *
 979:.\Generated_Source\PSoC4/Timer.c **** * Parameters:
 980:.\Generated_Source\PSoC4/Timer.c **** *  None
 981:.\Generated_Source\PSoC4/Timer.c **** *
 982:.\Generated_Source\PSoC4/Timer.c **** * Return:
 983:.\Generated_Source\PSoC4/Timer.c **** *  Compare buffer value
 984:.\Generated_Source\PSoC4/Timer.c **** *
 985:.\Generated_Source\PSoC4/Timer.c **** *******************************************************************************/
 986:.\Generated_Source\PSoC4/Timer.c **** uint32 Timer_ReadCompareBuf(void)
 987:.\Generated_Source\PSoC4/Timer.c **** {
 1305              		.loc 1 987 0
 1306              		.cfi_startproc
 1307 0000 80B5     		push	{r7, lr}
 1308              	.LCFI69:
 1309              		.cfi_def_cfa_offset 8
 1310              		.cfi_offset 7, -8
 1311              		.cfi_offset 14, -4
 1312 0002 00AF     		add	r7, sp, #0
 1313              	.LCFI70:
 1314              		.cfi_def_cfa_register 7
 988:.\Generated_Source\PSoC4/Timer.c ****     #if (Timer_CY_TCPWM_V2)
 989:.\Generated_Source\PSoC4/Timer.c ****         uint32 currentMode;
 990:.\Generated_Source\PSoC4/Timer.c ****         uint32 regVal;
 991:.\Generated_Source\PSoC4/Timer.c ****     #endif /* (Timer_CY_TCPWM_V2) */
 992:.\Generated_Source\PSoC4/Timer.c **** 
 993:.\Generated_Source\PSoC4/Timer.c ****     #if (Timer_CY_TCPWM_V2)
 994:.\Generated_Source\PSoC4/Timer.c ****         currentMode = ((Timer_CONTROL_REG & Timer_UPDOWN_MASK) >> Timer_UPDOWN_SHIFT);
 995:.\Generated_Source\PSoC4/Timer.c **** 
 996:.\Generated_Source\PSoC4/Timer.c ****         if (Timer__COUNT_DOWN == currentMode)
 997:.\Generated_Source\PSoC4/Timer.c ****         {
 998:.\Generated_Source\PSoC4/Timer.c ****             regVal = ((Timer_COMP_CAP_BUF_REG - 1u) & Timer_16BIT_MASK);
 999:.\Generated_Source\PSoC4/Timer.c ****         }
1000:.\Generated_Source\PSoC4/Timer.c ****         else if (Timer__COUNT_UP == currentMode)
1001:.\Generated_Source\PSoC4/Timer.c ****         {
1002:.\Generated_Source\PSoC4/Timer.c ****             regVal = ((Timer_COMP_CAP_BUF_REG + 1u) & Timer_16BIT_MASK);
1003:.\Generated_Source\PSoC4/Timer.c ****         }
1004:.\Generated_Source\PSoC4/Timer.c ****         else
1005:.\Generated_Source\PSoC4/Timer.c ****         {
1006:.\Generated_Source\PSoC4/Timer.c ****             regVal = (Timer_COMP_CAP_BUF_REG & Timer_16BIT_MASK);
1007:.\Generated_Source\PSoC4/Timer.c ****         }
1008:.\Generated_Source\PSoC4/Timer.c ****         return (regVal);
1009:.\Generated_Source\PSoC4/Timer.c ****     #else
1010:.\Generated_Source\PSoC4/Timer.c ****         return (Timer_COMP_CAP_BUF_REG & Timer_16BIT_MASK);
 1315              		.loc 1 1010 0
 1316 0004 034B     		ldr	r3, .L83
 1317 0006 1B68     		ldr	r3, [r3]
 1318 0008 1B04     		lsl	r3, r3, #16
 1319 000a 1B0C     		lsr	r3, r3, #16
1011:.\Generated_Source\PSoC4/Timer.c ****     #endif /* (Timer_CY_TCPWM_V2) */
1012:.\Generated_Source\PSoC4/Timer.c **** }
 1320              		.loc 1 1012 0
 1321 000c 181C     		mov	r0, r3
 1322 000e BD46     		mov	sp, r7
 1323              		@ sp needed for prologue
 1324 0010 80BD     		pop	{r7, pc}
 1325              	.L84:
ARM GAS  C:\Users\Jared\AppData\Local\Temp\ccOOnCAQ.s 			page 42


 1326 0012 C046     		.align	2
 1327              	.L83:
 1328 0014 90010540 		.word	1074069904
 1329              		.cfi_endproc
 1330              	.LFE25:
 1331              		.size	Timer_ReadCompareBuf, .-Timer_ReadCompareBuf
 1332              		.section	.text.Timer_ReadCapture,"ax",%progbits
 1333              		.align	2
 1334              		.global	Timer_ReadCapture
 1335              		.code	16
 1336              		.thumb_func
 1337              		.type	Timer_ReadCapture, %function
 1338              	Timer_ReadCapture:
 1339              	.LFB26:
1013:.\Generated_Source\PSoC4/Timer.c **** 
1014:.\Generated_Source\PSoC4/Timer.c **** 
1015:.\Generated_Source\PSoC4/Timer.c **** /*******************************************************************************
1016:.\Generated_Source\PSoC4/Timer.c **** * Function Name: Timer_ReadCapture
1017:.\Generated_Source\PSoC4/Timer.c **** ********************************************************************************
1018:.\Generated_Source\PSoC4/Timer.c **** *
1019:.\Generated_Source\PSoC4/Timer.c **** * Summary:
1020:.\Generated_Source\PSoC4/Timer.c **** *  Reads the captured counter value. This API is applicable only for
1021:.\Generated_Source\PSoC4/Timer.c **** *  Timer/Counter with the capture mode and Quadrature Decoder modes.
1022:.\Generated_Source\PSoC4/Timer.c **** *
1023:.\Generated_Source\PSoC4/Timer.c **** * Parameters:
1024:.\Generated_Source\PSoC4/Timer.c **** *  None
1025:.\Generated_Source\PSoC4/Timer.c **** *
1026:.\Generated_Source\PSoC4/Timer.c **** * Return:
1027:.\Generated_Source\PSoC4/Timer.c **** *  Capture value
1028:.\Generated_Source\PSoC4/Timer.c **** *
1029:.\Generated_Source\PSoC4/Timer.c **** *******************************************************************************/
1030:.\Generated_Source\PSoC4/Timer.c **** uint32 Timer_ReadCapture(void)
1031:.\Generated_Source\PSoC4/Timer.c **** {
 1340              		.loc 1 1031 0
 1341              		.cfi_startproc
 1342 0000 80B5     		push	{r7, lr}
 1343              	.LCFI71:
 1344              		.cfi_def_cfa_offset 8
 1345              		.cfi_offset 7, -8
 1346              		.cfi_offset 14, -4
 1347 0002 00AF     		add	r7, sp, #0
 1348              	.LCFI72:
 1349              		.cfi_def_cfa_register 7
1032:.\Generated_Source\PSoC4/Timer.c ****     return (Timer_COMP_CAP_REG & Timer_16BIT_MASK);
 1350              		.loc 1 1032 0
 1351 0004 034B     		ldr	r3, .L87
 1352 0006 1B68     		ldr	r3, [r3]
 1353 0008 1B04     		lsl	r3, r3, #16
 1354 000a 1B0C     		lsr	r3, r3, #16
1033:.\Generated_Source\PSoC4/Timer.c **** }
 1355              		.loc 1 1033 0
 1356 000c 181C     		mov	r0, r3
 1357 000e BD46     		mov	sp, r7
 1358              		@ sp needed for prologue
 1359 0010 80BD     		pop	{r7, pc}
 1360              	.L88:
 1361 0012 C046     		.align	2
ARM GAS  C:\Users\Jared\AppData\Local\Temp\ccOOnCAQ.s 			page 43


 1362              	.L87:
 1363 0014 8C010540 		.word	1074069900
 1364              		.cfi_endproc
 1365              	.LFE26:
 1366              		.size	Timer_ReadCapture, .-Timer_ReadCapture
 1367              		.section	.text.Timer_ReadCaptureBuf,"ax",%progbits
 1368              		.align	2
 1369              		.global	Timer_ReadCaptureBuf
 1370              		.code	16
 1371              		.thumb_func
 1372              		.type	Timer_ReadCaptureBuf, %function
 1373              	Timer_ReadCaptureBuf:
 1374              	.LFB27:
1034:.\Generated_Source\PSoC4/Timer.c **** 
1035:.\Generated_Source\PSoC4/Timer.c **** 
1036:.\Generated_Source\PSoC4/Timer.c **** /*******************************************************************************
1037:.\Generated_Source\PSoC4/Timer.c **** * Function Name: Timer_ReadCaptureBuf
1038:.\Generated_Source\PSoC4/Timer.c **** ********************************************************************************
1039:.\Generated_Source\PSoC4/Timer.c **** *
1040:.\Generated_Source\PSoC4/Timer.c **** * Summary:
1041:.\Generated_Source\PSoC4/Timer.c **** *  Reads the capture buffer register. This API is applicable only for
1042:.\Generated_Source\PSoC4/Timer.c **** *  Timer/Counter with the capture mode and Quadrature Decoder modes.
1043:.\Generated_Source\PSoC4/Timer.c **** *
1044:.\Generated_Source\PSoC4/Timer.c **** * Parameters:
1045:.\Generated_Source\PSoC4/Timer.c **** *  None
1046:.\Generated_Source\PSoC4/Timer.c **** *
1047:.\Generated_Source\PSoC4/Timer.c **** * Return:
1048:.\Generated_Source\PSoC4/Timer.c **** *  Capture buffer value
1049:.\Generated_Source\PSoC4/Timer.c **** *
1050:.\Generated_Source\PSoC4/Timer.c **** *******************************************************************************/
1051:.\Generated_Source\PSoC4/Timer.c **** uint32 Timer_ReadCaptureBuf(void)
1052:.\Generated_Source\PSoC4/Timer.c **** {
 1375              		.loc 1 1052 0
 1376              		.cfi_startproc
 1377 0000 80B5     		push	{r7, lr}
 1378              	.LCFI73:
 1379              		.cfi_def_cfa_offset 8
 1380              		.cfi_offset 7, -8
 1381              		.cfi_offset 14, -4
 1382 0002 00AF     		add	r7, sp, #0
 1383              	.LCFI74:
 1384              		.cfi_def_cfa_register 7
1053:.\Generated_Source\PSoC4/Timer.c ****     return (Timer_COMP_CAP_BUF_REG & Timer_16BIT_MASK);
 1385              		.loc 1 1053 0
 1386 0004 034B     		ldr	r3, .L91
 1387 0006 1B68     		ldr	r3, [r3]
 1388 0008 1B04     		lsl	r3, r3, #16
 1389 000a 1B0C     		lsr	r3, r3, #16
1054:.\Generated_Source\PSoC4/Timer.c **** }
 1390              		.loc 1 1054 0
 1391 000c 181C     		mov	r0, r3
 1392 000e BD46     		mov	sp, r7
 1393              		@ sp needed for prologue
 1394 0010 80BD     		pop	{r7, pc}
 1395              	.L92:
 1396 0012 C046     		.align	2
 1397              	.L91:
ARM GAS  C:\Users\Jared\AppData\Local\Temp\ccOOnCAQ.s 			page 44


 1398 0014 90010540 		.word	1074069904
 1399              		.cfi_endproc
 1400              	.LFE27:
 1401              		.size	Timer_ReadCaptureBuf, .-Timer_ReadCaptureBuf
 1402              		.section	.text.Timer_SetCaptureMode,"ax",%progbits
 1403              		.align	2
 1404              		.global	Timer_SetCaptureMode
 1405              		.code	16
 1406              		.thumb_func
 1407              		.type	Timer_SetCaptureMode, %function
 1408              	Timer_SetCaptureMode:
 1409              	.LFB28:
1055:.\Generated_Source\PSoC4/Timer.c **** 
1056:.\Generated_Source\PSoC4/Timer.c **** 
1057:.\Generated_Source\PSoC4/Timer.c **** /*******************************************************************************
1058:.\Generated_Source\PSoC4/Timer.c **** * Function Name: Timer_SetCaptureMode
1059:.\Generated_Source\PSoC4/Timer.c **** ********************************************************************************
1060:.\Generated_Source\PSoC4/Timer.c **** *
1061:.\Generated_Source\PSoC4/Timer.c **** * Summary:
1062:.\Generated_Source\PSoC4/Timer.c **** *  Sets the capture trigger mode. For PWM mode this is the switch input.
1063:.\Generated_Source\PSoC4/Timer.c **** *  This input is not applicable to the Timer/Counter without Capture and
1064:.\Generated_Source\PSoC4/Timer.c **** *  Quadrature Decoder modes.
1065:.\Generated_Source\PSoC4/Timer.c **** *
1066:.\Generated_Source\PSoC4/Timer.c **** * Parameters:
1067:.\Generated_Source\PSoC4/Timer.c **** *  triggerMode: Enumerated trigger mode value
1068:.\Generated_Source\PSoC4/Timer.c **** *   Values:
1069:.\Generated_Source\PSoC4/Timer.c **** *     - Timer_TRIG_LEVEL     - Level
1070:.\Generated_Source\PSoC4/Timer.c **** *     - Timer_TRIG_RISING    - Rising edge
1071:.\Generated_Source\PSoC4/Timer.c **** *     - Timer_TRIG_FALLING   - Falling edge
1072:.\Generated_Source\PSoC4/Timer.c **** *     - Timer_TRIG_BOTH      - Both rising and falling edge
1073:.\Generated_Source\PSoC4/Timer.c **** *
1074:.\Generated_Source\PSoC4/Timer.c **** * Return:
1075:.\Generated_Source\PSoC4/Timer.c **** *  None
1076:.\Generated_Source\PSoC4/Timer.c **** *
1077:.\Generated_Source\PSoC4/Timer.c **** *******************************************************************************/
1078:.\Generated_Source\PSoC4/Timer.c **** void Timer_SetCaptureMode(uint32 triggerMode)
1079:.\Generated_Source\PSoC4/Timer.c **** {
 1410              		.loc 1 1079 0
 1411              		.cfi_startproc
 1412 0000 90B5     		push	{r4, r7, lr}
 1413              	.LCFI75:
 1414              		.cfi_def_cfa_offset 12
 1415              		.cfi_offset 4, -12
 1416              		.cfi_offset 7, -8
 1417              		.cfi_offset 14, -4
 1418 0002 85B0     		sub	sp, sp, #20
 1419              	.LCFI76:
 1420              		.cfi_def_cfa_offset 32
 1421 0004 00AF     		add	r7, sp, #0
 1422              	.LCFI77:
 1423              		.cfi_def_cfa_register 7
 1424 0006 7860     		str	r0, [r7, #4]
1080:.\Generated_Source\PSoC4/Timer.c ****     uint8 enableInterrupts;
1081:.\Generated_Source\PSoC4/Timer.c **** 
1082:.\Generated_Source\PSoC4/Timer.c ****     enableInterrupts = CyEnterCriticalSection();
 1425              		.loc 1 1082 0
 1426 0008 3C1C     		mov	r4, r7
ARM GAS  C:\Users\Jared\AppData\Local\Temp\ccOOnCAQ.s 			page 45


 1427 000a 0F34     		add	r4, r4, #15
 1428 000c FFF7FEFF 		bl	CyEnterCriticalSection
 1429 0010 031C     		mov	r3, r0
 1430 0012 2370     		strb	r3, [r4]
1083:.\Generated_Source\PSoC4/Timer.c **** 
1084:.\Generated_Source\PSoC4/Timer.c ****     Timer_TRIG_CONTROL1_REG &= (uint32)~Timer_CAPTURE_MASK;
 1431              		.loc 1 1084 0
 1432 0014 0A4B     		ldr	r3, .L94
 1433 0016 0A4A     		ldr	r2, .L94
 1434 0018 1268     		ldr	r2, [r2]
 1435 001a 0321     		mov	r1, #3
 1436 001c 8A43     		bic	r2, r1
 1437 001e 1A60     		str	r2, [r3]
1085:.\Generated_Source\PSoC4/Timer.c ****     Timer_TRIG_CONTROL1_REG |= triggerMode;
 1438              		.loc 1 1085 0
 1439 0020 074B     		ldr	r3, .L94
 1440 0022 074A     		ldr	r2, .L94
 1441 0024 1168     		ldr	r1, [r2]
 1442 0026 7A68     		ldr	r2, [r7, #4]
 1443 0028 0A43     		orr	r2, r1
 1444 002a 1A60     		str	r2, [r3]
1086:.\Generated_Source\PSoC4/Timer.c **** 
1087:.\Generated_Source\PSoC4/Timer.c ****     CyExitCriticalSection(enableInterrupts);
 1445              		.loc 1 1087 0
 1446 002c 3B1C     		mov	r3, r7
 1447 002e 0F33     		add	r3, r3, #15
 1448 0030 1B78     		ldrb	r3, [r3]
 1449 0032 181C     		mov	r0, r3
 1450 0034 FFF7FEFF 		bl	CyExitCriticalSection
1088:.\Generated_Source\PSoC4/Timer.c **** }
 1451              		.loc 1 1088 0
 1452 0038 BD46     		mov	sp, r7
 1453 003a 05B0     		add	sp, sp, #20
 1454              		@ sp needed for prologue
 1455 003c 90BD     		pop	{r4, r7, pc}
 1456              	.L95:
 1457 003e C046     		.align	2
 1458              	.L94:
 1459 0040 A4010540 		.word	1074069924
 1460              		.cfi_endproc
 1461              	.LFE28:
 1462              		.size	Timer_SetCaptureMode, .-Timer_SetCaptureMode
 1463              		.section	.text.Timer_SetReloadMode,"ax",%progbits
 1464              		.align	2
 1465              		.global	Timer_SetReloadMode
 1466              		.code	16
 1467              		.thumb_func
 1468              		.type	Timer_SetReloadMode, %function
 1469              	Timer_SetReloadMode:
 1470              	.LFB29:
1089:.\Generated_Source\PSoC4/Timer.c **** 
1090:.\Generated_Source\PSoC4/Timer.c **** 
1091:.\Generated_Source\PSoC4/Timer.c **** /*******************************************************************************
1092:.\Generated_Source\PSoC4/Timer.c **** * Function Name: Timer_SetReloadMode
1093:.\Generated_Source\PSoC4/Timer.c **** ********************************************************************************
1094:.\Generated_Source\PSoC4/Timer.c **** *
1095:.\Generated_Source\PSoC4/Timer.c **** * Summary:
ARM GAS  C:\Users\Jared\AppData\Local\Temp\ccOOnCAQ.s 			page 46


1096:.\Generated_Source\PSoC4/Timer.c **** *  Sets the reload trigger mode. For Quadrature Decoder mode this is the index
1097:.\Generated_Source\PSoC4/Timer.c **** *  input.
1098:.\Generated_Source\PSoC4/Timer.c **** *
1099:.\Generated_Source\PSoC4/Timer.c **** * Parameters:
1100:.\Generated_Source\PSoC4/Timer.c **** *  triggerMode: Enumerated trigger mode value
1101:.\Generated_Source\PSoC4/Timer.c **** *   Values:
1102:.\Generated_Source\PSoC4/Timer.c **** *     - Timer_TRIG_LEVEL     - Level
1103:.\Generated_Source\PSoC4/Timer.c **** *     - Timer_TRIG_RISING    - Rising edge
1104:.\Generated_Source\PSoC4/Timer.c **** *     - Timer_TRIG_FALLING   - Falling edge
1105:.\Generated_Source\PSoC4/Timer.c **** *     - Timer_TRIG_BOTH      - Both rising and falling edge
1106:.\Generated_Source\PSoC4/Timer.c **** *
1107:.\Generated_Source\PSoC4/Timer.c **** * Return:
1108:.\Generated_Source\PSoC4/Timer.c **** *  None
1109:.\Generated_Source\PSoC4/Timer.c **** *
1110:.\Generated_Source\PSoC4/Timer.c **** *******************************************************************************/
1111:.\Generated_Source\PSoC4/Timer.c **** void Timer_SetReloadMode(uint32 triggerMode)
1112:.\Generated_Source\PSoC4/Timer.c **** {
 1471              		.loc 1 1112 0
 1472              		.cfi_startproc
 1473 0000 90B5     		push	{r4, r7, lr}
 1474              	.LCFI78:
 1475              		.cfi_def_cfa_offset 12
 1476              		.cfi_offset 4, -12
 1477              		.cfi_offset 7, -8
 1478              		.cfi_offset 14, -4
 1479 0002 85B0     		sub	sp, sp, #20
 1480              	.LCFI79:
 1481              		.cfi_def_cfa_offset 32
 1482 0004 00AF     		add	r7, sp, #0
 1483              	.LCFI80:
 1484              		.cfi_def_cfa_register 7
 1485 0006 7860     		str	r0, [r7, #4]
1113:.\Generated_Source\PSoC4/Timer.c ****     uint8 enableInterrupts;
1114:.\Generated_Source\PSoC4/Timer.c **** 
1115:.\Generated_Source\PSoC4/Timer.c ****     enableInterrupts = CyEnterCriticalSection();
 1486              		.loc 1 1115 0
 1487 0008 3C1C     		mov	r4, r7
 1488 000a 0F34     		add	r4, r4, #15
 1489 000c FFF7FEFF 		bl	CyEnterCriticalSection
 1490 0010 031C     		mov	r3, r0
 1491 0012 2370     		strb	r3, [r4]
1116:.\Generated_Source\PSoC4/Timer.c **** 
1117:.\Generated_Source\PSoC4/Timer.c ****     Timer_TRIG_CONTROL1_REG &= (uint32)~Timer_RELOAD_MASK;
 1492              		.loc 1 1117 0
 1493 0014 0A4B     		ldr	r3, .L97
 1494 0016 0A4A     		ldr	r2, .L97
 1495 0018 1268     		ldr	r2, [r2]
 1496 001a 3021     		mov	r1, #48
 1497 001c 8A43     		bic	r2, r1
 1498 001e 1A60     		str	r2, [r3]
1118:.\Generated_Source\PSoC4/Timer.c ****     Timer_TRIG_CONTROL1_REG |= ((uint32)(triggerMode << Timer_RELOAD_SHIFT));
 1499              		.loc 1 1118 0
 1500 0020 074B     		ldr	r3, .L97
 1501 0022 074A     		ldr	r2, .L97
 1502 0024 1168     		ldr	r1, [r2]
 1503 0026 7A68     		ldr	r2, [r7, #4]
 1504 0028 1201     		lsl	r2, r2, #4
ARM GAS  C:\Users\Jared\AppData\Local\Temp\ccOOnCAQ.s 			page 47


 1505 002a 0A43     		orr	r2, r1
 1506 002c 1A60     		str	r2, [r3]
1119:.\Generated_Source\PSoC4/Timer.c **** 
1120:.\Generated_Source\PSoC4/Timer.c ****     CyExitCriticalSection(enableInterrupts);
 1507              		.loc 1 1120 0
 1508 002e 3B1C     		mov	r3, r7
 1509 0030 0F33     		add	r3, r3, #15
 1510 0032 1B78     		ldrb	r3, [r3]
 1511 0034 181C     		mov	r0, r3
 1512 0036 FFF7FEFF 		bl	CyExitCriticalSection
1121:.\Generated_Source\PSoC4/Timer.c **** }
 1513              		.loc 1 1121 0
 1514 003a BD46     		mov	sp, r7
 1515 003c 05B0     		add	sp, sp, #20
 1516              		@ sp needed for prologue
 1517 003e 90BD     		pop	{r4, r7, pc}
 1518              	.L98:
 1519              		.align	2
 1520              	.L97:
 1521 0040 A4010540 		.word	1074069924
 1522              		.cfi_endproc
 1523              	.LFE29:
 1524              		.size	Timer_SetReloadMode, .-Timer_SetReloadMode
 1525              		.section	.text.Timer_SetStartMode,"ax",%progbits
 1526              		.align	2
 1527              		.global	Timer_SetStartMode
 1528              		.code	16
 1529              		.thumb_func
 1530              		.type	Timer_SetStartMode, %function
 1531              	Timer_SetStartMode:
 1532              	.LFB30:
1122:.\Generated_Source\PSoC4/Timer.c **** 
1123:.\Generated_Source\PSoC4/Timer.c **** 
1124:.\Generated_Source\PSoC4/Timer.c **** /*******************************************************************************
1125:.\Generated_Source\PSoC4/Timer.c **** * Function Name: Timer_SetStartMode
1126:.\Generated_Source\PSoC4/Timer.c **** ********************************************************************************
1127:.\Generated_Source\PSoC4/Timer.c **** *
1128:.\Generated_Source\PSoC4/Timer.c **** * Summary:
1129:.\Generated_Source\PSoC4/Timer.c **** *  Sets the start trigger mode. For Quadrature Decoder mode this is the
1130:.\Generated_Source\PSoC4/Timer.c **** *  phiB input.
1131:.\Generated_Source\PSoC4/Timer.c **** *
1132:.\Generated_Source\PSoC4/Timer.c **** * Parameters:
1133:.\Generated_Source\PSoC4/Timer.c **** *  triggerMode: Enumerated trigger mode value
1134:.\Generated_Source\PSoC4/Timer.c **** *   Values:
1135:.\Generated_Source\PSoC4/Timer.c **** *     - Timer_TRIG_LEVEL     - Level
1136:.\Generated_Source\PSoC4/Timer.c **** *     - Timer_TRIG_RISING    - Rising edge
1137:.\Generated_Source\PSoC4/Timer.c **** *     - Timer_TRIG_FALLING   - Falling edge
1138:.\Generated_Source\PSoC4/Timer.c **** *     - Timer_TRIG_BOTH      - Both rising and falling edge
1139:.\Generated_Source\PSoC4/Timer.c **** *
1140:.\Generated_Source\PSoC4/Timer.c **** * Return:
1141:.\Generated_Source\PSoC4/Timer.c **** *  None
1142:.\Generated_Source\PSoC4/Timer.c **** *
1143:.\Generated_Source\PSoC4/Timer.c **** *******************************************************************************/
1144:.\Generated_Source\PSoC4/Timer.c **** void Timer_SetStartMode(uint32 triggerMode)
1145:.\Generated_Source\PSoC4/Timer.c **** {
 1533              		.loc 1 1145 0
 1534              		.cfi_startproc
ARM GAS  C:\Users\Jared\AppData\Local\Temp\ccOOnCAQ.s 			page 48


 1535 0000 90B5     		push	{r4, r7, lr}
 1536              	.LCFI81:
 1537              		.cfi_def_cfa_offset 12
 1538              		.cfi_offset 4, -12
 1539              		.cfi_offset 7, -8
 1540              		.cfi_offset 14, -4
 1541 0002 85B0     		sub	sp, sp, #20
 1542              	.LCFI82:
 1543              		.cfi_def_cfa_offset 32
 1544 0004 00AF     		add	r7, sp, #0
 1545              	.LCFI83:
 1546              		.cfi_def_cfa_register 7
 1547 0006 7860     		str	r0, [r7, #4]
1146:.\Generated_Source\PSoC4/Timer.c ****     uint8 enableInterrupts;
1147:.\Generated_Source\PSoC4/Timer.c **** 
1148:.\Generated_Source\PSoC4/Timer.c ****     enableInterrupts = CyEnterCriticalSection();
 1548              		.loc 1 1148 0
 1549 0008 3C1C     		mov	r4, r7
 1550 000a 0F34     		add	r4, r4, #15
 1551 000c FFF7FEFF 		bl	CyEnterCriticalSection
 1552 0010 031C     		mov	r3, r0
 1553 0012 2370     		strb	r3, [r4]
1149:.\Generated_Source\PSoC4/Timer.c **** 
1150:.\Generated_Source\PSoC4/Timer.c ****     Timer_TRIG_CONTROL1_REG &= (uint32)~Timer_START_MASK;
 1554              		.loc 1 1150 0
 1555 0014 0A4B     		ldr	r3, .L100
 1556 0016 0A4A     		ldr	r2, .L100
 1557 0018 1168     		ldr	r1, [r2]
 1558 001a 0A4A     		ldr	r2, .L100+4
 1559 001c 0A40     		and	r2, r1
 1560 001e 1A60     		str	r2, [r3]
1151:.\Generated_Source\PSoC4/Timer.c ****     Timer_TRIG_CONTROL1_REG |= ((uint32)(triggerMode << Timer_START_SHIFT));
 1561              		.loc 1 1151 0
 1562 0020 074B     		ldr	r3, .L100
 1563 0022 074A     		ldr	r2, .L100
 1564 0024 1168     		ldr	r1, [r2]
 1565 0026 7A68     		ldr	r2, [r7, #4]
 1566 0028 1202     		lsl	r2, r2, #8
 1567 002a 0A43     		orr	r2, r1
 1568 002c 1A60     		str	r2, [r3]
1152:.\Generated_Source\PSoC4/Timer.c **** 
1153:.\Generated_Source\PSoC4/Timer.c ****     CyExitCriticalSection(enableInterrupts);
 1569              		.loc 1 1153 0
 1570 002e 3B1C     		mov	r3, r7
 1571 0030 0F33     		add	r3, r3, #15
 1572 0032 1B78     		ldrb	r3, [r3]
 1573 0034 181C     		mov	r0, r3
 1574 0036 FFF7FEFF 		bl	CyExitCriticalSection
1154:.\Generated_Source\PSoC4/Timer.c **** }
 1575              		.loc 1 1154 0
 1576 003a BD46     		mov	sp, r7
 1577 003c 05B0     		add	sp, sp, #20
 1578              		@ sp needed for prologue
 1579 003e 90BD     		pop	{r4, r7, pc}
 1580              	.L101:
 1581              		.align	2
 1582              	.L100:
ARM GAS  C:\Users\Jared\AppData\Local\Temp\ccOOnCAQ.s 			page 49


 1583 0040 A4010540 		.word	1074069924
 1584 0044 FFFCFFFF 		.word	-769
 1585              		.cfi_endproc
 1586              	.LFE30:
 1587              		.size	Timer_SetStartMode, .-Timer_SetStartMode
 1588              		.section	.text.Timer_SetStopMode,"ax",%progbits
 1589              		.align	2
 1590              		.global	Timer_SetStopMode
 1591              		.code	16
 1592              		.thumb_func
 1593              		.type	Timer_SetStopMode, %function
 1594              	Timer_SetStopMode:
 1595              	.LFB31:
1155:.\Generated_Source\PSoC4/Timer.c **** 
1156:.\Generated_Source\PSoC4/Timer.c **** 
1157:.\Generated_Source\PSoC4/Timer.c **** /*******************************************************************************
1158:.\Generated_Source\PSoC4/Timer.c **** * Function Name: Timer_SetStopMode
1159:.\Generated_Source\PSoC4/Timer.c **** ********************************************************************************
1160:.\Generated_Source\PSoC4/Timer.c **** *
1161:.\Generated_Source\PSoC4/Timer.c **** * Summary:
1162:.\Generated_Source\PSoC4/Timer.c **** *  Sets the stop trigger mode. For PWM mode this is the kill input.
1163:.\Generated_Source\PSoC4/Timer.c **** *
1164:.\Generated_Source\PSoC4/Timer.c **** * Parameters:
1165:.\Generated_Source\PSoC4/Timer.c **** *  triggerMode: Enumerated trigger mode value
1166:.\Generated_Source\PSoC4/Timer.c **** *   Values:
1167:.\Generated_Source\PSoC4/Timer.c **** *     - Timer_TRIG_LEVEL     - Level
1168:.\Generated_Source\PSoC4/Timer.c **** *     - Timer_TRIG_RISING    - Rising edge
1169:.\Generated_Source\PSoC4/Timer.c **** *     - Timer_TRIG_FALLING   - Falling edge
1170:.\Generated_Source\PSoC4/Timer.c **** *     - Timer_TRIG_BOTH      - Both rising and falling edge
1171:.\Generated_Source\PSoC4/Timer.c **** *
1172:.\Generated_Source\PSoC4/Timer.c **** * Return:
1173:.\Generated_Source\PSoC4/Timer.c **** *  None
1174:.\Generated_Source\PSoC4/Timer.c **** *
1175:.\Generated_Source\PSoC4/Timer.c **** *******************************************************************************/
1176:.\Generated_Source\PSoC4/Timer.c **** void Timer_SetStopMode(uint32 triggerMode)
1177:.\Generated_Source\PSoC4/Timer.c **** {
 1596              		.loc 1 1177 0
 1597              		.cfi_startproc
 1598 0000 90B5     		push	{r4, r7, lr}
 1599              	.LCFI84:
 1600              		.cfi_def_cfa_offset 12
 1601              		.cfi_offset 4, -12
 1602              		.cfi_offset 7, -8
 1603              		.cfi_offset 14, -4
 1604 0002 85B0     		sub	sp, sp, #20
 1605              	.LCFI85:
 1606              		.cfi_def_cfa_offset 32
 1607 0004 00AF     		add	r7, sp, #0
 1608              	.LCFI86:
 1609              		.cfi_def_cfa_register 7
 1610 0006 7860     		str	r0, [r7, #4]
1178:.\Generated_Source\PSoC4/Timer.c ****     uint8 enableInterrupts;
1179:.\Generated_Source\PSoC4/Timer.c **** 
1180:.\Generated_Source\PSoC4/Timer.c ****     enableInterrupts = CyEnterCriticalSection();
 1611              		.loc 1 1180 0
 1612 0008 3C1C     		mov	r4, r7
 1613 000a 0F34     		add	r4, r4, #15
ARM GAS  C:\Users\Jared\AppData\Local\Temp\ccOOnCAQ.s 			page 50


 1614 000c FFF7FEFF 		bl	CyEnterCriticalSection
 1615 0010 031C     		mov	r3, r0
 1616 0012 2370     		strb	r3, [r4]
1181:.\Generated_Source\PSoC4/Timer.c **** 
1182:.\Generated_Source\PSoC4/Timer.c ****     Timer_TRIG_CONTROL1_REG &= (uint32)~Timer_STOP_MASK;
 1617              		.loc 1 1182 0
 1618 0014 0A4B     		ldr	r3, .L103
 1619 0016 0A4A     		ldr	r2, .L103
 1620 0018 1268     		ldr	r2, [r2]
 1621 001a C021     		mov	r1, #192
 1622 001c 8A43     		bic	r2, r1
 1623 001e 1A60     		str	r2, [r3]
1183:.\Generated_Source\PSoC4/Timer.c ****     Timer_TRIG_CONTROL1_REG |= ((uint32)(triggerMode << Timer_STOP_SHIFT));
 1624              		.loc 1 1183 0
 1625 0020 074B     		ldr	r3, .L103
 1626 0022 074A     		ldr	r2, .L103
 1627 0024 1168     		ldr	r1, [r2]
 1628 0026 7A68     		ldr	r2, [r7, #4]
 1629 0028 9201     		lsl	r2, r2, #6
 1630 002a 0A43     		orr	r2, r1
 1631 002c 1A60     		str	r2, [r3]
1184:.\Generated_Source\PSoC4/Timer.c **** 
1185:.\Generated_Source\PSoC4/Timer.c ****     CyExitCriticalSection(enableInterrupts);
 1632              		.loc 1 1185 0
 1633 002e 3B1C     		mov	r3, r7
 1634 0030 0F33     		add	r3, r3, #15
 1635 0032 1B78     		ldrb	r3, [r3]
 1636 0034 181C     		mov	r0, r3
 1637 0036 FFF7FEFF 		bl	CyExitCriticalSection
1186:.\Generated_Source\PSoC4/Timer.c **** }
 1638              		.loc 1 1186 0
 1639 003a BD46     		mov	sp, r7
 1640 003c 05B0     		add	sp, sp, #20
 1641              		@ sp needed for prologue
 1642 003e 90BD     		pop	{r4, r7, pc}
 1643              	.L104:
 1644              		.align	2
 1645              	.L103:
 1646 0040 A4010540 		.word	1074069924
 1647              		.cfi_endproc
 1648              	.LFE31:
 1649              		.size	Timer_SetStopMode, .-Timer_SetStopMode
 1650              		.section	.text.Timer_SetCountMode,"ax",%progbits
 1651              		.align	2
 1652              		.global	Timer_SetCountMode
 1653              		.code	16
 1654              		.thumb_func
 1655              		.type	Timer_SetCountMode, %function
 1656              	Timer_SetCountMode:
 1657              	.LFB32:
1187:.\Generated_Source\PSoC4/Timer.c **** 
1188:.\Generated_Source\PSoC4/Timer.c **** 
1189:.\Generated_Source\PSoC4/Timer.c **** /*******************************************************************************
1190:.\Generated_Source\PSoC4/Timer.c **** * Function Name: Timer_SetCountMode
1191:.\Generated_Source\PSoC4/Timer.c **** ********************************************************************************
1192:.\Generated_Source\PSoC4/Timer.c **** *
1193:.\Generated_Source\PSoC4/Timer.c **** * Summary:
ARM GAS  C:\Users\Jared\AppData\Local\Temp\ccOOnCAQ.s 			page 51


1194:.\Generated_Source\PSoC4/Timer.c **** *  Sets the count trigger mode. For Quadrature Decoder mode this is the phiA
1195:.\Generated_Source\PSoC4/Timer.c **** *  input.
1196:.\Generated_Source\PSoC4/Timer.c **** *
1197:.\Generated_Source\PSoC4/Timer.c **** * Parameters:
1198:.\Generated_Source\PSoC4/Timer.c **** *  triggerMode: Enumerated trigger mode value
1199:.\Generated_Source\PSoC4/Timer.c **** *   Values:
1200:.\Generated_Source\PSoC4/Timer.c **** *     - Timer_TRIG_LEVEL     - Level
1201:.\Generated_Source\PSoC4/Timer.c **** *     - Timer_TRIG_RISING    - Rising edge
1202:.\Generated_Source\PSoC4/Timer.c **** *     - Timer_TRIG_FALLING   - Falling edge
1203:.\Generated_Source\PSoC4/Timer.c **** *     - Timer_TRIG_BOTH      - Both rising and falling edge
1204:.\Generated_Source\PSoC4/Timer.c **** *
1205:.\Generated_Source\PSoC4/Timer.c **** * Return:
1206:.\Generated_Source\PSoC4/Timer.c **** *  None
1207:.\Generated_Source\PSoC4/Timer.c **** *
1208:.\Generated_Source\PSoC4/Timer.c **** *******************************************************************************/
1209:.\Generated_Source\PSoC4/Timer.c **** void Timer_SetCountMode(uint32 triggerMode)
1210:.\Generated_Source\PSoC4/Timer.c **** {
 1658              		.loc 1 1210 0
 1659              		.cfi_startproc
 1660 0000 90B5     		push	{r4, r7, lr}
 1661              	.LCFI87:
 1662              		.cfi_def_cfa_offset 12
 1663              		.cfi_offset 4, -12
 1664              		.cfi_offset 7, -8
 1665              		.cfi_offset 14, -4
 1666 0002 85B0     		sub	sp, sp, #20
 1667              	.LCFI88:
 1668              		.cfi_def_cfa_offset 32
 1669 0004 00AF     		add	r7, sp, #0
 1670              	.LCFI89:
 1671              		.cfi_def_cfa_register 7
 1672 0006 7860     		str	r0, [r7, #4]
1211:.\Generated_Source\PSoC4/Timer.c ****     uint8 enableInterrupts;
1212:.\Generated_Source\PSoC4/Timer.c **** 
1213:.\Generated_Source\PSoC4/Timer.c ****     enableInterrupts = CyEnterCriticalSection();
 1673              		.loc 1 1213 0
 1674 0008 3C1C     		mov	r4, r7
 1675 000a 0F34     		add	r4, r4, #15
 1676 000c FFF7FEFF 		bl	CyEnterCriticalSection
 1677 0010 031C     		mov	r3, r0
 1678 0012 2370     		strb	r3, [r4]
1214:.\Generated_Source\PSoC4/Timer.c **** 
1215:.\Generated_Source\PSoC4/Timer.c ****     Timer_TRIG_CONTROL1_REG &= (uint32)~Timer_COUNT_MASK;
 1679              		.loc 1 1215 0
 1680 0014 0A4B     		ldr	r3, .L106
 1681 0016 0A4A     		ldr	r2, .L106
 1682 0018 1268     		ldr	r2, [r2]
 1683 001a 0C21     		mov	r1, #12
 1684 001c 8A43     		bic	r2, r1
 1685 001e 1A60     		str	r2, [r3]
1216:.\Generated_Source\PSoC4/Timer.c ****     Timer_TRIG_CONTROL1_REG |= ((uint32)(triggerMode << Timer_COUNT_SHIFT));
 1686              		.loc 1 1216 0
 1687 0020 074B     		ldr	r3, .L106
 1688 0022 074A     		ldr	r2, .L106
 1689 0024 1168     		ldr	r1, [r2]
 1690 0026 7A68     		ldr	r2, [r7, #4]
 1691 0028 9200     		lsl	r2, r2, #2
ARM GAS  C:\Users\Jared\AppData\Local\Temp\ccOOnCAQ.s 			page 52


 1692 002a 0A43     		orr	r2, r1
 1693 002c 1A60     		str	r2, [r3]
1217:.\Generated_Source\PSoC4/Timer.c **** 
1218:.\Generated_Source\PSoC4/Timer.c ****     CyExitCriticalSection(enableInterrupts);
 1694              		.loc 1 1218 0
 1695 002e 3B1C     		mov	r3, r7
 1696 0030 0F33     		add	r3, r3, #15
 1697 0032 1B78     		ldrb	r3, [r3]
 1698 0034 181C     		mov	r0, r3
 1699 0036 FFF7FEFF 		bl	CyExitCriticalSection
1219:.\Generated_Source\PSoC4/Timer.c **** }
 1700              		.loc 1 1219 0
 1701 003a BD46     		mov	sp, r7
 1702 003c 05B0     		add	sp, sp, #20
 1703              		@ sp needed for prologue
 1704 003e 90BD     		pop	{r4, r7, pc}
 1705              	.L107:
 1706              		.align	2
 1707              	.L106:
 1708 0040 A4010540 		.word	1074069924
 1709              		.cfi_endproc
 1710              	.LFE32:
 1711              		.size	Timer_SetCountMode, .-Timer_SetCountMode
 1712              		.section	.text.Timer_TriggerCommand,"ax",%progbits
 1713              		.align	2
 1714              		.global	Timer_TriggerCommand
 1715              		.code	16
 1716              		.thumb_func
 1717              		.type	Timer_TriggerCommand, %function
 1718              	Timer_TriggerCommand:
 1719              	.LFB33:
1220:.\Generated_Source\PSoC4/Timer.c **** 
1221:.\Generated_Source\PSoC4/Timer.c **** 
1222:.\Generated_Source\PSoC4/Timer.c **** /*******************************************************************************
1223:.\Generated_Source\PSoC4/Timer.c **** * Function Name: Timer_TriggerCommand
1224:.\Generated_Source\PSoC4/Timer.c **** ********************************************************************************
1225:.\Generated_Source\PSoC4/Timer.c **** *
1226:.\Generated_Source\PSoC4/Timer.c **** * Summary:
1227:.\Generated_Source\PSoC4/Timer.c **** *  Triggers the designated command to occur on the designated TCPWM instances.
1228:.\Generated_Source\PSoC4/Timer.c **** *  The mask can be used to apply this command simultaneously to more than one
1229:.\Generated_Source\PSoC4/Timer.c **** *  instance.  This allows multiple TCPWM instances to be synchronized.
1230:.\Generated_Source\PSoC4/Timer.c **** *
1231:.\Generated_Source\PSoC4/Timer.c **** * Parameters:
1232:.\Generated_Source\PSoC4/Timer.c **** *  mask: A combination of mask bits for each instance of the TCPWM that the
1233:.\Generated_Source\PSoC4/Timer.c **** *        command should apply to.  This function from one instance can be used
1234:.\Generated_Source\PSoC4/Timer.c **** *        to apply the command to any of the instances in the design.
1235:.\Generated_Source\PSoC4/Timer.c **** *        The mask value for a specific instance is available with the MASK
1236:.\Generated_Source\PSoC4/Timer.c **** *        define.
1237:.\Generated_Source\PSoC4/Timer.c **** *  command: Enumerated command values. Capture command only applicable for
1238:.\Generated_Source\PSoC4/Timer.c **** *           Timer/Counter with Capture and PWM modes.
1239:.\Generated_Source\PSoC4/Timer.c **** *   Values:
1240:.\Generated_Source\PSoC4/Timer.c **** *     - Timer_CMD_CAPTURE    - Trigger Capture command
1241:.\Generated_Source\PSoC4/Timer.c **** *     - Timer_CMD_RELOAD     - Trigger Reload command
1242:.\Generated_Source\PSoC4/Timer.c **** *     - Timer_CMD_STOP       - Trigger Stop command
1243:.\Generated_Source\PSoC4/Timer.c **** *     - Timer_CMD_START      - Trigger Start command
1244:.\Generated_Source\PSoC4/Timer.c **** *
1245:.\Generated_Source\PSoC4/Timer.c **** * Return:
ARM GAS  C:\Users\Jared\AppData\Local\Temp\ccOOnCAQ.s 			page 53


1246:.\Generated_Source\PSoC4/Timer.c **** *  None
1247:.\Generated_Source\PSoC4/Timer.c **** *
1248:.\Generated_Source\PSoC4/Timer.c **** *******************************************************************************/
1249:.\Generated_Source\PSoC4/Timer.c **** void Timer_TriggerCommand(uint32 mask, uint32 command)
1250:.\Generated_Source\PSoC4/Timer.c **** {
 1720              		.loc 1 1250 0
 1721              		.cfi_startproc
 1722 0000 90B5     		push	{r4, r7, lr}
 1723              	.LCFI90:
 1724              		.cfi_def_cfa_offset 12
 1725              		.cfi_offset 4, -12
 1726              		.cfi_offset 7, -8
 1727              		.cfi_offset 14, -4
 1728 0002 85B0     		sub	sp, sp, #20
 1729              	.LCFI91:
 1730              		.cfi_def_cfa_offset 32
 1731 0004 00AF     		add	r7, sp, #0
 1732              	.LCFI92:
 1733              		.cfi_def_cfa_register 7
 1734 0006 7860     		str	r0, [r7, #4]
 1735 0008 3960     		str	r1, [r7]
1251:.\Generated_Source\PSoC4/Timer.c ****     uint8 enableInterrupts;
1252:.\Generated_Source\PSoC4/Timer.c **** 
1253:.\Generated_Source\PSoC4/Timer.c ****     enableInterrupts = CyEnterCriticalSection();
 1736              		.loc 1 1253 0
 1737 000a 3C1C     		mov	r4, r7
 1738 000c 0F34     		add	r4, r4, #15
 1739 000e FFF7FEFF 		bl	CyEnterCriticalSection
 1740 0012 031C     		mov	r3, r0
 1741 0014 2370     		strb	r3, [r4]
1254:.\Generated_Source\PSoC4/Timer.c **** 
1255:.\Generated_Source\PSoC4/Timer.c ****     Timer_COMMAND_REG = ((uint32)(mask << command));
 1742              		.loc 1 1255 0
 1743 0016 084B     		ldr	r3, .L109
 1744 0018 3A68     		ldr	r2, [r7]
 1745 001a 7968     		ldr	r1, [r7, #4]
 1746 001c 081C     		mov	r0, r1
 1747 001e 9040     		lsl	r0, r0, r2
 1748 0020 021C     		mov	r2, r0
 1749 0022 1A60     		str	r2, [r3]
1256:.\Generated_Source\PSoC4/Timer.c **** 
1257:.\Generated_Source\PSoC4/Timer.c ****     CyExitCriticalSection(enableInterrupts);
 1750              		.loc 1 1257 0
 1751 0024 3B1C     		mov	r3, r7
 1752 0026 0F33     		add	r3, r3, #15
 1753 0028 1B78     		ldrb	r3, [r3]
 1754 002a 181C     		mov	r0, r3
 1755 002c FFF7FEFF 		bl	CyExitCriticalSection
1258:.\Generated_Source\PSoC4/Timer.c **** }
 1756              		.loc 1 1258 0
 1757 0030 BD46     		mov	sp, r7
 1758 0032 05B0     		add	sp, sp, #20
 1759              		@ sp needed for prologue
 1760 0034 90BD     		pop	{r4, r7, pc}
 1761              	.L110:
 1762 0036 C046     		.align	2
 1763              	.L109:
ARM GAS  C:\Users\Jared\AppData\Local\Temp\ccOOnCAQ.s 			page 54


 1764 0038 08000540 		.word	1074069512
 1765              		.cfi_endproc
 1766              	.LFE33:
 1767              		.size	Timer_TriggerCommand, .-Timer_TriggerCommand
 1768              		.section	.text.Timer_ReadStatus,"ax",%progbits
 1769              		.align	2
 1770              		.global	Timer_ReadStatus
 1771              		.code	16
 1772              		.thumb_func
 1773              		.type	Timer_ReadStatus, %function
 1774              	Timer_ReadStatus:
 1775              	.LFB34:
1259:.\Generated_Source\PSoC4/Timer.c **** 
1260:.\Generated_Source\PSoC4/Timer.c **** 
1261:.\Generated_Source\PSoC4/Timer.c **** /*******************************************************************************
1262:.\Generated_Source\PSoC4/Timer.c **** * Function Name: Timer_ReadStatus
1263:.\Generated_Source\PSoC4/Timer.c **** ********************************************************************************
1264:.\Generated_Source\PSoC4/Timer.c **** *
1265:.\Generated_Source\PSoC4/Timer.c **** * Summary:
1266:.\Generated_Source\PSoC4/Timer.c **** *  Reads the status of the Timer.
1267:.\Generated_Source\PSoC4/Timer.c **** *
1268:.\Generated_Source\PSoC4/Timer.c **** * Parameters:
1269:.\Generated_Source\PSoC4/Timer.c **** *  None
1270:.\Generated_Source\PSoC4/Timer.c **** *
1271:.\Generated_Source\PSoC4/Timer.c **** * Return:
1272:.\Generated_Source\PSoC4/Timer.c **** *  Status
1273:.\Generated_Source\PSoC4/Timer.c **** *   Values:
1274:.\Generated_Source\PSoC4/Timer.c **** *     - Timer_STATUS_DOWN    - Set if counting down
1275:.\Generated_Source\PSoC4/Timer.c **** *     - Timer_STATUS_RUNNING - Set if counter is running
1276:.\Generated_Source\PSoC4/Timer.c **** *
1277:.\Generated_Source\PSoC4/Timer.c **** *******************************************************************************/
1278:.\Generated_Source\PSoC4/Timer.c **** uint32 Timer_ReadStatus(void)
1279:.\Generated_Source\PSoC4/Timer.c **** {
 1776              		.loc 1 1279 0
 1777              		.cfi_startproc
 1778 0000 80B5     		push	{r7, lr}
 1779              	.LCFI93:
 1780              		.cfi_def_cfa_offset 8
 1781              		.cfi_offset 7, -8
 1782              		.cfi_offset 14, -4
 1783 0002 00AF     		add	r7, sp, #0
 1784              	.LCFI94:
 1785              		.cfi_def_cfa_register 7
1280:.\Generated_Source\PSoC4/Timer.c ****     return ((Timer_STATUS_REG >> Timer_RUNNING_STATUS_SHIFT) |
 1786              		.loc 1 1280 0
 1787 0004 054B     		ldr	r3, .L113
 1788 0006 1B68     		ldr	r3, [r3]
 1789 0008 9A0F     		lsr	r2, r3, #30
1281:.\Generated_Source\PSoC4/Timer.c ****             (Timer_STATUS_REG & Timer_STATUS_DOWN));
 1790              		.loc 1 1281 0
 1791 000a 044B     		ldr	r3, .L113
 1792 000c 1968     		ldr	r1, [r3]
 1793 000e 0123     		mov	r3, #1
 1794 0010 0B40     		and	r3, r1
1280:.\Generated_Source\PSoC4/Timer.c ****     return ((Timer_STATUS_REG >> Timer_RUNNING_STATUS_SHIFT) |
 1795              		.loc 1 1280 0
 1796 0012 1343     		orr	r3, r2
ARM GAS  C:\Users\Jared\AppData\Local\Temp\ccOOnCAQ.s 			page 55


1282:.\Generated_Source\PSoC4/Timer.c **** }
 1797              		.loc 1 1282 0
 1798 0014 181C     		mov	r0, r3
 1799 0016 BD46     		mov	sp, r7
 1800              		@ sp needed for prologue
 1801 0018 80BD     		pop	{r7, pc}
 1802              	.L114:
 1803 001a C046     		.align	2
 1804              	.L113:
 1805 001c 84010540 		.word	1074069892
 1806              		.cfi_endproc
 1807              	.LFE34:
 1808              		.size	Timer_ReadStatus, .-Timer_ReadStatus
 1809              		.section	.text.Timer_SetInterruptMode,"ax",%progbits
 1810              		.align	2
 1811              		.global	Timer_SetInterruptMode
 1812              		.code	16
 1813              		.thumb_func
 1814              		.type	Timer_SetInterruptMode, %function
 1815              	Timer_SetInterruptMode:
 1816              	.LFB35:
1283:.\Generated_Source\PSoC4/Timer.c **** 
1284:.\Generated_Source\PSoC4/Timer.c **** 
1285:.\Generated_Source\PSoC4/Timer.c **** /*******************************************************************************
1286:.\Generated_Source\PSoC4/Timer.c **** * Function Name: Timer_SetInterruptMode
1287:.\Generated_Source\PSoC4/Timer.c **** ********************************************************************************
1288:.\Generated_Source\PSoC4/Timer.c **** *
1289:.\Generated_Source\PSoC4/Timer.c **** * Summary:
1290:.\Generated_Source\PSoC4/Timer.c **** *  Sets the interrupt mask to control which interrupt
1291:.\Generated_Source\PSoC4/Timer.c **** *  requests generate the interrupt signal.
1292:.\Generated_Source\PSoC4/Timer.c **** *
1293:.\Generated_Source\PSoC4/Timer.c **** * Parameters:
1294:.\Generated_Source\PSoC4/Timer.c **** *   interruptMask: Mask of bits to be enabled
1295:.\Generated_Source\PSoC4/Timer.c **** *   Values:
1296:.\Generated_Source\PSoC4/Timer.c **** *     - Timer_INTR_MASK_TC       - Terminal count mask
1297:.\Generated_Source\PSoC4/Timer.c **** *     - Timer_INTR_MASK_CC_MATCH - Compare count / capture mask
1298:.\Generated_Source\PSoC4/Timer.c **** *
1299:.\Generated_Source\PSoC4/Timer.c **** * Return:
1300:.\Generated_Source\PSoC4/Timer.c **** *  None
1301:.\Generated_Source\PSoC4/Timer.c **** *
1302:.\Generated_Source\PSoC4/Timer.c **** *******************************************************************************/
1303:.\Generated_Source\PSoC4/Timer.c **** void Timer_SetInterruptMode(uint32 interruptMask)
1304:.\Generated_Source\PSoC4/Timer.c **** {
 1817              		.loc 1 1304 0
 1818              		.cfi_startproc
 1819 0000 80B5     		push	{r7, lr}
 1820              	.LCFI95:
 1821              		.cfi_def_cfa_offset 8
 1822              		.cfi_offset 7, -8
 1823              		.cfi_offset 14, -4
 1824 0002 82B0     		sub	sp, sp, #8
 1825              	.LCFI96:
 1826              		.cfi_def_cfa_offset 16
 1827 0004 00AF     		add	r7, sp, #0
 1828              	.LCFI97:
 1829              		.cfi_def_cfa_register 7
 1830 0006 7860     		str	r0, [r7, #4]
ARM GAS  C:\Users\Jared\AppData\Local\Temp\ccOOnCAQ.s 			page 56


1305:.\Generated_Source\PSoC4/Timer.c ****     Timer_INTERRUPT_MASK_REG =  interruptMask;
 1831              		.loc 1 1305 0
 1832 0008 024B     		ldr	r3, .L116
 1833 000a 7A68     		ldr	r2, [r7, #4]
 1834 000c 1A60     		str	r2, [r3]
1306:.\Generated_Source\PSoC4/Timer.c **** }
 1835              		.loc 1 1306 0
 1836 000e BD46     		mov	sp, r7
 1837 0010 02B0     		add	sp, sp, #8
 1838              		@ sp needed for prologue
 1839 0012 80BD     		pop	{r7, pc}
 1840              	.L117:
 1841              		.align	2
 1842              	.L116:
 1843 0014 B8010540 		.word	1074069944
 1844              		.cfi_endproc
 1845              	.LFE35:
 1846              		.size	Timer_SetInterruptMode, .-Timer_SetInterruptMode
 1847              		.section	.text.Timer_GetInterruptSourceMasked,"ax",%progbits
 1848              		.align	2
 1849              		.global	Timer_GetInterruptSourceMasked
 1850              		.code	16
 1851              		.thumb_func
 1852              		.type	Timer_GetInterruptSourceMasked, %function
 1853              	Timer_GetInterruptSourceMasked:
 1854              	.LFB36:
1307:.\Generated_Source\PSoC4/Timer.c **** 
1308:.\Generated_Source\PSoC4/Timer.c **** 
1309:.\Generated_Source\PSoC4/Timer.c **** /*******************************************************************************
1310:.\Generated_Source\PSoC4/Timer.c **** * Function Name: Timer_GetInterruptSourceMasked
1311:.\Generated_Source\PSoC4/Timer.c **** ********************************************************************************
1312:.\Generated_Source\PSoC4/Timer.c **** *
1313:.\Generated_Source\PSoC4/Timer.c **** * Summary:
1314:.\Generated_Source\PSoC4/Timer.c **** *  Gets the interrupt requests masked by the interrupt mask.
1315:.\Generated_Source\PSoC4/Timer.c **** *
1316:.\Generated_Source\PSoC4/Timer.c **** * Parameters:
1317:.\Generated_Source\PSoC4/Timer.c **** *   None
1318:.\Generated_Source\PSoC4/Timer.c **** *
1319:.\Generated_Source\PSoC4/Timer.c **** * Return:
1320:.\Generated_Source\PSoC4/Timer.c **** *  Masked interrupt source
1321:.\Generated_Source\PSoC4/Timer.c **** *   Values:
1322:.\Generated_Source\PSoC4/Timer.c **** *     - Timer_INTR_MASK_TC       - Terminal count mask
1323:.\Generated_Source\PSoC4/Timer.c **** *     - Timer_INTR_MASK_CC_MATCH - Compare count / capture mask
1324:.\Generated_Source\PSoC4/Timer.c **** *
1325:.\Generated_Source\PSoC4/Timer.c **** *******************************************************************************/
1326:.\Generated_Source\PSoC4/Timer.c **** uint32 Timer_GetInterruptSourceMasked(void)
1327:.\Generated_Source\PSoC4/Timer.c **** {
 1855              		.loc 1 1327 0
 1856              		.cfi_startproc
 1857 0000 80B5     		push	{r7, lr}
 1858              	.LCFI98:
 1859              		.cfi_def_cfa_offset 8
 1860              		.cfi_offset 7, -8
 1861              		.cfi_offset 14, -4
 1862 0002 00AF     		add	r7, sp, #0
 1863              	.LCFI99:
 1864              		.cfi_def_cfa_register 7
ARM GAS  C:\Users\Jared\AppData\Local\Temp\ccOOnCAQ.s 			page 57


1328:.\Generated_Source\PSoC4/Timer.c ****     return (Timer_INTERRUPT_MASKED_REG);
 1865              		.loc 1 1328 0
 1866 0004 024B     		ldr	r3, .L120
 1867 0006 1B68     		ldr	r3, [r3]
1329:.\Generated_Source\PSoC4/Timer.c **** }
 1868              		.loc 1 1329 0
 1869 0008 181C     		mov	r0, r3
 1870 000a BD46     		mov	sp, r7
 1871              		@ sp needed for prologue
 1872 000c 80BD     		pop	{r7, pc}
 1873              	.L121:
 1874 000e C046     		.align	2
 1875              	.L120:
 1876 0010 BC010540 		.word	1074069948
 1877              		.cfi_endproc
 1878              	.LFE36:
 1879              		.size	Timer_GetInterruptSourceMasked, .-Timer_GetInterruptSourceMasked
 1880              		.section	.text.Timer_GetInterruptSource,"ax",%progbits
 1881              		.align	2
 1882              		.global	Timer_GetInterruptSource
 1883              		.code	16
 1884              		.thumb_func
 1885              		.type	Timer_GetInterruptSource, %function
 1886              	Timer_GetInterruptSource:
 1887              	.LFB37:
1330:.\Generated_Source\PSoC4/Timer.c **** 
1331:.\Generated_Source\PSoC4/Timer.c **** 
1332:.\Generated_Source\PSoC4/Timer.c **** /*******************************************************************************
1333:.\Generated_Source\PSoC4/Timer.c **** * Function Name: Timer_GetInterruptSource
1334:.\Generated_Source\PSoC4/Timer.c **** ********************************************************************************
1335:.\Generated_Source\PSoC4/Timer.c **** *
1336:.\Generated_Source\PSoC4/Timer.c **** * Summary:
1337:.\Generated_Source\PSoC4/Timer.c **** *  Gets the interrupt requests (without masking).
1338:.\Generated_Source\PSoC4/Timer.c **** *
1339:.\Generated_Source\PSoC4/Timer.c **** * Parameters:
1340:.\Generated_Source\PSoC4/Timer.c **** *  None
1341:.\Generated_Source\PSoC4/Timer.c **** *
1342:.\Generated_Source\PSoC4/Timer.c **** * Return:
1343:.\Generated_Source\PSoC4/Timer.c **** *  Interrupt request value
1344:.\Generated_Source\PSoC4/Timer.c **** *   Values:
1345:.\Generated_Source\PSoC4/Timer.c **** *     - Timer_INTR_MASK_TC       - Terminal count mask
1346:.\Generated_Source\PSoC4/Timer.c **** *     - Timer_INTR_MASK_CC_MATCH - Compare count / capture mask
1347:.\Generated_Source\PSoC4/Timer.c **** *
1348:.\Generated_Source\PSoC4/Timer.c **** *******************************************************************************/
1349:.\Generated_Source\PSoC4/Timer.c **** uint32 Timer_GetInterruptSource(void)
1350:.\Generated_Source\PSoC4/Timer.c **** {
 1888              		.loc 1 1350 0
 1889              		.cfi_startproc
 1890 0000 80B5     		push	{r7, lr}
 1891              	.LCFI100:
 1892              		.cfi_def_cfa_offset 8
 1893              		.cfi_offset 7, -8
 1894              		.cfi_offset 14, -4
 1895 0002 00AF     		add	r7, sp, #0
 1896              	.LCFI101:
 1897              		.cfi_def_cfa_register 7
1351:.\Generated_Source\PSoC4/Timer.c ****     return (Timer_INTERRUPT_REQ_REG);
ARM GAS  C:\Users\Jared\AppData\Local\Temp\ccOOnCAQ.s 			page 58


 1898              		.loc 1 1351 0
 1899 0004 024B     		ldr	r3, .L124
 1900 0006 1B68     		ldr	r3, [r3]
1352:.\Generated_Source\PSoC4/Timer.c **** }
 1901              		.loc 1 1352 0
 1902 0008 181C     		mov	r0, r3
 1903 000a BD46     		mov	sp, r7
 1904              		@ sp needed for prologue
 1905 000c 80BD     		pop	{r7, pc}
 1906              	.L125:
 1907 000e C046     		.align	2
 1908              	.L124:
 1909 0010 B0010540 		.word	1074069936
 1910              		.cfi_endproc
 1911              	.LFE37:
 1912              		.size	Timer_GetInterruptSource, .-Timer_GetInterruptSource
 1913              		.section	.text.Timer_ClearInterrupt,"ax",%progbits
 1914              		.align	2
 1915              		.global	Timer_ClearInterrupt
 1916              		.code	16
 1917              		.thumb_func
 1918              		.type	Timer_ClearInterrupt, %function
 1919              	Timer_ClearInterrupt:
 1920              	.LFB38:
1353:.\Generated_Source\PSoC4/Timer.c **** 
1354:.\Generated_Source\PSoC4/Timer.c **** 
1355:.\Generated_Source\PSoC4/Timer.c **** /*******************************************************************************
1356:.\Generated_Source\PSoC4/Timer.c **** * Function Name: Timer_ClearInterrupt
1357:.\Generated_Source\PSoC4/Timer.c **** ********************************************************************************
1358:.\Generated_Source\PSoC4/Timer.c **** *
1359:.\Generated_Source\PSoC4/Timer.c **** * Summary:
1360:.\Generated_Source\PSoC4/Timer.c **** *  Clears the interrupt request.
1361:.\Generated_Source\PSoC4/Timer.c **** *
1362:.\Generated_Source\PSoC4/Timer.c **** * Parameters:
1363:.\Generated_Source\PSoC4/Timer.c **** *   interruptMask: Mask of interrupts to clear
1364:.\Generated_Source\PSoC4/Timer.c **** *   Values:
1365:.\Generated_Source\PSoC4/Timer.c **** *     - Timer_INTR_MASK_TC       - Terminal count mask
1366:.\Generated_Source\PSoC4/Timer.c **** *     - Timer_INTR_MASK_CC_MATCH - Compare count / capture mask
1367:.\Generated_Source\PSoC4/Timer.c **** *
1368:.\Generated_Source\PSoC4/Timer.c **** * Return:
1369:.\Generated_Source\PSoC4/Timer.c **** *  None
1370:.\Generated_Source\PSoC4/Timer.c **** *
1371:.\Generated_Source\PSoC4/Timer.c **** *******************************************************************************/
1372:.\Generated_Source\PSoC4/Timer.c **** void Timer_ClearInterrupt(uint32 interruptMask)
1373:.\Generated_Source\PSoC4/Timer.c **** {
 1921              		.loc 1 1373 0
 1922              		.cfi_startproc
 1923 0000 80B5     		push	{r7, lr}
 1924              	.LCFI102:
 1925              		.cfi_def_cfa_offset 8
 1926              		.cfi_offset 7, -8
 1927              		.cfi_offset 14, -4
 1928 0002 82B0     		sub	sp, sp, #8
 1929              	.LCFI103:
 1930              		.cfi_def_cfa_offset 16
 1931 0004 00AF     		add	r7, sp, #0
 1932              	.LCFI104:
ARM GAS  C:\Users\Jared\AppData\Local\Temp\ccOOnCAQ.s 			page 59


 1933              		.cfi_def_cfa_register 7
 1934 0006 7860     		str	r0, [r7, #4]
1374:.\Generated_Source\PSoC4/Timer.c ****     Timer_INTERRUPT_REQ_REG = interruptMask;
 1935              		.loc 1 1374 0
 1936 0008 024B     		ldr	r3, .L127
 1937 000a 7A68     		ldr	r2, [r7, #4]
 1938 000c 1A60     		str	r2, [r3]
1375:.\Generated_Source\PSoC4/Timer.c **** }
 1939              		.loc 1 1375 0
 1940 000e BD46     		mov	sp, r7
 1941 0010 02B0     		add	sp, sp, #8
 1942              		@ sp needed for prologue
 1943 0012 80BD     		pop	{r7, pc}
 1944              	.L128:
 1945              		.align	2
 1946              	.L127:
 1947 0014 B0010540 		.word	1074069936
 1948              		.cfi_endproc
 1949              	.LFE38:
 1950              		.size	Timer_ClearInterrupt, .-Timer_ClearInterrupt
 1951              		.section	.text.Timer_SetInterrupt,"ax",%progbits
 1952              		.align	2
 1953              		.global	Timer_SetInterrupt
 1954              		.code	16
 1955              		.thumb_func
 1956              		.type	Timer_SetInterrupt, %function
 1957              	Timer_SetInterrupt:
 1958              	.LFB39:
1376:.\Generated_Source\PSoC4/Timer.c **** 
1377:.\Generated_Source\PSoC4/Timer.c **** 
1378:.\Generated_Source\PSoC4/Timer.c **** /*******************************************************************************
1379:.\Generated_Source\PSoC4/Timer.c **** * Function Name: Timer_SetInterrupt
1380:.\Generated_Source\PSoC4/Timer.c **** ********************************************************************************
1381:.\Generated_Source\PSoC4/Timer.c **** *
1382:.\Generated_Source\PSoC4/Timer.c **** * Summary:
1383:.\Generated_Source\PSoC4/Timer.c **** *  Sets a software interrupt request.
1384:.\Generated_Source\PSoC4/Timer.c **** *
1385:.\Generated_Source\PSoC4/Timer.c **** * Parameters:
1386:.\Generated_Source\PSoC4/Timer.c **** *   interruptMask: Mask of interrupts to set
1387:.\Generated_Source\PSoC4/Timer.c **** *   Values:
1388:.\Generated_Source\PSoC4/Timer.c **** *     - Timer_INTR_MASK_TC       - Terminal count mask
1389:.\Generated_Source\PSoC4/Timer.c **** *     - Timer_INTR_MASK_CC_MATCH - Compare count / capture mask
1390:.\Generated_Source\PSoC4/Timer.c **** *
1391:.\Generated_Source\PSoC4/Timer.c **** * Return:
1392:.\Generated_Source\PSoC4/Timer.c **** *  None
1393:.\Generated_Source\PSoC4/Timer.c **** *
1394:.\Generated_Source\PSoC4/Timer.c **** *******************************************************************************/
1395:.\Generated_Source\PSoC4/Timer.c **** void Timer_SetInterrupt(uint32 interruptMask)
1396:.\Generated_Source\PSoC4/Timer.c **** {
 1959              		.loc 1 1396 0
 1960              		.cfi_startproc
 1961 0000 80B5     		push	{r7, lr}
 1962              	.LCFI105:
 1963              		.cfi_def_cfa_offset 8
 1964              		.cfi_offset 7, -8
 1965              		.cfi_offset 14, -4
 1966 0002 82B0     		sub	sp, sp, #8
ARM GAS  C:\Users\Jared\AppData\Local\Temp\ccOOnCAQ.s 			page 60


 1967              	.LCFI106:
 1968              		.cfi_def_cfa_offset 16
 1969 0004 00AF     		add	r7, sp, #0
 1970              	.LCFI107:
 1971              		.cfi_def_cfa_register 7
 1972 0006 7860     		str	r0, [r7, #4]
1397:.\Generated_Source\PSoC4/Timer.c ****     Timer_INTERRUPT_SET_REG = interruptMask;
 1973              		.loc 1 1397 0
 1974 0008 024B     		ldr	r3, .L130
 1975 000a 7A68     		ldr	r2, [r7, #4]
 1976 000c 1A60     		str	r2, [r3]
1398:.\Generated_Source\PSoC4/Timer.c **** }
 1977              		.loc 1 1398 0
 1978 000e BD46     		mov	sp, r7
 1979 0010 02B0     		add	sp, sp, #8
 1980              		@ sp needed for prologue
 1981 0012 80BD     		pop	{r7, pc}
 1982              	.L131:
 1983              		.align	2
 1984              	.L130:
 1985 0014 B4010540 		.word	1074069940
 1986              		.cfi_endproc
 1987              	.LFE39:
 1988              		.size	Timer_SetInterrupt, .-Timer_SetInterrupt
 1989              		.text
 1990              	.Letext0:
 1991              		.file 2 ".\\Generated_Source\\PSoC4\\cytypes.h"
 1992              		.section	.debug_info,"",%progbits
 1993              	.Ldebug_info0:
 1994 0000 BA070000 		.4byte	0x7ba
 1995 0004 0200     		.2byte	0x2
 1996 0006 00000000 		.4byte	.Ldebug_abbrev0
 1997 000a 04       		.byte	0x4
 1998 000b 01       		.uleb128 0x1
 1999 000c DE030000 		.4byte	.LASF76
 2000 0010 01       		.byte	0x1
 2001 0011 26020000 		.4byte	.LASF77
 2002 0015 5F010000 		.4byte	.LASF78
 2003 0019 00000000 		.4byte	.Ldebug_ranges0+0
 2004 001d 00000000 		.4byte	0
 2005 0021 00000000 		.4byte	0
 2006 0025 00000000 		.4byte	.Ldebug_line0
 2007 0029 02       		.uleb128 0x2
 2008 002a 01       		.byte	0x1
 2009 002b 06       		.byte	0x6
 2010 002c D4000000 		.4byte	.LASF0
 2011 0030 02       		.uleb128 0x2
 2012 0031 01       		.byte	0x1
 2013 0032 08       		.byte	0x8
 2014 0033 27040000 		.4byte	.LASF1
 2015 0037 02       		.uleb128 0x2
 2016 0038 02       		.byte	0x2
 2017 0039 05       		.byte	0x5
 2018 003a 46040000 		.4byte	.LASF2
 2019 003e 02       		.uleb128 0x2
 2020 003f 02       		.byte	0x2
 2021 0040 07       		.byte	0x7
ARM GAS  C:\Users\Jared\AppData\Local\Temp\ccOOnCAQ.s 			page 61


 2022 0041 90020000 		.4byte	.LASF3
 2023 0045 02       		.uleb128 0x2
 2024 0046 04       		.byte	0x4
 2025 0047 05       		.byte	0x5
 2026 0048 0B010000 		.4byte	.LASF4
 2027 004c 02       		.uleb128 0x2
 2028 004d 04       		.byte	0x4
 2029 004e 07       		.byte	0x7
 2030 004f 68020000 		.4byte	.LASF5
 2031 0053 02       		.uleb128 0x2
 2032 0054 08       		.byte	0x8
 2033 0055 05       		.byte	0x5
 2034 0056 C6000000 		.4byte	.LASF6
 2035 005a 02       		.uleb128 0x2
 2036 005b 08       		.byte	0x8
 2037 005c 07       		.byte	0x7
 2038 005d 7E000000 		.4byte	.LASF7
 2039 0061 03       		.uleb128 0x3
 2040 0062 04       		.byte	0x4
 2041 0063 05       		.byte	0x5
 2042 0064 696E7400 		.ascii	"int\000"
 2043 0068 02       		.uleb128 0x2
 2044 0069 04       		.byte	0x4
 2045 006a 07       		.byte	0x7
 2046 006b 47020000 		.4byte	.LASF8
 2047 006f 04       		.uleb128 0x4
 2048 0070 52010000 		.4byte	.LASF9
 2049 0074 02       		.byte	0x2
 2050 0075 5B       		.byte	0x5b
 2051 0076 30000000 		.4byte	0x30
 2052 007a 04       		.uleb128 0x4
 2053 007b CA010000 		.4byte	.LASF10
 2054 007f 02       		.byte	0x2
 2055 0080 5D       		.byte	0x5d
 2056 0081 4C000000 		.4byte	0x4c
 2057 0085 02       		.uleb128 0x2
 2058 0086 04       		.byte	0x4
 2059 0087 04       		.byte	0x4
 2060 0088 82030000 		.4byte	.LASF11
 2061 008c 02       		.uleb128 0x2
 2062 008d 08       		.byte	0x8
 2063 008e 04       		.byte	0x4
 2064 008f 58010000 		.4byte	.LASF12
 2065 0093 02       		.uleb128 0x2
 2066 0094 01       		.byte	0x1
 2067 0095 08       		.byte	0x8
 2068 0096 91040000 		.4byte	.LASF13
 2069 009a 04       		.uleb128 0x4
 2070 009b 00030000 		.4byte	.LASF14
 2071 009f 02       		.byte	0x2
 2072 00a0 F2       		.byte	0xf2
 2073 00a1 A5000000 		.4byte	0xa5
 2074 00a5 05       		.uleb128 0x5
 2075 00a6 7A000000 		.4byte	0x7a
 2076 00aa 02       		.uleb128 0x2
 2077 00ab 04       		.byte	0x4
 2078 00ac 07       		.byte	0x7
ARM GAS  C:\Users\Jared\AppData\Local\Temp\ccOOnCAQ.s 			page 62


 2079 00ad 1B030000 		.4byte	.LASF15
 2080 00b1 06       		.uleb128 0x6
 2081 00b2 01       		.byte	0x1
 2082 00b3 71040000 		.4byte	.LASF16
 2083 00b7 01       		.byte	0x1
 2084 00b8 27       		.byte	0x27
 2085 00b9 01       		.byte	0x1
 2086 00ba 00000000 		.4byte	.LFB0
 2087 00be 34000000 		.4byte	.LFE0
 2088 00c2 00000000 		.4byte	.LLST0
 2089 00c6 01       		.byte	0x1
 2090 00c7 07       		.uleb128 0x7
 2091 00c8 01       		.byte	0x1
 2092 00c9 83020000 		.4byte	.LASF18
 2093 00cd 01       		.byte	0x1
 2094 00ce C8       		.byte	0xc8
 2095 00cf 01       		.byte	0x1
 2096 00d0 00000000 		.4byte	.LFB1
 2097 00d4 38000000 		.4byte	.LFE1
 2098 00d8 2C000000 		.4byte	.LLST1
 2099 00dc 01       		.byte	0x1
 2100 00dd F0000000 		.4byte	0xf0
 2101 00e1 08       		.uleb128 0x8
 2102 00e2 D7040000 		.4byte	.LASF20
 2103 00e6 01       		.byte	0x1
 2104 00e7 CA       		.byte	0xca
 2105 00e8 6F000000 		.4byte	0x6f
 2106 00ec 02       		.byte	0x2
 2107 00ed 91       		.byte	0x91
 2108 00ee 6F       		.sleb128 -17
 2109 00ef 00       		.byte	0
 2110 00f0 06       		.uleb128 0x6
 2111 00f1 01       		.byte	0x1
 2112 00f2 54020000 		.4byte	.LASF17
 2113 00f6 01       		.byte	0x1
 2114 00f7 F7       		.byte	0xf7
 2115 00f8 01       		.byte	0x1
 2116 00f9 00000000 		.4byte	.LFB2
 2117 00fd 24000000 		.4byte	.LFE2
 2118 0101 64000000 		.4byte	.LLST2
 2119 0105 01       		.byte	0x1
 2120 0106 09       		.uleb128 0x9
 2121 0107 01       		.byte	0x1
 2122 0108 C8020000 		.4byte	.LASF19
 2123 010c 01       		.byte	0x1
 2124 010d 1101     		.2byte	0x111
 2125 010f 01       		.byte	0x1
 2126 0110 00000000 		.4byte	.LFB3
 2127 0114 30000000 		.4byte	.LFE3
 2128 0118 90000000 		.4byte	.LLST3
 2129 011c 01       		.byte	0x1
 2130 011d 31010000 		.4byte	0x131
 2131 0121 0A       		.uleb128 0xa
 2132 0122 D7040000 		.4byte	.LASF20
 2133 0126 01       		.byte	0x1
 2134 0127 1301     		.2byte	0x113
 2135 0129 6F000000 		.4byte	0x6f
ARM GAS  C:\Users\Jared\AppData\Local\Temp\ccOOnCAQ.s 			page 63


 2136 012d 02       		.byte	0x2
 2137 012e 91       		.byte	0x91
 2138 012f 6F       		.sleb128 -17
 2139 0130 00       		.byte	0
 2140 0131 09       		.uleb128 0x9
 2141 0132 01       		.byte	0x1
 2142 0133 62000000 		.4byte	.LASF21
 2143 0137 01       		.byte	0x1
 2144 0138 3601     		.2byte	0x136
 2145 013a 01       		.byte	0x1
 2146 013b 00000000 		.4byte	.LFB4
 2147 013f 48000000 		.4byte	.LFE4
 2148 0143 C8000000 		.4byte	.LLST4
 2149 0147 01       		.byte	0x1
 2150 0148 6B010000 		.4byte	0x16b
 2151 014c 0B       		.uleb128 0xb
 2152 014d 96040000 		.4byte	.LASF23
 2153 0151 01       		.byte	0x1
 2154 0152 3601     		.2byte	0x136
 2155 0154 7A000000 		.4byte	0x7a
 2156 0158 02       		.byte	0x2
 2157 0159 91       		.byte	0x91
 2158 015a 64       		.sleb128 -28
 2159 015b 0A       		.uleb128 0xa
 2160 015c D7040000 		.4byte	.LASF20
 2161 0160 01       		.byte	0x1
 2162 0161 3801     		.2byte	0x138
 2163 0163 6F000000 		.4byte	0x6f
 2164 0167 02       		.byte	0x2
 2165 0168 91       		.byte	0x91
 2166 0169 6F       		.sleb128 -17
 2167 016a 00       		.byte	0
 2168 016b 09       		.uleb128 0x9
 2169 016c 01       		.byte	0x1
 2170 016d E0000000 		.4byte	.LASF22
 2171 0171 01       		.byte	0x1
 2172 0172 5701     		.2byte	0x157
 2173 0174 01       		.byte	0x1
 2174 0175 00000000 		.4byte	.LFB5
 2175 0179 48000000 		.4byte	.LFE5
 2176 017d 00010000 		.4byte	.LLST5
 2177 0181 01       		.byte	0x1
 2178 0182 A5010000 		.4byte	0x1a5
 2179 0186 0B       		.uleb128 0xb
 2180 0187 BF000000 		.4byte	.LASF24
 2181 018b 01       		.byte	0x1
 2182 018c 5701     		.2byte	0x157
 2183 018e 7A000000 		.4byte	0x7a
 2184 0192 02       		.byte	0x2
 2185 0193 91       		.byte	0x91
 2186 0194 64       		.sleb128 -28
 2187 0195 0A       		.uleb128 0xa
 2188 0196 D7040000 		.4byte	.LASF20
 2189 019a 01       		.byte	0x1
 2190 019b 5901     		.2byte	0x159
 2191 019d 6F000000 		.4byte	0x6f
 2192 01a1 02       		.byte	0x2
ARM GAS  C:\Users\Jared\AppData\Local\Temp\ccOOnCAQ.s 			page 64


 2193 01a2 91       		.byte	0x91
 2194 01a3 6F       		.sleb128 -17
 2195 01a4 00       		.byte	0
 2196 01a5 09       		.uleb128 0x9
 2197 01a6 01       		.byte	0x1
 2198 01a7 5E040000 		.4byte	.LASF25
 2199 01ab 01       		.byte	0x1
 2200 01ac 7C01     		.2byte	0x17c
 2201 01ae 01       		.byte	0x1
 2202 01af 00000000 		.4byte	.LFB6
 2203 01b3 48000000 		.4byte	.LFE6
 2204 01b7 38010000 		.4byte	.LLST6
 2205 01bb 01       		.byte	0x1
 2206 01bc DF010000 		.4byte	0x1df
 2207 01c0 0B       		.uleb128 0xb
 2208 01c1 88030000 		.4byte	.LASF26
 2209 01c5 01       		.byte	0x1
 2210 01c6 7C01     		.2byte	0x17c
 2211 01c8 7A000000 		.4byte	0x7a
 2212 01cc 02       		.byte	0x2
 2213 01cd 91       		.byte	0x91
 2214 01ce 64       		.sleb128 -28
 2215 01cf 0A       		.uleb128 0xa
 2216 01d0 D7040000 		.4byte	.LASF20
 2217 01d4 01       		.byte	0x1
 2218 01d5 7E01     		.2byte	0x17e
 2219 01d7 6F000000 		.4byte	0x6f
 2220 01db 02       		.byte	0x2
 2221 01dc 91       		.byte	0x91
 2222 01dd 6F       		.sleb128 -17
 2223 01de 00       		.byte	0
 2224 01df 09       		.uleb128 0x9
 2225 01e0 01       		.byte	0x1
 2226 01e1 FD040000 		.4byte	.LASF27
 2227 01e5 01       		.byte	0x1
 2228 01e6 9C01     		.2byte	0x19c
 2229 01e8 01       		.byte	0x1
 2230 01e9 00000000 		.4byte	.LFB7
 2231 01ed 4C000000 		.4byte	.LFE7
 2232 01f1 70010000 		.4byte	.LLST7
 2233 01f5 01       		.byte	0x1
 2234 01f6 19020000 		.4byte	0x219
 2235 01fa 0B       		.uleb128 0xb
 2236 01fb D3020000 		.4byte	.LASF28
 2237 01ff 01       		.byte	0x1
 2238 0200 9C01     		.2byte	0x19c
 2239 0202 7A000000 		.4byte	0x7a
 2240 0206 02       		.byte	0x2
 2241 0207 91       		.byte	0x91
 2242 0208 64       		.sleb128 -28
 2243 0209 0A       		.uleb128 0xa
 2244 020a D7040000 		.4byte	.LASF20
 2245 020e 01       		.byte	0x1
 2246 020f 9E01     		.2byte	0x19e
 2247 0211 6F000000 		.4byte	0x6f
 2248 0215 02       		.byte	0x2
 2249 0216 91       		.byte	0x91
ARM GAS  C:\Users\Jared\AppData\Local\Temp\ccOOnCAQ.s 			page 65


 2250 0217 6F       		.sleb128 -17
 2251 0218 00       		.byte	0
 2252 0219 0C       		.uleb128 0xc
 2253 021a 01       		.byte	0x1
 2254 021b 38050000 		.4byte	.LASF29
 2255 021f 01       		.byte	0x1
 2256 0220 D201     		.2byte	0x1d2
 2257 0222 01       		.byte	0x1
 2258 0223 00000000 		.4byte	.LFB8
 2259 0227 1C000000 		.4byte	.LFE8
 2260 022b A8010000 		.4byte	.LLST8
 2261 022f 01       		.byte	0x1
 2262 0230 44020000 		.4byte	0x244
 2263 0234 0B       		.uleb128 0xb
 2264 0235 7A020000 		.4byte	.LASF30
 2265 0239 01       		.byte	0x1
 2266 023a D201     		.2byte	0x1d2
 2267 023c 7A000000 		.4byte	0x7a
 2268 0240 02       		.byte	0x2
 2269 0241 91       		.byte	0x91
 2270 0242 74       		.sleb128 -12
 2271 0243 00       		.byte	0
 2272 0244 09       		.uleb128 0x9
 2273 0245 01       		.byte	0x1
 2274 0246 AA000000 		.4byte	.LASF31
 2275 024a 01       		.byte	0x1
 2276 024b F601     		.2byte	0x1f6
 2277 024d 01       		.byte	0x1
 2278 024e 00000000 		.4byte	.LFB9
 2279 0252 48000000 		.4byte	.LFE9
 2280 0256 E0010000 		.4byte	.LLST9
 2281 025a 01       		.byte	0x1
 2282 025b 7E020000 		.4byte	0x27e
 2283 025f 0B       		.uleb128 0xb
 2284 0260 39030000 		.4byte	.LASF32
 2285 0264 01       		.byte	0x1
 2286 0265 F601     		.2byte	0x1f6
 2287 0267 7A000000 		.4byte	0x7a
 2288 026b 02       		.byte	0x2
 2289 026c 91       		.byte	0x91
 2290 026d 64       		.sleb128 -28
 2291 026e 0A       		.uleb128 0xa
 2292 026f D7040000 		.4byte	.LASF20
 2293 0273 01       		.byte	0x1
 2294 0274 F801     		.2byte	0x1f8
 2295 0276 6F000000 		.4byte	0x6f
 2296 027a 02       		.byte	0x2
 2297 027b 91       		.byte	0x91
 2298 027c 6F       		.sleb128 -17
 2299 027d 00       		.byte	0
 2300 027e 09       		.uleb128 0x9
 2301 027f 01       		.byte	0x1
 2302 0280 00000000 		.4byte	.LASF33
 2303 0284 01       		.byte	0x1
 2304 0285 1802     		.2byte	0x218
 2305 0287 01       		.byte	0x1
 2306 0288 00000000 		.4byte	.LFB10
ARM GAS  C:\Users\Jared\AppData\Local\Temp\ccOOnCAQ.s 			page 66


 2307 028c 48000000 		.4byte	.LFE10
 2308 0290 18020000 		.4byte	.LLST10
 2309 0294 01       		.byte	0x1
 2310 0295 B8020000 		.4byte	0x2b8
 2311 0299 0B       		.uleb128 0xb
 2312 029a 35040000 		.4byte	.LASF34
 2313 029e 01       		.byte	0x1
 2314 029f 1802     		.2byte	0x218
 2315 02a1 7A000000 		.4byte	0x7a
 2316 02a5 02       		.byte	0x2
 2317 02a6 91       		.byte	0x91
 2318 02a7 64       		.sleb128 -28
 2319 02a8 0A       		.uleb128 0xa
 2320 02a9 D7040000 		.4byte	.LASF20
 2321 02ad 01       		.byte	0x1
 2322 02ae 1A02     		.2byte	0x21a
 2323 02b0 6F000000 		.4byte	0x6f
 2324 02b4 02       		.byte	0x2
 2325 02b5 91       		.byte	0x91
 2326 02b6 6F       		.sleb128 -17
 2327 02b7 00       		.byte	0
 2328 02b8 09       		.uleb128 0x9
 2329 02b9 01       		.byte	0x1
 2330 02ba 95000000 		.4byte	.LASF35
 2331 02be 01       		.byte	0x1
 2332 02bf 3902     		.2byte	0x239
 2333 02c1 01       		.byte	0x1
 2334 02c2 00000000 		.4byte	.LFB11
 2335 02c6 4C000000 		.4byte	.LFE11
 2336 02ca 50020000 		.4byte	.LLST11
 2337 02ce 01       		.byte	0x1
 2338 02cf F2020000 		.4byte	0x2f2
 2339 02d3 0B       		.uleb128 0xb
 2340 02d4 07020000 		.4byte	.LASF36
 2341 02d8 01       		.byte	0x1
 2342 02d9 3902     		.2byte	0x239
 2343 02db 7A000000 		.4byte	0x7a
 2344 02df 02       		.byte	0x2
 2345 02e0 91       		.byte	0x91
 2346 02e1 64       		.sleb128 -28
 2347 02e2 0A       		.uleb128 0xa
 2348 02e3 D7040000 		.4byte	.LASF20
 2349 02e7 01       		.byte	0x1
 2350 02e8 3B02     		.2byte	0x23b
 2351 02ea 6F000000 		.4byte	0x6f
 2352 02ee 02       		.byte	0x2
 2353 02ef 91       		.byte	0x91
 2354 02f0 6F       		.sleb128 -17
 2355 02f1 00       		.byte	0
 2356 02f2 09       		.uleb128 0x9
 2357 02f3 01       		.byte	0x1
 2358 02f4 48030000 		.4byte	.LASF37
 2359 02f8 01       		.byte	0x1
 2360 02f9 5A02     		.2byte	0x25a
 2361 02fb 01       		.byte	0x1
 2362 02fc 00000000 		.4byte	.LFB12
 2363 0300 48000000 		.4byte	.LFE12
ARM GAS  C:\Users\Jared\AppData\Local\Temp\ccOOnCAQ.s 			page 67


 2364 0304 88020000 		.4byte	.LLST12
 2365 0308 01       		.byte	0x1
 2366 0309 2C030000 		.4byte	0x32c
 2367 030d 0B       		.uleb128 0xb
 2368 030e F0010000 		.4byte	.LASF38
 2369 0312 01       		.byte	0x1
 2370 0313 5A02     		.2byte	0x25a
 2371 0315 7A000000 		.4byte	0x7a
 2372 0319 02       		.byte	0x2
 2373 031a 91       		.byte	0x91
 2374 031b 64       		.sleb128 -28
 2375 031c 0A       		.uleb128 0xa
 2376 031d D7040000 		.4byte	.LASF20
 2377 0321 01       		.byte	0x1
 2378 0322 5C02     		.2byte	0x25c
 2379 0324 6F000000 		.4byte	0x6f
 2380 0328 02       		.byte	0x2
 2381 0329 91       		.byte	0x91
 2382 032a 6F       		.sleb128 -17
 2383 032b 00       		.byte	0
 2384 032c 0C       		.uleb128 0xc
 2385 032d 01       		.byte	0x1
 2386 032e A3020000 		.4byte	.LASF39
 2387 0332 01       		.byte	0x1
 2388 0333 7802     		.2byte	0x278
 2389 0335 01       		.byte	0x1
 2390 0336 00000000 		.4byte	.LFB13
 2391 033a 1C000000 		.4byte	.LFE13
 2392 033e C0020000 		.4byte	.LLST13
 2393 0342 01       		.byte	0x1
 2394 0343 57030000 		.4byte	0x357
 2395 0347 0B       		.uleb128 0xb
 2396 0348 17000000 		.4byte	.LASF40
 2397 034c 01       		.byte	0x1
 2398 034d 7802     		.2byte	0x278
 2399 034f 7A000000 		.4byte	0x7a
 2400 0353 02       		.byte	0x2
 2401 0354 91       		.byte	0x91
 2402 0355 74       		.sleb128 -12
 2403 0356 00       		.byte	0
 2404 0357 0D       		.uleb128 0xd
 2405 0358 01       		.byte	0x1
 2406 0359 B6020000 		.4byte	.LASF45
 2407 035d 01       		.byte	0x1
 2408 035e 8C02     		.2byte	0x28c
 2409 0360 01       		.byte	0x1
 2410 0361 7A000000 		.4byte	0x7a
 2411 0365 00000000 		.4byte	.LFB14
 2412 0369 18000000 		.4byte	.LFE14
 2413 036d F8020000 		.4byte	.LLST14
 2414 0371 01       		.byte	0x1
 2415 0372 09       		.uleb128 0x9
 2416 0373 01       		.byte	0x1
 2417 0374 7C040000 		.4byte	.LASF41
 2418 0378 01       		.byte	0x1
 2419 0379 A902     		.2byte	0x2a9
 2420 037b 01       		.byte	0x1
ARM GAS  C:\Users\Jared\AppData\Local\Temp\ccOOnCAQ.s 			page 68


 2421 037c 00000000 		.4byte	.LFB15
 2422 0380 48000000 		.4byte	.LFE15
 2423 0384 24030000 		.4byte	.LLST15
 2424 0388 01       		.byte	0x1
 2425 0389 AC030000 		.4byte	0x3ac
 2426 038d 0B       		.uleb128 0xb
 2427 038e AF040000 		.4byte	.LASF42
 2428 0392 01       		.byte	0x1
 2429 0393 A902     		.2byte	0x2a9
 2430 0395 7A000000 		.4byte	0x7a
 2431 0399 02       		.byte	0x2
 2432 039a 91       		.byte	0x91
 2433 039b 64       		.sleb128 -28
 2434 039c 0A       		.uleb128 0xa
 2435 039d D7040000 		.4byte	.LASF20
 2436 03a1 01       		.byte	0x1
 2437 03a2 AB02     		.2byte	0x2ab
 2438 03a4 6F000000 		.4byte	0x6f
 2439 03a8 02       		.byte	0x2
 2440 03a9 91       		.byte	0x91
 2441 03aa 6F       		.sleb128 -17
 2442 03ab 00       		.byte	0
 2443 03ac 0C       		.uleb128 0xc
 2444 03ad 01       		.byte	0x1
 2445 03ae 36000000 		.4byte	.LASF43
 2446 03b2 01       		.byte	0x1
 2447 03b3 C602     		.2byte	0x2c6
 2448 03b5 01       		.byte	0x1
 2449 03b6 00000000 		.4byte	.LFB16
 2450 03ba 1C000000 		.4byte	.LFE16
 2451 03be 5C030000 		.4byte	.LLST16
 2452 03c2 01       		.byte	0x1
 2453 03c3 D7030000 		.4byte	0x3d7
 2454 03c7 0B       		.uleb128 0xb
 2455 03c8 5B000000 		.4byte	.LASF44
 2456 03cc 01       		.byte	0x1
 2457 03cd C602     		.2byte	0x2c6
 2458 03cf 7A000000 		.4byte	0x7a
 2459 03d3 02       		.byte	0x2
 2460 03d4 91       		.byte	0x91
 2461 03d5 74       		.sleb128 -12
 2462 03d6 00       		.byte	0
 2463 03d7 0D       		.uleb128 0xd
 2464 03d8 01       		.byte	0x1
 2465 03d9 BB040000 		.4byte	.LASF46
 2466 03dd 01       		.byte	0x1
 2467 03de DA02     		.2byte	0x2da
 2468 03e0 01       		.byte	0x1
 2469 03e1 7A000000 		.4byte	0x7a
 2470 03e5 00000000 		.4byte	.LFB17
 2471 03e9 18000000 		.4byte	.LFE17
 2472 03ed 94030000 		.4byte	.LLST17
 2473 03f1 01       		.byte	0x1
 2474 03f2 09       		.uleb128 0x9
 2475 03f3 01       		.byte	0x1
 2476 03f4 06030000 		.4byte	.LASF47
 2477 03f8 01       		.byte	0x1
ARM GAS  C:\Users\Jared\AppData\Local\Temp\ccOOnCAQ.s 			page 69


 2478 03f9 F402     		.2byte	0x2f4
 2479 03fb 01       		.byte	0x1
 2480 03fc 00000000 		.4byte	.LFB18
 2481 0400 48000000 		.4byte	.LFE18
 2482 0404 C0030000 		.4byte	.LLST18
 2483 0408 01       		.byte	0x1
 2484 0409 2C040000 		.4byte	0x42c
 2485 040d 0B       		.uleb128 0xb
 2486 040e 23050000 		.4byte	.LASF48
 2487 0412 01       		.byte	0x1
 2488 0413 F402     		.2byte	0x2f4
 2489 0415 7A000000 		.4byte	0x7a
 2490 0419 02       		.byte	0x2
 2491 041a 91       		.byte	0x91
 2492 041b 64       		.sleb128 -28
 2493 041c 0A       		.uleb128 0xa
 2494 041d D7040000 		.4byte	.LASF20
 2495 0421 01       		.byte	0x1
 2496 0422 F602     		.2byte	0x2f6
 2497 0424 6F000000 		.4byte	0x6f
 2498 0428 02       		.byte	0x2
 2499 0429 91       		.byte	0x91
 2500 042a 6F       		.sleb128 -17
 2501 042b 00       		.byte	0
 2502 042c 0C       		.uleb128 0xc
 2503 042d 01       		.byte	0x1
 2504 042e 24030000 		.4byte	.LASF49
 2505 0432 01       		.byte	0x1
 2506 0433 0F03     		.2byte	0x30f
 2507 0435 01       		.byte	0x1
 2508 0436 00000000 		.4byte	.LFB19
 2509 043a 1C000000 		.4byte	.LFE19
 2510 043e F8030000 		.4byte	.LLST19
 2511 0442 01       		.byte	0x1
 2512 0443 57040000 		.4byte	0x457
 2513 0447 0B       		.uleb128 0xb
 2514 0448 2E050000 		.4byte	.LASF50
 2515 044c 01       		.byte	0x1
 2516 044d 0F03     		.2byte	0x30f
 2517 044f 7A000000 		.4byte	0x7a
 2518 0453 02       		.byte	0x2
 2519 0454 91       		.byte	0x91
 2520 0455 74       		.sleb128 -12
 2521 0456 00       		.byte	0
 2522 0457 0D       		.uleb128 0xd
 2523 0458 01       		.byte	0x1
 2524 0459 5B030000 		.4byte	.LASF51
 2525 045d 01       		.byte	0x1
 2526 045e 2303     		.2byte	0x323
 2527 0460 01       		.byte	0x1
 2528 0461 7A000000 		.4byte	0x7a
 2529 0465 00000000 		.4byte	.LFB20
 2530 0469 18000000 		.4byte	.LFE20
 2531 046d 30040000 		.4byte	.LLST20
 2532 0471 01       		.byte	0x1
 2533 0472 09       		.uleb128 0x9
 2534 0473 01       		.byte	0x1
ARM GAS  C:\Users\Jared\AppData\Local\Temp\ccOOnCAQ.s 			page 70


 2535 0474 A4030000 		.4byte	.LASF52
 2536 0478 01       		.byte	0x1
 2537 0479 3D03     		.2byte	0x33d
 2538 047b 01       		.byte	0x1
 2539 047c 00000000 		.4byte	.LFB21
 2540 0480 48000000 		.4byte	.LFE21
 2541 0484 5C040000 		.4byte	.LLST21
 2542 0488 01       		.byte	0x1
 2543 0489 AC040000 		.4byte	0x4ac
 2544 048d 0B       		.uleb128 0xb
 2545 048e 23050000 		.4byte	.LASF48
 2546 0492 01       		.byte	0x1
 2547 0493 3D03     		.2byte	0x33d
 2548 0495 7A000000 		.4byte	0x7a
 2549 0499 02       		.byte	0x2
 2550 049a 91       		.byte	0x91
 2551 049b 64       		.sleb128 -28
 2552 049c 0A       		.uleb128 0xa
 2553 049d D7040000 		.4byte	.LASF20
 2554 04a1 01       		.byte	0x1
 2555 04a2 3F03     		.2byte	0x33f
 2556 04a4 6F000000 		.4byte	0x6f
 2557 04a8 02       		.byte	0x2
 2558 04a9 91       		.byte	0x91
 2559 04aa 6F       		.sleb128 -17
 2560 04ab 00       		.byte	0
 2561 04ac 0C       		.uleb128 0xc
 2562 04ad 01       		.byte	0x1
 2563 04ae D1010000 		.4byte	.LASF53
 2564 04b2 01       		.byte	0x1
 2565 04b3 5A03     		.2byte	0x35a
 2566 04b5 01       		.byte	0x1
 2567 04b6 00000000 		.4byte	.LFB22
 2568 04ba 1C000000 		.4byte	.LFE22
 2569 04be 94040000 		.4byte	.LLST22
 2570 04c2 01       		.byte	0x1
 2571 04c3 D7040000 		.4byte	0x4d7
 2572 04c7 0B       		.uleb128 0xb
 2573 04c8 03010000 		.4byte	.LASF54
 2574 04cc 01       		.byte	0x1
 2575 04cd 5A03     		.2byte	0x35a
 2576 04cf 7A000000 		.4byte	0x7a
 2577 04d3 02       		.byte	0x2
 2578 04d4 91       		.byte	0x91
 2579 04d5 74       		.sleb128 -12
 2580 04d6 00       		.byte	0
 2581 04d7 0D       		.uleb128 0xd
 2582 04d8 01       		.byte	0x1
 2583 04d9 F5010000 		.4byte	.LASF55
 2584 04dd 01       		.byte	0x1
 2585 04de 8403     		.2byte	0x384
 2586 04e0 01       		.byte	0x1
 2587 04e1 7A000000 		.4byte	0x7a
 2588 04e5 00000000 		.4byte	.LFB23
 2589 04e9 18000000 		.4byte	.LFE23
 2590 04ed CC040000 		.4byte	.LLST23
 2591 04f1 01       		.byte	0x1
ARM GAS  C:\Users\Jared\AppData\Local\Temp\ccOOnCAQ.s 			page 71


 2592 04f2 0C       		.uleb128 0xc
 2593 04f3 01       		.byte	0x1
 2594 04f4 10020000 		.4byte	.LASF56
 2595 04f8 01       		.byte	0x1
 2596 04f9 B003     		.2byte	0x3b0
 2597 04fb 01       		.byte	0x1
 2598 04fc 00000000 		.4byte	.LFB24
 2599 0500 1C000000 		.4byte	.LFE24
 2600 0504 F8040000 		.4byte	.LLST24
 2601 0508 01       		.byte	0x1
 2602 0509 1D050000 		.4byte	0x51d
 2603 050d 0B       		.uleb128 0xb
 2604 050e CC040000 		.4byte	.LASF57
 2605 0512 01       		.byte	0x1
 2606 0513 B003     		.2byte	0x3b0
 2607 0515 7A000000 		.4byte	0x7a
 2608 0519 02       		.byte	0x2
 2609 051a 91       		.byte	0x91
 2610 051b 74       		.sleb128 -12
 2611 051c 00       		.byte	0
 2612 051d 0D       		.uleb128 0xd
 2613 051e 01       		.byte	0x1
 2614 051f 49050000 		.4byte	.LASF58
 2615 0523 01       		.byte	0x1
 2616 0524 DA03     		.2byte	0x3da
 2617 0526 01       		.byte	0x1
 2618 0527 7A000000 		.4byte	0x7a
 2619 052b 00000000 		.4byte	.LFB25
 2620 052f 18000000 		.4byte	.LFE25
 2621 0533 30050000 		.4byte	.LLST25
 2622 0537 01       		.byte	0x1
 2623 0538 0D       		.uleb128 0xd
 2624 0539 01       		.byte	0x1
 2625 053a 2B010000 		.4byte	.LASF59
 2626 053e 01       		.byte	0x1
 2627 053f 0604     		.2byte	0x406
 2628 0541 01       		.byte	0x1
 2629 0542 7A000000 		.4byte	0x7a
 2630 0546 00000000 		.4byte	.LFB26
 2631 054a 18000000 		.4byte	.LFE26
 2632 054e 5C050000 		.4byte	.LLST26
 2633 0552 01       		.byte	0x1
 2634 0553 0D       		.uleb128 0xd
 2635 0554 01       		.byte	0x1
 2636 0555 B8030000 		.4byte	.LASF60
 2637 0559 01       		.byte	0x1
 2638 055a 1B04     		.2byte	0x41b
 2639 055c 01       		.byte	0x1
 2640 055d 7A000000 		.4byte	0x7a
 2641 0561 00000000 		.4byte	.LFB27
 2642 0565 18000000 		.4byte	.LFE27
 2643 0569 88050000 		.4byte	.LLST27
 2644 056d 01       		.byte	0x1
 2645 056e 09       		.uleb128 0x9
 2646 056f 01       		.byte	0x1
 2647 0570 E8040000 		.4byte	.LASF61
 2648 0574 01       		.byte	0x1
ARM GAS  C:\Users\Jared\AppData\Local\Temp\ccOOnCAQ.s 			page 72


 2649 0575 3604     		.2byte	0x436
 2650 0577 01       		.byte	0x1
 2651 0578 00000000 		.4byte	.LFB28
 2652 057c 44000000 		.4byte	.LFE28
 2653 0580 B4050000 		.4byte	.LLST28
 2654 0584 01       		.byte	0x1
 2655 0585 A8050000 		.4byte	0x5a8
 2656 0589 0B       		.uleb128 0xb
 2657 058a E4010000 		.4byte	.LASF62
 2658 058e 01       		.byte	0x1
 2659 058f 3604     		.2byte	0x436
 2660 0591 7A000000 		.4byte	0x7a
 2661 0595 02       		.byte	0x2
 2662 0596 91       		.byte	0x91
 2663 0597 64       		.sleb128 -28
 2664 0598 0A       		.uleb128 0xa
 2665 0599 D7040000 		.4byte	.LASF20
 2666 059d 01       		.byte	0x1
 2667 059e 3804     		.2byte	0x438
 2668 05a0 6F000000 		.4byte	0x6f
 2669 05a4 02       		.byte	0x2
 2670 05a5 91       		.byte	0x91
 2671 05a6 6F       		.sleb128 -17
 2672 05a7 00       		.byte	0
 2673 05a8 09       		.uleb128 0x9
 2674 05a9 01       		.byte	0x1
 2675 05aa 9B040000 		.4byte	.LASF63
 2676 05ae 01       		.byte	0x1
 2677 05af 5704     		.2byte	0x457
 2678 05b1 01       		.byte	0x1
 2679 05b2 00000000 		.4byte	.LFB29
 2680 05b6 44000000 		.4byte	.LFE29
 2681 05ba EC050000 		.4byte	.LLST29
 2682 05be 01       		.byte	0x1
 2683 05bf E2050000 		.4byte	0x5e2
 2684 05c3 0B       		.uleb128 0xb
 2685 05c4 E4010000 		.4byte	.LASF62
 2686 05c8 01       		.byte	0x1
 2687 05c9 5704     		.2byte	0x457
 2688 05cb 7A000000 		.4byte	0x7a
 2689 05cf 02       		.byte	0x2
 2690 05d0 91       		.byte	0x91
 2691 05d1 64       		.sleb128 -28
 2692 05d2 0A       		.uleb128 0xa
 2693 05d3 D7040000 		.4byte	.LASF20
 2694 05d7 01       		.byte	0x1
 2695 05d8 5904     		.2byte	0x459
 2696 05da 6F000000 		.4byte	0x6f
 2697 05de 02       		.byte	0x2
 2698 05df 91       		.byte	0x91
 2699 05e0 6F       		.sleb128 -17
 2700 05e1 00       		.byte	0
 2701 05e2 09       		.uleb128 0x9
 2702 05e3 01       		.byte	0x1
 2703 05e4 6F030000 		.4byte	.LASF64
 2704 05e8 01       		.byte	0x1
 2705 05e9 7804     		.2byte	0x478
ARM GAS  C:\Users\Jared\AppData\Local\Temp\ccOOnCAQ.s 			page 73


 2706 05eb 01       		.byte	0x1
 2707 05ec 00000000 		.4byte	.LFB30
 2708 05f0 48000000 		.4byte	.LFE30
 2709 05f4 24060000 		.4byte	.LLST30
 2710 05f8 01       		.byte	0x1
 2711 05f9 1C060000 		.4byte	0x61c
 2712 05fd 0B       		.uleb128 0xb
 2713 05fe E4010000 		.4byte	.LASF62
 2714 0602 01       		.byte	0x1
 2715 0603 7804     		.2byte	0x478
 2716 0605 7A000000 		.4byte	0x7a
 2717 0609 02       		.byte	0x2
 2718 060a 91       		.byte	0x91
 2719 060b 64       		.sleb128 -28
 2720 060c 0A       		.uleb128 0xa
 2721 060d D7040000 		.4byte	.LASF20
 2722 0611 01       		.byte	0x1
 2723 0612 7A04     		.2byte	0x47a
 2724 0614 6F000000 		.4byte	0x6f
 2725 0618 02       		.byte	0x2
 2726 0619 91       		.byte	0x91
 2727 061a 6F       		.sleb128 -17
 2728 061b 00       		.byte	0
 2729 061c 09       		.uleb128 0x9
 2730 061d 01       		.byte	0x1
 2731 061e 92030000 		.4byte	.LASF65
 2732 0622 01       		.byte	0x1
 2733 0623 9804     		.2byte	0x498
 2734 0625 01       		.byte	0x1
 2735 0626 00000000 		.4byte	.LFB31
 2736 062a 44000000 		.4byte	.LFE31
 2737 062e 5C060000 		.4byte	.LLST31
 2738 0632 01       		.byte	0x1
 2739 0633 56060000 		.4byte	0x656
 2740 0637 0B       		.uleb128 0xb
 2741 0638 E4010000 		.4byte	.LASF62
 2742 063c 01       		.byte	0x1
 2743 063d 9804     		.2byte	0x498
 2744 063f 7A000000 		.4byte	0x7a
 2745 0643 02       		.byte	0x2
 2746 0644 91       		.byte	0x91
 2747 0645 64       		.sleb128 -28
 2748 0646 0A       		.uleb128 0xa
 2749 0647 D7040000 		.4byte	.LASF20
 2750 064b 01       		.byte	0x1
 2751 064c 9A04     		.2byte	0x49a
 2752 064e 6F000000 		.4byte	0x6f
 2753 0652 02       		.byte	0x2
 2754 0653 91       		.byte	0x91
 2755 0654 6F       		.sleb128 -17
 2756 0655 00       		.byte	0
 2757 0656 09       		.uleb128 0x9
 2758 0657 01       		.byte	0x1
 2759 0658 F0000000 		.4byte	.LASF66
 2760 065c 01       		.byte	0x1
 2761 065d B904     		.2byte	0x4b9
 2762 065f 01       		.byte	0x1
ARM GAS  C:\Users\Jared\AppData\Local\Temp\ccOOnCAQ.s 			page 74


 2763 0660 00000000 		.4byte	.LFB32
 2764 0664 44000000 		.4byte	.LFE32
 2765 0668 94060000 		.4byte	.LLST32
 2766 066c 01       		.byte	0x1
 2767 066d 90060000 		.4byte	0x690
 2768 0671 0B       		.uleb128 0xb
 2769 0672 E4010000 		.4byte	.LASF62
 2770 0676 01       		.byte	0x1
 2771 0677 B904     		.2byte	0x4b9
 2772 0679 7A000000 		.4byte	0x7a
 2773 067d 02       		.byte	0x2
 2774 067e 91       		.byte	0x91
 2775 067f 64       		.sleb128 -28
 2776 0680 0A       		.uleb128 0xa
 2777 0681 D7040000 		.4byte	.LASF20
 2778 0685 01       		.byte	0x1
 2779 0686 BB04     		.2byte	0x4bb
 2780 0688 6F000000 		.4byte	0x6f
 2781 068c 02       		.byte	0x2
 2782 068d 91       		.byte	0x91
 2783 068e 6F       		.sleb128 -17
 2784 068f 00       		.byte	0
 2785 0690 09       		.uleb128 0x9
 2786 0691 01       		.byte	0x1
 2787 0692 3D010000 		.4byte	.LASF67
 2788 0696 01       		.byte	0x1
 2789 0697 E104     		.2byte	0x4e1
 2790 0699 01       		.byte	0x1
 2791 069a 00000000 		.4byte	.LFB33
 2792 069e 3C000000 		.4byte	.LFE33
 2793 06a2 CC060000 		.4byte	.LLST33
 2794 06a6 01       		.byte	0x1
 2795 06a7 D9060000 		.4byte	0x6d9
 2796 06ab 0B       		.uleb128 0xb
 2797 06ac F0010000 		.4byte	.LASF38
 2798 06b0 01       		.byte	0x1
 2799 06b1 E104     		.2byte	0x4e1
 2800 06b3 7A000000 		.4byte	0x7a
 2801 06b7 02       		.byte	0x2
 2802 06b8 91       		.byte	0x91
 2803 06b9 64       		.sleb128 -28
 2804 06ba 0B       		.uleb128 0xb
 2805 06bb 60020000 		.4byte	.LASF68
 2806 06bf 01       		.byte	0x1
 2807 06c0 E104     		.2byte	0x4e1
 2808 06c2 7A000000 		.4byte	0x7a
 2809 06c6 02       		.byte	0x2
 2810 06c7 91       		.byte	0x91
 2811 06c8 60       		.sleb128 -32
 2812 06c9 0A       		.uleb128 0xa
 2813 06ca D7040000 		.4byte	.LASF20
 2814 06ce 01       		.byte	0x1
 2815 06cf E304     		.2byte	0x4e3
 2816 06d1 6F000000 		.4byte	0x6f
 2817 06d5 02       		.byte	0x2
 2818 06d6 91       		.byte	0x91
 2819 06d7 6F       		.sleb128 -17
ARM GAS  C:\Users\Jared\AppData\Local\Temp\ccOOnCAQ.s 			page 75


 2820 06d8 00       		.byte	0
 2821 06d9 0D       		.uleb128 0xd
 2822 06da 01       		.byte	0x1
 2823 06db CD030000 		.4byte	.LASF69
 2824 06df 01       		.byte	0x1
 2825 06e0 FE04     		.2byte	0x4fe
 2826 06e2 01       		.byte	0x1
 2827 06e3 7A000000 		.4byte	0x7a
 2828 06e7 00000000 		.4byte	.LFB34
 2829 06eb 20000000 		.4byte	.LFE34
 2830 06ef 04070000 		.4byte	.LLST34
 2831 06f3 01       		.byte	0x1
 2832 06f4 0C       		.uleb128 0xc
 2833 06f5 01       		.byte	0x1
 2834 06f6 14010000 		.4byte	.LASF70
 2835 06fa 01       		.byte	0x1
 2836 06fb 1705     		.2byte	0x517
 2837 06fd 01       		.byte	0x1
 2838 06fe 00000000 		.4byte	.LFB35
 2839 0702 18000000 		.4byte	.LFE35
 2840 0706 30070000 		.4byte	.LLST35
 2841 070a 01       		.byte	0x1
 2842 070b 1F070000 		.4byte	0x71f
 2843 070f 0B       		.uleb128 0xb
 2844 0710 50040000 		.4byte	.LASF71
 2845 0714 01       		.byte	0x1
 2846 0715 1705     		.2byte	0x517
 2847 0717 7A000000 		.4byte	0x7a
 2848 071b 02       		.byte	0x2
 2849 071c 91       		.byte	0x91
 2850 071d 74       		.sleb128 -12
 2851 071e 00       		.byte	0
 2852 071f 0D       		.uleb128 0xd
 2853 0720 01       		.byte	0x1
 2854 0721 E1020000 		.4byte	.LASF72
 2855 0725 01       		.byte	0x1
 2856 0726 2E05     		.2byte	0x52e
 2857 0728 01       		.byte	0x1
 2858 0729 7A000000 		.4byte	0x7a
 2859 072d 00000000 		.4byte	.LFB36
 2860 0731 14000000 		.4byte	.LFE36
 2861 0735 68070000 		.4byte	.LLST36
 2862 0739 01       		.byte	0x1
 2863 073a 0D       		.uleb128 0xd
 2864 073b 01       		.byte	0x1
 2865 073c 1D000000 		.4byte	.LASF73
 2866 0740 01       		.byte	0x1
 2867 0741 4505     		.2byte	0x545
 2868 0743 01       		.byte	0x1
 2869 0744 7A000000 		.4byte	0x7a
 2870 0748 00000000 		.4byte	.LFB37
 2871 074c 14000000 		.4byte	.LFE37
 2872 0750 94070000 		.4byte	.LLST37
 2873 0754 01       		.byte	0x1
 2874 0755 0C       		.uleb128 0xc
 2875 0756 01       		.byte	0x1
 2876 0757 0E050000 		.4byte	.LASF74
ARM GAS  C:\Users\Jared\AppData\Local\Temp\ccOOnCAQ.s 			page 76


 2877 075b 01       		.byte	0x1
 2878 075c 5C05     		.2byte	0x55c
 2879 075e 01       		.byte	0x1
 2880 075f 00000000 		.4byte	.LFB38
 2881 0763 18000000 		.4byte	.LFE38
 2882 0767 C0070000 		.4byte	.LLST38
 2883 076b 01       		.byte	0x1
 2884 076c 80070000 		.4byte	0x780
 2885 0770 0B       		.uleb128 0xb
 2886 0771 50040000 		.4byte	.LASF71
 2887 0775 01       		.byte	0x1
 2888 0776 5C05     		.2byte	0x55c
 2889 0778 7A000000 		.4byte	0x7a
 2890 077c 02       		.byte	0x2
 2891 077d 91       		.byte	0x91
 2892 077e 74       		.sleb128 -12
 2893 077f 00       		.byte	0
 2894 0780 0C       		.uleb128 0xc
 2895 0781 01       		.byte	0x1
 2896 0782 48000000 		.4byte	.LASF75
 2897 0786 01       		.byte	0x1
 2898 0787 7305     		.2byte	0x573
 2899 0789 01       		.byte	0x1
 2900 078a 00000000 		.4byte	.LFB39
 2901 078e 18000000 		.4byte	.LFE39
 2902 0792 F8070000 		.4byte	.LLST39
 2903 0796 01       		.byte	0x1
 2904 0797 AB070000 		.4byte	0x7ab
 2905 079b 0B       		.uleb128 0xb
 2906 079c 50040000 		.4byte	.LASF71
 2907 07a0 01       		.byte	0x1
 2908 07a1 7305     		.2byte	0x573
 2909 07a3 7A000000 		.4byte	0x7a
 2910 07a7 02       		.byte	0x2
 2911 07a8 91       		.byte	0x91
 2912 07a9 74       		.sleb128 -12
 2913 07aa 00       		.byte	0
 2914 07ab 0E       		.uleb128 0xe
 2915 07ac 70000000 		.4byte	.LASF79
 2916 07b0 01       		.byte	0x1
 2917 07b1 16       		.byte	0x16
 2918 07b2 6F000000 		.4byte	0x6f
 2919 07b6 01       		.byte	0x1
 2920 07b7 05       		.byte	0x5
 2921 07b8 03       		.byte	0x3
 2922 07b9 00000000 		.4byte	Timer_initVar
 2923 07bd 00       		.byte	0
 2924              		.section	.debug_abbrev,"",%progbits
 2925              	.Ldebug_abbrev0:
 2926 0000 01       		.uleb128 0x1
 2927 0001 11       		.uleb128 0x11
 2928 0002 01       		.byte	0x1
 2929 0003 25       		.uleb128 0x25
 2930 0004 0E       		.uleb128 0xe
 2931 0005 13       		.uleb128 0x13
 2932 0006 0B       		.uleb128 0xb
 2933 0007 03       		.uleb128 0x3
ARM GAS  C:\Users\Jared\AppData\Local\Temp\ccOOnCAQ.s 			page 77


 2934 0008 0E       		.uleb128 0xe
 2935 0009 1B       		.uleb128 0x1b
 2936 000a 0E       		.uleb128 0xe
 2937 000b 55       		.uleb128 0x55
 2938 000c 06       		.uleb128 0x6
 2939 000d 11       		.uleb128 0x11
 2940 000e 01       		.uleb128 0x1
 2941 000f 52       		.uleb128 0x52
 2942 0010 01       		.uleb128 0x1
 2943 0011 10       		.uleb128 0x10
 2944 0012 06       		.uleb128 0x6
 2945 0013 00       		.byte	0
 2946 0014 00       		.byte	0
 2947 0015 02       		.uleb128 0x2
 2948 0016 24       		.uleb128 0x24
 2949 0017 00       		.byte	0
 2950 0018 0B       		.uleb128 0xb
 2951 0019 0B       		.uleb128 0xb
 2952 001a 3E       		.uleb128 0x3e
 2953 001b 0B       		.uleb128 0xb
 2954 001c 03       		.uleb128 0x3
 2955 001d 0E       		.uleb128 0xe
 2956 001e 00       		.byte	0
 2957 001f 00       		.byte	0
 2958 0020 03       		.uleb128 0x3
 2959 0021 24       		.uleb128 0x24
 2960 0022 00       		.byte	0
 2961 0023 0B       		.uleb128 0xb
 2962 0024 0B       		.uleb128 0xb
 2963 0025 3E       		.uleb128 0x3e
 2964 0026 0B       		.uleb128 0xb
 2965 0027 03       		.uleb128 0x3
 2966 0028 08       		.uleb128 0x8
 2967 0029 00       		.byte	0
 2968 002a 00       		.byte	0
 2969 002b 04       		.uleb128 0x4
 2970 002c 16       		.uleb128 0x16
 2971 002d 00       		.byte	0
 2972 002e 03       		.uleb128 0x3
 2973 002f 0E       		.uleb128 0xe
 2974 0030 3A       		.uleb128 0x3a
 2975 0031 0B       		.uleb128 0xb
 2976 0032 3B       		.uleb128 0x3b
 2977 0033 0B       		.uleb128 0xb
 2978 0034 49       		.uleb128 0x49
 2979 0035 13       		.uleb128 0x13
 2980 0036 00       		.byte	0
 2981 0037 00       		.byte	0
 2982 0038 05       		.uleb128 0x5
 2983 0039 35       		.uleb128 0x35
 2984 003a 00       		.byte	0
 2985 003b 49       		.uleb128 0x49
 2986 003c 13       		.uleb128 0x13
 2987 003d 00       		.byte	0
 2988 003e 00       		.byte	0
 2989 003f 06       		.uleb128 0x6
 2990 0040 2E       		.uleb128 0x2e
ARM GAS  C:\Users\Jared\AppData\Local\Temp\ccOOnCAQ.s 			page 78


 2991 0041 00       		.byte	0
 2992 0042 3F       		.uleb128 0x3f
 2993 0043 0C       		.uleb128 0xc
 2994 0044 03       		.uleb128 0x3
 2995 0045 0E       		.uleb128 0xe
 2996 0046 3A       		.uleb128 0x3a
 2997 0047 0B       		.uleb128 0xb
 2998 0048 3B       		.uleb128 0x3b
 2999 0049 0B       		.uleb128 0xb
 3000 004a 27       		.uleb128 0x27
 3001 004b 0C       		.uleb128 0xc
 3002 004c 11       		.uleb128 0x11
 3003 004d 01       		.uleb128 0x1
 3004 004e 12       		.uleb128 0x12
 3005 004f 01       		.uleb128 0x1
 3006 0050 40       		.uleb128 0x40
 3007 0051 06       		.uleb128 0x6
 3008 0052 9642     		.uleb128 0x2116
 3009 0054 0C       		.uleb128 0xc
 3010 0055 00       		.byte	0
 3011 0056 00       		.byte	0
 3012 0057 07       		.uleb128 0x7
 3013 0058 2E       		.uleb128 0x2e
 3014 0059 01       		.byte	0x1
 3015 005a 3F       		.uleb128 0x3f
 3016 005b 0C       		.uleb128 0xc
 3017 005c 03       		.uleb128 0x3
 3018 005d 0E       		.uleb128 0xe
 3019 005e 3A       		.uleb128 0x3a
 3020 005f 0B       		.uleb128 0xb
 3021 0060 3B       		.uleb128 0x3b
 3022 0061 0B       		.uleb128 0xb
 3023 0062 27       		.uleb128 0x27
 3024 0063 0C       		.uleb128 0xc
 3025 0064 11       		.uleb128 0x11
 3026 0065 01       		.uleb128 0x1
 3027 0066 12       		.uleb128 0x12
 3028 0067 01       		.uleb128 0x1
 3029 0068 40       		.uleb128 0x40
 3030 0069 06       		.uleb128 0x6
 3031 006a 9642     		.uleb128 0x2116
 3032 006c 0C       		.uleb128 0xc
 3033 006d 01       		.uleb128 0x1
 3034 006e 13       		.uleb128 0x13
 3035 006f 00       		.byte	0
 3036 0070 00       		.byte	0
 3037 0071 08       		.uleb128 0x8
 3038 0072 34       		.uleb128 0x34
 3039 0073 00       		.byte	0
 3040 0074 03       		.uleb128 0x3
 3041 0075 0E       		.uleb128 0xe
 3042 0076 3A       		.uleb128 0x3a
 3043 0077 0B       		.uleb128 0xb
 3044 0078 3B       		.uleb128 0x3b
 3045 0079 0B       		.uleb128 0xb
 3046 007a 49       		.uleb128 0x49
 3047 007b 13       		.uleb128 0x13
ARM GAS  C:\Users\Jared\AppData\Local\Temp\ccOOnCAQ.s 			page 79


 3048 007c 02       		.uleb128 0x2
 3049 007d 0A       		.uleb128 0xa
 3050 007e 00       		.byte	0
 3051 007f 00       		.byte	0
 3052 0080 09       		.uleb128 0x9
 3053 0081 2E       		.uleb128 0x2e
 3054 0082 01       		.byte	0x1
 3055 0083 3F       		.uleb128 0x3f
 3056 0084 0C       		.uleb128 0xc
 3057 0085 03       		.uleb128 0x3
 3058 0086 0E       		.uleb128 0xe
 3059 0087 3A       		.uleb128 0x3a
 3060 0088 0B       		.uleb128 0xb
 3061 0089 3B       		.uleb128 0x3b
 3062 008a 05       		.uleb128 0x5
 3063 008b 27       		.uleb128 0x27
 3064 008c 0C       		.uleb128 0xc
 3065 008d 11       		.uleb128 0x11
 3066 008e 01       		.uleb128 0x1
 3067 008f 12       		.uleb128 0x12
 3068 0090 01       		.uleb128 0x1
 3069 0091 40       		.uleb128 0x40
 3070 0092 06       		.uleb128 0x6
 3071 0093 9642     		.uleb128 0x2116
 3072 0095 0C       		.uleb128 0xc
 3073 0096 01       		.uleb128 0x1
 3074 0097 13       		.uleb128 0x13
 3075 0098 00       		.byte	0
 3076 0099 00       		.byte	0
 3077 009a 0A       		.uleb128 0xa
 3078 009b 34       		.uleb128 0x34
 3079 009c 00       		.byte	0
 3080 009d 03       		.uleb128 0x3
 3081 009e 0E       		.uleb128 0xe
 3082 009f 3A       		.uleb128 0x3a
 3083 00a0 0B       		.uleb128 0xb
 3084 00a1 3B       		.uleb128 0x3b
 3085 00a2 05       		.uleb128 0x5
 3086 00a3 49       		.uleb128 0x49
 3087 00a4 13       		.uleb128 0x13
 3088 00a5 02       		.uleb128 0x2
 3089 00a6 0A       		.uleb128 0xa
 3090 00a7 00       		.byte	0
 3091 00a8 00       		.byte	0
 3092 00a9 0B       		.uleb128 0xb
 3093 00aa 05       		.uleb128 0x5
 3094 00ab 00       		.byte	0
 3095 00ac 03       		.uleb128 0x3
 3096 00ad 0E       		.uleb128 0xe
 3097 00ae 3A       		.uleb128 0x3a
 3098 00af 0B       		.uleb128 0xb
 3099 00b0 3B       		.uleb128 0x3b
 3100 00b1 05       		.uleb128 0x5
 3101 00b2 49       		.uleb128 0x49
 3102 00b3 13       		.uleb128 0x13
 3103 00b4 02       		.uleb128 0x2
 3104 00b5 0A       		.uleb128 0xa
ARM GAS  C:\Users\Jared\AppData\Local\Temp\ccOOnCAQ.s 			page 80


 3105 00b6 00       		.byte	0
 3106 00b7 00       		.byte	0
 3107 00b8 0C       		.uleb128 0xc
 3108 00b9 2E       		.uleb128 0x2e
 3109 00ba 01       		.byte	0x1
 3110 00bb 3F       		.uleb128 0x3f
 3111 00bc 0C       		.uleb128 0xc
 3112 00bd 03       		.uleb128 0x3
 3113 00be 0E       		.uleb128 0xe
 3114 00bf 3A       		.uleb128 0x3a
 3115 00c0 0B       		.uleb128 0xb
 3116 00c1 3B       		.uleb128 0x3b
 3117 00c2 05       		.uleb128 0x5
 3118 00c3 27       		.uleb128 0x27
 3119 00c4 0C       		.uleb128 0xc
 3120 00c5 11       		.uleb128 0x11
 3121 00c6 01       		.uleb128 0x1
 3122 00c7 12       		.uleb128 0x12
 3123 00c8 01       		.uleb128 0x1
 3124 00c9 40       		.uleb128 0x40
 3125 00ca 06       		.uleb128 0x6
 3126 00cb 9742     		.uleb128 0x2117
 3127 00cd 0C       		.uleb128 0xc
 3128 00ce 01       		.uleb128 0x1
 3129 00cf 13       		.uleb128 0x13
 3130 00d0 00       		.byte	0
 3131 00d1 00       		.byte	0
 3132 00d2 0D       		.uleb128 0xd
 3133 00d3 2E       		.uleb128 0x2e
 3134 00d4 00       		.byte	0
 3135 00d5 3F       		.uleb128 0x3f
 3136 00d6 0C       		.uleb128 0xc
 3137 00d7 03       		.uleb128 0x3
 3138 00d8 0E       		.uleb128 0xe
 3139 00d9 3A       		.uleb128 0x3a
 3140 00da 0B       		.uleb128 0xb
 3141 00db 3B       		.uleb128 0x3b
 3142 00dc 05       		.uleb128 0x5
 3143 00dd 27       		.uleb128 0x27
 3144 00de 0C       		.uleb128 0xc
 3145 00df 49       		.uleb128 0x49
 3146 00e0 13       		.uleb128 0x13
 3147 00e1 11       		.uleb128 0x11
 3148 00e2 01       		.uleb128 0x1
 3149 00e3 12       		.uleb128 0x12
 3150 00e4 01       		.uleb128 0x1
 3151 00e5 40       		.uleb128 0x40
 3152 00e6 06       		.uleb128 0x6
 3153 00e7 9742     		.uleb128 0x2117
 3154 00e9 0C       		.uleb128 0xc
 3155 00ea 00       		.byte	0
 3156 00eb 00       		.byte	0
 3157 00ec 0E       		.uleb128 0xe
 3158 00ed 34       		.uleb128 0x34
 3159 00ee 00       		.byte	0
 3160 00ef 03       		.uleb128 0x3
 3161 00f0 0E       		.uleb128 0xe
ARM GAS  C:\Users\Jared\AppData\Local\Temp\ccOOnCAQ.s 			page 81


 3162 00f1 3A       		.uleb128 0x3a
 3163 00f2 0B       		.uleb128 0xb
 3164 00f3 3B       		.uleb128 0x3b
 3165 00f4 0B       		.uleb128 0xb
 3166 00f5 49       		.uleb128 0x49
 3167 00f6 13       		.uleb128 0x13
 3168 00f7 3F       		.uleb128 0x3f
 3169 00f8 0C       		.uleb128 0xc
 3170 00f9 02       		.uleb128 0x2
 3171 00fa 0A       		.uleb128 0xa
 3172 00fb 00       		.byte	0
 3173 00fc 00       		.byte	0
 3174 00fd 00       		.byte	0
 3175              		.section	.debug_loc,"",%progbits
 3176              	.Ldebug_loc0:
 3177              	.LLST0:
 3178 0000 00000000 		.4byte	.LFB0
 3179 0004 02000000 		.4byte	.LCFI0
 3180 0008 0200     		.2byte	0x2
 3181 000a 7D       		.byte	0x7d
 3182 000b 00       		.sleb128 0
 3183 000c 02000000 		.4byte	.LCFI0
 3184 0010 04000000 		.4byte	.LCFI1
 3185 0014 0200     		.2byte	0x2
 3186 0016 7D       		.byte	0x7d
 3187 0017 08       		.sleb128 8
 3188 0018 04000000 		.4byte	.LCFI1
 3189 001c 34000000 		.4byte	.LFE0
 3190 0020 0200     		.2byte	0x2
 3191 0022 77       		.byte	0x77
 3192 0023 08       		.sleb128 8
 3193 0024 00000000 		.4byte	0
 3194 0028 00000000 		.4byte	0
 3195              	.LLST1:
 3196 002c 00000000 		.4byte	.LFB1
 3197 0030 02000000 		.4byte	.LCFI2
 3198 0034 0200     		.2byte	0x2
 3199 0036 7D       		.byte	0x7d
 3200 0037 00       		.sleb128 0
 3201 0038 02000000 		.4byte	.LCFI2
 3202 003c 04000000 		.4byte	.LCFI3
 3203 0040 0200     		.2byte	0x2
 3204 0042 7D       		.byte	0x7d
 3205 0043 0C       		.sleb128 12
 3206 0044 04000000 		.4byte	.LCFI3
 3207 0048 06000000 		.4byte	.LCFI4
 3208 004c 0200     		.2byte	0x2
 3209 004e 7D       		.byte	0x7d
 3210 004f 18       		.sleb128 24
 3211 0050 06000000 		.4byte	.LCFI4
 3212 0054 38000000 		.4byte	.LFE1
 3213 0058 0200     		.2byte	0x2
 3214 005a 77       		.byte	0x77
 3215 005b 18       		.sleb128 24
 3216 005c 00000000 		.4byte	0
 3217 0060 00000000 		.4byte	0
 3218              	.LLST2:
ARM GAS  C:\Users\Jared\AppData\Local\Temp\ccOOnCAQ.s 			page 82


 3219 0064 00000000 		.4byte	.LFB2
 3220 0068 02000000 		.4byte	.LCFI5
 3221 006c 0200     		.2byte	0x2
 3222 006e 7D       		.byte	0x7d
 3223 006f 00       		.sleb128 0
 3224 0070 02000000 		.4byte	.LCFI5
 3225 0074 04000000 		.4byte	.LCFI6
 3226 0078 0200     		.2byte	0x2
 3227 007a 7D       		.byte	0x7d
 3228 007b 08       		.sleb128 8
 3229 007c 04000000 		.4byte	.LCFI6
 3230 0080 24000000 		.4byte	.LFE2
 3231 0084 0200     		.2byte	0x2
 3232 0086 77       		.byte	0x77
 3233 0087 08       		.sleb128 8
 3234 0088 00000000 		.4byte	0
 3235 008c 00000000 		.4byte	0
 3236              	.LLST3:
 3237 0090 00000000 		.4byte	.LFB3
 3238 0094 02000000 		.4byte	.LCFI7
 3239 0098 0200     		.2byte	0x2
 3240 009a 7D       		.byte	0x7d
 3241 009b 00       		.sleb128 0
 3242 009c 02000000 		.4byte	.LCFI7
 3243 00a0 04000000 		.4byte	.LCFI8
 3244 00a4 0200     		.2byte	0x2
 3245 00a6 7D       		.byte	0x7d
 3246 00a7 0C       		.sleb128 12
 3247 00a8 04000000 		.4byte	.LCFI8
 3248 00ac 06000000 		.4byte	.LCFI9
 3249 00b0 0200     		.2byte	0x2
 3250 00b2 7D       		.byte	0x7d
 3251 00b3 18       		.sleb128 24
 3252 00b4 06000000 		.4byte	.LCFI9
 3253 00b8 30000000 		.4byte	.LFE3
 3254 00bc 0200     		.2byte	0x2
 3255 00be 77       		.byte	0x77
 3256 00bf 18       		.sleb128 24
 3257 00c0 00000000 		.4byte	0
 3258 00c4 00000000 		.4byte	0
 3259              	.LLST4:
 3260 00c8 00000000 		.4byte	.LFB4
 3261 00cc 02000000 		.4byte	.LCFI10
 3262 00d0 0200     		.2byte	0x2
 3263 00d2 7D       		.byte	0x7d
 3264 00d3 00       		.sleb128 0
 3265 00d4 02000000 		.4byte	.LCFI10
 3266 00d8 04000000 		.4byte	.LCFI11
 3267 00dc 0200     		.2byte	0x2
 3268 00de 7D       		.byte	0x7d
 3269 00df 0C       		.sleb128 12
 3270 00e0 04000000 		.4byte	.LCFI11
 3271 00e4 06000000 		.4byte	.LCFI12
 3272 00e8 0200     		.2byte	0x2
 3273 00ea 7D       		.byte	0x7d
 3274 00eb 20       		.sleb128 32
 3275 00ec 06000000 		.4byte	.LCFI12
ARM GAS  C:\Users\Jared\AppData\Local\Temp\ccOOnCAQ.s 			page 83


 3276 00f0 48000000 		.4byte	.LFE4
 3277 00f4 0200     		.2byte	0x2
 3278 00f6 77       		.byte	0x77
 3279 00f7 20       		.sleb128 32
 3280 00f8 00000000 		.4byte	0
 3281 00fc 00000000 		.4byte	0
 3282              	.LLST5:
 3283 0100 00000000 		.4byte	.LFB5
 3284 0104 02000000 		.4byte	.LCFI13
 3285 0108 0200     		.2byte	0x2
 3286 010a 7D       		.byte	0x7d
 3287 010b 00       		.sleb128 0
 3288 010c 02000000 		.4byte	.LCFI13
 3289 0110 04000000 		.4byte	.LCFI14
 3290 0114 0200     		.2byte	0x2
 3291 0116 7D       		.byte	0x7d
 3292 0117 0C       		.sleb128 12
 3293 0118 04000000 		.4byte	.LCFI14
 3294 011c 06000000 		.4byte	.LCFI15
 3295 0120 0200     		.2byte	0x2
 3296 0122 7D       		.byte	0x7d
 3297 0123 20       		.sleb128 32
 3298 0124 06000000 		.4byte	.LCFI15
 3299 0128 48000000 		.4byte	.LFE5
 3300 012c 0200     		.2byte	0x2
 3301 012e 77       		.byte	0x77
 3302 012f 20       		.sleb128 32
 3303 0130 00000000 		.4byte	0
 3304 0134 00000000 		.4byte	0
 3305              	.LLST6:
 3306 0138 00000000 		.4byte	.LFB6
 3307 013c 02000000 		.4byte	.LCFI16
 3308 0140 0200     		.2byte	0x2
 3309 0142 7D       		.byte	0x7d
 3310 0143 00       		.sleb128 0
 3311 0144 02000000 		.4byte	.LCFI16
 3312 0148 04000000 		.4byte	.LCFI17
 3313 014c 0200     		.2byte	0x2
 3314 014e 7D       		.byte	0x7d
 3315 014f 0C       		.sleb128 12
 3316 0150 04000000 		.4byte	.LCFI17
 3317 0154 06000000 		.4byte	.LCFI18
 3318 0158 0200     		.2byte	0x2
 3319 015a 7D       		.byte	0x7d
 3320 015b 20       		.sleb128 32
 3321 015c 06000000 		.4byte	.LCFI18
 3322 0160 48000000 		.4byte	.LFE6
 3323 0164 0200     		.2byte	0x2
 3324 0166 77       		.byte	0x77
 3325 0167 20       		.sleb128 32
 3326 0168 00000000 		.4byte	0
 3327 016c 00000000 		.4byte	0
 3328              	.LLST7:
 3329 0170 00000000 		.4byte	.LFB7
 3330 0174 02000000 		.4byte	.LCFI19
 3331 0178 0200     		.2byte	0x2
 3332 017a 7D       		.byte	0x7d
ARM GAS  C:\Users\Jared\AppData\Local\Temp\ccOOnCAQ.s 			page 84


 3333 017b 00       		.sleb128 0
 3334 017c 02000000 		.4byte	.LCFI19
 3335 0180 04000000 		.4byte	.LCFI20
 3336 0184 0200     		.2byte	0x2
 3337 0186 7D       		.byte	0x7d
 3338 0187 0C       		.sleb128 12
 3339 0188 04000000 		.4byte	.LCFI20
 3340 018c 06000000 		.4byte	.LCFI21
 3341 0190 0200     		.2byte	0x2
 3342 0192 7D       		.byte	0x7d
 3343 0193 20       		.sleb128 32
 3344 0194 06000000 		.4byte	.LCFI21
 3345 0198 4C000000 		.4byte	.LFE7
 3346 019c 0200     		.2byte	0x2
 3347 019e 77       		.byte	0x77
 3348 019f 20       		.sleb128 32
 3349 01a0 00000000 		.4byte	0
 3350 01a4 00000000 		.4byte	0
 3351              	.LLST8:
 3352 01a8 00000000 		.4byte	.LFB8
 3353 01ac 02000000 		.4byte	.LCFI22
 3354 01b0 0200     		.2byte	0x2
 3355 01b2 7D       		.byte	0x7d
 3356 01b3 00       		.sleb128 0
 3357 01b4 02000000 		.4byte	.LCFI22
 3358 01b8 04000000 		.4byte	.LCFI23
 3359 01bc 0200     		.2byte	0x2
 3360 01be 7D       		.byte	0x7d
 3361 01bf 08       		.sleb128 8
 3362 01c0 04000000 		.4byte	.LCFI23
 3363 01c4 06000000 		.4byte	.LCFI24
 3364 01c8 0200     		.2byte	0x2
 3365 01ca 7D       		.byte	0x7d
 3366 01cb 10       		.sleb128 16
 3367 01cc 06000000 		.4byte	.LCFI24
 3368 01d0 1C000000 		.4byte	.LFE8
 3369 01d4 0200     		.2byte	0x2
 3370 01d6 77       		.byte	0x77
 3371 01d7 10       		.sleb128 16
 3372 01d8 00000000 		.4byte	0
 3373 01dc 00000000 		.4byte	0
 3374              	.LLST9:
 3375 01e0 00000000 		.4byte	.LFB9
 3376 01e4 02000000 		.4byte	.LCFI25
 3377 01e8 0200     		.2byte	0x2
 3378 01ea 7D       		.byte	0x7d
 3379 01eb 00       		.sleb128 0
 3380 01ec 02000000 		.4byte	.LCFI25
 3381 01f0 04000000 		.4byte	.LCFI26
 3382 01f4 0200     		.2byte	0x2
 3383 01f6 7D       		.byte	0x7d
 3384 01f7 0C       		.sleb128 12
 3385 01f8 04000000 		.4byte	.LCFI26
 3386 01fc 06000000 		.4byte	.LCFI27
 3387 0200 0200     		.2byte	0x2
 3388 0202 7D       		.byte	0x7d
 3389 0203 20       		.sleb128 32
ARM GAS  C:\Users\Jared\AppData\Local\Temp\ccOOnCAQ.s 			page 85


 3390 0204 06000000 		.4byte	.LCFI27
 3391 0208 48000000 		.4byte	.LFE9
 3392 020c 0200     		.2byte	0x2
 3393 020e 77       		.byte	0x77
 3394 020f 20       		.sleb128 32
 3395 0210 00000000 		.4byte	0
 3396 0214 00000000 		.4byte	0
 3397              	.LLST10:
 3398 0218 00000000 		.4byte	.LFB10
 3399 021c 02000000 		.4byte	.LCFI28
 3400 0220 0200     		.2byte	0x2
 3401 0222 7D       		.byte	0x7d
 3402 0223 00       		.sleb128 0
 3403 0224 02000000 		.4byte	.LCFI28
 3404 0228 04000000 		.4byte	.LCFI29
 3405 022c 0200     		.2byte	0x2
 3406 022e 7D       		.byte	0x7d
 3407 022f 0C       		.sleb128 12
 3408 0230 04000000 		.4byte	.LCFI29
 3409 0234 06000000 		.4byte	.LCFI30
 3410 0238 0200     		.2byte	0x2
 3411 023a 7D       		.byte	0x7d
 3412 023b 20       		.sleb128 32
 3413 023c 06000000 		.4byte	.LCFI30
 3414 0240 48000000 		.4byte	.LFE10
 3415 0244 0200     		.2byte	0x2
 3416 0246 77       		.byte	0x77
 3417 0247 20       		.sleb128 32
 3418 0248 00000000 		.4byte	0
 3419 024c 00000000 		.4byte	0
 3420              	.LLST11:
 3421 0250 00000000 		.4byte	.LFB11
 3422 0254 02000000 		.4byte	.LCFI31
 3423 0258 0200     		.2byte	0x2
 3424 025a 7D       		.byte	0x7d
 3425 025b 00       		.sleb128 0
 3426 025c 02000000 		.4byte	.LCFI31
 3427 0260 04000000 		.4byte	.LCFI32
 3428 0264 0200     		.2byte	0x2
 3429 0266 7D       		.byte	0x7d
 3430 0267 0C       		.sleb128 12
 3431 0268 04000000 		.4byte	.LCFI32
 3432 026c 06000000 		.4byte	.LCFI33
 3433 0270 0200     		.2byte	0x2
 3434 0272 7D       		.byte	0x7d
 3435 0273 20       		.sleb128 32
 3436 0274 06000000 		.4byte	.LCFI33
 3437 0278 4C000000 		.4byte	.LFE11
 3438 027c 0200     		.2byte	0x2
 3439 027e 77       		.byte	0x77
 3440 027f 20       		.sleb128 32
 3441 0280 00000000 		.4byte	0
 3442 0284 00000000 		.4byte	0
 3443              	.LLST12:
 3444 0288 00000000 		.4byte	.LFB12
 3445 028c 02000000 		.4byte	.LCFI34
 3446 0290 0200     		.2byte	0x2
ARM GAS  C:\Users\Jared\AppData\Local\Temp\ccOOnCAQ.s 			page 86


 3447 0292 7D       		.byte	0x7d
 3448 0293 00       		.sleb128 0
 3449 0294 02000000 		.4byte	.LCFI34
 3450 0298 04000000 		.4byte	.LCFI35
 3451 029c 0200     		.2byte	0x2
 3452 029e 7D       		.byte	0x7d
 3453 029f 0C       		.sleb128 12
 3454 02a0 04000000 		.4byte	.LCFI35
 3455 02a4 06000000 		.4byte	.LCFI36
 3456 02a8 0200     		.2byte	0x2
 3457 02aa 7D       		.byte	0x7d
 3458 02ab 20       		.sleb128 32
 3459 02ac 06000000 		.4byte	.LCFI36
 3460 02b0 48000000 		.4byte	.LFE12
 3461 02b4 0200     		.2byte	0x2
 3462 02b6 77       		.byte	0x77
 3463 02b7 20       		.sleb128 32
 3464 02b8 00000000 		.4byte	0
 3465 02bc 00000000 		.4byte	0
 3466              	.LLST13:
 3467 02c0 00000000 		.4byte	.LFB13
 3468 02c4 02000000 		.4byte	.LCFI37
 3469 02c8 0200     		.2byte	0x2
 3470 02ca 7D       		.byte	0x7d
 3471 02cb 00       		.sleb128 0
 3472 02cc 02000000 		.4byte	.LCFI37
 3473 02d0 04000000 		.4byte	.LCFI38
 3474 02d4 0200     		.2byte	0x2
 3475 02d6 7D       		.byte	0x7d
 3476 02d7 08       		.sleb128 8
 3477 02d8 04000000 		.4byte	.LCFI38
 3478 02dc 06000000 		.4byte	.LCFI39
 3479 02e0 0200     		.2byte	0x2
 3480 02e2 7D       		.byte	0x7d
 3481 02e3 10       		.sleb128 16
 3482 02e4 06000000 		.4byte	.LCFI39
 3483 02e8 1C000000 		.4byte	.LFE13
 3484 02ec 0200     		.2byte	0x2
 3485 02ee 77       		.byte	0x77
 3486 02ef 10       		.sleb128 16
 3487 02f0 00000000 		.4byte	0
 3488 02f4 00000000 		.4byte	0
 3489              	.LLST14:
 3490 02f8 00000000 		.4byte	.LFB14
 3491 02fc 02000000 		.4byte	.LCFI40
 3492 0300 0200     		.2byte	0x2
 3493 0302 7D       		.byte	0x7d
 3494 0303 00       		.sleb128 0
 3495 0304 02000000 		.4byte	.LCFI40
 3496 0308 04000000 		.4byte	.LCFI41
 3497 030c 0200     		.2byte	0x2
 3498 030e 7D       		.byte	0x7d
 3499 030f 08       		.sleb128 8
 3500 0310 04000000 		.4byte	.LCFI41
 3501 0314 18000000 		.4byte	.LFE14
 3502 0318 0200     		.2byte	0x2
 3503 031a 77       		.byte	0x77
ARM GAS  C:\Users\Jared\AppData\Local\Temp\ccOOnCAQ.s 			page 87


 3504 031b 08       		.sleb128 8
 3505 031c 00000000 		.4byte	0
 3506 0320 00000000 		.4byte	0
 3507              	.LLST15:
 3508 0324 00000000 		.4byte	.LFB15
 3509 0328 02000000 		.4byte	.LCFI42
 3510 032c 0200     		.2byte	0x2
 3511 032e 7D       		.byte	0x7d
 3512 032f 00       		.sleb128 0
 3513 0330 02000000 		.4byte	.LCFI42
 3514 0334 04000000 		.4byte	.LCFI43
 3515 0338 0200     		.2byte	0x2
 3516 033a 7D       		.byte	0x7d
 3517 033b 0C       		.sleb128 12
 3518 033c 04000000 		.4byte	.LCFI43
 3519 0340 06000000 		.4byte	.LCFI44
 3520 0344 0200     		.2byte	0x2
 3521 0346 7D       		.byte	0x7d
 3522 0347 20       		.sleb128 32
 3523 0348 06000000 		.4byte	.LCFI44
 3524 034c 48000000 		.4byte	.LFE15
 3525 0350 0200     		.2byte	0x2
 3526 0352 77       		.byte	0x77
 3527 0353 20       		.sleb128 32
 3528 0354 00000000 		.4byte	0
 3529 0358 00000000 		.4byte	0
 3530              	.LLST16:
 3531 035c 00000000 		.4byte	.LFB16
 3532 0360 02000000 		.4byte	.LCFI45
 3533 0364 0200     		.2byte	0x2
 3534 0366 7D       		.byte	0x7d
 3535 0367 00       		.sleb128 0
 3536 0368 02000000 		.4byte	.LCFI45
 3537 036c 04000000 		.4byte	.LCFI46
 3538 0370 0200     		.2byte	0x2
 3539 0372 7D       		.byte	0x7d
 3540 0373 08       		.sleb128 8
 3541 0374 04000000 		.4byte	.LCFI46
 3542 0378 06000000 		.4byte	.LCFI47
 3543 037c 0200     		.2byte	0x2
 3544 037e 7D       		.byte	0x7d
 3545 037f 10       		.sleb128 16
 3546 0380 06000000 		.4byte	.LCFI47
 3547 0384 1C000000 		.4byte	.LFE16
 3548 0388 0200     		.2byte	0x2
 3549 038a 77       		.byte	0x77
 3550 038b 10       		.sleb128 16
 3551 038c 00000000 		.4byte	0
 3552 0390 00000000 		.4byte	0
 3553              	.LLST17:
 3554 0394 00000000 		.4byte	.LFB17
 3555 0398 02000000 		.4byte	.LCFI48
 3556 039c 0200     		.2byte	0x2
 3557 039e 7D       		.byte	0x7d
 3558 039f 00       		.sleb128 0
 3559 03a0 02000000 		.4byte	.LCFI48
 3560 03a4 04000000 		.4byte	.LCFI49
ARM GAS  C:\Users\Jared\AppData\Local\Temp\ccOOnCAQ.s 			page 88


 3561 03a8 0200     		.2byte	0x2
 3562 03aa 7D       		.byte	0x7d
 3563 03ab 08       		.sleb128 8
 3564 03ac 04000000 		.4byte	.LCFI49
 3565 03b0 18000000 		.4byte	.LFE17
 3566 03b4 0200     		.2byte	0x2
 3567 03b6 77       		.byte	0x77
 3568 03b7 08       		.sleb128 8
 3569 03b8 00000000 		.4byte	0
 3570 03bc 00000000 		.4byte	0
 3571              	.LLST18:
 3572 03c0 00000000 		.4byte	.LFB18
 3573 03c4 02000000 		.4byte	.LCFI50
 3574 03c8 0200     		.2byte	0x2
 3575 03ca 7D       		.byte	0x7d
 3576 03cb 00       		.sleb128 0
 3577 03cc 02000000 		.4byte	.LCFI50
 3578 03d0 04000000 		.4byte	.LCFI51
 3579 03d4 0200     		.2byte	0x2
 3580 03d6 7D       		.byte	0x7d
 3581 03d7 0C       		.sleb128 12
 3582 03d8 04000000 		.4byte	.LCFI51
 3583 03dc 06000000 		.4byte	.LCFI52
 3584 03e0 0200     		.2byte	0x2
 3585 03e2 7D       		.byte	0x7d
 3586 03e3 20       		.sleb128 32
 3587 03e4 06000000 		.4byte	.LCFI52
 3588 03e8 48000000 		.4byte	.LFE18
 3589 03ec 0200     		.2byte	0x2
 3590 03ee 77       		.byte	0x77
 3591 03ef 20       		.sleb128 32
 3592 03f0 00000000 		.4byte	0
 3593 03f4 00000000 		.4byte	0
 3594              	.LLST19:
 3595 03f8 00000000 		.4byte	.LFB19
 3596 03fc 02000000 		.4byte	.LCFI53
 3597 0400 0200     		.2byte	0x2
 3598 0402 7D       		.byte	0x7d
 3599 0403 00       		.sleb128 0
 3600 0404 02000000 		.4byte	.LCFI53
 3601 0408 04000000 		.4byte	.LCFI54
 3602 040c 0200     		.2byte	0x2
 3603 040e 7D       		.byte	0x7d
 3604 040f 08       		.sleb128 8
 3605 0410 04000000 		.4byte	.LCFI54
 3606 0414 06000000 		.4byte	.LCFI55
 3607 0418 0200     		.2byte	0x2
 3608 041a 7D       		.byte	0x7d
 3609 041b 10       		.sleb128 16
 3610 041c 06000000 		.4byte	.LCFI55
 3611 0420 1C000000 		.4byte	.LFE19
 3612 0424 0200     		.2byte	0x2
 3613 0426 77       		.byte	0x77
 3614 0427 10       		.sleb128 16
 3615 0428 00000000 		.4byte	0
 3616 042c 00000000 		.4byte	0
 3617              	.LLST20:
ARM GAS  C:\Users\Jared\AppData\Local\Temp\ccOOnCAQ.s 			page 89


 3618 0430 00000000 		.4byte	.LFB20
 3619 0434 02000000 		.4byte	.LCFI56
 3620 0438 0200     		.2byte	0x2
 3621 043a 7D       		.byte	0x7d
 3622 043b 00       		.sleb128 0
 3623 043c 02000000 		.4byte	.LCFI56
 3624 0440 04000000 		.4byte	.LCFI57
 3625 0444 0200     		.2byte	0x2
 3626 0446 7D       		.byte	0x7d
 3627 0447 08       		.sleb128 8
 3628 0448 04000000 		.4byte	.LCFI57
 3629 044c 18000000 		.4byte	.LFE20
 3630 0450 0200     		.2byte	0x2
 3631 0452 77       		.byte	0x77
 3632 0453 08       		.sleb128 8
 3633 0454 00000000 		.4byte	0
 3634 0458 00000000 		.4byte	0
 3635              	.LLST21:
 3636 045c 00000000 		.4byte	.LFB21
 3637 0460 02000000 		.4byte	.LCFI58
 3638 0464 0200     		.2byte	0x2
 3639 0466 7D       		.byte	0x7d
 3640 0467 00       		.sleb128 0
 3641 0468 02000000 		.4byte	.LCFI58
 3642 046c 04000000 		.4byte	.LCFI59
 3643 0470 0200     		.2byte	0x2
 3644 0472 7D       		.byte	0x7d
 3645 0473 0C       		.sleb128 12
 3646 0474 04000000 		.4byte	.LCFI59
 3647 0478 06000000 		.4byte	.LCFI60
 3648 047c 0200     		.2byte	0x2
 3649 047e 7D       		.byte	0x7d
 3650 047f 20       		.sleb128 32
 3651 0480 06000000 		.4byte	.LCFI60
 3652 0484 48000000 		.4byte	.LFE21
 3653 0488 0200     		.2byte	0x2
 3654 048a 77       		.byte	0x77
 3655 048b 20       		.sleb128 32
 3656 048c 00000000 		.4byte	0
 3657 0490 00000000 		.4byte	0
 3658              	.LLST22:
 3659 0494 00000000 		.4byte	.LFB22
 3660 0498 02000000 		.4byte	.LCFI61
 3661 049c 0200     		.2byte	0x2
 3662 049e 7D       		.byte	0x7d
 3663 049f 00       		.sleb128 0
 3664 04a0 02000000 		.4byte	.LCFI61
 3665 04a4 04000000 		.4byte	.LCFI62
 3666 04a8 0200     		.2byte	0x2
 3667 04aa 7D       		.byte	0x7d
 3668 04ab 08       		.sleb128 8
 3669 04ac 04000000 		.4byte	.LCFI62
 3670 04b0 06000000 		.4byte	.LCFI63
 3671 04b4 0200     		.2byte	0x2
 3672 04b6 7D       		.byte	0x7d
 3673 04b7 10       		.sleb128 16
 3674 04b8 06000000 		.4byte	.LCFI63
ARM GAS  C:\Users\Jared\AppData\Local\Temp\ccOOnCAQ.s 			page 90


 3675 04bc 1C000000 		.4byte	.LFE22
 3676 04c0 0200     		.2byte	0x2
 3677 04c2 77       		.byte	0x77
 3678 04c3 10       		.sleb128 16
 3679 04c4 00000000 		.4byte	0
 3680 04c8 00000000 		.4byte	0
 3681              	.LLST23:
 3682 04cc 00000000 		.4byte	.LFB23
 3683 04d0 02000000 		.4byte	.LCFI64
 3684 04d4 0200     		.2byte	0x2
 3685 04d6 7D       		.byte	0x7d
 3686 04d7 00       		.sleb128 0
 3687 04d8 02000000 		.4byte	.LCFI64
 3688 04dc 04000000 		.4byte	.LCFI65
 3689 04e0 0200     		.2byte	0x2
 3690 04e2 7D       		.byte	0x7d
 3691 04e3 08       		.sleb128 8
 3692 04e4 04000000 		.4byte	.LCFI65
 3693 04e8 18000000 		.4byte	.LFE23
 3694 04ec 0200     		.2byte	0x2
 3695 04ee 77       		.byte	0x77
 3696 04ef 08       		.sleb128 8
 3697 04f0 00000000 		.4byte	0
 3698 04f4 00000000 		.4byte	0
 3699              	.LLST24:
 3700 04f8 00000000 		.4byte	.LFB24
 3701 04fc 02000000 		.4byte	.LCFI66
 3702 0500 0200     		.2byte	0x2
 3703 0502 7D       		.byte	0x7d
 3704 0503 00       		.sleb128 0
 3705 0504 02000000 		.4byte	.LCFI66
 3706 0508 04000000 		.4byte	.LCFI67
 3707 050c 0200     		.2byte	0x2
 3708 050e 7D       		.byte	0x7d
 3709 050f 08       		.sleb128 8
 3710 0510 04000000 		.4byte	.LCFI67
 3711 0514 06000000 		.4byte	.LCFI68
 3712 0518 0200     		.2byte	0x2
 3713 051a 7D       		.byte	0x7d
 3714 051b 10       		.sleb128 16
 3715 051c 06000000 		.4byte	.LCFI68
 3716 0520 1C000000 		.4byte	.LFE24
 3717 0524 0200     		.2byte	0x2
 3718 0526 77       		.byte	0x77
 3719 0527 10       		.sleb128 16
 3720 0528 00000000 		.4byte	0
 3721 052c 00000000 		.4byte	0
 3722              	.LLST25:
 3723 0530 00000000 		.4byte	.LFB25
 3724 0534 02000000 		.4byte	.LCFI69
 3725 0538 0200     		.2byte	0x2
 3726 053a 7D       		.byte	0x7d
 3727 053b 00       		.sleb128 0
 3728 053c 02000000 		.4byte	.LCFI69
 3729 0540 04000000 		.4byte	.LCFI70
 3730 0544 0200     		.2byte	0x2
 3731 0546 7D       		.byte	0x7d
ARM GAS  C:\Users\Jared\AppData\Local\Temp\ccOOnCAQ.s 			page 91


 3732 0547 08       		.sleb128 8
 3733 0548 04000000 		.4byte	.LCFI70
 3734 054c 18000000 		.4byte	.LFE25
 3735 0550 0200     		.2byte	0x2
 3736 0552 77       		.byte	0x77
 3737 0553 08       		.sleb128 8
 3738 0554 00000000 		.4byte	0
 3739 0558 00000000 		.4byte	0
 3740              	.LLST26:
 3741 055c 00000000 		.4byte	.LFB26
 3742 0560 02000000 		.4byte	.LCFI71
 3743 0564 0200     		.2byte	0x2
 3744 0566 7D       		.byte	0x7d
 3745 0567 00       		.sleb128 0
 3746 0568 02000000 		.4byte	.LCFI71
 3747 056c 04000000 		.4byte	.LCFI72
 3748 0570 0200     		.2byte	0x2
 3749 0572 7D       		.byte	0x7d
 3750 0573 08       		.sleb128 8
 3751 0574 04000000 		.4byte	.LCFI72
 3752 0578 18000000 		.4byte	.LFE26
 3753 057c 0200     		.2byte	0x2
 3754 057e 77       		.byte	0x77
 3755 057f 08       		.sleb128 8
 3756 0580 00000000 		.4byte	0
 3757 0584 00000000 		.4byte	0
 3758              	.LLST27:
 3759 0588 00000000 		.4byte	.LFB27
 3760 058c 02000000 		.4byte	.LCFI73
 3761 0590 0200     		.2byte	0x2
 3762 0592 7D       		.byte	0x7d
 3763 0593 00       		.sleb128 0
 3764 0594 02000000 		.4byte	.LCFI73
 3765 0598 04000000 		.4byte	.LCFI74
 3766 059c 0200     		.2byte	0x2
 3767 059e 7D       		.byte	0x7d
 3768 059f 08       		.sleb128 8
 3769 05a0 04000000 		.4byte	.LCFI74
 3770 05a4 18000000 		.4byte	.LFE27
 3771 05a8 0200     		.2byte	0x2
 3772 05aa 77       		.byte	0x77
 3773 05ab 08       		.sleb128 8
 3774 05ac 00000000 		.4byte	0
 3775 05b0 00000000 		.4byte	0
 3776              	.LLST28:
 3777 05b4 00000000 		.4byte	.LFB28
 3778 05b8 02000000 		.4byte	.LCFI75
 3779 05bc 0200     		.2byte	0x2
 3780 05be 7D       		.byte	0x7d
 3781 05bf 00       		.sleb128 0
 3782 05c0 02000000 		.4byte	.LCFI75
 3783 05c4 04000000 		.4byte	.LCFI76
 3784 05c8 0200     		.2byte	0x2
 3785 05ca 7D       		.byte	0x7d
 3786 05cb 0C       		.sleb128 12
 3787 05cc 04000000 		.4byte	.LCFI76
 3788 05d0 06000000 		.4byte	.LCFI77
ARM GAS  C:\Users\Jared\AppData\Local\Temp\ccOOnCAQ.s 			page 92


 3789 05d4 0200     		.2byte	0x2
 3790 05d6 7D       		.byte	0x7d
 3791 05d7 20       		.sleb128 32
 3792 05d8 06000000 		.4byte	.LCFI77
 3793 05dc 44000000 		.4byte	.LFE28
 3794 05e0 0200     		.2byte	0x2
 3795 05e2 77       		.byte	0x77
 3796 05e3 20       		.sleb128 32
 3797 05e4 00000000 		.4byte	0
 3798 05e8 00000000 		.4byte	0
 3799              	.LLST29:
 3800 05ec 00000000 		.4byte	.LFB29
 3801 05f0 02000000 		.4byte	.LCFI78
 3802 05f4 0200     		.2byte	0x2
 3803 05f6 7D       		.byte	0x7d
 3804 05f7 00       		.sleb128 0
 3805 05f8 02000000 		.4byte	.LCFI78
 3806 05fc 04000000 		.4byte	.LCFI79
 3807 0600 0200     		.2byte	0x2
 3808 0602 7D       		.byte	0x7d
 3809 0603 0C       		.sleb128 12
 3810 0604 04000000 		.4byte	.LCFI79
 3811 0608 06000000 		.4byte	.LCFI80
 3812 060c 0200     		.2byte	0x2
 3813 060e 7D       		.byte	0x7d
 3814 060f 20       		.sleb128 32
 3815 0610 06000000 		.4byte	.LCFI80
 3816 0614 44000000 		.4byte	.LFE29
 3817 0618 0200     		.2byte	0x2
 3818 061a 77       		.byte	0x77
 3819 061b 20       		.sleb128 32
 3820 061c 00000000 		.4byte	0
 3821 0620 00000000 		.4byte	0
 3822              	.LLST30:
 3823 0624 00000000 		.4byte	.LFB30
 3824 0628 02000000 		.4byte	.LCFI81
 3825 062c 0200     		.2byte	0x2
 3826 062e 7D       		.byte	0x7d
 3827 062f 00       		.sleb128 0
 3828 0630 02000000 		.4byte	.LCFI81
 3829 0634 04000000 		.4byte	.LCFI82
 3830 0638 0200     		.2byte	0x2
 3831 063a 7D       		.byte	0x7d
 3832 063b 0C       		.sleb128 12
 3833 063c 04000000 		.4byte	.LCFI82
 3834 0640 06000000 		.4byte	.LCFI83
 3835 0644 0200     		.2byte	0x2
 3836 0646 7D       		.byte	0x7d
 3837 0647 20       		.sleb128 32
 3838 0648 06000000 		.4byte	.LCFI83
 3839 064c 48000000 		.4byte	.LFE30
 3840 0650 0200     		.2byte	0x2
 3841 0652 77       		.byte	0x77
 3842 0653 20       		.sleb128 32
 3843 0654 00000000 		.4byte	0
 3844 0658 00000000 		.4byte	0
 3845              	.LLST31:
ARM GAS  C:\Users\Jared\AppData\Local\Temp\ccOOnCAQ.s 			page 93


 3846 065c 00000000 		.4byte	.LFB31
 3847 0660 02000000 		.4byte	.LCFI84
 3848 0664 0200     		.2byte	0x2
 3849 0666 7D       		.byte	0x7d
 3850 0667 00       		.sleb128 0
 3851 0668 02000000 		.4byte	.LCFI84
 3852 066c 04000000 		.4byte	.LCFI85
 3853 0670 0200     		.2byte	0x2
 3854 0672 7D       		.byte	0x7d
 3855 0673 0C       		.sleb128 12
 3856 0674 04000000 		.4byte	.LCFI85
 3857 0678 06000000 		.4byte	.LCFI86
 3858 067c 0200     		.2byte	0x2
 3859 067e 7D       		.byte	0x7d
 3860 067f 20       		.sleb128 32
 3861 0680 06000000 		.4byte	.LCFI86
 3862 0684 44000000 		.4byte	.LFE31
 3863 0688 0200     		.2byte	0x2
 3864 068a 77       		.byte	0x77
 3865 068b 20       		.sleb128 32
 3866 068c 00000000 		.4byte	0
 3867 0690 00000000 		.4byte	0
 3868              	.LLST32:
 3869 0694 00000000 		.4byte	.LFB32
 3870 0698 02000000 		.4byte	.LCFI87
 3871 069c 0200     		.2byte	0x2
 3872 069e 7D       		.byte	0x7d
 3873 069f 00       		.sleb128 0
 3874 06a0 02000000 		.4byte	.LCFI87
 3875 06a4 04000000 		.4byte	.LCFI88
 3876 06a8 0200     		.2byte	0x2
 3877 06aa 7D       		.byte	0x7d
 3878 06ab 0C       		.sleb128 12
 3879 06ac 04000000 		.4byte	.LCFI88
 3880 06b0 06000000 		.4byte	.LCFI89
 3881 06b4 0200     		.2byte	0x2
 3882 06b6 7D       		.byte	0x7d
 3883 06b7 20       		.sleb128 32
 3884 06b8 06000000 		.4byte	.LCFI89
 3885 06bc 44000000 		.4byte	.LFE32
 3886 06c0 0200     		.2byte	0x2
 3887 06c2 77       		.byte	0x77
 3888 06c3 20       		.sleb128 32
 3889 06c4 00000000 		.4byte	0
 3890 06c8 00000000 		.4byte	0
 3891              	.LLST33:
 3892 06cc 00000000 		.4byte	.LFB33
 3893 06d0 02000000 		.4byte	.LCFI90
 3894 06d4 0200     		.2byte	0x2
 3895 06d6 7D       		.byte	0x7d
 3896 06d7 00       		.sleb128 0
 3897 06d8 02000000 		.4byte	.LCFI90
 3898 06dc 04000000 		.4byte	.LCFI91
 3899 06e0 0200     		.2byte	0x2
 3900 06e2 7D       		.byte	0x7d
 3901 06e3 0C       		.sleb128 12
 3902 06e4 04000000 		.4byte	.LCFI91
ARM GAS  C:\Users\Jared\AppData\Local\Temp\ccOOnCAQ.s 			page 94


 3903 06e8 06000000 		.4byte	.LCFI92
 3904 06ec 0200     		.2byte	0x2
 3905 06ee 7D       		.byte	0x7d
 3906 06ef 20       		.sleb128 32
 3907 06f0 06000000 		.4byte	.LCFI92
 3908 06f4 3C000000 		.4byte	.LFE33
 3909 06f8 0200     		.2byte	0x2
 3910 06fa 77       		.byte	0x77
 3911 06fb 20       		.sleb128 32
 3912 06fc 00000000 		.4byte	0
 3913 0700 00000000 		.4byte	0
 3914              	.LLST34:
 3915 0704 00000000 		.4byte	.LFB34
 3916 0708 02000000 		.4byte	.LCFI93
 3917 070c 0200     		.2byte	0x2
 3918 070e 7D       		.byte	0x7d
 3919 070f 00       		.sleb128 0
 3920 0710 02000000 		.4byte	.LCFI93
 3921 0714 04000000 		.4byte	.LCFI94
 3922 0718 0200     		.2byte	0x2
 3923 071a 7D       		.byte	0x7d
 3924 071b 08       		.sleb128 8
 3925 071c 04000000 		.4byte	.LCFI94
 3926 0720 20000000 		.4byte	.LFE34
 3927 0724 0200     		.2byte	0x2
 3928 0726 77       		.byte	0x77
 3929 0727 08       		.sleb128 8
 3930 0728 00000000 		.4byte	0
 3931 072c 00000000 		.4byte	0
 3932              	.LLST35:
 3933 0730 00000000 		.4byte	.LFB35
 3934 0734 02000000 		.4byte	.LCFI95
 3935 0738 0200     		.2byte	0x2
 3936 073a 7D       		.byte	0x7d
 3937 073b 00       		.sleb128 0
 3938 073c 02000000 		.4byte	.LCFI95
 3939 0740 04000000 		.4byte	.LCFI96
 3940 0744 0200     		.2byte	0x2
 3941 0746 7D       		.byte	0x7d
 3942 0747 08       		.sleb128 8
 3943 0748 04000000 		.4byte	.LCFI96
 3944 074c 06000000 		.4byte	.LCFI97
 3945 0750 0200     		.2byte	0x2
 3946 0752 7D       		.byte	0x7d
 3947 0753 10       		.sleb128 16
 3948 0754 06000000 		.4byte	.LCFI97
 3949 0758 18000000 		.4byte	.LFE35
 3950 075c 0200     		.2byte	0x2
 3951 075e 77       		.byte	0x77
 3952 075f 10       		.sleb128 16
 3953 0760 00000000 		.4byte	0
 3954 0764 00000000 		.4byte	0
 3955              	.LLST36:
 3956 0768 00000000 		.4byte	.LFB36
 3957 076c 02000000 		.4byte	.LCFI98
 3958 0770 0200     		.2byte	0x2
 3959 0772 7D       		.byte	0x7d
ARM GAS  C:\Users\Jared\AppData\Local\Temp\ccOOnCAQ.s 			page 95


 3960 0773 00       		.sleb128 0
 3961 0774 02000000 		.4byte	.LCFI98
 3962 0778 04000000 		.4byte	.LCFI99
 3963 077c 0200     		.2byte	0x2
 3964 077e 7D       		.byte	0x7d
 3965 077f 08       		.sleb128 8
 3966 0780 04000000 		.4byte	.LCFI99
 3967 0784 14000000 		.4byte	.LFE36
 3968 0788 0200     		.2byte	0x2
 3969 078a 77       		.byte	0x77
 3970 078b 08       		.sleb128 8
 3971 078c 00000000 		.4byte	0
 3972 0790 00000000 		.4byte	0
 3973              	.LLST37:
 3974 0794 00000000 		.4byte	.LFB37
 3975 0798 02000000 		.4byte	.LCFI100
 3976 079c 0200     		.2byte	0x2
 3977 079e 7D       		.byte	0x7d
 3978 079f 00       		.sleb128 0
 3979 07a0 02000000 		.4byte	.LCFI100
 3980 07a4 04000000 		.4byte	.LCFI101
 3981 07a8 0200     		.2byte	0x2
 3982 07aa 7D       		.byte	0x7d
 3983 07ab 08       		.sleb128 8
 3984 07ac 04000000 		.4byte	.LCFI101
 3985 07b0 14000000 		.4byte	.LFE37
 3986 07b4 0200     		.2byte	0x2
 3987 07b6 77       		.byte	0x77
 3988 07b7 08       		.sleb128 8
 3989 07b8 00000000 		.4byte	0
 3990 07bc 00000000 		.4byte	0
 3991              	.LLST38:
 3992 07c0 00000000 		.4byte	.LFB38
 3993 07c4 02000000 		.4byte	.LCFI102
 3994 07c8 0200     		.2byte	0x2
 3995 07ca 7D       		.byte	0x7d
 3996 07cb 00       		.sleb128 0
 3997 07cc 02000000 		.4byte	.LCFI102
 3998 07d0 04000000 		.4byte	.LCFI103
 3999 07d4 0200     		.2byte	0x2
 4000 07d6 7D       		.byte	0x7d
 4001 07d7 08       		.sleb128 8
 4002 07d8 04000000 		.4byte	.LCFI103
 4003 07dc 06000000 		.4byte	.LCFI104
 4004 07e0 0200     		.2byte	0x2
 4005 07e2 7D       		.byte	0x7d
 4006 07e3 10       		.sleb128 16
 4007 07e4 06000000 		.4byte	.LCFI104
 4008 07e8 18000000 		.4byte	.LFE38
 4009 07ec 0200     		.2byte	0x2
 4010 07ee 77       		.byte	0x77
 4011 07ef 10       		.sleb128 16
 4012 07f0 00000000 		.4byte	0
 4013 07f4 00000000 		.4byte	0
 4014              	.LLST39:
 4015 07f8 00000000 		.4byte	.LFB39
 4016 07fc 02000000 		.4byte	.LCFI105
ARM GAS  C:\Users\Jared\AppData\Local\Temp\ccOOnCAQ.s 			page 96


 4017 0800 0200     		.2byte	0x2
 4018 0802 7D       		.byte	0x7d
 4019 0803 00       		.sleb128 0
 4020 0804 02000000 		.4byte	.LCFI105
 4021 0808 04000000 		.4byte	.LCFI106
 4022 080c 0200     		.2byte	0x2
 4023 080e 7D       		.byte	0x7d
 4024 080f 08       		.sleb128 8
 4025 0810 04000000 		.4byte	.LCFI106
 4026 0814 06000000 		.4byte	.LCFI107
 4027 0818 0200     		.2byte	0x2
 4028 081a 7D       		.byte	0x7d
 4029 081b 10       		.sleb128 16
 4030 081c 06000000 		.4byte	.LCFI107
 4031 0820 18000000 		.4byte	.LFE39
 4032 0824 0200     		.2byte	0x2
 4033 0826 77       		.byte	0x77
 4034 0827 10       		.sleb128 16
 4035 0828 00000000 		.4byte	0
 4036 082c 00000000 		.4byte	0
 4037              		.section	.debug_aranges,"",%progbits
 4038 0000 54010000 		.4byte	0x154
 4039 0004 0200     		.2byte	0x2
 4040 0006 00000000 		.4byte	.Ldebug_info0
 4041 000a 04       		.byte	0x4
 4042 000b 00       		.byte	0
 4043 000c 0000     		.2byte	0
 4044 000e 0000     		.2byte	0
 4045 0010 00000000 		.4byte	.LFB0
 4046 0014 34000000 		.4byte	.LFE0-.LFB0
 4047 0018 00000000 		.4byte	.LFB1
 4048 001c 38000000 		.4byte	.LFE1-.LFB1
 4049 0020 00000000 		.4byte	.LFB2
 4050 0024 24000000 		.4byte	.LFE2-.LFB2
 4051 0028 00000000 		.4byte	.LFB3
 4052 002c 30000000 		.4byte	.LFE3-.LFB3
 4053 0030 00000000 		.4byte	.LFB4
 4054 0034 48000000 		.4byte	.LFE4-.LFB4
 4055 0038 00000000 		.4byte	.LFB5
 4056 003c 48000000 		.4byte	.LFE5-.LFB5
 4057 0040 00000000 		.4byte	.LFB6
 4058 0044 48000000 		.4byte	.LFE6-.LFB6
 4059 0048 00000000 		.4byte	.LFB7
 4060 004c 4C000000 		.4byte	.LFE7-.LFB7
 4061 0050 00000000 		.4byte	.LFB8
 4062 0054 1C000000 		.4byte	.LFE8-.LFB8
 4063 0058 00000000 		.4byte	.LFB9
 4064 005c 48000000 		.4byte	.LFE9-.LFB9
 4065 0060 00000000 		.4byte	.LFB10
 4066 0064 48000000 		.4byte	.LFE10-.LFB10
 4067 0068 00000000 		.4byte	.LFB11
 4068 006c 4C000000 		.4byte	.LFE11-.LFB11
 4069 0070 00000000 		.4byte	.LFB12
 4070 0074 48000000 		.4byte	.LFE12-.LFB12
 4071 0078 00000000 		.4byte	.LFB13
 4072 007c 1C000000 		.4byte	.LFE13-.LFB13
 4073 0080 00000000 		.4byte	.LFB14
ARM GAS  C:\Users\Jared\AppData\Local\Temp\ccOOnCAQ.s 			page 97


 4074 0084 18000000 		.4byte	.LFE14-.LFB14
 4075 0088 00000000 		.4byte	.LFB15
 4076 008c 48000000 		.4byte	.LFE15-.LFB15
 4077 0090 00000000 		.4byte	.LFB16
 4078 0094 1C000000 		.4byte	.LFE16-.LFB16
 4079 0098 00000000 		.4byte	.LFB17
 4080 009c 18000000 		.4byte	.LFE17-.LFB17
 4081 00a0 00000000 		.4byte	.LFB18
 4082 00a4 48000000 		.4byte	.LFE18-.LFB18
 4083 00a8 00000000 		.4byte	.LFB19
 4084 00ac 1C000000 		.4byte	.LFE19-.LFB19
 4085 00b0 00000000 		.4byte	.LFB20
 4086 00b4 18000000 		.4byte	.LFE20-.LFB20
 4087 00b8 00000000 		.4byte	.LFB21
 4088 00bc 48000000 		.4byte	.LFE21-.LFB21
 4089 00c0 00000000 		.4byte	.LFB22
 4090 00c4 1C000000 		.4byte	.LFE22-.LFB22
 4091 00c8 00000000 		.4byte	.LFB23
 4092 00cc 18000000 		.4byte	.LFE23-.LFB23
 4093 00d0 00000000 		.4byte	.LFB24
 4094 00d4 1C000000 		.4byte	.LFE24-.LFB24
 4095 00d8 00000000 		.4byte	.LFB25
 4096 00dc 18000000 		.4byte	.LFE25-.LFB25
 4097 00e0 00000000 		.4byte	.LFB26
 4098 00e4 18000000 		.4byte	.LFE26-.LFB26
 4099 00e8 00000000 		.4byte	.LFB27
 4100 00ec 18000000 		.4byte	.LFE27-.LFB27
 4101 00f0 00000000 		.4byte	.LFB28
 4102 00f4 44000000 		.4byte	.LFE28-.LFB28
 4103 00f8 00000000 		.4byte	.LFB29
 4104 00fc 44000000 		.4byte	.LFE29-.LFB29
 4105 0100 00000000 		.4byte	.LFB30
 4106 0104 48000000 		.4byte	.LFE30-.LFB30
 4107 0108 00000000 		.4byte	.LFB31
 4108 010c 44000000 		.4byte	.LFE31-.LFB31
 4109 0110 00000000 		.4byte	.LFB32
 4110 0114 44000000 		.4byte	.LFE32-.LFB32
 4111 0118 00000000 		.4byte	.LFB33
 4112 011c 3C000000 		.4byte	.LFE33-.LFB33
 4113 0120 00000000 		.4byte	.LFB34
 4114 0124 20000000 		.4byte	.LFE34-.LFB34
 4115 0128 00000000 		.4byte	.LFB35
 4116 012c 18000000 		.4byte	.LFE35-.LFB35
 4117 0130 00000000 		.4byte	.LFB36
 4118 0134 14000000 		.4byte	.LFE36-.LFB36
 4119 0138 00000000 		.4byte	.LFB37
 4120 013c 14000000 		.4byte	.LFE37-.LFB37
 4121 0140 00000000 		.4byte	.LFB38
 4122 0144 18000000 		.4byte	.LFE38-.LFB38
 4123 0148 00000000 		.4byte	.LFB39
 4124 014c 18000000 		.4byte	.LFE39-.LFB39
 4125 0150 00000000 		.4byte	0
 4126 0154 00000000 		.4byte	0
 4127              		.section	.debug_ranges,"",%progbits
 4128              	.Ldebug_ranges0:
 4129 0000 00000000 		.4byte	.LFB0
 4130 0004 34000000 		.4byte	.LFE0
ARM GAS  C:\Users\Jared\AppData\Local\Temp\ccOOnCAQ.s 			page 98


 4131 0008 00000000 		.4byte	.LFB1
 4132 000c 38000000 		.4byte	.LFE1
 4133 0010 00000000 		.4byte	.LFB2
 4134 0014 24000000 		.4byte	.LFE2
 4135 0018 00000000 		.4byte	.LFB3
 4136 001c 30000000 		.4byte	.LFE3
 4137 0020 00000000 		.4byte	.LFB4
 4138 0024 48000000 		.4byte	.LFE4
 4139 0028 00000000 		.4byte	.LFB5
 4140 002c 48000000 		.4byte	.LFE5
 4141 0030 00000000 		.4byte	.LFB6
 4142 0034 48000000 		.4byte	.LFE6
 4143 0038 00000000 		.4byte	.LFB7
 4144 003c 4C000000 		.4byte	.LFE7
 4145 0040 00000000 		.4byte	.LFB8
 4146 0044 1C000000 		.4byte	.LFE8
 4147 0048 00000000 		.4byte	.LFB9
 4148 004c 48000000 		.4byte	.LFE9
 4149 0050 00000000 		.4byte	.LFB10
 4150 0054 48000000 		.4byte	.LFE10
 4151 0058 00000000 		.4byte	.LFB11
 4152 005c 4C000000 		.4byte	.LFE11
 4153 0060 00000000 		.4byte	.LFB12
 4154 0064 48000000 		.4byte	.LFE12
 4155 0068 00000000 		.4byte	.LFB13
 4156 006c 1C000000 		.4byte	.LFE13
 4157 0070 00000000 		.4byte	.LFB14
 4158 0074 18000000 		.4byte	.LFE14
 4159 0078 00000000 		.4byte	.LFB15
 4160 007c 48000000 		.4byte	.LFE15
 4161 0080 00000000 		.4byte	.LFB16
 4162 0084 1C000000 		.4byte	.LFE16
 4163 0088 00000000 		.4byte	.LFB17
 4164 008c 18000000 		.4byte	.LFE17
 4165 0090 00000000 		.4byte	.LFB18
 4166 0094 48000000 		.4byte	.LFE18
 4167 0098 00000000 		.4byte	.LFB19
 4168 009c 1C000000 		.4byte	.LFE19
 4169 00a0 00000000 		.4byte	.LFB20
 4170 00a4 18000000 		.4byte	.LFE20
 4171 00a8 00000000 		.4byte	.LFB21
 4172 00ac 48000000 		.4byte	.LFE21
 4173 00b0 00000000 		.4byte	.LFB22
 4174 00b4 1C000000 		.4byte	.LFE22
 4175 00b8 00000000 		.4byte	.LFB23
 4176 00bc 18000000 		.4byte	.LFE23
 4177 00c0 00000000 		.4byte	.LFB24
 4178 00c4 1C000000 		.4byte	.LFE24
 4179 00c8 00000000 		.4byte	.LFB25
 4180 00cc 18000000 		.4byte	.LFE25
 4181 00d0 00000000 		.4byte	.LFB26
 4182 00d4 18000000 		.4byte	.LFE26
 4183 00d8 00000000 		.4byte	.LFB27
 4184 00dc 18000000 		.4byte	.LFE27
 4185 00e0 00000000 		.4byte	.LFB28
 4186 00e4 44000000 		.4byte	.LFE28
 4187 00e8 00000000 		.4byte	.LFB29
ARM GAS  C:\Users\Jared\AppData\Local\Temp\ccOOnCAQ.s 			page 99


 4188 00ec 44000000 		.4byte	.LFE29
 4189 00f0 00000000 		.4byte	.LFB30
 4190 00f4 48000000 		.4byte	.LFE30
 4191 00f8 00000000 		.4byte	.LFB31
 4192 00fc 44000000 		.4byte	.LFE31
 4193 0100 00000000 		.4byte	.LFB32
 4194 0104 44000000 		.4byte	.LFE32
 4195 0108 00000000 		.4byte	.LFB33
 4196 010c 3C000000 		.4byte	.LFE33
 4197 0110 00000000 		.4byte	.LFB34
 4198 0114 20000000 		.4byte	.LFE34
 4199 0118 00000000 		.4byte	.LFB35
 4200 011c 18000000 		.4byte	.LFE35
 4201 0120 00000000 		.4byte	.LFB36
 4202 0124 14000000 		.4byte	.LFE36
 4203 0128 00000000 		.4byte	.LFB37
 4204 012c 14000000 		.4byte	.LFE37
 4205 0130 00000000 		.4byte	.LFB38
 4206 0134 18000000 		.4byte	.LFE38
 4207 0138 00000000 		.4byte	.LFB39
 4208 013c 18000000 		.4byte	.LFE39
 4209 0140 00000000 		.4byte	0
 4210 0144 00000000 		.4byte	0
 4211              		.section	.debug_line,"",%progbits
 4212              	.Ldebug_line0:
 4213 0000 6B030000 		.section	.debug_str,"MS",%progbits,1
 4213      02004400 
 4213      00000201 
 4213      FB0E0D00 
 4213      01010101 
 4214              	.LASF33:
 4215 0000 54696D65 		.ascii	"Timer_SetPWMStopOnKill\000"
 4215      725F5365 
 4215      7450574D 
 4215      53746F70 
 4215      4F6E4B69 
 4216              	.LASF40:
 4217 0017 636F756E 		.ascii	"count\000"
 4217      7400
 4218              	.LASF73:
 4219 001d 54696D65 		.ascii	"Timer_GetInterruptSource\000"
 4219      725F4765 
 4219      74496E74 
 4219      65727275 
 4219      7074536F 
 4220              	.LASF43:
 4221 0036 54696D65 		.ascii	"Timer_WritePeriod\000"
 4221      725F5772 
 4221      69746550 
 4221      6572696F 
 4221      6400
 4222              	.LASF75:
 4223 0048 54696D65 		.ascii	"Timer_SetInterrupt\000"
 4223      725F5365 
 4223      74496E74 
 4223      65727275 
 4223      707400
ARM GAS  C:\Users\Jared\AppData\Local\Temp\ccOOnCAQ.s 			page 100


 4224              	.LASF44:
 4225 005b 70657269 		.ascii	"period\000"
 4225      6F6400
 4226              	.LASF21:
 4227 0062 54696D65 		.ascii	"Timer_SetMode\000"
 4227      725F5365 
 4227      744D6F64 
 4227      6500
 4228              	.LASF79:
 4229 0070 54696D65 		.ascii	"Timer_initVar\000"
 4229      725F696E 
 4229      69745661 
 4229      7200
 4230              	.LASF7:
 4231 007e 6C6F6E67 		.ascii	"long long unsigned int\000"
 4231      206C6F6E 
 4231      6720756E 
 4231      7369676E 
 4231      65642069 
 4232              	.LASF35:
 4233 0095 54696D65 		.ascii	"Timer_SetPWMDeadTime\000"
 4233      725F5365 
 4233      7450574D 
 4233      44656164 
 4233      54696D65 
 4234              	.LASF31:
 4235 00aa 54696D65 		.ascii	"Timer_SetPWMSyncKill\000"
 4235      725F5365 
 4235      7450574D 
 4235      53796E63 
 4235      4B696C6C 
 4236              	.LASF24:
 4237 00bf 71644D6F 		.ascii	"qdMode\000"
 4237      646500
 4238              	.LASF6:
 4239 00c6 6C6F6E67 		.ascii	"long long int\000"
 4239      206C6F6E 
 4239      6720696E 
 4239      7400
 4240              	.LASF0:
 4241 00d4 7369676E 		.ascii	"signed char\000"
 4241      65642063 
 4241      68617200 
 4242              	.LASF22:
 4243 00e0 54696D65 		.ascii	"Timer_SetQDMode\000"
 4243      725F5365 
 4243      7451444D 
 4243      6F646500 
 4244              	.LASF66:
 4245 00f0 54696D65 		.ascii	"Timer_SetCountMode\000"
 4245      725F5365 
 4245      74436F75 
 4245      6E744D6F 
 4245      646500
 4246              	.LASF54:
 4247 0103 636F6D70 		.ascii	"compare\000"
 4247      61726500 
ARM GAS  C:\Users\Jared\AppData\Local\Temp\ccOOnCAQ.s 			page 101


 4248              	.LASF4:
 4249 010b 6C6F6E67 		.ascii	"long int\000"
 4249      20696E74 
 4249      00
 4250              	.LASF70:
 4251 0114 54696D65 		.ascii	"Timer_SetInterruptMode\000"
 4251      725F5365 
 4251      74496E74 
 4251      65727275 
 4251      70744D6F 
 4252              	.LASF59:
 4253 012b 54696D65 		.ascii	"Timer_ReadCapture\000"
 4253      725F5265 
 4253      61644361 
 4253      70747572 
 4253      6500
 4254              	.LASF67:
 4255 013d 54696D65 		.ascii	"Timer_TriggerCommand\000"
 4255      725F5472 
 4255      69676765 
 4255      72436F6D 
 4255      6D616E64 
 4256              	.LASF9:
 4257 0152 75696E74 		.ascii	"uint8\000"
 4257      3800
 4258              	.LASF12:
 4259 0158 646F7562 		.ascii	"double\000"
 4259      6C6500
 4260              	.LASF78:
 4261 015f 433A5C55 		.ascii	"C:\\Users\\Jared\\Documents\\PSoC Creator\\MasterCo"
 4261      73657273 
 4261      5C4A6172 
 4261      65645C44 
 4261      6F63756D 
 4262 018d 6E74726F 		.ascii	"ntrollerBoard\\MasterController\\BYURover2015MainBo"
 4262      6C6C6572 
 4262      426F6172 
 4262      645C4D61 
 4262      73746572 
 4263 01be 61726453 		.ascii	"ardSM.cydsn\000"
 4263      4D2E6379 
 4263      64736E00 
 4264              	.LASF10:
 4265 01ca 75696E74 		.ascii	"uint32\000"
 4265      333200
 4266              	.LASF53:
 4267 01d1 54696D65 		.ascii	"Timer_WriteCompare\000"
 4267      725F5772 
 4267      69746543 
 4267      6F6D7061 
 4267      726500
 4268              	.LASF62:
 4269 01e4 74726967 		.ascii	"triggerMode\000"
 4269      6765724D 
 4269      6F646500 
 4270              	.LASF38:
 4271 01f0 6D61736B 		.ascii	"mask\000"
ARM GAS  C:\Users\Jared\AppData\Local\Temp\ccOOnCAQ.s 			page 102


 4271      00
 4272              	.LASF55:
 4273 01f5 54696D65 		.ascii	"Timer_ReadCompare\000"
 4273      725F5265 
 4273      6164436F 
 4273      6D706172 
 4273      6500
 4274              	.LASF36:
 4275 0207 64656164 		.ascii	"deadTime\000"
 4275      54696D65 
 4275      00
 4276              	.LASF56:
 4277 0210 54696D65 		.ascii	"Timer_WriteCompareBuf\000"
 4277      725F5772 
 4277      69746543 
 4277      6F6D7061 
 4277      72654275 
 4278              	.LASF77:
 4279 0226 2E5C4765 		.ascii	".\\Generated_Source\\PSoC4\\Timer.c\000"
 4279      6E657261 
 4279      7465645F 
 4279      536F7572 
 4279      63655C50 
 4280              	.LASF8:
 4281 0247 756E7369 		.ascii	"unsigned int\000"
 4281      676E6564 
 4281      20696E74 
 4281      00
 4282              	.LASF17:
 4283 0254 54696D65 		.ascii	"Timer_Start\000"
 4283      725F5374 
 4283      61727400 
 4284              	.LASF68:
 4285 0260 636F6D6D 		.ascii	"command\000"
 4285      616E6400 
 4286              	.LASF5:
 4287 0268 6C6F6E67 		.ascii	"long unsigned int\000"
 4287      20756E73 
 4287      69676E65 
 4287      6420696E 
 4287      7400
 4288              	.LASF30:
 4289 027a 6D6F6465 		.ascii	"modeMask\000"
 4289      4D61736B 
 4289      00
 4290              	.LASF18:
 4291 0283 54696D65 		.ascii	"Timer_Enable\000"
 4291      725F456E 
 4291      61626C65 
 4291      00
 4292              	.LASF3:
 4293 0290 73686F72 		.ascii	"short unsigned int\000"
 4293      7420756E 
 4293      7369676E 
 4293      65642069 
 4293      6E7400
 4294              	.LASF39:
ARM GAS  C:\Users\Jared\AppData\Local\Temp\ccOOnCAQ.s 			page 103


 4295 02a3 54696D65 		.ascii	"Timer_WriteCounter\000"
 4295      725F5772 
 4295      69746543 
 4295      6F756E74 
 4295      657200
 4296              	.LASF45:
 4297 02b6 54696D65 		.ascii	"Timer_ReadCounter\000"
 4297      725F5265 
 4297      6164436F 
 4297      756E7465 
 4297      7200
 4298              	.LASF19:
 4299 02c8 54696D65 		.ascii	"Timer_Stop\000"
 4299      725F5374 
 4299      6F7000
 4300              	.LASF28:
 4301 02d3 6F6E6553 		.ascii	"oneShotEnable\000"
 4301      686F7445 
 4301      6E61626C 
 4301      6500
 4302              	.LASF72:
 4303 02e1 54696D65 		.ascii	"Timer_GetInterruptSourceMasked\000"
 4303      725F4765 
 4303      74496E74 
 4303      65727275 
 4303      7074536F 
 4304              	.LASF14:
 4305 0300 72656733 		.ascii	"reg32\000"
 4305      3200
 4306              	.LASF47:
 4307 0306 54696D65 		.ascii	"Timer_SetCompareSwap\000"
 4307      725F5365 
 4307      74436F6D 
 4307      70617265 
 4307      53776170 
 4308              	.LASF15:
 4309 031b 73697A65 		.ascii	"sizetype\000"
 4309      74797065 
 4309      00
 4310              	.LASF49:
 4311 0324 54696D65 		.ascii	"Timer_WritePeriodBuf\000"
 4311      725F5772 
 4311      69746550 
 4311      6572696F 
 4311      64427566 
 4312              	.LASF32:
 4313 0339 73796E63 		.ascii	"syncKillEnable\000"
 4313      4B696C6C 
 4313      456E6162 
 4313      6C6500
 4314              	.LASF37:
 4315 0348 54696D65 		.ascii	"Timer_SetPWMInvert\000"
 4315      725F5365 
 4315      7450574D 
 4315      496E7665 
 4315      727400
 4316              	.LASF51:
ARM GAS  C:\Users\Jared\AppData\Local\Temp\ccOOnCAQ.s 			page 104


 4317 035b 54696D65 		.ascii	"Timer_ReadPeriodBuf\000"
 4317      725F5265 
 4317      61645065 
 4317      72696F64 
 4317      42756600 
 4318              	.LASF64:
 4319 036f 54696D65 		.ascii	"Timer_SetStartMode\000"
 4319      725F5365 
 4319      74537461 
 4319      72744D6F 
 4319      646500
 4320              	.LASF11:
 4321 0382 666C6F61 		.ascii	"float\000"
 4321      7400
 4322              	.LASF26:
 4323 0388 70726573 		.ascii	"prescaler\000"
 4323      63616C65 
 4323      7200
 4324              	.LASF65:
 4325 0392 54696D65 		.ascii	"Timer_SetStopMode\000"
 4325      725F5365 
 4325      7453746F 
 4325      704D6F64 
 4325      6500
 4326              	.LASF52:
 4327 03a4 54696D65 		.ascii	"Timer_SetPeriodSwap\000"
 4327      725F5365 
 4327      74506572 
 4327      696F6453 
 4327      77617000 
 4328              	.LASF60:
 4329 03b8 54696D65 		.ascii	"Timer_ReadCaptureBuf\000"
 4329      725F5265 
 4329      61644361 
 4329      70747572 
 4329      65427566 
 4330              	.LASF69:
 4331 03cd 54696D65 		.ascii	"Timer_ReadStatus\000"
 4331      725F5265 
 4331      61645374 
 4331      61747573 
 4331      00
 4332              	.LASF76:
 4333 03de 474E5520 		.ascii	"GNU C 4.7.3 20130312 (release) [ARM/embedded-4_7-br"
 4333      4320342E 
 4333      372E3320 
 4333      32303133 
 4333      30333132 
 4334 0411 616E6368 		.ascii	"anch revision 196615]\000"
 4334      20726576 
 4334      6973696F 
 4334      6E203139 
 4334      36363135 
 4335              	.LASF1:
 4336 0427 756E7369 		.ascii	"unsigned char\000"
 4336      676E6564 
 4336      20636861 
ARM GAS  C:\Users\Jared\AppData\Local\Temp\ccOOnCAQ.s 			page 105


 4336      7200
 4337              	.LASF34:
 4338 0435 73746F70 		.ascii	"stopOnKillEnable\000"
 4338      4F6E4B69 
 4338      6C6C456E 
 4338      61626C65 
 4338      00
 4339              	.LASF2:
 4340 0446 73686F72 		.ascii	"short int\000"
 4340      7420696E 
 4340      7400
 4341              	.LASF71:
 4342 0450 696E7465 		.ascii	"interruptMask\000"
 4342      72727570 
 4342      744D6173 
 4342      6B00
 4343              	.LASF25:
 4344 045e 54696D65 		.ascii	"Timer_SetPrescaler\000"
 4344      725F5365 
 4344      74507265 
 4344      7363616C 
 4344      657200
 4345              	.LASF16:
 4346 0471 54696D65 		.ascii	"Timer_Init\000"
 4346      725F496E 
 4346      697400
 4347              	.LASF41:
 4348 047c 54696D65 		.ascii	"Timer_SetCounterMode\000"
 4348      725F5365 
 4348      74436F75 
 4348      6E746572 
 4348      4D6F6465 
 4349              	.LASF13:
 4350 0491 63686172 		.ascii	"char\000"
 4350      00
 4351              	.LASF23:
 4352 0496 6D6F6465 		.ascii	"mode\000"
 4352      00
 4353              	.LASF63:
 4354 049b 54696D65 		.ascii	"Timer_SetReloadMode\000"
 4354      725F5365 
 4354      7452656C 
 4354      6F61644D 
 4354      6F646500 
 4355              	.LASF42:
 4356 04af 636F756E 		.ascii	"counterMode\000"
 4356      7465724D 
 4356      6F646500 
 4357              	.LASF46:
 4358 04bb 54696D65 		.ascii	"Timer_ReadPeriod\000"
 4358      725F5265 
 4358      61645065 
 4358      72696F64 
 4358      00
 4359              	.LASF57:
 4360 04cc 636F6D70 		.ascii	"compareBuf\000"
 4360      61726542 
ARM GAS  C:\Users\Jared\AppData\Local\Temp\ccOOnCAQ.s 			page 106


 4360      756600
 4361              	.LASF20:
 4362 04d7 656E6162 		.ascii	"enableInterrupts\000"
 4362      6C65496E 
 4362      74657272 
 4362      75707473 
 4362      00
 4363              	.LASF61:
 4364 04e8 54696D65 		.ascii	"Timer_SetCaptureMode\000"
 4364      725F5365 
 4364      74436170 
 4364      74757265 
 4364      4D6F6465 
 4365              	.LASF27:
 4366 04fd 54696D65 		.ascii	"Timer_SetOneShot\000"
 4366      725F5365 
 4366      744F6E65 
 4366      53686F74 
 4366      00
 4367              	.LASF74:
 4368 050e 54696D65 		.ascii	"Timer_ClearInterrupt\000"
 4368      725F436C 
 4368      65617249 
 4368      6E746572 
 4368      72757074 
 4369              	.LASF48:
 4370 0523 73776170 		.ascii	"swapEnable\000"
 4370      456E6162 
 4370      6C6500
 4371              	.LASF50:
 4372 052e 70657269 		.ascii	"periodBuf\000"
 4372      6F644275 
 4372      6600
 4373              	.LASF29:
 4374 0538 54696D65 		.ascii	"Timer_SetPWMMode\000"
 4374      725F5365 
 4374      7450574D 
 4374      4D6F6465 
 4374      00
 4375              	.LASF58:
 4376 0549 54696D65 		.ascii	"Timer_ReadCompareBuf\000"
 4376      725F5265 
 4376      6164436F 
 4376      6D706172 
 4376      65427566 
 4377              		.ident	"GCC: (GNU Tools for ARM Embedded Processors) 4.7.3 20130312 (release) [ARM/embedded-4_7-br
