ARM GAS  C:\Users\Jared\AppData\Local\Temp\ccOOnCAQ.s 			page 1


   1              		.cpu cortex-m0
   2              		.fpu softvfp
   3              		.eabi_attribute 20, 1
   4              		.eabi_attribute 21, 1
   5              		.eabi_attribute 23, 3
   6              		.eabi_attribute 24, 1
   7              		.eabi_attribute 25, 1
   8              		.eabi_attribute 26, 1
   9              		.eabi_attribute 30, 6
  10              		.eabi_attribute 34, 0
  11              		.eabi_attribute 18, 4
  12              		.code	16
  13              		.file	"Timer.c"
  14              		.text
  15              	.Ltext0:
  16              		.cfi_sections	.debug_frame
  17              		.global	Timer_initVar
  18              		.bss
  19              		.type	Timer_initVar, %object
  20              		.size	Timer_initVar, 1
  21              	Timer_initVar:
  22 0000 00       		.space	1
  23              		.section	.text.Timer_Init,"ax",%progbits
  24              		.align	2
  25              		.global	Timer_Init
  26              		.code	16
  27              		.thumb_func
  28              		.type	Timer_Init, %function
  29              	Timer_Init:
  30              	.LFB0:
  31              		.file 1 ".\\Generated_Source\\PSoC4\\Timer.c"
   1:.\Generated_Source\PSoC4/Timer.c **** /*******************************************************************************
   2:.\Generated_Source\PSoC4/Timer.c **** * File Name: Timer.c
   3:.\Generated_Source\PSoC4/Timer.c **** * Version 1.10
   4:.\Generated_Source\PSoC4/Timer.c **** *
   5:.\Generated_Source\PSoC4/Timer.c **** * Description:
   6:.\Generated_Source\PSoC4/Timer.c **** *  This file provides the source code to the API for the Timer
   7:.\Generated_Source\PSoC4/Timer.c **** *  component
   8:.\Generated_Source\PSoC4/Timer.c **** *
   9:.\Generated_Source\PSoC4/Timer.c **** * Note:
  10:.\Generated_Source\PSoC4/Timer.c **** *  None
  11:.\Generated_Source\PSoC4/Timer.c **** *
  12:.\Generated_Source\PSoC4/Timer.c **** ********************************************************************************
  13:.\Generated_Source\PSoC4/Timer.c **** * Copyright 2013-2014, Cypress Semiconductor Corporation.  All rights reserved.
  14:.\Generated_Source\PSoC4/Timer.c **** * You may use this file only in accordance with the license, terms, conditions,
  15:.\Generated_Source\PSoC4/Timer.c **** * disclaimers, and limitations in the end user license agreement accompanying
  16:.\Generated_Source\PSoC4/Timer.c **** * the software package with which this file was provided.
  17:.\Generated_Source\PSoC4/Timer.c **** *******************************************************************************/
  18:.\Generated_Source\PSoC4/Timer.c **** 
  19:.\Generated_Source\PSoC4/Timer.c **** #include "Timer.h"
  20:.\Generated_Source\PSoC4/Timer.c **** #include "CyLib.h"
  21:.\Generated_Source\PSoC4/Timer.c **** 
  22:.\Generated_Source\PSoC4/Timer.c **** uint8 Timer_initVar = 0u;
  23:.\Generated_Source\PSoC4/Timer.c **** 
  24:.\Generated_Source\PSoC4/Timer.c **** 
  25:.\Generated_Source\PSoC4/Timer.c **** /*******************************************************************************
  26:.\Generated_Source\PSoC4/Timer.c **** * Function Name: Timer_Init
ARM GAS  C:\Users\Jared\AppData\Local\Temp\ccOOnCAQ.s 			page 2


  27:.\Generated_Source\PSoC4/Timer.c **** ********************************************************************************
  28:.\Generated_Source\PSoC4/Timer.c **** *
  29:.\Generated_Source\PSoC4/Timer.c **** * Summary:
  30:.\Generated_Source\PSoC4/Timer.c **** *  Initialize/Restore default Timer configuration.
  31:.\Generated_Source\PSoC4/Timer.c **** *
  32:.\Generated_Source\PSoC4/Timer.c **** * Parameters:
  33:.\Generated_Source\PSoC4/Timer.c **** *  None
  34:.\Generated_Source\PSoC4/Timer.c **** *
  35:.\Generated_Source\PSoC4/Timer.c **** * Return:
  36:.\Generated_Source\PSoC4/Timer.c **** *  None
  37:.\Generated_Source\PSoC4/Timer.c **** *
  38:.\Generated_Source\PSoC4/Timer.c **** *******************************************************************************/
  39:.\Generated_Source\PSoC4/Timer.c **** void Timer_Init(void)
  40:.\Generated_Source\PSoC4/Timer.c **** {
  32              		.loc 1 40 0
  33              		.cfi_startproc
  34 0000 80B5     		push	{r7, lr}
  35              	.LCFI0:
  36              		.cfi_def_cfa_offset 8
  37              		.cfi_offset 7, -8
  38              		.cfi_offset 14, -4
  39 0002 00AF     		add	r7, sp, #0
  40              	.LCFI1:
  41              		.cfi_def_cfa_register 7
  41:.\Generated_Source\PSoC4/Timer.c **** 
  42:.\Generated_Source\PSoC4/Timer.c ****     /* Set values from customizer to CTRL */
  43:.\Generated_Source\PSoC4/Timer.c ****     #if (Timer__QUAD == Timer_CONFIG)
  44:.\Generated_Source\PSoC4/Timer.c ****         Timer_CONTROL_REG =
  45:.\Generated_Source\PSoC4/Timer.c ****         (((uint32)(Timer_QUAD_ENCODING_MODES     << Timer_QUAD_MODE_SHIFT))       |
  46:.\Generated_Source\PSoC4/Timer.c ****          ((uint32)(Timer_CONFIG                  << Timer_MODE_SHIFT)));
  47:.\Generated_Source\PSoC4/Timer.c ****     #endif  /* (Timer__QUAD == Timer_CONFIG) */
  48:.\Generated_Source\PSoC4/Timer.c **** 
  49:.\Generated_Source\PSoC4/Timer.c ****     #if (Timer__PWM_SEL == Timer_CONFIG)
  50:.\Generated_Source\PSoC4/Timer.c ****         Timer_CONTROL_REG =
  51:.\Generated_Source\PSoC4/Timer.c ****         (((uint32)(Timer_PWM_STOP_EVENT          << Timer_PWM_STOP_KILL_SHIFT))    |
  52:.\Generated_Source\PSoC4/Timer.c ****          ((uint32)(Timer_PWM_OUT_INVERT          << Timer_INV_OUT_SHIFT))         |
  53:.\Generated_Source\PSoC4/Timer.c ****          ((uint32)(Timer_PWM_OUT_N_INVERT        << Timer_INV_COMPL_OUT_SHIFT))     |
  54:.\Generated_Source\PSoC4/Timer.c ****          ((uint32)(Timer_PWM_MODE                << Timer_MODE_SHIFT)));
  55:.\Generated_Source\PSoC4/Timer.c **** 
  56:.\Generated_Source\PSoC4/Timer.c ****         #if (Timer__PWM_PR == Timer_PWM_MODE)
  57:.\Generated_Source\PSoC4/Timer.c ****             Timer_CONTROL_REG |=
  58:.\Generated_Source\PSoC4/Timer.c ****             ((uint32)(Timer_PWM_RUN_MODE         << Timer_ONESHOT_SHIFT));
  59:.\Generated_Source\PSoC4/Timer.c **** 
  60:.\Generated_Source\PSoC4/Timer.c ****             Timer_WriteCounter(Timer_PWM_PR_INIT_VALUE);
  61:.\Generated_Source\PSoC4/Timer.c ****         #else
  62:.\Generated_Source\PSoC4/Timer.c ****             Timer_CONTROL_REG |=
  63:.\Generated_Source\PSoC4/Timer.c ****             (((uint32)(Timer_PWM_ALIGN           << Timer_UPDOWN_SHIFT))          |
  64:.\Generated_Source\PSoC4/Timer.c ****              ((uint32)(Timer_PWM_KILL_EVENT      << Timer_PWM_SYNC_KILL_SHIFT)));
  65:.\Generated_Source\PSoC4/Timer.c ****         #endif  /* (Timer__PWM_PR == Timer_PWM_MODE) */
  66:.\Generated_Source\PSoC4/Timer.c **** 
  67:.\Generated_Source\PSoC4/Timer.c ****         #if (Timer__PWM_DT == Timer_PWM_MODE)
  68:.\Generated_Source\PSoC4/Timer.c ****             Timer_CONTROL_REG |=
  69:.\Generated_Source\PSoC4/Timer.c ****             ((uint32)(Timer_PWM_DEAD_TIME_CYCLE  << Timer_PRESCALER_SHIFT));
  70:.\Generated_Source\PSoC4/Timer.c ****         #endif  /* (Timer__PWM_DT == Timer_PWM_MODE) */
  71:.\Generated_Source\PSoC4/Timer.c **** 
  72:.\Generated_Source\PSoC4/Timer.c ****         #if (Timer__PWM == Timer_PWM_MODE)
  73:.\Generated_Source\PSoC4/Timer.c ****             Timer_CONTROL_REG |=
ARM GAS  C:\Users\Jared\AppData\Local\Temp\ccOOnCAQ.s 			page 3


  74:.\Generated_Source\PSoC4/Timer.c ****             ((uint32)Timer_PWM_PRESCALER         << Timer_PRESCALER_SHIFT);
  75:.\Generated_Source\PSoC4/Timer.c ****         #endif  /* (Timer__PWM == Timer_PWM_MODE) */
  76:.\Generated_Source\PSoC4/Timer.c ****     #endif  /* (Timer__PWM_SEL == Timer_CONFIG) */
  77:.\Generated_Source\PSoC4/Timer.c **** 
  78:.\Generated_Source\PSoC4/Timer.c ****     #if (Timer__TIMER == Timer_CONFIG)
  79:.\Generated_Source\PSoC4/Timer.c ****         Timer_CONTROL_REG =
  42              		.loc 1 79 0
  43 0004 094B     		ldr	r3, .L2
  44 0006 0022     		mov	r2, #0
  45 0008 1A60     		str	r2, [r3]
  80:.\Generated_Source\PSoC4/Timer.c ****         (((uint32)(Timer_TC_PRESCALER            << Timer_PRESCALER_SHIFT))   |
  81:.\Generated_Source\PSoC4/Timer.c ****          ((uint32)(Timer_TC_COUNTER_MODE         << Timer_UPDOWN_SHIFT))      |
  82:.\Generated_Source\PSoC4/Timer.c ****          ((uint32)(Timer_TC_RUN_MODE             << Timer_ONESHOT_SHIFT))     |
  83:.\Generated_Source\PSoC4/Timer.c ****          ((uint32)(Timer_TC_COMP_CAP_MODE        << Timer_MODE_SHIFT)));
  84:.\Generated_Source\PSoC4/Timer.c ****     #endif  /* (Timer__TIMER == Timer_CONFIG) */
  85:.\Generated_Source\PSoC4/Timer.c **** 
  86:.\Generated_Source\PSoC4/Timer.c ****     /* Set values from customizer to CTRL1 */
  87:.\Generated_Source\PSoC4/Timer.c ****     #if (Timer__QUAD == Timer_CONFIG)
  88:.\Generated_Source\PSoC4/Timer.c ****         Timer_TRIG_CONTROL1_REG  =
  89:.\Generated_Source\PSoC4/Timer.c ****         (((uint32)(Timer_QUAD_PHIA_SIGNAL_MODE   << Timer_COUNT_SHIFT))       |
  90:.\Generated_Source\PSoC4/Timer.c ****          ((uint32)(Timer_QUAD_INDEX_SIGNAL_MODE  << Timer_RELOAD_SHIFT))      |
  91:.\Generated_Source\PSoC4/Timer.c ****          ((uint32)(Timer_QUAD_STOP_SIGNAL_MODE   << Timer_STOP_SHIFT))        |
  92:.\Generated_Source\PSoC4/Timer.c ****          ((uint32)(Timer_QUAD_PHIB_SIGNAL_MODE   << Timer_START_SHIFT)));
  93:.\Generated_Source\PSoC4/Timer.c ****     #endif  /* (Timer__QUAD == Timer_CONFIG) */
  94:.\Generated_Source\PSoC4/Timer.c **** 
  95:.\Generated_Source\PSoC4/Timer.c ****     #if (Timer__PWM_SEL == Timer_CONFIG)
  96:.\Generated_Source\PSoC4/Timer.c ****         Timer_TRIG_CONTROL1_REG  =
  97:.\Generated_Source\PSoC4/Timer.c ****         (((uint32)(Timer_PWM_SWITCH_SIGNAL_MODE  << Timer_CAPTURE_SHIFT))     |
  98:.\Generated_Source\PSoC4/Timer.c ****          ((uint32)(Timer_PWM_COUNT_SIGNAL_MODE   << Timer_COUNT_SHIFT))       |
  99:.\Generated_Source\PSoC4/Timer.c ****          ((uint32)(Timer_PWM_RELOAD_SIGNAL_MODE  << Timer_RELOAD_SHIFT))      |
 100:.\Generated_Source\PSoC4/Timer.c ****          ((uint32)(Timer_PWM_STOP_SIGNAL_MODE    << Timer_STOP_SHIFT))        |
 101:.\Generated_Source\PSoC4/Timer.c ****          ((uint32)(Timer_PWM_START_SIGNAL_MODE   << Timer_START_SHIFT)));
 102:.\Generated_Source\PSoC4/Timer.c ****     #endif  /* (Timer__PWM_SEL == Timer_CONFIG) */
 103:.\Generated_Source\PSoC4/Timer.c **** 
 104:.\Generated_Source\PSoC4/Timer.c ****     #if (Timer__TIMER == Timer_CONFIG)
 105:.\Generated_Source\PSoC4/Timer.c ****         Timer_TRIG_CONTROL1_REG  =
  46              		.loc 1 105 0
  47 000a 094B     		ldr	r3, .L2+4
  48 000c 0C22     		mov	r2, #12
  49 000e 1A60     		str	r2, [r3]
 106:.\Generated_Source\PSoC4/Timer.c ****         (((uint32)(Timer_TC_CAPTURE_SIGNAL_MODE  << Timer_CAPTURE_SHIFT))     |
 107:.\Generated_Source\PSoC4/Timer.c ****          ((uint32)(Timer_TC_COUNT_SIGNAL_MODE    << Timer_COUNT_SHIFT))       |
 108:.\Generated_Source\PSoC4/Timer.c ****          ((uint32)(Timer_TC_RELOAD_SIGNAL_MODE   << Timer_RELOAD_SHIFT))      |
 109:.\Generated_Source\PSoC4/Timer.c ****          ((uint32)(Timer_TC_STOP_SIGNAL_MODE     << Timer_STOP_SHIFT))        |
 110:.\Generated_Source\PSoC4/Timer.c ****          ((uint32)(Timer_TC_START_SIGNAL_MODE    << Timer_START_SHIFT)));
 111:.\Generated_Source\PSoC4/Timer.c ****     #endif  /* (Timer__TIMER == Timer_CONFIG) */
 112:.\Generated_Source\PSoC4/Timer.c **** 
 113:.\Generated_Source\PSoC4/Timer.c ****     /* Set values from customizer to INTR */
 114:.\Generated_Source\PSoC4/Timer.c ****     #if (Timer__QUAD == Timer_CONFIG)
 115:.\Generated_Source\PSoC4/Timer.c ****         Timer_SetInterruptMode(Timer_QUAD_INTERRUPT_MASK);
 116:.\Generated_Source\PSoC4/Timer.c ****     #endif  /* (Timer__QUAD == Timer_CONFIG) */
 117:.\Generated_Source\PSoC4/Timer.c **** 
 118:.\Generated_Source\PSoC4/Timer.c ****     #if (Timer__PWM_SEL == Timer_CONFIG)
 119:.\Generated_Source\PSoC4/Timer.c ****         Timer_SetInterruptMode(Timer_PWM_INTERRUPT_MASK);
 120:.\Generated_Source\PSoC4/Timer.c ****     #endif  /* (Timer__PWM_SEL == Timer_CONFIG) */
 121:.\Generated_Source\PSoC4/Timer.c **** 
 122:.\Generated_Source\PSoC4/Timer.c ****     #if (Timer__TIMER == Timer_CONFIG)
ARM GAS  C:\Users\Jared\AppData\Local\Temp\ccOOnCAQ.s 			page 4


 123:.\Generated_Source\PSoC4/Timer.c ****         Timer_SetInterruptMode(Timer_TC_INTERRUPT_MASK);
  50              		.loc 1 123 0
  51 0010 0120     		mov	r0, #1
  52 0012 FFF7FEFF 		bl	Timer_SetInterruptMode
 124:.\Generated_Source\PSoC4/Timer.c ****     #endif  /* (Timer__TIMER == Timer_CONFIG) */
 125:.\Generated_Source\PSoC4/Timer.c **** 
 126:.\Generated_Source\PSoC4/Timer.c ****     /* Set other values from customizer */
 127:.\Generated_Source\PSoC4/Timer.c ****     #if (Timer__TIMER == Timer_CONFIG)
 128:.\Generated_Source\PSoC4/Timer.c ****         Timer_WritePeriod(Timer_TC_PERIOD_VALUE );
  53              		.loc 1 128 0
  54 0016 FA23     		mov	r3, #250
  55 0018 9B00     		lsl	r3, r3, #2
  56 001a 181C     		mov	r0, r3
  57 001c FFF7FEFF 		bl	Timer_WritePeriod
 129:.\Generated_Source\PSoC4/Timer.c **** 
 130:.\Generated_Source\PSoC4/Timer.c ****         #if (Timer__COUNT_DOWN == Timer_TC_COUNTER_MODE)
 131:.\Generated_Source\PSoC4/Timer.c ****             Timer_WriteCounter(Timer_TC_PERIOD_VALUE );
 132:.\Generated_Source\PSoC4/Timer.c ****         #endif  /* (Timer__COUNT_DOWN == Timer_TC_COUNTER_MODE) */
 133:.\Generated_Source\PSoC4/Timer.c **** 
 134:.\Generated_Source\PSoC4/Timer.c ****         #if (Timer__COMPARE == Timer_TC_COMP_CAP_MODE)
 135:.\Generated_Source\PSoC4/Timer.c ****             Timer_WriteCompare(Timer_TC_COMPARE_VALUE);
  58              		.loc 1 135 0
  59 0020 3220     		mov	r0, #50
  60 0022 FFF7FEFF 		bl	Timer_WriteCompare
 136:.\Generated_Source\PSoC4/Timer.c **** 
 137:.\Generated_Source\PSoC4/Timer.c ****             #if (1u == Timer_TC_COMPARE_SWAP)
 138:.\Generated_Source\PSoC4/Timer.c ****                 Timer_SetCompareSwap(1u);
 139:.\Generated_Source\PSoC4/Timer.c ****                 Timer_WriteCompareBuf(Timer_TC_COMPARE_BUF_VALUE);
 140:.\Generated_Source\PSoC4/Timer.c ****             #endif  /* (1u == Timer_TC_COMPARE_SWAP) */
 141:.\Generated_Source\PSoC4/Timer.c ****         #endif  /* (Timer__COMPARE == Timer_TC_COMP_CAP_MODE) */
 142:.\Generated_Source\PSoC4/Timer.c ****     #endif  /* (Timer__TIMER == Timer_CONFIG) */
 143:.\Generated_Source\PSoC4/Timer.c **** 
 144:.\Generated_Source\PSoC4/Timer.c ****     #if (Timer__PWM_SEL == Timer_CONFIG)
 145:.\Generated_Source\PSoC4/Timer.c ****         Timer_WritePeriod(Timer_PWM_PERIOD_VALUE );
 146:.\Generated_Source\PSoC4/Timer.c ****         Timer_WriteCompare(Timer_PWM_COMPARE_VALUE);
 147:.\Generated_Source\PSoC4/Timer.c **** 
 148:.\Generated_Source\PSoC4/Timer.c ****         #if (1u == Timer_PWM_COMPARE_SWAP)
 149:.\Generated_Source\PSoC4/Timer.c ****             Timer_SetCompareSwap(1u);
 150:.\Generated_Source\PSoC4/Timer.c ****             Timer_WriteCompareBuf(Timer_PWM_COMPARE_BUF_VALUE);
 151:.\Generated_Source\PSoC4/Timer.c ****         #endif  /* (1u == Timer_PWM_COMPARE_SWAP) */
 152:.\Generated_Source\PSoC4/Timer.c **** 
 153:.\Generated_Source\PSoC4/Timer.c ****         #if (1u == Timer_PWM_PERIOD_SWAP)
 154:.\Generated_Source\PSoC4/Timer.c ****             Timer_SetPeriodSwap(1u);
 155:.\Generated_Source\PSoC4/Timer.c ****             Timer_WritePeriodBuf(Timer_PWM_PERIOD_BUF_VALUE);
 156:.\Generated_Source\PSoC4/Timer.c ****         #endif  /* (1u == Timer_PWM_PERIOD_SWAP) */
 157:.\Generated_Source\PSoC4/Timer.c **** 
 158:.\Generated_Source\PSoC4/Timer.c ****         /* Set values from customizer to CTRL2 */
 159:.\Generated_Source\PSoC4/Timer.c ****         #if (Timer__PWM_PR == Timer_PWM_MODE)
 160:.\Generated_Source\PSoC4/Timer.c ****             Timer_TRIG_CONTROL2_REG =
 161:.\Generated_Source\PSoC4/Timer.c ****                     (Timer_CC_MATCH_NO_CHANGE    |
 162:.\Generated_Source\PSoC4/Timer.c ****                     Timer_OVERLOW_NO_CHANGE      |
 163:.\Generated_Source\PSoC4/Timer.c ****                     Timer_UNDERFLOW_NO_CHANGE);
 164:.\Generated_Source\PSoC4/Timer.c ****         #else
 165:.\Generated_Source\PSoC4/Timer.c ****             #if (Timer__LEFT == Timer_PWM_ALIGN)
 166:.\Generated_Source\PSoC4/Timer.c ****                 Timer_TRIG_CONTROL2_REG = Timer_PWM_MODE_LEFT;
 167:.\Generated_Source\PSoC4/Timer.c ****             #endif  /* ( Timer_PWM_LEFT == Timer_PWM_ALIGN) */
 168:.\Generated_Source\PSoC4/Timer.c **** 
ARM GAS  C:\Users\Jared\AppData\Local\Temp\ccOOnCAQ.s 			page 5


 169:.\Generated_Source\PSoC4/Timer.c ****             #if (Timer__RIGHT == Timer_PWM_ALIGN)
 170:.\Generated_Source\PSoC4/Timer.c ****                 Timer_WriteCounter(Timer_PWM_PERIOD_VALUE);
 171:.\Generated_Source\PSoC4/Timer.c ****                 Timer_TRIG_CONTROL2_REG = Timer_PWM_MODE_RIGHT;
 172:.\Generated_Source\PSoC4/Timer.c ****             #endif  /* ( Timer_PWM_RIGHT == Timer_PWM_ALIGN) */
 173:.\Generated_Source\PSoC4/Timer.c **** 
 174:.\Generated_Source\PSoC4/Timer.c ****             #if (Timer__CENTER == Timer_PWM_ALIGN)
 175:.\Generated_Source\PSoC4/Timer.c ****                 Timer_TRIG_CONTROL2_REG = Timer_PWM_MODE_CENTER;
 176:.\Generated_Source\PSoC4/Timer.c ****             #endif  /* ( Timer_PWM_CENTER == Timer_PWM_ALIGN) */
 177:.\Generated_Source\PSoC4/Timer.c **** 
 178:.\Generated_Source\PSoC4/Timer.c ****             #if (Timer__ASYMMETRIC == Timer_PWM_ALIGN)
 179:.\Generated_Source\PSoC4/Timer.c ****                 Timer_TRIG_CONTROL2_REG = Timer_PWM_MODE_ASYM;
 180:.\Generated_Source\PSoC4/Timer.c ****             #endif  /* (Timer__ASYMMETRIC == Timer_PWM_ALIGN) */
 181:.\Generated_Source\PSoC4/Timer.c ****         #endif  /* (Timer__PWM_PR == Timer_PWM_MODE) */
 182:.\Generated_Source\PSoC4/Timer.c ****     #endif  /* (Timer__PWM_SEL == Timer_CONFIG) */
 183:.\Generated_Source\PSoC4/Timer.c **** }
  61              		.loc 1 183 0
  62 0026 BD46     		mov	sp, r7
  63              		@ sp needed for prologue
  64 0028 80BD     		pop	{r7, pc}
  65              	.L3:
  66 002a C046     		.align	2
  67              	.L2:
  68 002c 80010540 		.word	1074069888
  69 0030 A4010540 		.word	1074069924
  70              		.cfi_endproc
  71              	.LFE0:
  72              		.size	Timer_Init, .-Timer_Init
  73              		.section	.text.Timer_Enable,"ax",%progbits
  74              		.align	2
  75              		.global	Timer_Enable
  76              		.code	16
  77              		.thumb_func
  78              		.type	Timer_Enable, %function
  79              	Timer_Enable:
  80              	.LFB1:
 184:.\Generated_Source\PSoC4/Timer.c **** 
 185:.\Generated_Source\PSoC4/Timer.c **** 
 186:.\Generated_Source\PSoC4/Timer.c **** /*******************************************************************************
 187:.\Generated_Source\PSoC4/Timer.c **** * Function Name: Timer_Enable
 188:.\Generated_Source\PSoC4/Timer.c **** ********************************************************************************
 189:.\Generated_Source\PSoC4/Timer.c **** *
 190:.\Generated_Source\PSoC4/Timer.c **** * Summary:
 191:.\Generated_Source\PSoC4/Timer.c **** *  Enables the Timer.
 192:.\Generated_Source\PSoC4/Timer.c **** *
 193:.\Generated_Source\PSoC4/Timer.c **** * Parameters:
 194:.\Generated_Source\PSoC4/Timer.c **** *  None
 195:.\Generated_Source\PSoC4/Timer.c **** *
 196:.\Generated_Source\PSoC4/Timer.c **** * Return:
 197:.\Generated_Source\PSoC4/Timer.c **** *  None
 198:.\Generated_Source\PSoC4/Timer.c **** *
 199:.\Generated_Source\PSoC4/Timer.c **** *******************************************************************************/
 200:.\Generated_Source\PSoC4/Timer.c **** void Timer_Enable(void)
 201:.\Generated_Source\PSoC4/Timer.c **** {
  81              		.loc 1 201 0
  82              		.cfi_startproc
  83 0000 90B5     		push	{r4, r7, lr}
  84              	.LCFI2:
ARM GAS  C:\Users\Jared\AppData\Local\Temp\ccOOnCAQ.s 			page 6


  85              		.cfi_def_cfa_offset 12
  86              		.cfi_offset 4, -12
  87              		.cfi_offset 7, -8
  88              		.cfi_offset 14, -4
  89 0002 83B0     		sub	sp, sp, #12
  90              	.LCFI3:
  91              		.cfi_def_cfa_offset 24
  92 0004 00AF     		add	r7, sp, #0
  93              	.LCFI4:
  94              		.cfi_def_cfa_register 7
 202:.\Generated_Source\PSoC4/Timer.c ****     uint8 enableInterrupts;
 203:.\Generated_Source\PSoC4/Timer.c **** 
 204:.\Generated_Source\PSoC4/Timer.c ****     enableInterrupts = CyEnterCriticalSection();
  95              		.loc 1 204 0
  96 0006 FC1D     		add	r4, r7, #7
  97 0008 FFF7FEFF 		bl	CyEnterCriticalSection
  98 000c 031C     		mov	r3, r0
  99 000e 2370     		strb	r3, [r4]
 205:.\Generated_Source\PSoC4/Timer.c ****     Timer_BLOCK_CONTROL_REG |= Timer_MASK;
 100              		.loc 1 205 0
 101 0010 084B     		ldr	r3, .L5
 102 0012 084A     		ldr	r2, .L5
 103 0014 1268     		ldr	r2, [r2]
 104 0016 0421     		mov	r1, #4
 105 0018 0A43     		orr	r2, r1
 106 001a 1A60     		str	r2, [r3]
 206:.\Generated_Source\PSoC4/Timer.c ****     CyExitCriticalSection(enableInterrupts);
 107              		.loc 1 206 0
 108 001c FB1D     		add	r3, r7, #7
 109 001e 1B78     		ldrb	r3, [r3]
 110 0020 181C     		mov	r0, r3
 111 0022 FFF7FEFF 		bl	CyExitCriticalSection
 207:.\Generated_Source\PSoC4/Timer.c **** 
 208:.\Generated_Source\PSoC4/Timer.c ****     /* Start Timer or PWM if start input is absent */
 209:.\Generated_Source\PSoC4/Timer.c ****     #if (Timer__PWM_SEL == Timer_CONFIG)
 210:.\Generated_Source\PSoC4/Timer.c ****         #if (0u == Timer_PWM_START_SIGNAL_PRESENT)
 211:.\Generated_Source\PSoC4/Timer.c ****             Timer_TriggerCommand(Timer_MASK, Timer_CMD_START);
 212:.\Generated_Source\PSoC4/Timer.c ****         #endif /* (0u == Timer_PWM_START_SIGNAL_PRESENT) */
 213:.\Generated_Source\PSoC4/Timer.c ****     #endif /* (Timer__PWM_SEL == Timer_CONFIG) */
 214:.\Generated_Source\PSoC4/Timer.c **** 
 215:.\Generated_Source\PSoC4/Timer.c ****     #if (Timer__TIMER == Timer_CONFIG)
 216:.\Generated_Source\PSoC4/Timer.c ****         #if (0u == Timer_TC_START_SIGNAL_PRESENT)
 217:.\Generated_Source\PSoC4/Timer.c ****             Timer_TriggerCommand(Timer_MASK, Timer_CMD_START);
 112              		.loc 1 217 0
 113 0026 0420     		mov	r0, #4
 114 0028 1821     		mov	r1, #24
 115 002a FFF7FEFF 		bl	Timer_TriggerCommand
 218:.\Generated_Source\PSoC4/Timer.c ****         #endif /* (0u == Timer_TC_START_SIGNAL_PRESENT) */
 219:.\Generated_Source\PSoC4/Timer.c ****     #endif /* (Timer__TIMER == Timer_CONFIG) */
 220:.\Generated_Source\PSoC4/Timer.c **** }
 116              		.loc 1 220 0
 117 002e BD46     		mov	sp, r7
 118 0030 03B0     		add	sp, sp, #12
 119              		@ sp needed for prologue
 120 0032 90BD     		pop	{r4, r7, pc}
 121              	.L6:
 122              		.align	2
ARM GAS  C:\Users\Jared\AppData\Local\Temp\ccOOnCAQ.s 			page 7


 123              	.L5:
 124 0034 00000540 		.word	1074069504
 125              		.cfi_endproc
 126              	.LFE1:
 127              		.size	Timer_Enable, .-Timer_Enable
 128              		.section	.text.Timer_Start,"ax",%progbits
 129              		.align	2
 130              		.global	Timer_Start
 131              		.code	16
 132              		.thumb_func
 133              		.type	Timer_Start, %function
 134              	Timer_Start:
 135              	.LFB2:
 221:.\Generated_Source\PSoC4/Timer.c **** 
 222:.\Generated_Source\PSoC4/Timer.c **** 
 223:.\Generated_Source\PSoC4/Timer.c **** /*******************************************************************************
 224:.\Generated_Source\PSoC4/Timer.c **** * Function Name: Timer_Start
 225:.\Generated_Source\PSoC4/Timer.c **** ********************************************************************************
 226:.\Generated_Source\PSoC4/Timer.c **** *
 227:.\Generated_Source\PSoC4/Timer.c **** * Summary:
 228:.\Generated_Source\PSoC4/Timer.c **** *  Initializes the Timer with default customizer
 229:.\Generated_Source\PSoC4/Timer.c **** *  values when called the first time and enables the Timer.
 230:.\Generated_Source\PSoC4/Timer.c **** *  For subsequent calls the configuration is left unchanged and the component is
 231:.\Generated_Source\PSoC4/Timer.c **** *  just enabled.
 232:.\Generated_Source\PSoC4/Timer.c **** *
 233:.\Generated_Source\PSoC4/Timer.c **** * Parameters:
 234:.\Generated_Source\PSoC4/Timer.c **** *  None
 235:.\Generated_Source\PSoC4/Timer.c **** *
 236:.\Generated_Source\PSoC4/Timer.c **** * Return:
 237:.\Generated_Source\PSoC4/Timer.c **** *  None
 238:.\Generated_Source\PSoC4/Timer.c **** *
 239:.\Generated_Source\PSoC4/Timer.c **** * Global variables:
 240:.\Generated_Source\PSoC4/Timer.c **** *  Timer_initVar: global variable is used to indicate initial
 241:.\Generated_Source\PSoC4/Timer.c **** *  configuration of this component.  The variable is initialized to zero and set
 242:.\Generated_Source\PSoC4/Timer.c **** *  to 1 the first time Timer_Start() is called. This allows
 243:.\Generated_Source\PSoC4/Timer.c **** *  enabling/disabling a component without re-initialization in all subsequent
 244:.\Generated_Source\PSoC4/Timer.c **** *  calls to the Timer_Start() routine.
 245:.\Generated_Source\PSoC4/Timer.c **** *
 246:.\Generated_Source\PSoC4/Timer.c **** *******************************************************************************/
 247:.\Generated_Source\PSoC4/Timer.c **** void Timer_Start(void)
 248:.\Generated_Source\PSoC4/Timer.c **** {
 136              		.loc 1 248 0
 137              		.cfi_startproc
 138 0000 80B5     		push	{r7, lr}
 139              	.LCFI5:
 140              		.cfi_def_cfa_offset 8
 141              		.cfi_offset 7, -8
 142              		.cfi_offset 14, -4
 143 0002 00AF     		add	r7, sp, #0
 144              	.LCFI6:
 145              		.cfi_def_cfa_register 7
 249:.\Generated_Source\PSoC4/Timer.c ****     if (0u == Timer_initVar)
 146              		.loc 1 249 0
 147 0004 064B     		ldr	r3, .L9
 148 0006 1B78     		ldrb	r3, [r3]
 149 0008 002B     		cmp	r3, #0
 150 000a 04D1     		bne	.L8
ARM GAS  C:\Users\Jared\AppData\Local\Temp\ccOOnCAQ.s 			page 8


 250:.\Generated_Source\PSoC4/Timer.c ****     {
 251:.\Generated_Source\PSoC4/Timer.c ****         Timer_Init();
 151              		.loc 1 251 0
 152 000c FFF7FEFF 		bl	Timer_Init
 252:.\Generated_Source\PSoC4/Timer.c ****         Timer_initVar = 1u;
 153              		.loc 1 252 0
 154 0010 034B     		ldr	r3, .L9
 155 0012 0122     		mov	r2, #1
 156 0014 1A70     		strb	r2, [r3]
 157              	.L8:
 253:.\Generated_Source\PSoC4/Timer.c ****     }
 254:.\Generated_Source\PSoC4/Timer.c **** 
 255:.\Generated_Source\PSoC4/Timer.c ****     Timer_Enable();
 158              		.loc 1 255 0
 159 0016 FFF7FEFF 		bl	Timer_Enable
 256:.\Generated_Source\PSoC4/Timer.c **** }
 160              		.loc 1 256 0
 161 001a BD46     		mov	sp, r7
 162              		@ sp needed for prologue
 163 001c 80BD     		pop	{r7, pc}
 164              	.L10:
 165 001e C046     		.align	2
 166              	.L9:
 167 0020 00000000 		.word	Timer_initVar
 168              		.cfi_endproc
 169              	.LFE2:
 170              		.size	Timer_Start, .-Timer_Start
 171              		.section	.text.Timer_Stop,"ax",%progbits
 172              		.align	2
 173              		.global	Timer_Stop
 174              		.code	16
 175              		.thumb_func
 176              		.type	Timer_Stop, %function
 177              	Timer_Stop:
 178              	.LFB3:
 257:.\Generated_Source\PSoC4/Timer.c **** 
 258:.\Generated_Source\PSoC4/Timer.c **** 
 259:.\Generated_Source\PSoC4/Timer.c **** /*******************************************************************************
 260:.\Generated_Source\PSoC4/Timer.c **** * Function Name: Timer_Stop
 261:.\Generated_Source\PSoC4/Timer.c **** ********************************************************************************
 262:.\Generated_Source\PSoC4/Timer.c **** *
 263:.\Generated_Source\PSoC4/Timer.c **** * Summary:
 264:.\Generated_Source\PSoC4/Timer.c **** *  Disables the Timer.
 265:.\Generated_Source\PSoC4/Timer.c **** *
 266:.\Generated_Source\PSoC4/Timer.c **** * Parameters:
 267:.\Generated_Source\PSoC4/Timer.c **** *  None
 268:.\Generated_Source\PSoC4/Timer.c **** *
 269:.\Generated_Source\PSoC4/Timer.c **** * Return:
 270:.\Generated_Source\PSoC4/Timer.c **** *  None
 271:.\Generated_Source\PSoC4/Timer.c **** *
 272:.\Generated_Source\PSoC4/Timer.c **** *******************************************************************************/
 273:.\Generated_Source\PSoC4/Timer.c **** void Timer_Stop(void)
 274:.\Generated_Source\PSoC4/Timer.c **** {
 179              		.loc 1 274 0
 180              		.cfi_startproc
 181 0000 90B5     		push	{r4, r7, lr}
 182              	.LCFI7:
ARM GAS  C:\Users\Jared\AppData\Local\Temp\ccOOnCAQ.s 			page 9


 183              		.cfi_def_cfa_offset 12
 184              		.cfi_offset 4, -12
 185              		.cfi_offset 7, -8
 186              		.cfi_offset 14, -4
 187 0002 83B0     		sub	sp, sp, #12
 188              	.LCFI8:
 189              		.cfi_def_cfa_offset 24
 190 0004 00AF     		add	r7, sp, #0
 191              	.LCFI9:
 192              		.cfi_def_cfa_register 7
 275:.\Generated_Source\PSoC4/Timer.c ****     uint8 enableInterrupts;
 276:.\Generated_Source\PSoC4/Timer.c **** 
 277:.\Generated_Source\PSoC4/Timer.c ****     enableInterrupts = CyEnterCriticalSection();
 193              		.loc 1 277 0
 194 0006 FC1D     		add	r4, r7, #7
 195 0008 FFF7FEFF 		bl	CyEnterCriticalSection
 196 000c 031C     		mov	r3, r0
 197 000e 2370     		strb	r3, [r4]
 278:.\Generated_Source\PSoC4/Timer.c **** 
 279:.\Generated_Source\PSoC4/Timer.c ****     Timer_BLOCK_CONTROL_REG &= (uint32)~Timer_MASK;
 198              		.loc 1 279 0
 199 0010 064B     		ldr	r3, .L12
 200 0012 064A     		ldr	r2, .L12
 201 0014 1268     		ldr	r2, [r2]
 202 0016 0421     		mov	r1, #4
 203 0018 8A43     		bic	r2, r1
 204 001a 1A60     		str	r2, [r3]
 280:.\Generated_Source\PSoC4/Timer.c **** 
 281:.\Generated_Source\PSoC4/Timer.c ****     CyExitCriticalSection(enableInterrupts);
 205              		.loc 1 281 0
 206 001c FB1D     		add	r3, r7, #7
 207 001e 1B78     		ldrb	r3, [r3]
 208 0020 181C     		mov	r0, r3
 209 0022 FFF7FEFF 		bl	CyExitCriticalSection
 282:.\Generated_Source\PSoC4/Timer.c **** }
 210              		.loc 1 282 0
 211 0026 BD46     		mov	sp, r7
 212 0028 03B0     		add	sp, sp, #12
 213              		@ sp needed for prologue
 214 002a 90BD     		pop	{r4, r7, pc}
 215              	.L13:
 216              		.align	2
 217              	.L12:
 218 002c 00000540 		.word	1074069504
 219              		.cfi_endproc
 220              	.LFE3:
 221              		.size	Timer_Stop, .-Timer_Stop
 222              		.section	.text.Timer_SetMode,"ax",%progbits
 223              		.align	2
 224              		.global	Timer_SetMode
 225              		.code	16
 226              		.thumb_func
 227              		.type	Timer_SetMode, %function
 228              	Timer_SetMode:
 229              	.LFB4:
 283:.\Generated_Source\PSoC4/Timer.c **** 
 284:.\Generated_Source\PSoC4/Timer.c **** 
ARM GAS  C:\Users\Jared\AppData\Local\Temp\ccOOnCAQ.s 			page 10


 285:.\Generated_Source\PSoC4/Timer.c **** /*******************************************************************************
 286:.\Generated_Source\PSoC4/Timer.c **** * Function Name: Timer_SetMode
 287:.\Generated_Source\PSoC4/Timer.c **** ********************************************************************************
 288:.\Generated_Source\PSoC4/Timer.c **** *
 289:.\Generated_Source\PSoC4/Timer.c **** * Summary:
 290:.\Generated_Source\PSoC4/Timer.c **** *  Sets the operation mode of the Timer. This function is used when
 291:.\Generated_Source\PSoC4/Timer.c **** *  configured as a generic Timer and the actual mode of operation is
 292:.\Generated_Source\PSoC4/Timer.c **** *  set at runtime. The mode must be set while the component is disabled.
 293:.\Generated_Source\PSoC4/Timer.c **** *
 294:.\Generated_Source\PSoC4/Timer.c **** * Parameters:
 295:.\Generated_Source\PSoC4/Timer.c **** *  mode: Mode for the Timer to operate in
 296:.\Generated_Source\PSoC4/Timer.c **** *   Values:
 297:.\Generated_Source\PSoC4/Timer.c **** *   - Timer_MODE_TIMER_COMPARE - Timer / Counter with
 298:.\Generated_Source\PSoC4/Timer.c **** *                                                 compare capability
 299:.\Generated_Source\PSoC4/Timer.c **** *         - Timer_MODE_TIMER_CAPTURE - Timer / Counter with
 300:.\Generated_Source\PSoC4/Timer.c **** *                                                 capture capability
 301:.\Generated_Source\PSoC4/Timer.c **** *         - Timer_MODE_QUAD - Quadrature decoder
 302:.\Generated_Source\PSoC4/Timer.c **** *         - Timer_MODE_PWM - PWM
 303:.\Generated_Source\PSoC4/Timer.c **** *         - Timer_MODE_PWM_DT - PWM with dead time
 304:.\Generated_Source\PSoC4/Timer.c **** *         - Timer_MODE_PWM_PR - PWM with pseudo random capability
 305:.\Generated_Source\PSoC4/Timer.c **** *
 306:.\Generated_Source\PSoC4/Timer.c **** * Return:
 307:.\Generated_Source\PSoC4/Timer.c **** *  None
 308:.\Generated_Source\PSoC4/Timer.c **** *
 309:.\Generated_Source\PSoC4/Timer.c **** *******************************************************************************/
 310:.\Generated_Source\PSoC4/Timer.c **** void Timer_SetMode(uint32 mode)
 311:.\Generated_Source\PSoC4/Timer.c **** {
 230              		.loc 1 311 0
 231              		.cfi_startproc
 232 0000 90B5     		push	{r4, r7, lr}
 233              	.LCFI10:
 234              		.cfi_def_cfa_offset 12
 235              		.cfi_offset 4, -12
 236              		.cfi_offset 7, -8
 237              		.cfi_offset 14, -4
 238 0002 85B0     		sub	sp, sp, #20
 239              	.LCFI11:
 240              		.cfi_def_cfa_offset 32
 241 0004 00AF     		add	r7, sp, #0
 242              	.LCFI12:
 243              		.cfi_def_cfa_register 7
 244 0006 7860     		str	r0, [r7, #4]
 312:.\Generated_Source\PSoC4/Timer.c ****     uint8 enableInterrupts;
 313:.\Generated_Source\PSoC4/Timer.c **** 
 314:.\Generated_Source\PSoC4/Timer.c ****     enableInterrupts = CyEnterCriticalSection();
 245              		.loc 1 314 0
 246 0008 3C1C     		mov	r4, r7
 247 000a 0F34     		add	r4, r4, #15
 248 000c FFF7FEFF 		bl	CyEnterCriticalSection
 249 0010 031C     		mov	r3, r0
 250 0012 2370     		strb	r3, [r4]
 315:.\Generated_Source\PSoC4/Timer.c **** 
 316:.\Generated_Source\PSoC4/Timer.c ****     Timer_CONTROL_REG &= (uint32)~Timer_MODE_MASK;
 251              		.loc 1 316 0
 252 0014 0A4B     		ldr	r3, .L15
 253 0016 0A4A     		ldr	r2, .L15
 254 0018 1168     		ldr	r1, [r2]
ARM GAS  C:\Users\Jared\AppData\Local\Temp\ccOOnCAQ.s 			page 11


 255 001a 0A4A     		ldr	r2, .L15+4
 256 001c 0A40     		and	r2, r1
 257 001e 1A60     		str	r2, [r3]
 317:.\Generated_Source\PSoC4/Timer.c ****     Timer_CONTROL_REG |= mode;
 258              		.loc 1 317 0
 259 0020 074B     		ldr	r3, .L15
 260 0022 074A     		ldr	r2, .L15
 261 0024 1168     		ldr	r1, [r2]
 262 0026 7A68     		ldr	r2, [r7, #4]
 263 0028 0A43     		orr	r2, r1
 264 002a 1A60     		str	r2, [r3]
 318:.\Generated_Source\PSoC4/Timer.c **** 
 319:.\Generated_Source\PSoC4/Timer.c ****     CyExitCriticalSection(enableInterrupts);
 265              		.loc 1 319 0
 266 002c 3B1C     		mov	r3, r7
 267 002e 0F33     		add	r3, r3, #15
 268 0030 1B78     		ldrb	r3, [r3]
 269 0032 181C     		mov	r0, r3
 270 0034 FFF7FEFF 		bl	CyExitCriticalSection
 320:.\Generated_Source\PSoC4/Timer.c **** }
 271              		.loc 1 320 0
 272 0038 BD46     		mov	sp, r7
 273 003a 05B0     		add	sp, sp, #20
 274              		@ sp needed for prologue
 275 003c 90BD     		pop	{r4, r7, pc}
 276              	.L16:
 277 003e C046     		.align	2
 278              	.L15:
 279 0040 80010540 		.word	1074069888
 280 0044 FFFFFFF8 		.word	-117440513
 281              		.cfi_endproc
 282              	.LFE4:
 283              		.size	Timer_SetMode, .-Timer_SetMode
 284              		.section	.text.Timer_SetQDMode,"ax",%progbits
 285              		.align	2
 286              		.global	Timer_SetQDMode
 287              		.code	16
 288              		.thumb_func
 289              		.type	Timer_SetQDMode, %function
 290              	Timer_SetQDMode:
 291              	.LFB5:
 321:.\Generated_Source\PSoC4/Timer.c **** 
 322:.\Generated_Source\PSoC4/Timer.c **** 
 323:.\Generated_Source\PSoC4/Timer.c **** /*******************************************************************************
 324:.\Generated_Source\PSoC4/Timer.c **** * Function Name: Timer_SetQDMode
 325:.\Generated_Source\PSoC4/Timer.c **** ********************************************************************************
 326:.\Generated_Source\PSoC4/Timer.c **** *
 327:.\Generated_Source\PSoC4/Timer.c **** * Summary:
 328:.\Generated_Source\PSoC4/Timer.c **** *  Sets the the Quadrature Decoder to one of the 3 supported modes.
 329:.\Generated_Source\PSoC4/Timer.c **** *  Its functionality is only applicable to Quadrature Decoder operation.
 330:.\Generated_Source\PSoC4/Timer.c **** *
 331:.\Generated_Source\PSoC4/Timer.c **** * Parameters:
 332:.\Generated_Source\PSoC4/Timer.c **** *  qdMode: Quadrature Decoder mode
 333:.\Generated_Source\PSoC4/Timer.c **** *   Values:
 334:.\Generated_Source\PSoC4/Timer.c **** *         - Timer_MODE_X1 - Counts on phi 1 rising
 335:.\Generated_Source\PSoC4/Timer.c **** *         - Timer_MODE_X2 - Counts on both edges of phi1 (2x faster)
 336:.\Generated_Source\PSoC4/Timer.c **** *         - Timer_MODE_X4 - Counts on both edges of phi1 and phi2
ARM GAS  C:\Users\Jared\AppData\Local\Temp\ccOOnCAQ.s 			page 12


 337:.\Generated_Source\PSoC4/Timer.c **** *                                        (4x faster)
 338:.\Generated_Source\PSoC4/Timer.c **** *
 339:.\Generated_Source\PSoC4/Timer.c **** * Return:
 340:.\Generated_Source\PSoC4/Timer.c **** *  None
 341:.\Generated_Source\PSoC4/Timer.c **** *
 342:.\Generated_Source\PSoC4/Timer.c **** *******************************************************************************/
 343:.\Generated_Source\PSoC4/Timer.c **** void Timer_SetQDMode(uint32 qdMode)
 344:.\Generated_Source\PSoC4/Timer.c **** {
 292              		.loc 1 344 0
 293              		.cfi_startproc
 294 0000 90B5     		push	{r4, r7, lr}
 295              	.LCFI13:
 296              		.cfi_def_cfa_offset 12
 297              		.cfi_offset 4, -12
 298              		.cfi_offset 7, -8
 299              		.cfi_offset 14, -4
 300 0002 85B0     		sub	sp, sp, #20
 301              	.LCFI14:
 302              		.cfi_def_cfa_offset 32
 303 0004 00AF     		add	r7, sp, #0
 304              	.LCFI15:
 305              		.cfi_def_cfa_register 7
 306 0006 7860     		str	r0, [r7, #4]
 345:.\Generated_Source\PSoC4/Timer.c ****     uint8 enableInterrupts;
 346:.\Generated_Source\PSoC4/Timer.c **** 
 347:.\Generated_Source\PSoC4/Timer.c ****     enableInterrupts = CyEnterCriticalSection();
 307              		.loc 1 347 0
 308 0008 3C1C     		mov	r4, r7
 309 000a 0F34     		add	r4, r4, #15
 310 000c FFF7FEFF 		bl	CyEnterCriticalSection
 311 0010 031C     		mov	r3, r0
 312 0012 2370     		strb	r3, [r4]
 348:.\Generated_Source\PSoC4/Timer.c **** 
 349:.\Generated_Source\PSoC4/Timer.c ****     Timer_CONTROL_REG &= (uint32)~Timer_QUAD_MODE_MASK;
 313              		.loc 1 349 0
 314 0014 0A4B     		ldr	r3, .L18
 315 0016 0A4A     		ldr	r2, .L18
 316 0018 1168     		ldr	r1, [r2]
 317 001a 0A4A     		ldr	r2, .L18+4
 318 001c 0A40     		and	r2, r1
 319 001e 1A60     		str	r2, [r3]
 350:.\Generated_Source\PSoC4/Timer.c ****     Timer_CONTROL_REG |= qdMode;
 320              		.loc 1 350 0
 321 0020 074B     		ldr	r3, .L18
 322 0022 074A     		ldr	r2, .L18
 323 0024 1168     		ldr	r1, [r2]
 324 0026 7A68     		ldr	r2, [r7, #4]
 325 0028 0A43     		orr	r2, r1
 326 002a 1A60     		str	r2, [r3]
 351:.\Generated_Source\PSoC4/Timer.c **** 
 352:.\Generated_Source\PSoC4/Timer.c ****     CyExitCriticalSection(enableInterrupts);
 327              		.loc 1 352 0
 328 002c 3B1C     		mov	r3, r7
 329 002e 0F33     		add	r3, r3, #15
 330 0030 1B78     		ldrb	r3, [r3]
 331 0032 181C     		mov	r0, r3
 332 0034 FFF7FEFF 		bl	CyExitCriticalSection
ARM GAS  C:\Users\Jared\AppData\Local\Temp\ccOOnCAQ.s 			page 13


 353:.\Generated_Source\PSoC4/Timer.c **** }
 333              		.loc 1 353 0
 334 0038 BD46     		mov	sp, r7
 335 003a 05B0     		add	sp, sp, #20
 336              		@ sp needed for prologue
 337 003c 90BD     		pop	{r4, r7, pc}
 338              	.L19:
 339 003e C046     		.align	2
 340              	.L18:
 341 0040 80010540 		.word	1074069888
 342 0044 FFFF8FFF 		.word	-7340033
 343              		.cfi_endproc
 344              	.LFE5:
 345              		.size	Timer_SetQDMode, .-Timer_SetQDMode
 346              		.section	.text.Timer_SetPrescaler,"ax",%progbits
 347              		.align	2
 348              		.global	Timer_SetPrescaler
 349              		.code	16
 350              		.thumb_func
 351              		.type	Timer_SetPrescaler, %function
 352              	Timer_SetPrescaler:
 353              	.LFB6:
 354:.\Generated_Source\PSoC4/Timer.c **** 
 355:.\Generated_Source\PSoC4/Timer.c **** 
 356:.\Generated_Source\PSoC4/Timer.c **** /*******************************************************************************
 357:.\Generated_Source\PSoC4/Timer.c **** * Function Name: Timer_SetPrescaler
 358:.\Generated_Source\PSoC4/Timer.c **** ********************************************************************************
 359:.\Generated_Source\PSoC4/Timer.c **** *
 360:.\Generated_Source\PSoC4/Timer.c **** * Summary:
 361:.\Generated_Source\PSoC4/Timer.c **** *  Sets the prescaler value that is applied to the clock input.  Not applicable
 362:.\Generated_Source\PSoC4/Timer.c **** *  to a PWM with the dead time mode or Quadrature Decoder mode.
 363:.\Generated_Source\PSoC4/Timer.c **** *
 364:.\Generated_Source\PSoC4/Timer.c **** * Parameters:
 365:.\Generated_Source\PSoC4/Timer.c **** *  prescaler: Prescaler divider value
 366:.\Generated_Source\PSoC4/Timer.c **** *   Values:
 367:.\Generated_Source\PSoC4/Timer.c **** *         - Timer_PRESCALE_DIVBY1    - Divide by 1 (no prescaling)
 368:.\Generated_Source\PSoC4/Timer.c **** *         - Timer_PRESCALE_DIVBY2    - Divide by 2
 369:.\Generated_Source\PSoC4/Timer.c **** *         - Timer_PRESCALE_DIVBY4    - Divide by 4
 370:.\Generated_Source\PSoC4/Timer.c **** *         - Timer_PRESCALE_DIVBY8    - Divide by 8
 371:.\Generated_Source\PSoC4/Timer.c **** *         - Timer_PRESCALE_DIVBY16   - Divide by 16
 372:.\Generated_Source\PSoC4/Timer.c **** *         - Timer_PRESCALE_DIVBY32   - Divide by 32
 373:.\Generated_Source\PSoC4/Timer.c **** *         - Timer_PRESCALE_DIVBY64   - Divide by 64
 374:.\Generated_Source\PSoC4/Timer.c **** *         - Timer_PRESCALE_DIVBY128  - Divide by 128
 375:.\Generated_Source\PSoC4/Timer.c **** *
 376:.\Generated_Source\PSoC4/Timer.c **** * Return:
 377:.\Generated_Source\PSoC4/Timer.c **** *  None
 378:.\Generated_Source\PSoC4/Timer.c **** *
 379:.\Generated_Source\PSoC4/Timer.c **** *******************************************************************************/
 380:.\Generated_Source\PSoC4/Timer.c **** void Timer_SetPrescaler(uint32 prescaler)
 381:.\Generated_Source\PSoC4/Timer.c **** {
 354              		.loc 1 381 0
 355              		.cfi_startproc
 356 0000 90B5     		push	{r4, r7, lr}
 357              	.LCFI16:
 358              		.cfi_def_cfa_offset 12
 359              		.cfi_offset 4, -12
 360              		.cfi_offset 7, -8
ARM GAS  C:\Users\Jared\AppData\Local\Temp\ccOOnCAQ.s 			page 14


 361              		.cfi_offset 14, -4
 362 0002 85B0     		sub	sp, sp, #20
 363              	.LCFI17:
 364              		.cfi_def_cfa_offset 32
 365 0004 00AF     		add	r7, sp, #0
 366              	.LCFI18:
 367              		.cfi_def_cfa_register 7
 368 0006 7860     		str	r0, [r7, #4]
 382:.\Generated_Source\PSoC4/Timer.c ****     uint8 enableInterrupts;
 383:.\Generated_Source\PSoC4/Timer.c **** 
 384:.\Generated_Source\PSoC4/Timer.c ****     enableInterrupts = CyEnterCriticalSection();
 369              		.loc 1 384 0
 370 0008 3C1C     		mov	r4, r7
 371 000a 0F34     		add	r4, r4, #15
 372 000c FFF7FEFF 		bl	CyEnterCriticalSection
 373 0010 031C     		mov	r3, r0
 374 0012 2370     		strb	r3, [r4]
 385:.\Generated_Source\PSoC4/Timer.c **** 
 386:.\Generated_Source\PSoC4/Timer.c ****     Timer_CONTROL_REG &= (uint32)~Timer_PRESCALER_MASK;
 375              		.loc 1 386 0
 376 0014 0A4B     		ldr	r3, .L21
 377 0016 0A4A     		ldr	r2, .L21
 378 0018 1168     		ldr	r1, [r2]
 379 001a 0A4A     		ldr	r2, .L21+4
 380 001c 0A40     		and	r2, r1
 381 001e 1A60     		str	r2, [r3]
 387:.\Generated_Source\PSoC4/Timer.c ****     Timer_CONTROL_REG |= prescaler;
 382              		.loc 1 387 0
 383 0020 074B     		ldr	r3, .L21
 384 0022 074A     		ldr	r2, .L21
 385 0024 1168     		ldr	r1, [r2]
 386 0026 7A68     		ldr	r2, [r7, #4]
 387 0028 0A43     		orr	r2, r1
 388 002a 1A60     		str	r2, [r3]
 388:.\Generated_Source\PSoC4/Timer.c **** 
 389:.\Generated_Source\PSoC4/Timer.c ****     CyExitCriticalSection(enableInterrupts);
 389              		.loc 1 389 0
 390 002c 3B1C     		mov	r3, r7
 391 002e 0F33     		add	r3, r3, #15
 392 0030 1B78     		ldrb	r3, [r3]
 393 0032 181C     		mov	r0, r3
 394 0034 FFF7FEFF 		bl	CyExitCriticalSection
 390:.\Generated_Source\PSoC4/Timer.c **** }
 395              		.loc 1 390 0
 396 0038 BD46     		mov	sp, r7
 397 003a 05B0     		add	sp, sp, #20
 398              		@ sp needed for prologue
 399 003c 90BD     		pop	{r4, r7, pc}
 400              	.L22:
 401 003e C046     		.align	2
 402              	.L21:
 403 0040 80010540 		.word	1074069888
 404 0044 FF00FFFF 		.word	-65281
 405              		.cfi_endproc
 406              	.LFE6:
 407              		.size	Timer_SetPrescaler, .-Timer_SetPrescaler
 408              		.section	.text.Timer_SetOneShot,"ax",%progbits
ARM GAS  C:\Users\Jared\AppData\Local\Temp\ccOOnCAQ.s 			page 15


 409              		.align	2
 410              		.global	Timer_SetOneShot
 411              		.code	16
 412              		.thumb_func
 413              		.type	Timer_SetOneShot, %function
 414              	Timer_SetOneShot:
 415              	.LFB7:
 391:.\Generated_Source\PSoC4/Timer.c **** 
 392:.\Generated_Source\PSoC4/Timer.c **** 
 393:.\Generated_Source\PSoC4/Timer.c **** /*******************************************************************************
 394:.\Generated_Source\PSoC4/Timer.c **** * Function Name: Timer_SetOneShot
 395:.\Generated_Source\PSoC4/Timer.c **** ********************************************************************************
 396:.\Generated_Source\PSoC4/Timer.c **** *
 397:.\Generated_Source\PSoC4/Timer.c **** * Summary:
 398:.\Generated_Source\PSoC4/Timer.c **** *  Writes the register that controls whether the Timer runs
 399:.\Generated_Source\PSoC4/Timer.c **** *  continuously or stops when terminal count is reached.  By default the
 400:.\Generated_Source\PSoC4/Timer.c **** *  Timer operates in the continuous mode.
 401:.\Generated_Source\PSoC4/Timer.c **** *
 402:.\Generated_Source\PSoC4/Timer.c **** * Parameters:
 403:.\Generated_Source\PSoC4/Timer.c **** *  oneShotEnable
 404:.\Generated_Source\PSoC4/Timer.c **** *   Values:
 405:.\Generated_Source\PSoC4/Timer.c **** *     - 0 - Continuous
 406:.\Generated_Source\PSoC4/Timer.c **** *     - 1 - Enable One Shot
 407:.\Generated_Source\PSoC4/Timer.c **** *
 408:.\Generated_Source\PSoC4/Timer.c **** * Return:
 409:.\Generated_Source\PSoC4/Timer.c **** *  None
 410:.\Generated_Source\PSoC4/Timer.c **** *
 411:.\Generated_Source\PSoC4/Timer.c **** *******************************************************************************/
 412:.\Generated_Source\PSoC4/Timer.c **** void Timer_SetOneShot(uint32 oneShotEnable)
 413:.\Generated_Source\PSoC4/Timer.c **** {
 416              		.loc 1 413 0
 417              		.cfi_startproc
 418 0000 90B5     		push	{r4, r7, lr}
 419              	.LCFI19:
 420              		.cfi_def_cfa_offset 12
 421              		.cfi_offset 4, -12
 422              		.cfi_offset 7, -8
 423              		.cfi_offset 14, -4
 424 0002 85B0     		sub	sp, sp, #20
 425              	.LCFI20:
 426              		.cfi_def_cfa_offset 32
 427 0004 00AF     		add	r7, sp, #0
 428              	.LCFI21:
 429              		.cfi_def_cfa_register 7
 430 0006 7860     		str	r0, [r7, #4]
 414:.\Generated_Source\PSoC4/Timer.c ****     uint8 enableInterrupts;
 415:.\Generated_Source\PSoC4/Timer.c **** 
 416:.\Generated_Source\PSoC4/Timer.c ****     enableInterrupts = CyEnterCriticalSection();
 431              		.loc 1 416 0
 432 0008 3C1C     		mov	r4, r7
 433 000a 0F34     		add	r4, r4, #15
 434 000c FFF7FEFF 		bl	CyEnterCriticalSection
 435 0010 031C     		mov	r3, r0
 436 0012 2370     		strb	r3, [r4]
 417:.\Generated_Source\PSoC4/Timer.c **** 
 418:.\Generated_Source\PSoC4/Timer.c ****     Timer_CONTROL_REG &= (uint32)~Timer_ONESHOT_MASK;
 437              		.loc 1 418 0
ARM GAS  C:\Users\Jared\AppData\Local\Temp\ccOOnCAQ.s 			page 16


 438 0014 0B4B     		ldr	r3, .L24
 439 0016 0B4A     		ldr	r2, .L24
 440 0018 1168     		ldr	r1, [r2]
 441 001a 0B4A     		ldr	r2, .L24+4
 442 001c 0A40     		and	r2, r1
 443 001e 1A60     		str	r2, [r3]
 419:.\Generated_Source\PSoC4/Timer.c ****     Timer_CONTROL_REG |= ((uint32)((oneShotEnable & Timer_1BIT_MASK) <<
 444              		.loc 1 419 0
 445 0020 084B     		ldr	r3, .L24
 446 0022 084A     		ldr	r2, .L24
 447 0024 1168     		ldr	r1, [r2]
 448 0026 7868     		ldr	r0, [r7, #4]
 449 0028 0122     		mov	r2, #1
 450 002a 0240     		and	r2, r0
 451 002c 9204     		lsl	r2, r2, #18
 452 002e 0A43     		orr	r2, r1
 453 0030 1A60     		str	r2, [r3]
 420:.\Generated_Source\PSoC4/Timer.c ****                                                                Timer_ONESHOT_SHIFT));
 421:.\Generated_Source\PSoC4/Timer.c **** 
 422:.\Generated_Source\PSoC4/Timer.c ****     CyExitCriticalSection(enableInterrupts);
 454              		.loc 1 422 0
 455 0032 3B1C     		mov	r3, r7
 456 0034 0F33     		add	r3, r3, #15
 457 0036 1B78     		ldrb	r3, [r3]
 458 0038 181C     		mov	r0, r3
 459 003a FFF7FEFF 		bl	CyExitCriticalSection
 423:.\Generated_Source\PSoC4/Timer.c **** }
 460              		.loc 1 423 0
 461 003e BD46     		mov	sp, r7
 462 0040 05B0     		add	sp, sp, #20
 463              		@ sp needed for prologue
 464 0042 90BD     		pop	{r4, r7, pc}
 465              	.L25:
 466              		.align	2
 467              	.L24:
 468 0044 80010540 		.word	1074069888
 469 0048 FFFFFBFF 		.word	-262145
 470              		.cfi_endproc
 471              	.LFE7:
 472              		.size	Timer_SetOneShot, .-Timer_SetOneShot
 473              		.section	.text.Timer_SetPWMMode,"ax",%progbits
 474              		.align	2
 475              		.global	Timer_SetPWMMode
 476              		.code	16
 477              		.thumb_func
 478              		.type	Timer_SetPWMMode, %function
 479              	Timer_SetPWMMode:
 480              	.LFB8:
 424:.\Generated_Source\PSoC4/Timer.c **** 
 425:.\Generated_Source\PSoC4/Timer.c **** 
 426:.\Generated_Source\PSoC4/Timer.c **** /*******************************************************************************
 427:.\Generated_Source\PSoC4/Timer.c **** * Function Name: Timer_SetPWMMode
 428:.\Generated_Source\PSoC4/Timer.c **** ********************************************************************************
 429:.\Generated_Source\PSoC4/Timer.c **** *
 430:.\Generated_Source\PSoC4/Timer.c **** * Summary:
 431:.\Generated_Source\PSoC4/Timer.c **** *  Writes the control register that determines what mode of operation the PWM
 432:.\Generated_Source\PSoC4/Timer.c **** *  output lines are driven in.  There is a setting for what to do on a
ARM GAS  C:\Users\Jared\AppData\Local\Temp\ccOOnCAQ.s 			page 17


 433:.\Generated_Source\PSoC4/Timer.c **** *  comparison match (CC_MATCH), on an overflow (OVERFLOW) and on an underflow
 434:.\Generated_Source\PSoC4/Timer.c **** *  (UNDERFLOW).  The value for each of the three must be ORed together to form
 435:.\Generated_Source\PSoC4/Timer.c **** *  the mode.
 436:.\Generated_Source\PSoC4/Timer.c **** *
 437:.\Generated_Source\PSoC4/Timer.c **** * Parameters:
 438:.\Generated_Source\PSoC4/Timer.c **** *  modeMask: A combination of three mode settings.  Mask must include a value
 439:.\Generated_Source\PSoC4/Timer.c **** *  for each of the three or use one of the preconfigured PWM settings.
 440:.\Generated_Source\PSoC4/Timer.c **** *   Values:
 441:.\Generated_Source\PSoC4/Timer.c **** *     - CC_MATCH_SET        - Set on comparison match
 442:.\Generated_Source\PSoC4/Timer.c **** *     - CC_MATCH_CLEAR      - Clear on comparison match
 443:.\Generated_Source\PSoC4/Timer.c **** *     - CC_MATCH_INVERT     - Invert on comparison match
 444:.\Generated_Source\PSoC4/Timer.c **** *     - CC_MATCH_NO_CHANGE  - No change on comparison match
 445:.\Generated_Source\PSoC4/Timer.c **** *     - OVERLOW_SET         - Set on overflow
 446:.\Generated_Source\PSoC4/Timer.c **** *     - OVERLOW_CLEAR       - Clear on  overflow
 447:.\Generated_Source\PSoC4/Timer.c **** *     - OVERLOW_INVERT      - Invert on overflow
 448:.\Generated_Source\PSoC4/Timer.c **** *     - OVERLOW_NO_CHANGE   - No change on overflow
 449:.\Generated_Source\PSoC4/Timer.c **** *     - UNDERFLOW_SET       - Set on underflow
 450:.\Generated_Source\PSoC4/Timer.c **** *     - UNDERFLOW_CLEAR     - Clear on underflow
 451:.\Generated_Source\PSoC4/Timer.c **** *     - UNDERFLOW_INVERT    - Invert on underflow
 452:.\Generated_Source\PSoC4/Timer.c **** *     - UNDERFLOW_NO_CHANGE - No change on underflow
 453:.\Generated_Source\PSoC4/Timer.c **** *     - PWM_MODE_LEFT       - Setting for left aligned PWM.  Should be combined
 454:.\Generated_Source\PSoC4/Timer.c **** *                             with up counting mode
 455:.\Generated_Source\PSoC4/Timer.c **** *     - PWM_MODE_RIGHT      - Setting for right aligned PWM.  Should be combined
 456:.\Generated_Source\PSoC4/Timer.c **** *                             with down counting mode
 457:.\Generated_Source\PSoC4/Timer.c **** *     - PWM_MODE_CENTER     - Setting for center aligned PWM.  Should be
 458:.\Generated_Source\PSoC4/Timer.c **** *                             combined with up/down 0 mode
 459:.\Generated_Source\PSoC4/Timer.c **** *     - PWM_MODE_ASYM       - Setting for asymmetric PWM.  Should be combined
 460:.\Generated_Source\PSoC4/Timer.c **** *                             with up/down 1 mode
 461:.\Generated_Source\PSoC4/Timer.c **** *
 462:.\Generated_Source\PSoC4/Timer.c **** * Return:
 463:.\Generated_Source\PSoC4/Timer.c **** *  None
 464:.\Generated_Source\PSoC4/Timer.c **** *
 465:.\Generated_Source\PSoC4/Timer.c **** *******************************************************************************/
 466:.\Generated_Source\PSoC4/Timer.c **** void Timer_SetPWMMode(uint32 modeMask)
 467:.\Generated_Source\PSoC4/Timer.c **** {
 481              		.loc 1 467 0
 482              		.cfi_startproc
 483 0000 80B5     		push	{r7, lr}
 484              	.LCFI22:
 485              		.cfi_def_cfa_offset 8
 486              		.cfi_offset 7, -8
 487              		.cfi_offset 14, -4
 488 0002 82B0     		sub	sp, sp, #8
 489              	.LCFI23:
 490              		.cfi_def_cfa_offset 16
 491 0004 00AF     		add	r7, sp, #0
 492              	.LCFI24:
 493              		.cfi_def_cfa_register 7
 494 0006 7860     		str	r0, [r7, #4]
 468:.\Generated_Source\PSoC4/Timer.c ****     Timer_TRIG_CONTROL2_REG = (modeMask & Timer_6BIT_MASK);
 495              		.loc 1 468 0
 496 0008 034B     		ldr	r3, .L27
 497 000a 7968     		ldr	r1, [r7, #4]
 498 000c 3F22     		mov	r2, #63
 499 000e 0A40     		and	r2, r1
 500 0010 1A60     		str	r2, [r3]
 469:.\Generated_Source\PSoC4/Timer.c **** }
ARM GAS  C:\Users\Jared\AppData\Local\Temp\ccOOnCAQ.s 			page 18


 501              		.loc 1 469 0
 502 0012 BD46     		mov	sp, r7
 503 0014 02B0     		add	sp, sp, #8
 504              		@ sp needed for prologue
 505 0016 80BD     		pop	{r7, pc}
 506              	.L28:
 507              		.align	2
 508              	.L27:
 509 0018 A8010540 		.word	1074069928
 510              		.cfi_endproc
 511              	.LFE8:
 512              		.size	Timer_SetPWMMode, .-Timer_SetPWMMode
 513              		.section	.text.Timer_SetPWMSyncKill,"ax",%progbits
 514              		.align	2
 515              		.global	Timer_SetPWMSyncKill
 516              		.code	16
 517              		.thumb_func
 518              		.type	Timer_SetPWMSyncKill, %function
 519              	Timer_SetPWMSyncKill:
 520              	.LFB9:
 470:.\Generated_Source\PSoC4/Timer.c **** 
 471:.\Generated_Source\PSoC4/Timer.c **** 
 472:.\Generated_Source\PSoC4/Timer.c **** 
 473:.\Generated_Source\PSoC4/Timer.c **** /*******************************************************************************
 474:.\Generated_Source\PSoC4/Timer.c **** * Function Name: Timer_SetPWMSyncKill
 475:.\Generated_Source\PSoC4/Timer.c **** ********************************************************************************
 476:.\Generated_Source\PSoC4/Timer.c **** *
 477:.\Generated_Source\PSoC4/Timer.c **** * Summary:
 478:.\Generated_Source\PSoC4/Timer.c **** *  Writes the register that controls whether the PWM kill signal (stop input)
 479:.\Generated_Source\PSoC4/Timer.c **** *  causes asynchronous or synchronous kill operation.  By default the kill
 480:.\Generated_Source\PSoC4/Timer.c **** *  operation is asynchronous.  This functionality is only applicable to the PWM
 481:.\Generated_Source\PSoC4/Timer.c **** *  and PWM with dead time modes.
 482:.\Generated_Source\PSoC4/Timer.c **** *
 483:.\Generated_Source\PSoC4/Timer.c **** *  For Synchronous mode the kill signal disables both the line and line_n
 484:.\Generated_Source\PSoC4/Timer.c **** *  signals until the next terminal count.
 485:.\Generated_Source\PSoC4/Timer.c **** *
 486:.\Generated_Source\PSoC4/Timer.c **** *  For Asynchronous mode the kill signal disables both the line and line_n
 487:.\Generated_Source\PSoC4/Timer.c **** *  signals when the kill signal is present.  This mode should only be used
 488:.\Generated_Source\PSoC4/Timer.c **** *  when the kill signal (stop input) is configured in the pass through mode
 489:.\Generated_Source\PSoC4/Timer.c **** *  (Level sensitive signal).
 490:.\Generated_Source\PSoC4/Timer.c **** 
 491:.\Generated_Source\PSoC4/Timer.c **** *
 492:.\Generated_Source\PSoC4/Timer.c **** * Parameters:
 493:.\Generated_Source\PSoC4/Timer.c **** *  syncKillEnable
 494:.\Generated_Source\PSoC4/Timer.c **** *   Values:
 495:.\Generated_Source\PSoC4/Timer.c **** *     - 0 - Asynchronous
 496:.\Generated_Source\PSoC4/Timer.c **** *     - 1 - Synchronous
 497:.\Generated_Source\PSoC4/Timer.c **** *
 498:.\Generated_Source\PSoC4/Timer.c **** * Return:
 499:.\Generated_Source\PSoC4/Timer.c **** *  None
 500:.\Generated_Source\PSoC4/Timer.c **** *
 501:.\Generated_Source\PSoC4/Timer.c **** *******************************************************************************/
 502:.\Generated_Source\PSoC4/Timer.c **** void Timer_SetPWMSyncKill(uint32 syncKillEnable)
 503:.\Generated_Source\PSoC4/Timer.c **** {
 521              		.loc 1 503 0
 522              		.cfi_startproc
 523 0000 90B5     		push	{r4, r7, lr}
ARM GAS  C:\Users\Jared\AppData\Local\Temp\ccOOnCAQ.s 			page 19


 524              	.LCFI25:
 525              		.cfi_def_cfa_offset 12
 526              		.cfi_offset 4, -12
 527              		.cfi_offset 7, -8
 528              		.cfi_offset 14, -4
 529 0002 85B0     		sub	sp, sp, #20
 530              	.LCFI26:
 531              		.cfi_def_cfa_offset 32
 532 0004 00AF     		add	r7, sp, #0
 533              	.LCFI27:
 534              		.cfi_def_cfa_register 7
 535 0006 7860     		str	r0, [r7, #4]
 504:.\Generated_Source\PSoC4/Timer.c ****     uint8 enableInterrupts;
 505:.\Generated_Source\PSoC4/Timer.c **** 
 506:.\Generated_Source\PSoC4/Timer.c ****     enableInterrupts = CyEnterCriticalSection();
 536              		.loc 1 506 0
 537 0008 3C1C     		mov	r4, r7
 538 000a 0F34     		add	r4, r4, #15
 539 000c FFF7FEFF 		bl	CyEnterCriticalSection
 540 0010 031C     		mov	r3, r0
 541 0012 2370     		strb	r3, [r4]
 507:.\Generated_Source\PSoC4/Timer.c **** 
 508:.\Generated_Source\PSoC4/Timer.c ****     Timer_CONTROL_REG &= (uint32)~Timer_PWM_SYNC_KILL_MASK;
 542              		.loc 1 508 0
 543 0014 0B4B     		ldr	r3, .L30
 544 0016 0B4A     		ldr	r2, .L30
 545 0018 1268     		ldr	r2, [r2]
 546 001a 0421     		mov	r1, #4
 547 001c 8A43     		bic	r2, r1
 548 001e 1A60     		str	r2, [r3]
 509:.\Generated_Source\PSoC4/Timer.c ****     Timer_CONTROL_REG |= ((uint32)((syncKillEnable & Timer_1BIT_MASK)  <<
 549              		.loc 1 509 0
 550 0020 084B     		ldr	r3, .L30
 551 0022 084A     		ldr	r2, .L30
 552 0024 1168     		ldr	r1, [r2]
 553 0026 7868     		ldr	r0, [r7, #4]
 554 0028 0122     		mov	r2, #1
 555 002a 0240     		and	r2, r0
 556 002c 9200     		lsl	r2, r2, #2
 557 002e 0A43     		orr	r2, r1
 558 0030 1A60     		str	r2, [r3]
 510:.\Generated_Source\PSoC4/Timer.c ****                                                Timer_PWM_SYNC_KILL_SHIFT));
 511:.\Generated_Source\PSoC4/Timer.c **** 
 512:.\Generated_Source\PSoC4/Timer.c ****     CyExitCriticalSection(enableInterrupts);
 559              		.loc 1 512 0
 560 0032 3B1C     		mov	r3, r7
 561 0034 0F33     		add	r3, r3, #15
 562 0036 1B78     		ldrb	r3, [r3]
 563 0038 181C     		mov	r0, r3
 564 003a FFF7FEFF 		bl	CyExitCriticalSection
 513:.\Generated_Source\PSoC4/Timer.c **** }
 565              		.loc 1 513 0
 566 003e BD46     		mov	sp, r7
 567 0040 05B0     		add	sp, sp, #20
 568              		@ sp needed for prologue
 569 0042 90BD     		pop	{r4, r7, pc}
 570              	.L31:
ARM GAS  C:\Users\Jared\AppData\Local\Temp\ccOOnCAQ.s 			page 20


 571              		.align	2
 572              	.L30:
 573 0044 80010540 		.word	1074069888
 574              		.cfi_endproc
 575              	.LFE9:
 576              		.size	Timer_SetPWMSyncKill, .-Timer_SetPWMSyncKill
 577              		.section	.text.Timer_SetPWMStopOnKill,"ax",%progbits
 578              		.align	2
 579              		.global	Timer_SetPWMStopOnKill
 580              		.code	16
 581              		.thumb_func
 582              		.type	Timer_SetPWMStopOnKill, %function
 583              	Timer_SetPWMStopOnKill:
 584              	.LFB10:
 514:.\Generated_Source\PSoC4/Timer.c **** 
 515:.\Generated_Source\PSoC4/Timer.c **** 
 516:.\Generated_Source\PSoC4/Timer.c **** /*******************************************************************************
 517:.\Generated_Source\PSoC4/Timer.c **** * Function Name: Timer_SetPWMStopOnKill
 518:.\Generated_Source\PSoC4/Timer.c **** ********************************************************************************
 519:.\Generated_Source\PSoC4/Timer.c **** *
 520:.\Generated_Source\PSoC4/Timer.c **** * Summary:
 521:.\Generated_Source\PSoC4/Timer.c **** *  Writes the register that controls whether the PWM kill signal (stop input)
 522:.\Generated_Source\PSoC4/Timer.c **** *  causes the PWM counter to stop.  By default the kill operation does not stop
 523:.\Generated_Source\PSoC4/Timer.c **** *  the counter.  This functionality is only applicable to the three PWM modes.
 524:.\Generated_Source\PSoC4/Timer.c **** *
 525:.\Generated_Source\PSoC4/Timer.c **** *
 526:.\Generated_Source\PSoC4/Timer.c **** * Parameters:
 527:.\Generated_Source\PSoC4/Timer.c **** *  stopOnKillEnable
 528:.\Generated_Source\PSoC4/Timer.c **** *   Values:
 529:.\Generated_Source\PSoC4/Timer.c **** *     - 0 - Don't stop
 530:.\Generated_Source\PSoC4/Timer.c **** *     - 1 - Stop
 531:.\Generated_Source\PSoC4/Timer.c **** *
 532:.\Generated_Source\PSoC4/Timer.c **** * Return:
 533:.\Generated_Source\PSoC4/Timer.c **** *  None
 534:.\Generated_Source\PSoC4/Timer.c **** *
 535:.\Generated_Source\PSoC4/Timer.c **** *******************************************************************************/
 536:.\Generated_Source\PSoC4/Timer.c **** void Timer_SetPWMStopOnKill(uint32 stopOnKillEnable)
 537:.\Generated_Source\PSoC4/Timer.c **** {
 585              		.loc 1 537 0
 586              		.cfi_startproc
 587 0000 90B5     		push	{r4, r7, lr}
 588              	.LCFI28:
 589              		.cfi_def_cfa_offset 12
 590              		.cfi_offset 4, -12
 591              		.cfi_offset 7, -8
 592              		.cfi_offset 14, -4
 593 0002 85B0     		sub	sp, sp, #20
 594              	.LCFI29:
 595              		.cfi_def_cfa_offset 32
 596 0004 00AF     		add	r7, sp, #0
 597              	.LCFI30:
 598              		.cfi_def_cfa_register 7
 599 0006 7860     		str	r0, [r7, #4]
 538:.\Generated_Source\PSoC4/Timer.c ****     uint8 enableInterrupts;
 539:.\Generated_Source\PSoC4/Timer.c **** 
 540:.\Generated_Source\PSoC4/Timer.c ****     enableInterrupts = CyEnterCriticalSection();
 600              		.loc 1 540 0
ARM GAS  C:\Users\Jared\AppData\Local\Temp\ccOOnCAQ.s 			page 21


 601 0008 3C1C     		mov	r4, r7
 602 000a 0F34     		add	r4, r4, #15
 603 000c FFF7FEFF 		bl	CyEnterCriticalSection
 604 0010 031C     		mov	r3, r0
 605 0012 2370     		strb	r3, [r4]
 541:.\Generated_Source\PSoC4/Timer.c **** 
 542:.\Generated_Source\PSoC4/Timer.c ****     Timer_CONTROL_REG &= (uint32)~Timer_PWM_STOP_KILL_MASK;
 606              		.loc 1 542 0
 607 0014 0B4B     		ldr	r3, .L33
 608 0016 0B4A     		ldr	r2, .L33
 609 0018 1268     		ldr	r2, [r2]
 610 001a 0821     		mov	r1, #8
 611 001c 8A43     		bic	r2, r1
 612 001e 1A60     		str	r2, [r3]
 543:.\Generated_Source\PSoC4/Timer.c ****     Timer_CONTROL_REG |= ((uint32)((stopOnKillEnable & Timer_1BIT_MASK)  <<
 613              		.loc 1 543 0
 614 0020 084B     		ldr	r3, .L33
 615 0022 084A     		ldr	r2, .L33
 616 0024 1168     		ldr	r1, [r2]
 617 0026 7868     		ldr	r0, [r7, #4]
 618 0028 0122     		mov	r2, #1
 619 002a 0240     		and	r2, r0
 620 002c D200     		lsl	r2, r2, #3
 621 002e 0A43     		orr	r2, r1
 622 0030 1A60     		str	r2, [r3]
 544:.\Generated_Source\PSoC4/Timer.c ****                                                          Timer_PWM_STOP_KILL_SHIFT));
 545:.\Generated_Source\PSoC4/Timer.c **** 
 546:.\Generated_Source\PSoC4/Timer.c ****     CyExitCriticalSection(enableInterrupts);
 623              		.loc 1 546 0
 624 0032 3B1C     		mov	r3, r7
 625 0034 0F33     		add	r3, r3, #15
 626 0036 1B78     		ldrb	r3, [r3]
 627 0038 181C     		mov	r0, r3
 628 003a FFF7FEFF 		bl	CyExitCriticalSection
 547:.\Generated_Source\PSoC4/Timer.c **** }
 629              		.loc 1 547 0
 630 003e BD46     		mov	sp, r7
 631 0040 05B0     		add	sp, sp, #20
 632              		@ sp needed for prologue
 633 0042 90BD     		pop	{r4, r7, pc}
 634              	.L34:
 635              		.align	2
 636              	.L33:
 637 0044 80010540 		.word	1074069888
 638              		.cfi_endproc
 639              	.LFE10:
 640              		.size	Timer_SetPWMStopOnKill, .-Timer_SetPWMStopOnKill
 641              		.section	.text.Timer_SetPWMDeadTime,"ax",%progbits
 642              		.align	2
 643              		.global	Timer_SetPWMDeadTime
 644              		.code	16
 645              		.thumb_func
 646              		.type	Timer_SetPWMDeadTime, %function
 647              	Timer_SetPWMDeadTime:
 648              	.LFB11:
 548:.\Generated_Source\PSoC4/Timer.c **** 
 549:.\Generated_Source\PSoC4/Timer.c **** 
ARM GAS  C:\Users\Jared\AppData\Local\Temp\ccOOnCAQ.s 			page 22


 550:.\Generated_Source\PSoC4/Timer.c **** /*******************************************************************************
 551:.\Generated_Source\PSoC4/Timer.c **** * Function Name: Timer_SetPWMDeadTime
 552:.\Generated_Source\PSoC4/Timer.c **** ********************************************************************************
 553:.\Generated_Source\PSoC4/Timer.c **** *
 554:.\Generated_Source\PSoC4/Timer.c **** * Summary:
 555:.\Generated_Source\PSoC4/Timer.c **** *  Writes the dead time control value.  This value delays the rising edge of
 556:.\Generated_Source\PSoC4/Timer.c **** *  both the line and line_n signals the designated number of cycles resulting
 557:.\Generated_Source\PSoC4/Timer.c **** *  in both signals being inactive for that many cycles.  This functionality is
 558:.\Generated_Source\PSoC4/Timer.c **** *  only applicable to the PWM in the dead time mode.
 559:.\Generated_Source\PSoC4/Timer.c **** 
 560:.\Generated_Source\PSoC4/Timer.c **** *
 561:.\Generated_Source\PSoC4/Timer.c **** * Parameters:
 562:.\Generated_Source\PSoC4/Timer.c **** *  Dead time to insert
 563:.\Generated_Source\PSoC4/Timer.c **** *   Values: 0 to 255
 564:.\Generated_Source\PSoC4/Timer.c **** *
 565:.\Generated_Source\PSoC4/Timer.c **** * Return:
 566:.\Generated_Source\PSoC4/Timer.c **** *  None
 567:.\Generated_Source\PSoC4/Timer.c **** *
 568:.\Generated_Source\PSoC4/Timer.c **** *******************************************************************************/
 569:.\Generated_Source\PSoC4/Timer.c **** void Timer_SetPWMDeadTime(uint32 deadTime)
 570:.\Generated_Source\PSoC4/Timer.c **** {
 649              		.loc 1 570 0
 650              		.cfi_startproc
 651 0000 90B5     		push	{r4, r7, lr}
 652              	.LCFI31:
 653              		.cfi_def_cfa_offset 12
 654              		.cfi_offset 4, -12
 655              		.cfi_offset 7, -8
 656              		.cfi_offset 14, -4
 657 0002 85B0     		sub	sp, sp, #20
 658              	.LCFI32:
 659              		.cfi_def_cfa_offset 32
 660 0004 00AF     		add	r7, sp, #0
 661              	.LCFI33:
 662              		.cfi_def_cfa_register 7
 663 0006 7860     		str	r0, [r7, #4]
 571:.\Generated_Source\PSoC4/Timer.c ****     uint8 enableInterrupts;
 572:.\Generated_Source\PSoC4/Timer.c **** 
 573:.\Generated_Source\PSoC4/Timer.c ****     enableInterrupts = CyEnterCriticalSection();
 664              		.loc 1 573 0
 665 0008 3C1C     		mov	r4, r7
 666 000a 0F34     		add	r4, r4, #15
 667 000c FFF7FEFF 		bl	CyEnterCriticalSection
 668 0010 031C     		mov	r3, r0
 669 0012 2370     		strb	r3, [r4]
 574:.\Generated_Source\PSoC4/Timer.c **** 
 575:.\Generated_Source\PSoC4/Timer.c ****     Timer_CONTROL_REG &= (uint32)~Timer_PRESCALER_MASK;
 670              		.loc 1 575 0
 671 0014 0B4B     		ldr	r3, .L36
 672 0016 0B4A     		ldr	r2, .L36
 673 0018 1168     		ldr	r1, [r2]
 674 001a 0B4A     		ldr	r2, .L36+4
 675 001c 0A40     		and	r2, r1
 676 001e 1A60     		str	r2, [r3]
 576:.\Generated_Source\PSoC4/Timer.c ****     Timer_CONTROL_REG |= ((uint32)((deadTime & Timer_8BIT_MASK) <<
 677              		.loc 1 576 0
 678 0020 084B     		ldr	r3, .L36
ARM GAS  C:\Users\Jared\AppData\Local\Temp\ccOOnCAQ.s 			page 23


 679 0022 084A     		ldr	r2, .L36
 680 0024 1168     		ldr	r1, [r2]
 681 0026 7A68     		ldr	r2, [r7, #4]
 682 0028 1202     		lsl	r2, r2, #8
 683 002a 1204     		lsl	r2, r2, #16
 684 002c 120C     		lsr	r2, r2, #16
 685 002e 0A43     		orr	r2, r1
 686 0030 1A60     		str	r2, [r3]
 577:.\Generated_Source\PSoC4/Timer.c ****                                                           Timer_PRESCALER_SHIFT));
 578:.\Generated_Source\PSoC4/Timer.c **** 
 579:.\Generated_Source\PSoC4/Timer.c ****     CyExitCriticalSection(enableInterrupts);
 687              		.loc 1 579 0
 688 0032 3B1C     		mov	r3, r7
 689 0034 0F33     		add	r3, r3, #15
 690 0036 1B78     		ldrb	r3, [r3]
 691 0038 181C     		mov	r0, r3
 692 003a FFF7FEFF 		bl	CyExitCriticalSection
 580:.\Generated_Source\PSoC4/Timer.c **** }
 693              		.loc 1 580 0
 694 003e BD46     		mov	sp, r7
 695 0040 05B0     		add	sp, sp, #20
 696              		@ sp needed for prologue
 697 0042 90BD     		pop	{r4, r7, pc}
 698              	.L37:
 699              		.align	2
 700              	.L36:
 701 0044 80010540 		.word	1074069888
 702 0048 FF00FFFF 		.word	-65281
 703              		.cfi_endproc
 704              	.LFE11:
 705              		.size	Timer_SetPWMDeadTime, .-Timer_SetPWMDeadTime
 706              		.section	.text.Timer_SetPWMInvert,"ax",%progbits
 707              		.align	2
 708              		.global	Timer_SetPWMInvert
 709              		.code	16
 710              		.thumb_func
 711              		.type	Timer_SetPWMInvert, %function
 712              	Timer_SetPWMInvert:
 713              	.LFB12:
 581:.\Generated_Source\PSoC4/Timer.c **** 
 582:.\Generated_Source\PSoC4/Timer.c **** 
 583:.\Generated_Source\PSoC4/Timer.c **** /*******************************************************************************
 584:.\Generated_Source\PSoC4/Timer.c **** * Function Name: Timer_SetPWMInvert
 585:.\Generated_Source\PSoC4/Timer.c **** ********************************************************************************
 586:.\Generated_Source\PSoC4/Timer.c **** *
 587:.\Generated_Source\PSoC4/Timer.c **** * Summary:
 588:.\Generated_Source\PSoC4/Timer.c **** *  Writes the bits that control whether the line and line_n outputs are
 589:.\Generated_Source\PSoC4/Timer.c **** *  inverted from their normal output values.  This functionality is only
 590:.\Generated_Source\PSoC4/Timer.c **** *  applicable to the three PWM modes.
 591:.\Generated_Source\PSoC4/Timer.c **** *
 592:.\Generated_Source\PSoC4/Timer.c **** * Parameters:
 593:.\Generated_Source\PSoC4/Timer.c **** *  mask: Mask of outputs to invert.
 594:.\Generated_Source\PSoC4/Timer.c **** *   Values:
 595:.\Generated_Source\PSoC4/Timer.c **** *         - Timer_INVERT_LINE   - Inverts the line output
 596:.\Generated_Source\PSoC4/Timer.c **** *         - Timer_INVERT_LINE_N - Inverts the line_n output
 597:.\Generated_Source\PSoC4/Timer.c **** *
 598:.\Generated_Source\PSoC4/Timer.c **** * Return:
ARM GAS  C:\Users\Jared\AppData\Local\Temp\ccOOnCAQ.s 			page 24


 599:.\Generated_Source\PSoC4/Timer.c **** *  None
 600:.\Generated_Source\PSoC4/Timer.c **** *
 601:.\Generated_Source\PSoC4/Timer.c **** *******************************************************************************/
 602:.\Generated_Source\PSoC4/Timer.c **** void Timer_SetPWMInvert(uint32 mask)
 603:.\Generated_Source\PSoC4/Timer.c **** {
 714              		.loc 1 603 0
 715              		.cfi_startproc
 716 0000 90B5     		push	{r4, r7, lr}
 717              	.LCFI34:
 718              		.cfi_def_cfa_offset 12
 719              		.cfi_offset 4, -12
 720              		.cfi_offset 7, -8
 721              		.cfi_offset 14, -4
 722 0002 85B0     		sub	sp, sp, #20
 723              	.LCFI35:
 724              		.cfi_def_cfa_offset 32
 725 0004 00AF     		add	r7, sp, #0
 726              	.LCFI36:
 727              		.cfi_def_cfa_register 7
 728 0006 7860     		str	r0, [r7, #4]
 604:.\Generated_Source\PSoC4/Timer.c ****     uint8 enableInterrupts;
 605:.\Generated_Source\PSoC4/Timer.c **** 
 606:.\Generated_Source\PSoC4/Timer.c ****     enableInterrupts = CyEnterCriticalSection();
 729              		.loc 1 606 0
 730 0008 3C1C     		mov	r4, r7
 731 000a 0F34     		add	r4, r4, #15
 732 000c FFF7FEFF 		bl	CyEnterCriticalSection
 733 0010 031C     		mov	r3, r0
 734 0012 2370     		strb	r3, [r4]
 607:.\Generated_Source\PSoC4/Timer.c **** 
 608:.\Generated_Source\PSoC4/Timer.c ****     Timer_CONTROL_REG &= (uint32)~Timer_INV_OUT_MASK;
 735              		.loc 1 608 0
 736 0014 0A4B     		ldr	r3, .L39
 737 0016 0A4A     		ldr	r2, .L39
 738 0018 1168     		ldr	r1, [r2]
 739 001a 0A4A     		ldr	r2, .L39+4
 740 001c 0A40     		and	r2, r1
 741 001e 1A60     		str	r2, [r3]
 609:.\Generated_Source\PSoC4/Timer.c ****     Timer_CONTROL_REG |= mask;
 742              		.loc 1 609 0
 743 0020 074B     		ldr	r3, .L39
 744 0022 074A     		ldr	r2, .L39
 745 0024 1168     		ldr	r1, [r2]
 746 0026 7A68     		ldr	r2, [r7, #4]
 747 0028 0A43     		orr	r2, r1
 748 002a 1A60     		str	r2, [r3]
 610:.\Generated_Source\PSoC4/Timer.c **** 
 611:.\Generated_Source\PSoC4/Timer.c ****     CyExitCriticalSection(enableInterrupts);
 749              		.loc 1 611 0
 750 002c 3B1C     		mov	r3, r7
 751 002e 0F33     		add	r3, r3, #15
 752 0030 1B78     		ldrb	r3, [r3]
 753 0032 181C     		mov	r0, r3
 754 0034 FFF7FEFF 		bl	CyExitCriticalSection
 612:.\Generated_Source\PSoC4/Timer.c **** }
 755              		.loc 1 612 0
 756 0038 BD46     		mov	sp, r7
ARM GAS  C:\Users\Jared\AppData\Local\Temp\ccOOnCAQ.s 			page 25


 757 003a 05B0     		add	sp, sp, #20
 758              		@ sp needed for prologue
 759 003c 90BD     		pop	{r4, r7, pc}
 760              	.L40:
 761 003e C046     		.align	2
 762              	.L39:
 763 0040 80010540 		.word	1074069888
 764 0044 FFFFCFFF 		.word	-3145729
 765              		.cfi_endproc
 766              	.LFE12:
 767              		.size	Timer_SetPWMInvert, .-Timer_SetPWMInvert
 768              		.section	.text.Timer_WriteCounter,"ax",%progbits
 769              		.align	2
 770              		.global	Timer_WriteCounter
 771              		.code	16
 772              		.thumb_func
 773              		.type	Timer_WriteCounter, %function
 774              	Timer_WriteCounter:
 775              	.LFB13:
 613:.\Generated_Source\PSoC4/Timer.c **** 
 614:.\Generated_Source\PSoC4/Timer.c **** 
 615:.\Generated_Source\PSoC4/Timer.c **** 
 616:.\Generated_Source\PSoC4/Timer.c **** /*******************************************************************************
 617:.\Generated_Source\PSoC4/Timer.c **** * Function Name: Timer_WriteCounter
 618:.\Generated_Source\PSoC4/Timer.c **** ********************************************************************************
 619:.\Generated_Source\PSoC4/Timer.c **** *
 620:.\Generated_Source\PSoC4/Timer.c **** * Summary:
 621:.\Generated_Source\PSoC4/Timer.c **** *  Writes a new 16bit counter value directly into the counter register, thus
 622:.\Generated_Source\PSoC4/Timer.c **** *  setting the counter (not the period) to the value written. It is not
 623:.\Generated_Source\PSoC4/Timer.c **** *  advised to write to this field when the counter is running.
 624:.\Generated_Source\PSoC4/Timer.c **** *
 625:.\Generated_Source\PSoC4/Timer.c **** * Parameters:
 626:.\Generated_Source\PSoC4/Timer.c **** *  count: value to write
 627:.\Generated_Source\PSoC4/Timer.c **** *
 628:.\Generated_Source\PSoC4/Timer.c **** * Return:
 629:.\Generated_Source\PSoC4/Timer.c **** *  None
 630:.\Generated_Source\PSoC4/Timer.c **** *
 631:.\Generated_Source\PSoC4/Timer.c **** *******************************************************************************/
 632:.\Generated_Source\PSoC4/Timer.c **** void Timer_WriteCounter(uint32 count)
 633:.\Generated_Source\PSoC4/Timer.c **** {
 776              		.loc 1 633 0
 777              		.cfi_startproc
 778 0000 80B5     		push	{r7, lr}
 779              	.LCFI37:
 780              		.cfi_def_cfa_offset 8
 781              		.cfi_offset 7, -8
 782              		.cfi_offset 14, -4
 783 0002 82B0     		sub	sp, sp, #8
 784              	.LCFI38:
 785              		.cfi_def_cfa_offset 16
 786 0004 00AF     		add	r7, sp, #0
 787              	.LCFI39:
 788              		.cfi_def_cfa_register 7
 789 0006 7860     		str	r0, [r7, #4]
 634:.\Generated_Source\PSoC4/Timer.c ****     Timer_COUNTER_REG = (count & Timer_16BIT_MASK);
 790              		.loc 1 634 0
 791 0008 034B     		ldr	r3, .L42
ARM GAS  C:\Users\Jared\AppData\Local\Temp\ccOOnCAQ.s 			page 26


 792 000a 7A68     		ldr	r2, [r7, #4]
 793 000c 1204     		lsl	r2, r2, #16
 794 000e 120C     		lsr	r2, r2, #16
 795 0010 1A60     		str	r2, [r3]
 635:.\Generated_Source\PSoC4/Timer.c **** }
 796              		.loc 1 635 0
 797 0012 BD46     		mov	sp, r7
 798 0014 02B0     		add	sp, sp, #8
 799              		@ sp needed for prologue
 800 0016 80BD     		pop	{r7, pc}
 801              	.L43:
 802              		.align	2
 803              	.L42:
 804 0018 88010540 		.word	1074069896
 805              		.cfi_endproc
 806              	.LFE13:
 807              		.size	Timer_WriteCounter, .-Timer_WriteCounter
 808              		.section	.text.Timer_ReadCounter,"ax",%progbits
 809              		.align	2
 810              		.global	Timer_ReadCounter
 811              		.code	16
 812              		.thumb_func
 813              		.type	Timer_ReadCounter, %function
 814              	Timer_ReadCounter:
 815              	.LFB14:
 636:.\Generated_Source\PSoC4/Timer.c **** 
 637:.\Generated_Source\PSoC4/Timer.c **** 
 638:.\Generated_Source\PSoC4/Timer.c **** /*******************************************************************************
 639:.\Generated_Source\PSoC4/Timer.c **** * Function Name: Timer_ReadCounter
 640:.\Generated_Source\PSoC4/Timer.c **** ********************************************************************************
 641:.\Generated_Source\PSoC4/Timer.c **** *
 642:.\Generated_Source\PSoC4/Timer.c **** * Summary:
 643:.\Generated_Source\PSoC4/Timer.c **** *  Reads the current counter value.
 644:.\Generated_Source\PSoC4/Timer.c **** *
 645:.\Generated_Source\PSoC4/Timer.c **** * Parameters:
 646:.\Generated_Source\PSoC4/Timer.c **** *  None
 647:.\Generated_Source\PSoC4/Timer.c **** *
 648:.\Generated_Source\PSoC4/Timer.c **** * Return:
 649:.\Generated_Source\PSoC4/Timer.c **** *  Current counter value
 650:.\Generated_Source\PSoC4/Timer.c **** *
 651:.\Generated_Source\PSoC4/Timer.c **** *******************************************************************************/
 652:.\Generated_Source\PSoC4/Timer.c **** uint32 Timer_ReadCounter(void)
 653:.\Generated_Source\PSoC4/Timer.c **** {
 816              		.loc 1 653 0
 817              		.cfi_startproc
 818 0000 80B5     		push	{r7, lr}
 819              	.LCFI40:
 820              		.cfi_def_cfa_offset 8
 821              		.cfi_offset 7, -8
 822              		.cfi_offset 14, -4
 823 0002 00AF     		add	r7, sp, #0
 824              	.LCFI41:
 825              		.cfi_def_cfa_register 7
 654:.\Generated_Source\PSoC4/Timer.c ****     return (Timer_COUNTER_REG & Timer_16BIT_MASK);
 826              		.loc 1 654 0
 827 0004 034B     		ldr	r3, .L46
 828 0006 1B68     		ldr	r3, [r3]
ARM GAS  C:\Users\Jared\AppData\Local\Temp\ccOOnCAQ.s 			page 27


 829 0008 1B04     		lsl	r3, r3, #16
 830 000a 1B0C     		lsr	r3, r3, #16
 655:.\Generated_Source\PSoC4/Timer.c **** }
 831              		.loc 1 655 0
 832 000c 181C     		mov	r0, r3
 833 000e BD46     		mov	sp, r7
 834              		@ sp needed for prologue
 835 0010 80BD     		pop	{r7, pc}
 836              	.L47:
 837 0012 C046     		.align	2
 838              	.L46:
 839 0014 88010540 		.word	1074069896
 840              		.cfi_endproc
 841              	.LFE14:
 842              		.size	Timer_ReadCounter, .-Timer_ReadCounter
 843              		.section	.text.Timer_SetCounterMode,"ax",%progbits
 844              		.align	2
 845              		.global	Timer_SetCounterMode
 846              		.code	16
 847              		.thumb_func
 848              		.type	Timer_SetCounterMode, %function
 849              	Timer_SetCounterMode:
 850              	.LFB15:
 656:.\Generated_Source\PSoC4/Timer.c **** 
 657:.\Generated_Source\PSoC4/Timer.c **** 
 658:.\Generated_Source\PSoC4/Timer.c **** /*******************************************************************************
 659:.\Generated_Source\PSoC4/Timer.c **** * Function Name: Timer_SetCounterMode
 660:.\Generated_Source\PSoC4/Timer.c **** ********************************************************************************
 661:.\Generated_Source\PSoC4/Timer.c **** *
 662:.\Generated_Source\PSoC4/Timer.c **** * Summary:
 663:.\Generated_Source\PSoC4/Timer.c **** *  Sets the counter mode.  Applicable to all modes except Quadrature Decoder
 664:.\Generated_Source\PSoC4/Timer.c **** *  and the PWM with a pseudo random output.
 665:.\Generated_Source\PSoC4/Timer.c **** *
 666:.\Generated_Source\PSoC4/Timer.c **** * Parameters:
 667:.\Generated_Source\PSoC4/Timer.c **** *  counterMode: Enumerated counter type values
 668:.\Generated_Source\PSoC4/Timer.c **** *   Values:
 669:.\Generated_Source\PSoC4/Timer.c **** *     - Timer_COUNT_UP       - Counts up
 670:.\Generated_Source\PSoC4/Timer.c **** *     - Timer_COUNT_DOWN     - Counts down
 671:.\Generated_Source\PSoC4/Timer.c **** *     - Timer_COUNT_UPDOWN0  - Counts up and down. Terminal count
 672:.\Generated_Source\PSoC4/Timer.c **** *                                         generated when counter reaches 0
 673:.\Generated_Source\PSoC4/Timer.c **** *     - Timer_COUNT_UPDOWN1  - Counts up and down. Terminal count
 674:.\Generated_Source\PSoC4/Timer.c **** *                                         generated both when counter reaches 0
 675:.\Generated_Source\PSoC4/Timer.c **** *                                         and period
 676:.\Generated_Source\PSoC4/Timer.c **** *
 677:.\Generated_Source\PSoC4/Timer.c **** * Return:
 678:.\Generated_Source\PSoC4/Timer.c **** *  None
 679:.\Generated_Source\PSoC4/Timer.c **** *
 680:.\Generated_Source\PSoC4/Timer.c **** *******************************************************************************/
 681:.\Generated_Source\PSoC4/Timer.c **** void Timer_SetCounterMode(uint32 counterMode)
 682:.\Generated_Source\PSoC4/Timer.c **** {
 851              		.loc 1 682 0
 852              		.cfi_startproc
 853 0000 90B5     		push	{r4, r7, lr}
 854              	.LCFI42:
 855              		.cfi_def_cfa_offset 12
 856              		.cfi_offset 4, -12
 857              		.cfi_offset 7, -8
ARM GAS  C:\Users\Jared\AppData\Local\Temp\ccOOnCAQ.s 			page 28


 858              		.cfi_offset 14, -4
 859 0002 85B0     		sub	sp, sp, #20
 860              	.LCFI43:
 861              		.cfi_def_cfa_offset 32
 862 0004 00AF     		add	r7, sp, #0
 863              	.LCFI44:
 864              		.cfi_def_cfa_register 7
 865 0006 7860     		str	r0, [r7, #4]
 683:.\Generated_Source\PSoC4/Timer.c ****     uint8 enableInterrupts;
 684:.\Generated_Source\PSoC4/Timer.c **** 
 685:.\Generated_Source\PSoC4/Timer.c ****     enableInterrupts = CyEnterCriticalSection();
 866              		.loc 1 685 0
 867 0008 3C1C     		mov	r4, r7
 868 000a 0F34     		add	r4, r4, #15
 869 000c FFF7FEFF 		bl	CyEnterCriticalSection
 870 0010 031C     		mov	r3, r0
 871 0012 2370     		strb	r3, [r4]
 686:.\Generated_Source\PSoC4/Timer.c **** 
 687:.\Generated_Source\PSoC4/Timer.c ****     Timer_CONTROL_REG &= (uint32)~Timer_UPDOWN_MASK;
 872              		.loc 1 687 0
 873 0014 0A4B     		ldr	r3, .L49
 874 0016 0A4A     		ldr	r2, .L49
 875 0018 1168     		ldr	r1, [r2]
 876 001a 0A4A     		ldr	r2, .L49+4
 877 001c 0A40     		and	r2, r1
 878 001e 1A60     		str	r2, [r3]
 688:.\Generated_Source\PSoC4/Timer.c ****     Timer_CONTROL_REG |= counterMode;
 879              		.loc 1 688 0
 880 0020 074B     		ldr	r3, .L49
 881 0022 074A     		ldr	r2, .L49
 882 0024 1168     		ldr	r1, [r2]
 883 0026 7A68     		ldr	r2, [r7, #4]
 884 0028 0A43     		orr	r2, r1
 885 002a 1A60     		str	r2, [r3]
 689:.\Generated_Source\PSoC4/Timer.c **** 
 690:.\Generated_Source\PSoC4/Timer.c ****     CyExitCriticalSection(enableInterrupts);
 886              		.loc 1 690 0
 887 002c 3B1C     		mov	r3, r7
 888 002e 0F33     		add	r3, r3, #15
 889 0030 1B78     		ldrb	r3, [r3]
 890 0032 181C     		mov	r0, r3
 891 0034 FFF7FEFF 		bl	CyExitCriticalSection
 691:.\Generated_Source\PSoC4/Timer.c **** }
 892              		.loc 1 691 0
 893 0038 BD46     		mov	sp, r7
 894 003a 05B0     		add	sp, sp, #20
 895              		@ sp needed for prologue
 896 003c 90BD     		pop	{r4, r7, pc}
 897              	.L50:
 898 003e C046     		.align	2
 899              	.L49:
 900 0040 80010540 		.word	1074069888
 901 0044 FFFFFCFF 		.word	-196609
 902              		.cfi_endproc
 903              	.LFE15:
 904              		.size	Timer_SetCounterMode, .-Timer_SetCounterMode
 905              		.section	.text.Timer_WritePeriod,"ax",%progbits
ARM GAS  C:\Users\Jared\AppData\Local\Temp\ccOOnCAQ.s 			page 29


 906              		.align	2
 907              		.global	Timer_WritePeriod
 908              		.code	16
 909              		.thumb_func
 910              		.type	Timer_WritePeriod, %function
 911              	Timer_WritePeriod:
 912              	.LFB16:
 692:.\Generated_Source\PSoC4/Timer.c **** 
 693:.\Generated_Source\PSoC4/Timer.c **** 
 694:.\Generated_Source\PSoC4/Timer.c **** /*******************************************************************************
 695:.\Generated_Source\PSoC4/Timer.c **** * Function Name: Timer_WritePeriod
 696:.\Generated_Source\PSoC4/Timer.c **** ********************************************************************************
 697:.\Generated_Source\PSoC4/Timer.c **** *
 698:.\Generated_Source\PSoC4/Timer.c **** * Summary:
 699:.\Generated_Source\PSoC4/Timer.c **** *  Writes the 16 bit period register with the new period value.
 700:.\Generated_Source\PSoC4/Timer.c **** *  To cause the counter to count for N cycles this register should be written
 701:.\Generated_Source\PSoC4/Timer.c **** *  with N-1 (counts from 0 to period inclusive).
 702:.\Generated_Source\PSoC4/Timer.c **** *
 703:.\Generated_Source\PSoC4/Timer.c **** * Parameters:
 704:.\Generated_Source\PSoC4/Timer.c **** *  period: Period value
 705:.\Generated_Source\PSoC4/Timer.c **** *
 706:.\Generated_Source\PSoC4/Timer.c **** * Return:
 707:.\Generated_Source\PSoC4/Timer.c **** *  None
 708:.\Generated_Source\PSoC4/Timer.c **** *
 709:.\Generated_Source\PSoC4/Timer.c **** *******************************************************************************/
 710:.\Generated_Source\PSoC4/Timer.c **** void Timer_WritePeriod(uint32 period)
 711:.\Generated_Source\PSoC4/Timer.c **** {
 913              		.loc 1 711 0
 914              		.cfi_startproc
 915 0000 80B5     		push	{r7, lr}
 916              	.LCFI45:
 917              		.cfi_def_cfa_offset 8
 918              		.cfi_offset 7, -8
 919              		.cfi_offset 14, -4
 920 0002 82B0     		sub	sp, sp, #8
 921              	.LCFI46:
 922              		.cfi_def_cfa_offset 16
 923 0004 00AF     		add	r7, sp, #0
 924              	.LCFI47:
 925              		.cfi_def_cfa_register 7
 926 0006 7860     		str	r0, [r7, #4]
 712:.\Generated_Source\PSoC4/Timer.c ****     Timer_PERIOD_REG = (period & Timer_16BIT_MASK);
 927              		.loc 1 712 0
 928 0008 034B     		ldr	r3, .L52
 929 000a 7A68     		ldr	r2, [r7, #4]
 930 000c 1204     		lsl	r2, r2, #16
 931 000e 120C     		lsr	r2, r2, #16
 932 0010 1A60     		str	r2, [r3]
 713:.\Generated_Source\PSoC4/Timer.c **** }
 933              		.loc 1 713 0
 934 0012 BD46     		mov	sp, r7
 935 0014 02B0     		add	sp, sp, #8
 936              		@ sp needed for prologue
 937 0016 80BD     		pop	{r7, pc}
 938              	.L53:
 939              		.align	2
 940              	.L52:
ARM GAS  C:\Users\Jared\AppData\Local\Temp\ccOOnCAQ.s 			page 30


 941 0018 94010540 		.word	1074069908
 942              		.cfi_endproc
 943              	.LFE16:
 944              		.size	Timer_WritePeriod, .-Timer_WritePeriod
 945              		.section	.text.Timer_ReadPeriod,"ax",%progbits
 946              		.align	2
 947              		.global	Timer_ReadPeriod
 948              		.code	16
 949              		.thumb_func
 950              		.type	Timer_ReadPeriod, %function
 951              	Timer_ReadPeriod:
 952              	.LFB17:
 714:.\Generated_Source\PSoC4/Timer.c **** 
 715:.\Generated_Source\PSoC4/Timer.c **** 
 716:.\Generated_Source\PSoC4/Timer.c **** /*******************************************************************************
 717:.\Generated_Source\PSoC4/Timer.c **** * Function Name: Timer_ReadPeriod
 718:.\Generated_Source\PSoC4/Timer.c **** ********************************************************************************
 719:.\Generated_Source\PSoC4/Timer.c **** *
 720:.\Generated_Source\PSoC4/Timer.c **** * Summary:
 721:.\Generated_Source\PSoC4/Timer.c **** *  Reads the 16 bit period register.
 722:.\Generated_Source\PSoC4/Timer.c **** *
 723:.\Generated_Source\PSoC4/Timer.c **** * Parameters:
 724:.\Generated_Source\PSoC4/Timer.c **** *  None
 725:.\Generated_Source\PSoC4/Timer.c **** *
 726:.\Generated_Source\PSoC4/Timer.c **** * Return:
 727:.\Generated_Source\PSoC4/Timer.c **** *  Period value
 728:.\Generated_Source\PSoC4/Timer.c **** *
 729:.\Generated_Source\PSoC4/Timer.c **** *******************************************************************************/
 730:.\Generated_Source\PSoC4/Timer.c **** uint32 Timer_ReadPeriod(void)
 731:.\Generated_Source\PSoC4/Timer.c **** {
 953              		.loc 1 731 0
 954              		.cfi_startproc
 955 0000 80B5     		push	{r7, lr}
 956              	.LCFI48:
 957              		.cfi_def_cfa_offset 8
 958              		.cfi_offset 7, -8
 959              		.cfi_offset 14, -4
 960 0002 00AF     		add	r7, sp, #0
 961              	.LCFI49:
 962              		.cfi_def_cfa_register 7
 732:.\Generated_Source\PSoC4/Timer.c ****     return (Timer_PERIOD_REG & Timer_16BIT_MASK);
 963              		.loc 1 732 0
 964 0004 034B     		ldr	r3, .L56
 965 0006 1B68     		ldr	r3, [r3]
 966 0008 1B04     		lsl	r3, r3, #16
 967 000a 1B0C     		lsr	r3, r3, #16
 733:.\Generated_Source\PSoC4/Timer.c **** }
 968              		.loc 1 733 0
 969 000c 181C     		mov	r0, r3
 970 000e BD46     		mov	sp, r7
 971              		@ sp needed for prologue
 972 0010 80BD     		pop	{r7, pc}
 973              	.L57:
 974 0012 C046     		.align	2
 975              	.L56:
 976 0014 94010540 		.word	1074069908
 977              		.cfi_endproc
ARM GAS  C:\Users\Jared\AppData\Local\Temp\ccOOnCAQ.s 			page 31


 978              	.LFE17:
 979              		.size	Timer_ReadPeriod, .-Timer_ReadPeriod
 980              		.section	.text.Timer_SetCompareSwap,"ax",%progbits
 981              		.align	2
 982              		.global	Timer_SetCompareSwap
 983              		.code	16
 984              		.thumb_func
 985              		.type	Timer_SetCompareSwap, %function
 986              	Timer_SetCompareSwap:
 987              	.LFB18:
 734:.\Generated_Source\PSoC4/Timer.c **** 
 735:.\Generated_Source\PSoC4/Timer.c **** 
 736:.\Generated_Source\PSoC4/Timer.c **** /*******************************************************************************
 737:.\Generated_Source\PSoC4/Timer.c **** * Function Name: Timer_SetCompareSwap
 738:.\Generated_Source\PSoC4/Timer.c **** ********************************************************************************
 739:.\Generated_Source\PSoC4/Timer.c **** *
 740:.\Generated_Source\PSoC4/Timer.c **** * Summary:
 741:.\Generated_Source\PSoC4/Timer.c **** *  Writes the register that controls whether the compare registers are
 742:.\Generated_Source\PSoC4/Timer.c **** *  swapped. When enabled in the Timer/Counter mode(without capture) the swap
 743:.\Generated_Source\PSoC4/Timer.c **** *  occurs at a TC event. In the PWM mode the swap occurs at the next TC event
 744:.\Generated_Source\PSoC4/Timer.c **** *  following a hardware switch event.
 745:.\Generated_Source\PSoC4/Timer.c **** *
 746:.\Generated_Source\PSoC4/Timer.c **** * Parameters:
 747:.\Generated_Source\PSoC4/Timer.c **** *  swapEnable
 748:.\Generated_Source\PSoC4/Timer.c **** *   Values:
 749:.\Generated_Source\PSoC4/Timer.c **** *     - 0 - Disable swap
 750:.\Generated_Source\PSoC4/Timer.c **** *     - 1 - Enable swap
 751:.\Generated_Source\PSoC4/Timer.c **** *
 752:.\Generated_Source\PSoC4/Timer.c **** * Return:
 753:.\Generated_Source\PSoC4/Timer.c **** *  None
 754:.\Generated_Source\PSoC4/Timer.c **** *
 755:.\Generated_Source\PSoC4/Timer.c **** *******************************************************************************/
 756:.\Generated_Source\PSoC4/Timer.c **** void Timer_SetCompareSwap(uint32 swapEnable)
 757:.\Generated_Source\PSoC4/Timer.c **** {
 988              		.loc 1 757 0
 989              		.cfi_startproc
 990 0000 90B5     		push	{r4, r7, lr}
 991              	.LCFI50:
 992              		.cfi_def_cfa_offset 12
 993              		.cfi_offset 4, -12
 994              		.cfi_offset 7, -8
 995              		.cfi_offset 14, -4
 996 0002 85B0     		sub	sp, sp, #20
 997              	.LCFI51:
 998              		.cfi_def_cfa_offset 32
 999 0004 00AF     		add	r7, sp, #0
 1000              	.LCFI52:
 1001              		.cfi_def_cfa_register 7
 1002 0006 7860     		str	r0, [r7, #4]
 758:.\Generated_Source\PSoC4/Timer.c ****     uint8 enableInterrupts;
 759:.\Generated_Source\PSoC4/Timer.c **** 
 760:.\Generated_Source\PSoC4/Timer.c ****     enableInterrupts = CyEnterCriticalSection();
 1003              		.loc 1 760 0
 1004 0008 3C1C     		mov	r4, r7
 1005 000a 0F34     		add	r4, r4, #15
 1006 000c FFF7FEFF 		bl	CyEnterCriticalSection
 1007 0010 031C     		mov	r3, r0
ARM GAS  C:\Users\Jared\AppData\Local\Temp\ccOOnCAQ.s 			page 32


 1008 0012 2370     		strb	r3, [r4]
 761:.\Generated_Source\PSoC4/Timer.c **** 
 762:.\Generated_Source\PSoC4/Timer.c ****     Timer_CONTROL_REG &= (uint32)~Timer_RELOAD_CC_MASK;
 1009              		.loc 1 762 0
 1010 0014 0B4B     		ldr	r3, .L59
 1011 0016 0B4A     		ldr	r2, .L59
 1012 0018 1268     		ldr	r2, [r2]
 1013 001a 0121     		mov	r1, #1
 1014 001c 8A43     		bic	r2, r1
 1015 001e 1A60     		str	r2, [r3]
 763:.\Generated_Source\PSoC4/Timer.c ****     Timer_CONTROL_REG |= (swapEnable & Timer_1BIT_MASK);
 1016              		.loc 1 763 0
 1017 0020 084B     		ldr	r3, .L59
 1018 0022 084A     		ldr	r2, .L59
 1019 0024 1168     		ldr	r1, [r2]
 1020 0026 7868     		ldr	r0, [r7, #4]
 1021 0028 0122     		mov	r2, #1
 1022 002a 0240     		and	r2, r0
 1023 002c 0A43     		orr	r2, r1
 1024 002e 1A60     		str	r2, [r3]
 764:.\Generated_Source\PSoC4/Timer.c **** 
 765:.\Generated_Source\PSoC4/Timer.c ****     CyExitCriticalSection(enableInterrupts);
 1025              		.loc 1 765 0
 1026 0030 3B1C     		mov	r3, r7
 1027 0032 0F33     		add	r3, r3, #15
 1028 0034 1B78     		ldrb	r3, [r3]
 1029 0036 181C     		mov	r0, r3
 1030 0038 FFF7FEFF 		bl	CyExitCriticalSection
 766:.\Generated_Source\PSoC4/Timer.c **** }
 1031              		.loc 1 766 0
 1032 003c BD46     		mov	sp, r7
 1033 003e 05B0     		add	sp, sp, #20
 1034              		@ sp needed for prologue
 1035 0040 90BD     		pop	{r4, r7, pc}
 1036              	.L60:
 1037 0042 C046     		.align	2
 1038              	.L59:
 1039 0044 80010540 		.word	1074069888
 1040              		.cfi_endproc
 1041              	.LFE18:
 1042              		.size	Timer_SetCompareSwap, .-Timer_SetCompareSwap
 1043              		.section	.text.Timer_WritePeriodBuf,"ax",%progbits
 1044              		.align	2
 1045              		.global	Timer_WritePeriodBuf
 1046              		.code	16
 1047              		.thumb_func
 1048              		.type	Timer_WritePeriodBuf, %function
 1049              	Timer_WritePeriodBuf:
 1050              	.LFB19:
 767:.\Generated_Source\PSoC4/Timer.c **** 
 768:.\Generated_Source\PSoC4/Timer.c **** 
 769:.\Generated_Source\PSoC4/Timer.c **** /*******************************************************************************
 770:.\Generated_Source\PSoC4/Timer.c **** * Function Name: Timer_WritePeriodBuf
 771:.\Generated_Source\PSoC4/Timer.c **** ********************************************************************************
 772:.\Generated_Source\PSoC4/Timer.c **** *
 773:.\Generated_Source\PSoC4/Timer.c **** * Summary:
 774:.\Generated_Source\PSoC4/Timer.c **** *  Writes the 16 bit period buf register with the new period value.
ARM GAS  C:\Users\Jared\AppData\Local\Temp\ccOOnCAQ.s 			page 33


 775:.\Generated_Source\PSoC4/Timer.c **** *
 776:.\Generated_Source\PSoC4/Timer.c **** * Parameters:
 777:.\Generated_Source\PSoC4/Timer.c **** *  periodBuf: Period value
 778:.\Generated_Source\PSoC4/Timer.c **** *
 779:.\Generated_Source\PSoC4/Timer.c **** * Return:
 780:.\Generated_Source\PSoC4/Timer.c **** *  None
 781:.\Generated_Source\PSoC4/Timer.c **** *
 782:.\Generated_Source\PSoC4/Timer.c **** *******************************************************************************/
 783:.\Generated_Source\PSoC4/Timer.c **** void Timer_WritePeriodBuf(uint32 periodBuf)
 784:.\Generated_Source\PSoC4/Timer.c **** {
 1051              		.loc 1 784 0
 1052              		.cfi_startproc
 1053 0000 80B5     		push	{r7, lr}
 1054              	.LCFI53:
 1055              		.cfi_def_cfa_offset 8
 1056              		.cfi_offset 7, -8
 1057              		.cfi_offset 14, -4
 1058 0002 82B0     		sub	sp, sp, #8
 1059              	.LCFI54:
 1060              		.cfi_def_cfa_offset 16
 1061 0004 00AF     		add	r7, sp, #0
 1062              	.LCFI55:
 1063              		.cfi_def_cfa_register 7
 1064 0006 7860     		str	r0, [r7, #4]
 785:.\Generated_Source\PSoC4/Timer.c ****     Timer_PERIOD_BUF_REG = (periodBuf & Timer_16BIT_MASK);
 1065              		.loc 1 785 0
 1066 0008 034B     		ldr	r3, .L62
 1067 000a 7A68     		ldr	r2, [r7, #4]
 1068 000c 1204     		lsl	r2, r2, #16
 1069 000e 120C     		lsr	r2, r2, #16
 1070 0010 1A60     		str	r2, [r3]
 786:.\Generated_Source\PSoC4/Timer.c **** }
 1071              		.loc 1 786 0
 1072 0012 BD46     		mov	sp, r7
 1073 0014 02B0     		add	sp, sp, #8
 1074              		@ sp needed for prologue
 1075 0016 80BD     		pop	{r7, pc}
 1076              	.L63:
 1077              		.align	2
 1078              	.L62:
 1079 0018 98010540 		.word	1074069912
 1080              		.cfi_endproc
 1081              	.LFE19:
 1082              		.size	Timer_WritePeriodBuf, .-Timer_WritePeriodBuf
 1083              		.section	.text.Timer_ReadPeriodBuf,"ax",%progbits
 1084              		.align	2
 1085              		.global	Timer_ReadPeriodBuf
 1086              		.code	16
 1087              		.thumb_func
 1088              		.type	Timer_ReadPeriodBuf, %function
 1089              	Timer_ReadPeriodBuf:
 1090              	.LFB20:
 787:.\Generated_Source\PSoC4/Timer.c **** 
 788:.\Generated_Source\PSoC4/Timer.c **** 
 789:.\Generated_Source\PSoC4/Timer.c **** /*******************************************************************************
 790:.\Generated_Source\PSoC4/Timer.c **** * Function Name: Timer_ReadPeriodBuf
 791:.\Generated_Source\PSoC4/Timer.c **** ********************************************************************************
ARM GAS  C:\Users\Jared\AppData\Local\Temp\ccOOnCAQ.s 			page 34


 792:.\Generated_Source\PSoC4/Timer.c **** *
 793:.\Generated_Source\PSoC4/Timer.c **** * Summary:
 794:.\Generated_Source\PSoC4/Timer.c **** *  Reads the 16 bit period buf register.
 795:.\Generated_Source\PSoC4/Timer.c **** *
 796:.\Generated_Source\PSoC4/Timer.c **** * Parameters:
 797:.\Generated_Source\PSoC4/Timer.c **** *  None
 798:.\Generated_Source\PSoC4/Timer.c **** *
 799:.\Generated_Source\PSoC4/Timer.c **** * Return:
 800:.\Generated_Source\PSoC4/Timer.c **** *  Period value
 801:.\Generated_Source\PSoC4/Timer.c **** *
 802:.\Generated_Source\PSoC4/Timer.c **** *******************************************************************************/
 803:.\Generated_Source\PSoC4/Timer.c **** uint32 Timer_ReadPeriodBuf(void)
 804:.\Generated_Source\PSoC4/Timer.c **** {
 1091              		.loc 1 804 0
 1092              		.cfi_startproc
 1093 0000 80B5     		push	{r7, lr}
 1094              	.LCFI56:
 1095              		.cfi_def_cfa_offset 8
 1096              		.cfi_offset 7, -8
 1097              		.cfi_offset 14, -4
 1098 0002 00AF     		add	r7, sp, #0
 1099              	.LCFI57:
 1100              		.cfi_def_cfa_register 7
 805:.\Generated_Source\PSoC4/Timer.c ****     return (Timer_PERIOD_BUF_REG & Timer_16BIT_MASK);
 1101              		.loc 1 805 0
 1102 0004 034B     		ldr	r3, .L66
 1103 0006 1B68     		ldr	r3, [r3]
 1104 0008 1B04     		lsl	r3, r3, #16
 1105 000a 1B0C     		lsr	r3, r3, #16
 806:.\Generated_Source\PSoC4/Timer.c **** }
 1106              		.loc 1 806 0
 1107 000c 181C     		mov	r0, r3
 1108 000e BD46     		mov	sp, r7
 1109              		@ sp needed for prologue
 1110 0010 80BD     		pop	{r7, pc}
 1111              	.L67:
 1112 0012 C046     		.align	2
 1113              	.L66:
 1114 0014 98010540 		.word	1074069912
 1115              		.cfi_endproc
 1116              	.LFE20:
 1117              		.size	Timer_ReadPeriodBuf, .-Timer_ReadPeriodBuf
 1118              		.section	.text.Timer_SetPeriodSwap,"ax",%progbits
 1119              		.align	2
 1120              		.global	Timer_SetPeriodSwap
 1121              		.code	16
 1122              		.thumb_func
 1123              		.type	Timer_SetPeriodSwap, %function
 1124              	Timer_SetPeriodSwap:
 1125              	.LFB21:
 807:.\Generated_Source\PSoC4/Timer.c **** 
 808:.\Generated_Source\PSoC4/Timer.c **** 
 809:.\Generated_Source\PSoC4/Timer.c **** /*******************************************************************************
 810:.\Generated_Source\PSoC4/Timer.c **** * Function Name: Timer_SetPeriodSwap
 811:.\Generated_Source\PSoC4/Timer.c **** ********************************************************************************
 812:.\Generated_Source\PSoC4/Timer.c **** *
 813:.\Generated_Source\PSoC4/Timer.c **** * Summary:
ARM GAS  C:\Users\Jared\AppData\Local\Temp\ccOOnCAQ.s 			page 35


 814:.\Generated_Source\PSoC4/Timer.c **** *  Writes the register that controls whether the period registers are
 815:.\Generated_Source\PSoC4/Timer.c **** *  swapped. When enabled in Timer/Counter mode the swap occurs at a TC event.
 816:.\Generated_Source\PSoC4/Timer.c **** *  In the PWM mode the swap occurs at the next TC event following a hardware
 817:.\Generated_Source\PSoC4/Timer.c **** *  switch event.
 818:.\Generated_Source\PSoC4/Timer.c **** *
 819:.\Generated_Source\PSoC4/Timer.c **** * Parameters:
 820:.\Generated_Source\PSoC4/Timer.c **** *  swapEnable
 821:.\Generated_Source\PSoC4/Timer.c **** *   Values:
 822:.\Generated_Source\PSoC4/Timer.c **** *     - 0 - Disable swap
 823:.\Generated_Source\PSoC4/Timer.c **** *     - 1 - Enable swap
 824:.\Generated_Source\PSoC4/Timer.c **** *
 825:.\Generated_Source\PSoC4/Timer.c **** * Return:
 826:.\Generated_Source\PSoC4/Timer.c **** *  None
 827:.\Generated_Source\PSoC4/Timer.c **** *
 828:.\Generated_Source\PSoC4/Timer.c **** *******************************************************************************/
 829:.\Generated_Source\PSoC4/Timer.c **** void Timer_SetPeriodSwap(uint32 swapEnable)
 830:.\Generated_Source\PSoC4/Timer.c **** {
 1126              		.loc 1 830 0
 1127              		.cfi_startproc
 1128 0000 90B5     		push	{r4, r7, lr}
 1129              	.LCFI58:
 1130              		.cfi_def_cfa_offset 12
 1131              		.cfi_offset 4, -12
 1132              		.cfi_offset 7, -8
 1133              		.cfi_offset 14, -4
 1134 0002 85B0     		sub	sp, sp, #20
 1135              	.LCFI59:
 1136              		.cfi_def_cfa_offset 32
 1137 0004 00AF     		add	r7, sp, #0
 1138              	.LCFI60:
 1139              		.cfi_def_cfa_register 7
 1140 0006 7860     		str	r0, [r7, #4]
 831:.\Generated_Source\PSoC4/Timer.c ****     uint8 enableInterrupts;
 832:.\Generated_Source\PSoC4/Timer.c **** 
 833:.\Generated_Source\PSoC4/Timer.c ****     enableInterrupts = CyEnterCriticalSection();
 1141              		.loc 1 833 0
 1142 0008 3C1C     		mov	r4, r7
 1143 000a 0F34     		add	r4, r4, #15
 1144 000c FFF7FEFF 		bl	CyEnterCriticalSection
 1145 0010 031C     		mov	r3, r0
 1146 0012 2370     		strb	r3, [r4]
 834:.\Generated_Source\PSoC4/Timer.c **** 
 835:.\Generated_Source\PSoC4/Timer.c ****     Timer_CONTROL_REG &= (uint32)~Timer_RELOAD_PERIOD_MASK;
 1147              		.loc 1 835 0
 1148 0014 0B4B     		ldr	r3, .L69
 1149 0016 0B4A     		ldr	r2, .L69
 1150 0018 1268     		ldr	r2, [r2]
 1151 001a 0221     		mov	r1, #2
 1152 001c 8A43     		bic	r2, r1
 1153 001e 1A60     		str	r2, [r3]
 836:.\Generated_Source\PSoC4/Timer.c ****     Timer_CONTROL_REG |= ((uint32)((swapEnable & Timer_1BIT_MASK) <<
 1154              		.loc 1 836 0
 1155 0020 084B     		ldr	r3, .L69
 1156 0022 084A     		ldr	r2, .L69
 1157 0024 1168     		ldr	r1, [r2]
 1158 0026 7868     		ldr	r0, [r7, #4]
 1159 0028 0122     		mov	r2, #1
ARM GAS  C:\Users\Jared\AppData\Local\Temp\ccOOnCAQ.s 			page 36


 1160 002a 0240     		and	r2, r0
 1161 002c 5200     		lsl	r2, r2, #1
 1162 002e 0A43     		orr	r2, r1
 1163 0030 1A60     		str	r2, [r3]
 837:.\Generated_Source\PSoC4/Timer.c ****                                                             Timer_RELOAD_PERIOD_SHIFT));
 838:.\Generated_Source\PSoC4/Timer.c **** 
 839:.\Generated_Source\PSoC4/Timer.c ****     CyExitCriticalSection(enableInterrupts);
 1164              		.loc 1 839 0
 1165 0032 3B1C     		mov	r3, r7
 1166 0034 0F33     		add	r3, r3, #15
 1167 0036 1B78     		ldrb	r3, [r3]
 1168 0038 181C     		mov	r0, r3
 1169 003a FFF7FEFF 		bl	CyExitCriticalSection
 840:.\Generated_Source\PSoC4/Timer.c **** }
 1170              		.loc 1 840 0
 1171 003e BD46     		mov	sp, r7
 1172 0040 05B0     		add	sp, sp, #20
 1173              		@ sp needed for prologue
 1174 0042 90BD     		pop	{r4, r7, pc}
 1175              	.L70:
 1176              		.align	2
 1177              	.L69:
 1178 0044 80010540 		.word	1074069888
 1179              		.cfi_endproc
 1180              	.LFE21:
 1181              		.size	Timer_SetPeriodSwap, .-Timer_SetPeriodSwap
 1182              		.section	.text.Timer_WriteCompare,"ax",%progbits
 1183              		.align	2
 1184              		.global	Timer_WriteCompare
 1185              		.code	16
 1186              		.thumb_func
 1187              		.type	Timer_WriteCompare, %function
 1188              	Timer_WriteCompare:
 1189              	.LFB22:
 841:.\Generated_Source\PSoC4/Timer.c **** 
 842:.\Generated_Source\PSoC4/Timer.c **** 
 843:.\Generated_Source\PSoC4/Timer.c **** /*******************************************************************************
 844:.\Generated_Source\PSoC4/Timer.c **** * Function Name: Timer_WriteCompare
 845:.\Generated_Source\PSoC4/Timer.c **** ********************************************************************************
 846:.\Generated_Source\PSoC4/Timer.c **** *
 847:.\Generated_Source\PSoC4/Timer.c **** * Summary:
 848:.\Generated_Source\PSoC4/Timer.c **** *  Writes the 16 bit compare register with the new compare value. Not
 849:.\Generated_Source\PSoC4/Timer.c **** *  applicable for Timer/Counter with Capture or in Quadrature Decoder modes.
 850:.\Generated_Source\PSoC4/Timer.c **** *
 851:.\Generated_Source\PSoC4/Timer.c **** * Parameters:
 852:.\Generated_Source\PSoC4/Timer.c **** *  compare: Compare value
 853:.\Generated_Source\PSoC4/Timer.c **** *
 854:.\Generated_Source\PSoC4/Timer.c **** * Return:
 855:.\Generated_Source\PSoC4/Timer.c **** *  None
 856:.\Generated_Source\PSoC4/Timer.c **** *
 857:.\Generated_Source\PSoC4/Timer.c **** *******************************************************************************/
 858:.\Generated_Source\PSoC4/Timer.c **** void Timer_WriteCompare(uint32 compare)
 859:.\Generated_Source\PSoC4/Timer.c **** {
 1190              		.loc 1 859 0
 1191              		.cfi_startproc
 1192 0000 80B5     		push	{r7, lr}
 1193              	.LCFI61:
ARM GAS  C:\Users\Jared\AppData\Local\Temp\ccOOnCAQ.s 			page 37


 1194              		.cfi_def_cfa_offset 8
 1195              		.cfi_offset 7, -8
 1196              		.cfi_offset 14, -4
 1197 0002 82B0     		sub	sp, sp, #8
 1198              	.LCFI62:
 1199              		.cfi_def_cfa_offset 16
 1200 0004 00AF     		add	r7, sp, #0
 1201              	.LCFI63:
 1202              		.cfi_def_cfa_register 7
 1203 0006 7860     		str	r0, [r7, #4]
 860:.\Generated_Source\PSoC4/Timer.c ****     #if (Timer_CY_TCPWM_V2)
 861:.\Generated_Source\PSoC4/Timer.c ****         uint32 currentMode;
 862:.\Generated_Source\PSoC4/Timer.c ****     #endif /* (Timer_CY_TCPWM_V2) */
 863:.\Generated_Source\PSoC4/Timer.c **** 
 864:.\Generated_Source\PSoC4/Timer.c ****     #if (Timer_CY_TCPWM_V2)
 865:.\Generated_Source\PSoC4/Timer.c ****         currentMode = ((Timer_CONTROL_REG & Timer_UPDOWN_MASK) >> Timer_UPDOWN_SHIFT);
 866:.\Generated_Source\PSoC4/Timer.c **** 
 867:.\Generated_Source\PSoC4/Timer.c ****         if (Timer__COUNT_DOWN == currentMode)
 868:.\Generated_Source\PSoC4/Timer.c ****         {
 869:.\Generated_Source\PSoC4/Timer.c ****             Timer_COMP_CAP_REG = ((compare + 1u) & Timer_16BIT_MASK);
 870:.\Generated_Source\PSoC4/Timer.c ****         }
 871:.\Generated_Source\PSoC4/Timer.c ****         else if (Timer__COUNT_UP == currentMode)
 872:.\Generated_Source\PSoC4/Timer.c ****         {
 873:.\Generated_Source\PSoC4/Timer.c ****             Timer_COMP_CAP_REG = ((compare - 1u) & Timer_16BIT_MASK);
 874:.\Generated_Source\PSoC4/Timer.c ****         }
 875:.\Generated_Source\PSoC4/Timer.c ****         else
 876:.\Generated_Source\PSoC4/Timer.c ****         {
 877:.\Generated_Source\PSoC4/Timer.c ****             Timer_COMP_CAP_REG = (compare & Timer_16BIT_MASK);
 878:.\Generated_Source\PSoC4/Timer.c ****         }
 879:.\Generated_Source\PSoC4/Timer.c ****     #else
 880:.\Generated_Source\PSoC4/Timer.c ****         Timer_COMP_CAP_REG = (compare & Timer_16BIT_MASK);
 1204              		.loc 1 880 0
 1205 0008 034B     		ldr	r3, .L72
 1206 000a 7A68     		ldr	r2, [r7, #4]
 1207 000c 1204     		lsl	r2, r2, #16
 1208 000e 120C     		lsr	r2, r2, #16
 1209 0010 1A60     		str	r2, [r3]
 881:.\Generated_Source\PSoC4/Timer.c ****     #endif /* (Timer_CY_TCPWM_V2) */
 882:.\Generated_Source\PSoC4/Timer.c **** }
 1210              		.loc 1 882 0
 1211 0012 BD46     		mov	sp, r7
 1212 0014 02B0     		add	sp, sp, #8
 1213              		@ sp needed for prologue
 1214 0016 80BD     		pop	{r7, pc}
 1215              	.L73:
 1216              		.align	2
 1217              	.L72:
 1218 0018 8C010540 		.word	1074069900
 1219              		.cfi_endproc
 1220              	.LFE22:
 1221              		.size	Timer_WriteCompare, .-Timer_WriteCompare
 1222              		.section	.text.Timer_ReadCompare,"ax",%progbits
 1223              		.align	2
 1224              		.global	Timer_ReadCompare
 1225              		.code	16
 1226              		.thumb_func
 1227              		.type	Timer_ReadCompare, %function
ARM GAS  C:\Users\Jared\AppData\Local\Temp\ccOOnCAQ.s 			page 38


 1228              	Timer_ReadCompare:
 1229              	.LFB23:
 883:.\Generated_Source\PSoC4/Timer.c **** 
 884:.\Generated_Source\PSoC4/Timer.c **** 
 885:.\Generated_Source\PSoC4/Timer.c **** /*******************************************************************************
 886:.\Generated_Source\PSoC4/Timer.c **** * Function Name: Timer_ReadCompare
 887:.\Generated_Source\PSoC4/Timer.c **** ********************************************************************************
 888:.\Generated_Source\PSoC4/Timer.c **** *
 889:.\Generated_Source\PSoC4/Timer.c **** * Summary:
 890:.\Generated_Source\PSoC4/Timer.c **** *  Reads the compare register. Not applicable for Timer/Counter with Capture
 891:.\Generated_Source\PSoC4/Timer.c **** *  or in Quadrature Decoder modes.
 892:.\Generated_Source\PSoC4/Timer.c **** *
 893:.\Generated_Source\PSoC4/Timer.c **** * Parameters:
 894:.\Generated_Source\PSoC4/Timer.c **** *  None
 895:.\Generated_Source\PSoC4/Timer.c **** *
 896:.\Generated_Source\PSoC4/Timer.c **** * Return:
 897:.\Generated_Source\PSoC4/Timer.c **** *  Compare value
 898:.\Generated_Source\PSoC4/Timer.c **** *
 899:.\Generated_Source\PSoC4/Timer.c **** *******************************************************************************/
 900:.\Generated_Source\PSoC4/Timer.c **** uint32 Timer_ReadCompare(void)
 901:.\Generated_Source\PSoC4/Timer.c **** {
 1230              		.loc 1 901 0
 1231              		.cfi_startproc
 1232 0000 80B5     		push	{r7, lr}
 1233              	.LCFI64:
 1234              		.cfi_def_cfa_offset 8
 1235              		.cfi_offset 7, -8
 1236              		.cfi_offset 14, -4
 1237 0002 00AF     		add	r7, sp, #0
 1238              	.LCFI65:
 1239              		.cfi_def_cfa_register 7
 902:.\Generated_Source\PSoC4/Timer.c ****     #if (Timer_CY_TCPWM_V2)
 903:.\Generated_Source\PSoC4/Timer.c ****         uint32 currentMode;
 904:.\Generated_Source\PSoC4/Timer.c ****         uint32 regVal;
 905:.\Generated_Source\PSoC4/Timer.c ****     #endif /* (Timer_CY_TCPWM_V2) */
 906:.\Generated_Source\PSoC4/Timer.c **** 
 907:.\Generated_Source\PSoC4/Timer.c ****     #if (Timer_CY_TCPWM_V2)
 908:.\Generated_Source\PSoC4/Timer.c ****         currentMode = ((Timer_CONTROL_REG & Timer_UPDOWN_MASK) >> Timer_UPDOWN_SHIFT);
 909:.\Generated_Source\PSoC4/Timer.c **** 
 910:.\Generated_Source\PSoC4/Timer.c ****         if (Timer__COUNT_DOWN == currentMode)
 911:.\Generated_Source\PSoC4/Timer.c ****         {
 912:.\Generated_Source\PSoC4/Timer.c ****             regVal = ((Timer_COMP_CAP_REG - 1u) & Timer_16BIT_MASK);
 913:.\Generated_Source\PSoC4/Timer.c ****         }
 914:.\Generated_Source\PSoC4/Timer.c ****         else if (Timer__COUNT_UP == currentMode)
 915:.\Generated_Source\PSoC4/Timer.c ****         {
 916:.\Generated_Source\PSoC4/Timer.c ****             regVal = ((Timer_COMP_CAP_REG + 1u) & Timer_16BIT_MASK);
 917:.\Generated_Source\PSoC4/Timer.c ****         }
 918:.\Generated_Source\PSoC4/Timer.c ****         else
 919:.\Generated_Source\PSoC4/Timer.c ****         {
 920:.\Generated_Source\PSoC4/Timer.c ****             regVal = (Timer_COMP_CAP_REG & Timer_16BIT_MASK);
 921:.\Generated_Source\PSoC4/Timer.c ****         }
 922:.\Generated_Source\PSoC4/Timer.c ****         return (regVal);
 923:.\Generated_Source\PSoC4/Timer.c ****     #else
 924:.\Generated_Source\PSoC4/Timer.c ****         return (Timer_COMP_CAP_REG & Timer_16BIT_MASK);
 1240              		.loc 1 924 0
 1241 0004 034B     		ldr	r3, .L76
 1242 0006 1B68     		ldr	r3, [r3]
ARM GAS  C:\Users\Jared\AppData\Local\Temp\ccOOnCAQ.s 			page 39


 1243 0008 1B04     		lsl	r3, r3, #16
 1244 000a 1B0C     		lsr	r3, r3, #16
 925:.\Generated_Source\PSoC4/Timer.c ****     #endif /* (Timer_CY_TCPWM_V2) */
 926:.\Generated_Source\PSoC4/Timer.c **** }
 1245              		.loc 1 926 0
 1246 000c 181C     		mov	r0, r3
 1247 000e BD46     		mov	sp, r7
 1248              		@ sp needed for prologue
 1249 0010 80BD     		pop	{r7, pc}
 1250              	.L77:
 1251 0012 C046     		.align	2
 1252              	.L76:
 1253 0014 8C010540 		.word	1074069900
 1254              		.cfi_endproc
 1255              	.LFE23:
 1256              		.size	Timer_ReadCompare, .-Timer_ReadCompare
 1257              		.section	.text.Timer_WriteCompareBuf,"ax",%progbits
 1258              		.align	2
 1259              		.global	Timer_WriteCompareBuf
 1260              		.code	16
 1261              		.thumb_func
 1262              		.type	Timer_WriteCompareBuf, %function
 1263              	Timer_WriteCompareBuf:
 1264              	.LFB24:
 927:.\Generated_Source\PSoC4/Timer.c **** 
 928:.\Generated_Source\PSoC4/Timer.c **** 
 929:.\Generated_Source\PSoC4/Timer.c **** /*******************************************************************************
 930:.\Generated_Source\PSoC4/Timer.c **** * Function Name: Timer_WriteCompareBuf
 931:.\Generated_Source\PSoC4/Timer.c **** ********************************************************************************
 932:.\Generated_Source\PSoC4/Timer.c **** *
 933:.\Generated_Source\PSoC4/Timer.c **** * Summary:
 934:.\Generated_Source\PSoC4/Timer.c **** *  Writes the 16 bit compare buffer register with the new compare value. Not
 935:.\Generated_Source\PSoC4/Timer.c **** *  applicable for Timer/Counter with Capture or in Quadrature Decoder modes.
 936:.\Generated_Source\PSoC4/Timer.c **** *
 937:.\Generated_Source\PSoC4/Timer.c **** * Parameters:
 938:.\Generated_Source\PSoC4/Timer.c **** *  compareBuf: Compare value
 939:.\Generated_Source\PSoC4/Timer.c **** *
 940:.\Generated_Source\PSoC4/Timer.c **** * Return:
 941:.\Generated_Source\PSoC4/Timer.c **** *  None
 942:.\Generated_Source\PSoC4/Timer.c **** *
 943:.\Generated_Source\PSoC4/Timer.c **** *******************************************************************************/
 944:.\Generated_Source\PSoC4/Timer.c **** void Timer_WriteCompareBuf(uint32 compareBuf)
 945:.\Generated_Source\PSoC4/Timer.c **** {
 1265              		.loc 1 945 0
 1266              		.cfi_startproc
 1267 0000 80B5     		push	{r7, lr}
 1268              	.LCFI66:
 1269              		.cfi_def_cfa_offset 8
 1270              		.cfi_offset 7, -8
 1271              		.cfi_offset 14, -4
 1272 0002 82B0     		sub	sp, sp, #8
 1273              	.LCFI67:
 1274              		.cfi_def_cfa_offset 16
 1275 0004 00AF     		add	r7, sp, #0
 1276              	.LCFI68:
 1277              		.cfi_def_cfa_register 7
 1278 0006 7860     		str	r0, [r7, #4]
ARM GAS  C:\Users\Jared\AppData\Local\Temp\ccOOnCAQ.s 			page 40


 946:.\Generated_Source\PSoC4/Timer.c ****     #if (Timer_CY_TCPWM_V2)
 947:.\Generated_Source\PSoC4/Timer.c ****         uint32 currentMode;
 948:.\Generated_Source\PSoC4/Timer.c ****     #endif /* (Timer_CY_TCPWM_V2) */
 949:.\Generated_Source\PSoC4/Timer.c **** 
 950:.\Generated_Source\PSoC4/Timer.c ****     #if (Timer_CY_TCPWM_V2)
 951:.\Generated_Source\PSoC4/Timer.c ****         currentMode = ((Timer_CONTROL_REG & Timer_UPDOWN_MASK) >> Timer_UPDOWN_SHIFT);
 952:.\Generated_Source\PSoC4/Timer.c **** 
 953:.\Generated_Source\PSoC4/Timer.c ****         if (Timer__COUNT_DOWN == currentMode)
 954:.\Generated_Source\PSoC4/Timer.c ****         {
 955:.\Generated_Source\PSoC4/Timer.c ****             Timer_COMP_CAP_BUF_REG = ((compareBuf + 1u) & Timer_16BIT_MASK);
 956:.\Generated_Source\PSoC4/Timer.c ****         }
 957:.\Generated_Source\PSoC4/Timer.c ****         else if (Timer__COUNT_UP == currentMode)
 958:.\Generated_Source\PSoC4/Timer.c ****         {
 959:.\Generated_Source\PSoC4/Timer.c ****             Timer_COMP_CAP_BUF_REG = ((compareBuf - 1u) & Timer_16BIT_MASK);
 960:.\Generated_Source\PSoC4/Timer.c ****         }
 961:.\Generated_Source\PSoC4/Timer.c ****         else
 962:.\Generated_Source\PSoC4/Timer.c ****         {
 963:.\Generated_Source\PSoC4/Timer.c ****             Timer_COMP_CAP_BUF_REG = (compareBuf & Timer_16BIT_MASK);
 964:.\Generated_Source\PSoC4/Timer.c ****         }
 965:.\Generated_Source\PSoC4/Timer.c ****     #else
 966:.\Generated_Source\PSoC4/Timer.c ****         Timer_COMP_CAP_BUF_REG = (compareBuf & Timer_16BIT_MASK);
 1279              		.loc 1 966 0
 1280 0008 034B     		ldr	r3, .L79
 1281 000a 7A68     		ldr	r2, [r7, #4]
 1282 000c 1204     		lsl	r2, r2, #16
 1283 000e 120C     		lsr	r2, r2, #16
 1284 0010 1A60     		str	r2, [r3]
 967:.\Generated_Source\PSoC4/Timer.c ****     #endif /* (Timer_CY_TCPWM_V2) */
 968:.\Generated_Source\PSoC4/Timer.c **** }
 1285              		.loc 1 968 0
 1286 0012 BD46     		mov	sp, r7
 1287 0014 02B0     		add	sp, sp, #8
 1288              		@ sp needed for prologue
 1289 0016 80BD     		pop	{r7, pc}
 1290              	.L80:
 1291              		.align	2
 1292              	.L79:
 1293 0018 90010540 		.word	1074069904
 1294              		.cfi_endproc
 1295              	.LFE24:
 1296              		.size	Timer_WriteCompareBuf, .-Timer_WriteCompareBuf
 1297              		.section	.text.Timer_ReadCompareBuf,"ax",%progbits
 1298              		.align	2
 1299              		.global	Timer_ReadCompareBuf
 1300              		.code	16
 1301              		.thumb_func
 1302              		.type	Timer_ReadCompareBuf, %function
 1303              	Timer_ReadCompareBuf:
 1304              	.LFB25:
 969:.\Generated_Source\PSoC4/Timer.c **** 
 970:.\Generated_Source\PSoC4/Timer.c **** 
 971:.\Generated_Source\PSoC4/Timer.c **** /*******************************************************************************
 972:.\Generated_Source\PSoC4/Timer.c **** * Function Name: Timer_ReadCompareBuf
 973:.\Generated_Source\PSoC4/Timer.c **** ********************************************************************************
 974:.\Generated_Source\PSoC4/Timer.c **** *
 975:.\Generated_Source\PSoC4/Timer.c **** * Summary:
 976:.\Generated_Source\PSoC4/Timer.c **** *  Reads the compare buffer register. Not applicable for Timer/Counter with
ARM GAS  C:\Users\Jared\AppData\Local\Temp\ccOOnCAQ.s 			page 41


 977:.\Generated_Source\PSoC4/Timer.c **** *  Capture or in Quadrature Decoder modes.
 978:.\Generated_Source\PSoC4/Timer.c **** *
 979:.\Generated_Source\PSoC4/Timer.c **** * Parameters:
 980:.\Generated_Source\PSoC4/Timer.c **** *  None
 981:.\Generated_Source\PSoC4/Timer.c **** *
 982:.\Generated_Source\PSoC4/Timer.c **** * Return:
 983:.\Generated_Source\PSoC4/Timer.c **** *  Compare buffer value
 984:.\Generated_Source\PSoC4/Timer.c **** *
 985:.\Generated_Source\PSoC4/Timer.c **** *******************************************************************************/
 986:.\Generated_Source\PSoC4/Timer.c **** uint32 Timer_ReadCompareBuf(void)
 987:.\Generated_Source\PSoC4/Timer.c **** {
 1305              		.loc 1 987 0
 1306              		.cfi_startproc
 1307 0000 80B5     		push	{r7, lr}
 1308              	.LCFI69:
 1309              		.cfi_def_cfa_offset 8
 1310              		.cfi_offset 7, -8
 1311              		.cfi_offset 14, -4
 1312 0002 00AF     		add	r7, sp, #0
 1313              	.LCFI70:
 1314              		.cfi_def_cfa_register 7
 988:.\Generated_Source\PSoC4/Timer.c ****     #if (Timer_CY_TCPWM_V2)
 989:.\Generated_Source\PSoC4/Timer.c ****         uint32 currentMode;
 990:.\Generated_Source\PSoC4/Timer.c ****         uint32 regVal;
 991:.\Generated_Source\PSoC4/Timer.c ****     #endif /* (Timer_CY_TCPWM_V2) */
 992:.\Generated_Source\PSoC4/Timer.c **** 
 993:.\Generated_Source\PSoC4/Timer.c ****     #if (Timer_CY_TCPWM_V2)
 994:.\Generated_Source\PSoC4/Timer.c ****         currentMode = ((Timer_CONTROL_REG & Timer_UPDOWN_MASK) >> Timer_UPDOWN_SHIFT);
 995:.\Generated_Source\PSoC4/Timer.c **** 
 996:.\Generated_Source\PSoC4/Timer.c ****         if (Timer__COUNT_DOWN == currentMode)
 997:.\Generated_Source\PSoC4/Timer.c ****         {
 998:.\Generated_Source\PSoC4/Timer.c ****             regVal = ((Timer_COMP_CAP_BUF_REG - 1u) & Timer_16BIT_MASK);
 999:.\Generated_Source\PSoC4/Timer.c ****         }
1000:.\Generated_Source\PSoC4/Timer.c ****         else if (Timer__COUNT_UP == currentMode)
1001:.\Generated_Source\PSoC4/Timer.c ****         {
1002:.\Generated_Source\PSoC4/Timer.c ****             regVal = ((Timer_COMP_CAP_BUF_REG + 1u) & Timer_16BIT_MASK);
1003:.\Generated_Source\PSoC4/Timer.c ****         }
1004:.\Generated_Source\PSoC4/Timer.c ****         else
1005:.\Generated_Source\PSoC4/Timer.c ****         {
1006:.\Generated_Source\PSoC4/Timer.c ****             regVal = (Timer_COMP_CAP_BUF_REG & Timer_16BIT_MASK);
1007:.\Generated_Source\PSoC4/Timer.c ****         }
1008:.\Generated_Source\PSoC4/Timer.c ****         return (regVal);
1009:.\Generated_Source\PSoC4/Timer.c ****     #else
1010:.\Generated_Source\PSoC4/Timer.c ****         return (Timer_COMP_CAP_BUF_REG & Timer_16BIT_MASK);
 1315              		.loc 1 1010 0
 1316 0004 034B     		ldr	r3, .L83
 1317 0006 1B68     		ldr	r3, [r3]
 1318 0008 1B04     		lsl	r3, r3, #16
 1319 000a 1B0C     		lsr	r3, r3, #16
1011:.\Generated_Source\PSoC4/Timer.c ****     #endif /* (Timer_CY_TCPWM_V2) */
1012:.\Generated_Source\PSoC4/Timer.c **** }
 1320              		.loc 1 1012 0
 1321 000c 181C     		mov	r0, r3
 1322 000e BD46     		mov	sp, r7
 1323              		@ sp needed for prologue
 1324 0010 80BD     		pop	{r7, pc}
 1325              	.L84:
ARM GAS  C:\Users\Jared\AppData\Local\Temp\ccOOnCAQ.s 			page 42


 1326 0012 C046     		.align	2
 1327              	.L83:
 1328 0014 90010540 		.word	1074069904
 1329              		.cfi_endproc
 1330              	.LFE25:
 1331              		.size	Timer_ReadCompareBuf, .-Timer_ReadCompareBuf
 1332              		.section	.text.Timer_ReadCapture,"ax",%progbits
 1333              		.align	2
 1334              		.global	Timer_ReadCapture
 1335              		.code	16
 1336              		.thumb_func
 1337              		.type	Timer_ReadCapture, %function
 1338              	Timer_ReadCapture:
 1339              	.LFB26:
1013:.\Generated_Source\PSoC4/Timer.c **** 
1014:.\Generated_Source\PSoC4/Timer.c **** 
1015:.\Generated_Source\PSoC4/Timer.c **** /*******************************************************************************
1016:.\Generated_Source\PSoC4/Timer.c **** * Function Name: Timer_ReadCapture
1017:.\Generated_Source\PSoC4/Timer.c **** ********************************************************************************
1018:.\Generated_Source\PSoC4/Timer.c **** *
1019:.\Generated_Source\PSoC4/Timer.c **** * Summary:
1020:.\Generated_Source\PSoC4/Timer.c **** *  Reads the captured counter value. This API is applicable only for
1021:.\Generated_Source\PSoC4/Timer.c **** *  Timer/Counter with the capture mode and Quadrature Decoder modes.
1022:.\Generated_Source\PSoC4/Timer.c **** *
1023:.\Generated_Source\PSoC4/Timer.c **** * Parameters:
1024:.\Generated_Source\PSoC4/Timer.c **** *  None
1025:.\Generated_Source\PSoC4/Timer.c **** *
1026:.\Generated_Source\PSoC4/Timer.c **** * Return:
1027:.\Generated_Source\PSoC4/Timer.c **** *  Capture value
1028:.\Generated_Source\PSoC4/Timer.c **** *
1029:.\Generated_Source\PSoC4/Timer.c **** *******************************************************************************/
1030:.\Generated_Source\PSoC4/Timer.c **** uint32 Timer_ReadCapture(void)
1031:.\Generated_Source\PSoC4/Timer.c **** {
 1340              		.loc 1 1031 0
 1341              		.cfi_startproc
 1342 0000 80B5     		push	{r7, lr}
 1343              	.LCFI71:
 1344              		.cfi_def_cfa_offset 8
 1345              		.cfi_offset 7, -8
 1346              		.cfi_offset 14, -4
 1347 0002 00AF     		add	r7, sp, #0
 1348              	.LCFI72:
 1349              		.cfi_def_cfa_register 7
1032:.\Generated_Source\PSoC4/Timer.c ****     return (Timer_COMP_CAP_REG & Timer_16BIT_MASK);
 1350              		.loc 1 1032 0
 1351 0004 034B     		ldr	r3, .L87
 1352 0006 1B68     		ldr	r3, [r3]
 1353 0008 1B04     		lsl	r3, r3, #16
 1354 000a 1B0C     		lsr	r3, r3, #16
1033:.\Generated_Source\PSoC4/Timer.c **** }
 1355              		.loc 1 1033 0
 1356 000c 181C     		mov	r0, r3
 1357 000e BD46     		mov	sp, r7
 1358              		@ sp needed for prologue
 1359 0010 80BD     		pop	{r7, pc}
 1360              	.L88:
 1361 0012 C046     		.align	2
ARM GAS  C:\Users\Jared\AppData\Local\Temp\ccOOnCAQ.s 			page 43


 1362              	.L87:
 1363 0014 8C010540 		.word	1074069900
 1364              		.cfi_endproc
 1365              	.LFE26:
 1366              		.size	Timer_ReadCapture, .-Timer_ReadCapture
 1367              		.section	.text.Timer_ReadCaptureBuf,"ax",%progbits
 1368              		.align	2
 1369              		.global	Timer_ReadCaptureBuf
 1370              		.code	16
 1371              		.thumb_func
 1372              		.type	Timer_ReadCaptureBuf, %function
 1373              	Timer_ReadCaptureBuf:
 1374              	.LFB27:
1034:.\Generated_Source\PSoC4/Timer.c **** 
1035:.\Generated_Source\PSoC4/Timer.c **** 
1036:.\Generated_Source\PSoC4/Timer.c **** /*******************************************************************************
1037:.\Generated_Source\PSoC4/Timer.c **** * Function Name: Timer_ReadCaptureBuf
1038:.\Generated_Source\PSoC4/Timer.c **** ********************************************************************************
1039:.\Generated_Source\PSoC4/Timer.c **** *
1040:.\Generated_Source\PSoC4/Timer.c **** * Summary:
1041:.\Generated_Source\PSoC4/Timer.c **** *  Reads the capture buffer register. This API is applicable only for
1042:.\Generated_Source\PSoC4/Timer.c **** *  Timer/Counter with the capture mode and Quadrature Decoder modes.
1043:.\Generated_Source\PSoC4/Timer.c **** *
1044:.\Generated_Source\PSoC4/Timer.c **** * Parameters:
1045:.\Generated_Source\PSoC4/Timer.c **** *  None
1046:.\Generated_Source\PSoC4/Timer.c **** *
1047:.\Generated_Source\PSoC4/Timer.c **** * Return:
1048:.\Generated_Source\PSoC4/Timer.c **** *  Capture buffer value
1049:.\Generated_Source\PSoC4/Timer.c **** *
1050:.\Generated_Source\PSoC4/Timer.c **** *******************************************************************************/
1051:.\Generated_Source\PSoC4/Timer.c **** uint32 Timer_ReadCaptureBuf(void)
1052:.\Generated_Source\PSoC4/Timer.c **** {
 1375              		.loc 1 1052 0
 1376              		.cfi_startproc
 1377 0000 80B5     		push	{r7, lr}
 1378              	.LCFI73:
 1379              		.cfi_def_cfa_offset 8
 1380              		.cfi_offset 7, -8
 1381              		.cfi_offset 14, -4
 1382 0002 00AF     		add	r7, sp, #0
 1383              	.LCFI74:
 1384              		.cfi_def_cfa_register 7
1053:.\Generated_Source\PSoC4/Timer.c ****     return (Timer_COMP_CAP_BUF_REG & Timer_16BIT_MASK);
 1385              		.loc 1 1053 0
 1386 0004 034B     		ldr	r3, .L91
 1387 0006 1B68     		ldr	r3, [r3]
 1388 0008 1B04     		lsl	r3, r3, #16
 1389 000a 1B0C     		lsr	r3, r3, #16
1054:.\Generated_Source\PSoC4/Timer.c **** }
 1390              		.loc 1 1054 0
 1391 000c 181C     		mov	r0, r3
 1392 000e BD46     		mov	sp, r7
 1393              		@ sp needed for prologue
 1394 0010 80BD     		pop	{r7, pc}
 1395              	.L92:
 1396 0012 C046     		.align	2
 1397              	.L91:
ARM GAS  C:\Users\Jared\AppData\Local\Temp\ccOOnCAQ.s 			page 44


 1398 0014 90010540 		.word	1074069904
 1399              		.cfi_endproc
 1400              	.LFE27:
 1401              		.size	Timer_ReadCaptureBuf, .-Timer_ReadCaptureBuf
 1402              		.section	.text.Timer_SetCaptureMode,"ax",%progbits
 1403              		.align	2
 1404              		.global	Timer_SetCaptureMode
 1405              		.code	16
 1406              		.thumb_func
 1407              		.type	Timer_SetCaptureMode, %function
 1408              	Timer_SetCaptureMode:
 1409              	.LFB28:
1055:.\Generated_Source\PSoC4/Timer.c **** 
1056:.\Generated_Source\PSoC4/Timer.c **** 
1057:.\Generated_Source\PSoC4/Timer.c **** /*******************************************************************************
1058:.\Generated_Source\PSoC4/Timer.c **** * Function Name: Timer_SetCaptureMode
1059:.\Generated_Source\PSoC4/Timer.c **** ********************************************************************************
1060:.\Generated_Source\PSoC4/Timer.c **** *
1061:.\Generated_Source\PSoC4/Timer.c **** * Summary:
1062:.\Generated_Source\PSoC4/Timer.c **** *  Sets the capture trigger mode. For PWM mode this is the switch input.
1063:.\Generated_Source\PSoC4/Timer.c **** *  This input is not applicable to the Timer/Counter without Capture and
1064:.\Generated_Source\PSoC4/Timer.c **** *  Quadrature Decoder modes.
1065:.\Generated_Source\PSoC4/Timer.c **** *
1066:.\Generated_Source\PSoC4/Timer.c **** * Parameters:
1067:.\Generated_Source\PSoC4/Timer.c **** *  triggerMode: Enumerated trigger mode value
1068:.\Generated_Source\PSoC4/Timer.c **** *   Values:
1069:.\Generated_Source\PSoC4/Timer.c **** *     - Timer_TRIG_LEVEL     - Level
1070:.\Generated_Source\PSoC4/Timer.c **** *     - Timer_TRIG_RISING    - Rising edge
1071:.\Generated_Source\PSoC4/Timer.c **** *     - Timer_TRIG_FALLING   - Falling edge
1072:.\Generated_Source\PSoC4/Timer.c **** *     - Timer_TRIG_BOTH      - Both rising and falling edge
1073:.\Generated_Source\PSoC4/Timer.c **** *
1074:.\Generated_Source\PSoC4/Timer.c **** * Return:
1075:.\Generated_Source\PSoC4/Timer.c **** *  None
1076:.\Generated_Source\PSoC4/Timer.c **** *
1077:.\Generated_Source\PSoC4/Timer.c **** *******************************************************************************/
1078:.\Generated_Source\PSoC4/Timer.c **** void Timer_SetCaptureMode(uint32 triggerMode)
1079:.\Generated_Source\PSoC4/Timer.c **** {
 1410              		.loc 1 1079 0
 1411              		.cfi_startproc
 1412 0000 90B5     		push	{r4, r7, lr}
 1413              	.LCFI75:
 1414              		.cfi_def_cfa_offset 12
 1415              		.cfi_offset 4, -12
 1416              		.cfi_offset 7, -8
 1417              		.cfi_offset 14, -4
 1418 0002 85B0     		sub	sp, sp, #20
 1419              	.LCFI76:
 1420              		.cfi_def_cfa_offset 32
 1421 0004 00AF     		add	r7, sp, #0
 1422              	.LCFI77:
 1423              		.cfi_def_cfa_register 7
 1424 0006 7860     		str	r0, [r7, #4]
1080:.\Generated_Source\PSoC4/Timer.c ****     uint8 enableInterrupts;
1081:.\Generated_Source\PSoC4/Timer.c **** 
1082:.\Generated_Source\PSoC4/Timer.c ****     enableInterrupts = CyEnterCriticalSection();
 1425              		.loc 1 1082 0
 1426 0008 3C1C     		mov	r4, r7
ARM GAS  C:\Users\Jared\AppData\Local\Temp\ccOOnCAQ.s 			page 45


 1427 000a 0F34     		add	r4, r4, #15
 1428 000c FFF7FEFF 		bl	CyEnterCriticalSection
 1429 0010 031C     		mov	r3, r0
 1430 0012 2370     		strb	r3, [r4]
1083:.\Generated_Source\PSoC4/Timer.c **** 
1084:.\Generated_Source\PSoC4/Timer.c ****     Timer_TRIG_CONTROL1_REG &= (uint32)~Timer_CAPTURE_MASK;
 1431              		.loc 1 1084 0
 1432 0014 0A4B     		ldr	r3, .L94
 1433 0016 0A4A     		ldr	r2, .L94
 1434 0018 1268     		ldr	r2, [r2]
 1435 001a 0321     		mov	r1, #3
 1436 001c 8A43     		bic	r2, r1
 1437 001e 1A60     		str	r2, [r3]
1085:.\Generated_Source\PSoC4/Timer.c ****     Timer_TRIG_CONTROL1_REG |= triggerMode;
 1438              		.loc 1 1085 0
 1439 0020 074B     		ldr	r3, .L94
 1440 0022 074A     		ldr	r2, .L94
 1441 0024 1168     		ldr	r1, [r2]
 1442 0026 7A68     		ldr	r2, [r7, #4]
 1443 0028 0A43     		orr	r2, r1
 1444 002a 1A60     		str	r2, [r3]
1086:.\Generated_Source\PSoC4/Timer.c **** 
1087:.\Generated_Source\PSoC4/Timer.c ****     CyExitCriticalSection(enableInterrupts);
 1445              		.loc 1 1087 0
 1446 002c 3B1C     		mov	r3, r7
 1447 002e 0F33     		add	r3, r3, #15
 1448 0030 1B78     		ldrb	r3, [r3]
 1449 0032 181C     		mov	r0, r3
 1450 0034 FFF7FEFF 		bl	CyExitCriticalSection
1088:.\Generated_Source\PSoC4/Timer.c **** }
 1451              		.loc 1 1088 0
 1452 0038 BD46     		mov	sp, r7
 1453 003a 05B0     		add	sp, sp, #20
 1454              		@ sp needed for prologue
 1455 003c 90BD     		pop	{r4, r7, pc}
 1456              	.L95:
 1457 003e C046     		.align	2
 1458              	.L94:
 1459 0040 A4010540 		.word	1074069924
 1460              		.cfi_endproc
 1461              	.LFE28:
 1462              		.size	Timer_SetCaptureMode, .-Timer_SetCaptureMode
 1463              		.section	.text.Timer_SetReloadMode,"ax",%progbits
 1464              		.align	2
 1465              		.global	Timer_SetReloadMode
 1466              		.code	16
 1467              		.thumb_func
 1468              		.type	Timer_SetReloadMode, %function
 1469              	Timer_SetReloadMode:
 1470              	.LFB29:
1089:.\Generated_Source\PSoC4/Timer.c **** 
1090:.\Generated_Source\PSoC4/Timer.c **** 
1091:.\Generated_Source\PSoC4/Timer.c **** /*******************************************************************************
1092:.\Generated_Source\PSoC4/Timer.c **** * Function Name: Timer_SetReloadMode
1093:.\Generated_Source\PSoC4/Timer.c **** ********************************************************************************
1094:.\Generated_Source\PSoC4/Timer.c **** *
1095:.\Generated_Source\PSoC4/Timer.c **** * Summary:
ARM GAS  C:\Users\Jared\AppData\Local\Temp\ccOOnCAQ.s 			page 46


1096:.\Generated_Source\PSoC4/Timer.c **** *  Sets the reload trigger mode. For Quadrature Decoder mode this is the index
1097:.\Generated_Source\PSoC4/Timer.c **** *  input.
1098:.\Generated_Source\PSoC4/Timer.c **** *
1099:.\Generated_Source\PSoC4/Timer.c **** * Parameters:
1100:.\Generated_Source\PSoC4/Timer.c **** *  triggerMode: Enumerated trigger mode value
1101:.\Generated_Source\PSoC4/Timer.c **** *   Values:
1102:.\Generated_Source\PSoC4/Timer.c **** *     - Timer_TRIG_LEVEL     - Level
1103:.\Generated_Source\PSoC4/Timer.c **** *     - Timer_TRIG_RISING    - Rising edge
1104:.\Generated_Source\PSoC4/Timer.c **** *     - Timer_TRIG_FALLING   - Falling edge
1105:.\Generated_Source\PSoC4/Timer.c **** *     - Timer_TRIG_BOTH      - Both rising and falling edge
1106:.\Generated_Source\PSoC4/Timer.c **** *
1107:.\Generated_Source\PSoC4/Timer.c **** * Return:
1108:.\Generated_Source\PSoC4/Timer.c **** *  None
1109:.\Generated_Source\PSoC4/Timer.c **** *
1110:.\Generated_Source\PSoC4/Timer.c **** *******************************************************************************/
1111:.\Generated_Source\PSoC4/Timer.c **** void Timer_SetReloadMode(uint32 triggerMode)
1112:.\Generated_Source\PSoC4/Timer.c **** {
 1471              		.loc 1 1112 0
 1472              		.cfi_startproc
 1473 0000 90B5     		push	{r4, r7, lr}
 1474              	.LCFI78:
 1475              		.cfi_def_cfa_offset 12
 1476              		.cfi_offset 4, -12
 1477              		.cfi_offset 7, -8
 1478              		.cfi_offset 14, -4
 1479 0002 85B0     		sub	sp, sp, #20
 1480              	.LCFI79:
 1481              		.cfi_def_cfa_offset 32
 1482 0004 00AF     		add	r7, sp, #0
 1483              	.LCFI80:
 1484              		.cfi_def_cfa_register 7
 1485 0006 7860     		str	r0, [r7, #4]
1113:.\Generated_Source\PSoC4/Timer.c ****     uint8 enableInterrupts;
1114:.\Generated_Source\PSoC4/Timer.c **** 
1115:.\Generated_Source\PSoC4/Timer.c ****     enableInterrupts = CyEnterCriticalSection();
 1486              		.loc 1 1115 0
 1487 0008 3C1C     		mov	r4, r7
 1488 000a 0F34     		add	r4, r4, #15
 1489 000c FFF7FEFF 		bl	CyEnterCriticalSection
 1490 0010 031C     		mov	r3, r0
 1491 0012 2370     		strb	r3, [r4]
1116:.\Generated_Source\PSoC4/Timer.c **** 
1117:.\Generated_Source\PSoC4/Timer.c ****     Timer_TRIG_CONTROL1_REG &= (uint32)~Timer_RELOAD_MASK;
 1492              		.loc 1 1117 0
 1493 0014 0A4B     		ldr	r3, .L97
 1494 0016 0A4A     		ldr	r2, .L97
 1495 0018 1268     		ldr	r2, [r2]
 1496 001a 3021     		mov	r1, #48
 1497 001c 8A43     		bic	r2, r1
 1498 001e 1A60     		str	r2, [r3]
1118:.\Generated_Source\PSoC4/Timer.c ****     Timer_TRIG_CONTROL1_REG |= ((uint32)(triggerMode << Timer_RELOAD_SHIFT));
 1499              		.loc 1 1118 0
 1500 0020 074B     		ldr	r3, .L97
 1501 0022 074A     		ldr	r2, .L97
 1502 0024 1168     		ldr	r1, [r2]
 1503 0026 7A68     		ldr	r2, [r7, #4]
 1504 0028 1201     		lsl	r2, r2, #4
ARM GAS  C:\Users\Jared\AppData\Local\Temp\ccOOnCAQ.s 			page 47


 1505 002a 0A43     		orr	r2, r1
 1506 002c 1A60     		str	r2, [r3]
1119:.\Generated_Source\PSoC4/Timer.c **** 
1120:.\Generated_Source\PSoC4/Timer.c ****     CyExitCriticalSection(enableInterrupts);
 1507              		.loc 1 1120 0
 1508 002e 3B1C     		mov	r3, r7
 1509 0030 0F33     		add	r3, r3, #15
 1510 0032 1B78     		ldrb	r3, [r3]
 1511 0034 181C     		mov	r0, r3
 1512 0036 FFF7FEFF 		bl	CyExitCriticalSection
1121:.\Generated_Source\PSoC4/Timer.c **** }
 1513              		.loc 1 1121 0
 1514 003a BD46     		mov	sp, r7
 1515 003c 05B0     		add	sp, sp, #20
 1516              		@ sp needed for prologue
 1517 003e 90BD     		pop	{r4, r7, pc}
 1518              	.L98:
 1519              		.align	2
 1520              	.L97:
 1521 0040 A4010540 		.word	1074069924
 1522              		.cfi_endproc
 1523              	.LFE29:
 1524              		.size	Timer_SetReloadMode, .-Timer_SetReloadMode
 1525              		.section	.text.Timer_SetStartMode,"ax",%progbits
 1526              		.align	2
 1527              		.global	Timer_SetStartMode
 1528              		.code	16
 1529              		.thumb_func
 1530              		.type	Timer_SetStartMode, %function
 1531              	Timer_SetStartMode:
 1532              	.LFB30:
1122:.\Generated_Source\PSoC4/Timer.c **** 
1123:.\Generated_Source\PSoC4/Timer.c **** 
1124:.\Generated_Source\PSoC4/Timer.c **** /*******************************************************************************
1125:.\Generated_Source\PSoC4/Timer.c **** * Function Name: Timer_SetStartMode
1126:.\Generated_Source\PSoC4/Timer.c **** ********************************************************************************
1127:.\Generated_Source\PSoC4/Timer.c **** *
1128:.\Generated_Source\PSoC4/Timer.c **** * Summary:
1129:.\Generated_Source\PSoC4/Timer.c **** *  Sets the start trigger mode. For Quadrature Decoder mode this is the
1130:.\Generated_Source\PSoC4/Timer.c **** *  phiB input.
1131:.\Generated_Source\PSoC4/Timer.c **** *
1132:.\Generated_Source\PSoC4/Timer.c **** * Parameters:
1133:.\Generated_Source\PSoC4/Timer.c **** *  triggerMode: Enumerated trigger mode value
1134:.\Generated_Source\PSoC4/Timer.c **** *   Values:
1135:.\Generated_Source\PSoC4/Timer.c **** *     - Timer_TRIG_LEVEL     - Level
1136:.\Generated_Source\PSoC4/Timer.c **** *     - Timer_TRIG_RISING    - Rising edge
1137:.\Generated_Source\PSoC4/Timer.c **** *     - Timer_TRIG_FALLING   - Falling edge
1138:.\Generated_Source\PSoC4/Timer.c **** *     - Timer_TRIG_BOTH      - Both rising and falling edge
1139:.\Generated_Source\PSoC4/Timer.c **** *
1140:.\Generated_Source\PSoC4/Timer.c **** * Return:
1141:.\Generated_Source\PSoC4/Timer.c **** *  None
1142:.\Generated_Source\PSoC4/Timer.c **** *
1143:.\Generated_Source\PSoC4/Timer.c **** *******************************************************************************/
1144:.\Generated_Source\PSoC4/Timer.c **** void Timer_SetStartMode(uint32 triggerMode)
1145:.\Generated_Source\PSoC4/Timer.c **** {
 1533              		.loc 1 1145 0
 1534              		.cfi_startproc
ARM GAS  C:\Users\Jared\AppData\Local\Temp\ccOOnCAQ.s 			page 48


 1535 0000 90B5     		push	{r4, r7, lr}
 1536              	.LCFI81:
 1537              		.cfi_def_cfa_offset 12
 1538              		.cfi_offset 4, -12
 1539              		.cfi_offset 7, -8
 1540              		.cfi_offset 14, -4
 1541 0002 85B0     		sub	sp, sp, #20
 1542              	.LCFI82:
 1543              		.cfi_def_cfa_offset 32
 1544 0004 00AF     		add	r7, sp, #0
 1545              	.LCFI83:
 1546              		.cfi_def_cfa_register 7
 1547 0006 7860     		str	r0, [r7, #4]
1146:.\Generated_Source\PSoC4/Timer.c ****     uint8 enableInterrupts;
1147:.\Generated_Source\PSoC4/Timer.c **** 
1148:.\Generated_Source\PSoC4/Timer.c ****     enableInterrupts = CyEnterCriticalSection();
 1548              		.loc 1 1148 0
 1549 0008 3C1C     		mov	r4, r7
 1550 000a 0F34     		add	r4, r4, #15
 1551 000c FFF7FEFF 		bl	CyEnterCriticalSection
 1552 0010 031C     		mov	r3, r0
 1553 0012 2370     		strb	r3, [r4]
1149:.\Generated_Source\PSoC4/Timer.c **** 
1150:.\Generated_Source\PSoC4/Timer.c ****     Timer_TRIG_CONTROL1_REG &= (uint32)~Timer_START_MASK;
 1554              		.loc 1 1150 0
 1555 0014 0A4B     		ldr	r3, .L100
 1556 0016 0A4A     		ldr	r2, .L100
 1557 0018 1168     		ldr	r1, [r2]
 1558 001a 0A4A     		ldr	r2, .L100+4
 1559 001c 0A40     		and	r2, r1
 1560 001e 1A60     		str	r2, [r3]
1151:.\Generated_Source\PSoC4/Timer.c ****     Timer_TRIG_CONTROL1_REG |= ((uint32)(triggerMode << Timer_START_SHIFT));
 1561              		.loc 1 1151 0
 1562 0020 074B     		ldr	r3, .L100
 1563 0022 074A     		ldr	r2, .L100
 1564 0024 1168     		ldr	r1, [r2]
 1565 0026 7A68     		ldr	r2, [r7, #4]
 1566 0028 1202     		lsl	r2, r2, #8
 1567 002a 0A43     		orr	r2, r1
 1568 002c 1A60     		str	r2, [r3]
1152:.\Generated_Source\PSoC4/Timer.c **** 
1153:.\Generated_Source\PSoC4/Timer.c ****     CyExitCriticalSection(enableInterrupts);
 1569              		.loc 1 1153 0
 1570 002e 3B1C     		mov	r3, r7
 1571 0030 0F33     		add	r3, r3, #15
 1572 0032 1B78     		ldrb	r3, [r3]
 1573 0034 181C     		mov	r0, r3
 1574 0036 FFF7FEFF 		bl	CyExitCriticalSection
1154:.\Generated_Source\PSoC4/Timer.c **** }
 1575              		.loc 1 1154 0
 1576 003a BD46     		mov	sp, r7
 1577 003c 05B0     		add	sp, sp, #20
 1578              		@ sp needed for prologue
 1579 003e 90BD     		pop	{r4, r7, pc}
 1580              	.L101:
 1581              		.align	2
 1582              	.L100:
ARM GAS  C:\Users\Jared\AppData\Local\Temp\ccOOnCAQ.s 			page 49


 1583 0040 A4010540 		.word	1074069924
 1584 0044 FFFCFFFF 		.word	-769
 1585              		.cfi_endproc
 1586              	.LFE30:
 1587              		.size	Timer_SetStartMode, .-Timer_SetStartMode
 1588              		.section	.text.Timer_SetStopMode,"ax",%progbits
 1589              		.align	2
 1590              		.global	Timer_SetStopMode
 1591              		.code	16
 1592              		.thumb_func
 1593              		.type	Timer_SetStopMode, %function
 1594              	Timer_SetStopMode:
 1595              	.LFB31:
1155:.\Generated_Source\PSoC4/Timer.c **** 
1156:.\Generated_Source\PSoC4/Timer.c **** 
1157:.\Generated_Source\PSoC4/Timer.c **** /*******************************************************************************
1158:.\Generated_Source\PSoC4/Timer.c **** * Function Name: Timer_SetStopMode
1159:.\Generated_Source\PSoC4/Timer.c **** ********************************************************************************
1160:.\Generated_Source\PSoC4/Timer.c **** *
1161:.\Generated_Source\PSoC4/Timer.c **** * Summary:
1162:.\Generated_Source\PSoC4/Timer.c **** *  Sets the stop trigger mode. For PWM mode this is the kill input.
1163:.\Generated_Source\PSoC4/Timer.c **** *
1164:.\Generated_Source\PSoC4/Timer.c **** * Parameters:
1165:.\Generated_Source\PSoC4/Timer.c **** *  triggerMode: Enumerated trigger mode value
1166:.\Generated_Source\PSoC4/Timer.c **** *   Values:
1167:.\Generated_Source\PSoC4/Timer.c **** *     - Timer_TRIG_LEVEL     - Level
1168:.\Generated_Source\PSoC4/Timer.c **** *     - Timer_TRIG_RISING    - Rising edge
1169:.\Generated_Source\PSoC4/Timer.c **** *     - Timer_TRIG_FALLING   - Falling edge
1170:.\Generated_Source\PSoC4/Timer.c **** *     - Timer_TRIG_BOTH      - Both rising and falling edge
1171:.\Generated_Source\PSoC4/Timer.c **** *
1172:.\Generated_Source\PSoC4/Timer.c **** * Return:
1173:.\Generated_Source\PSoC4/Timer.c **** *  None
1174:.\Generated_Source\PSoC4/Timer.c **** *
1175:.\Generated_Source\PSoC4/Timer.c **** *******************************************************************************/
1176:.\Generated_Source\PSoC4/Timer.c **** void Timer_SetStopMode(uint32 triggerMode)
1177:.\Generated_Source\PSoC4/Timer.c **** {
 1596              		.loc 1 1177 0
 1597              		.cfi_startproc
 1598 0000 90B5     		push	{r4, r7, lr}
 1599              	.LCFI84:
 1600              		.cfi_def_cfa_offset 12
 1601              		.cfi_offset 4, -12
 1602              		.cfi_offset 7, -8
 1603              		.cfi_offset 14, -4
 1604 0002 85B0     		sub	sp, sp, #20
 1605              	.LCFI85:
 1606              		.cfi_def_cfa_offset 32
 1607 0004 00AF     		add	r7, sp, #0
 1608              	.LCFI86:
 1609              		.cfi_def_cfa_register 7
 1610 0006 7860     		str	r0, [r7, #4]
1178:.\Generated_Source\PSoC4/Timer.c ****     uint8 enableInterrupts;
1179:.\Generated_Source\PSoC4/Timer.c **** 
1180:.\Generated_Source\PSoC4/Timer.c ****     enableInterrupts = CyEnterCriticalSection();
 1611              		.loc 1 1180 0
 1612 0008 3C1C     		mov	r4, r7
 1613 000a 0F34     		add	r4, r4, #15
ARM GAS  C:\Users\Jared\AppData\Local\Temp\ccOOnCAQ.s 			page 50


 1614 000c FFF7FEFF 		bl	CyEnterCriticalSection
 1615 0010 031C     		mov	r3, r0
 1616 0012 2370     		strb	r3, [r4]
1181:.\Generated_Source\PSoC4/Timer.c **** 
1182:.\Generated_Source\PSoC4/Timer.c ****     Timer_TRIG_CONTROL1_REG &= (uint32)~Timer_STOP_MASK;
 1617              		.loc 1 1182 0
 1618 0014 0A4B     		ldr	r3, .L103
 1619 0016 0A4A     		ldr	r2, .L103
 1620 0018 1268     		ldr	r2, [r2]
 1621 001a C021     		mov	r1, #192
 1622 001c 8A43     		bic	r2, r1
 1623 001e 1A60     		str	r2, [r3]
1183:.\Generated_Source\PSoC4/Timer.c ****     Timer_TRIG_CONTROL1_REG |= ((uint32)(triggerMode << Timer_STOP_SHIFT));
 1624              		.loc 1 1183 0
 1625 0020 074B     		ldr	r3, .L103
 1626 0022 074A     		ldr	r2, .L103
 1627 0024 1168     		ldr	r1, [r2]
 1628 0026 7A68     		ldr	r2, [r7, #4]
 1629 0028 9201     		lsl	r2, r2, #6
 1630 002a 0A43     		orr	r2, r1
 1631 002c 1A60     		str	r2, [r3]
1184:.\Generated_Source\PSoC4/Timer.c **** 
1185:.\Generated_Source\PSoC4/Timer.c ****     CyExitCriticalSection(enableInterrupts);
 1632              		.loc 1 1185 0
 1633 002e 3B1C     		mov	r3, r7
 1634 0030 0F33     		add	r3, r3, #15
 1635 0032 1B78     		ldrb	r3, [r3]
 1636 0034 181C     		mov	r0, r3
 1637 0036 FFF7FEFF 		bl	CyExitCriticalSection
1186:.\Generated_Source\PSoC4/Timer.c **** }
 1638              		.loc 1 1186 0
 1639 003a BD46     		mov	sp, r7
 1640 003c 05B0     		add	sp, sp, #20
 1641              		@ sp needed for prologue
 1642 003e 90BD     		pop	{r4, r7, pc}
 1643              	.L104:
 1644              		.align	2
 1645              	.L103:
 1646 0040 A4010540 		.word	1074069924
 1647              		.cfi_endproc
 1648              	.LFE31:
 1649              		.size	Timer_SetStopMode, .-Timer_SetStopMode
 1650              		.section	.text.Timer_SetCountMode,"ax",%progbits
 1651              		.align	2
 1652              		.global	Timer_SetCountMode
 1653              		.code	16
 1654              		.thumb_func
 1655              		.type	Timer_SetCountMode, %function
 1656              	Timer_SetCountMode:
 1657              	.LFB32:
1187:.\Generated_Source\PSoC4/Timer.c **** 
1188:.\Generated_Source\PSoC4/Timer.c **** 
1189:.\Generated_Source\PSoC4/Timer.c **** /*******************************************************************************
1190:.\Generated_Source\PSoC4/Timer.c **** * Function Name: Timer_SetCountMode
1191:.\Generated_Source\PSoC4/Timer.c **** ********************************************************************************
1192:.\Generated_Source\PSoC4/Timer.c **** *
1193:.\Generated_Source\PSoC4/Timer.c **** * Summary:
ARM GAS  C:\Users\Jared\AppData\Local\Temp\ccOOnCAQ.s 			page 51


1194:.\Generated_Source\PSoC4/Timer.c **** *  Sets the count trigger mode. For Quadrature Decoder mode this is the phiA
1195:.\Generated_Source\PSoC4/Timer.c **** *  input.
1196:.\Generated_Source\PSoC4/Timer.c **** *
1197:.\Generated_Source\PSoC4/Timer.c **** * Parameters:
1198:.\Generated_Source\PSoC4/Timer.c **** *  triggerMode: Enumerated trigger mode value
1199:.\Generated_Source\PSoC4/Timer.c **** *   Values:
1200:.\Generated_Source\PSoC4/Timer.c **** *     - Timer_TRIG_LEVEL     - Level
1201:.\Generated_Source\PSoC4/Timer.c **** *     - Timer_TRIG_RISING    - Rising edge
1202:.\Generated_Source\PSoC4/Timer.c **** *     - Timer_TRIG_FALLING   - Falling edge
1203:.\Generated_Source\PSoC4/Timer.c **** *     - Timer_TRIG_BOTH      - Both rising and falling edge
1204:.\Generated_Source\PSoC4/Timer.c **** *
1205:.\Generated_Source\PSoC4/Timer.c **** * Return:
1206:.\Generated_Source\PSoC4/Timer.c **** *  None
1207:.\Generated_Source\PSoC4/Timer.c **** *
1208:.\Generated_Source\PSoC4/Timer.c **** *******************************************************************************/
1209:.\Generated_Source\PSoC4/Timer.c **** void Timer_SetCountMode(uint32 triggerMode)
1210:.\Generated_Source\PSoC4/Timer.c **** {
 1658              		.loc 1 1210 0
 1659              		.cfi_startproc
 1660 0000 90B5     		push	{r4, r7, lr}
 1661              	.LCFI87:
 1662              		.cfi_def_cfa_offset 12
 1663              		.cfi_offset 4, -12
 1664              		.cfi_offset 7, -8
 1665              		.cfi_offset 14, -4
 1666 0002 85B0     		sub	sp, sp, #20
 1667              	.LCFI88:
 1668              		.cfi_def_cfa_offset 32
 1669 0004 00AF     		add	r7, sp, #0
 1670              	.LCFI89:
 1671              		.cfi_def_cfa_register 7
 1672 0006 7860     		str	r0, [r7, #4]
1211:.\Generated_Source\PSoC4/Timer.c ****     uint8 enableInterrupts;
1212:.\Generated_Source\PSoC4/Timer.c **** 
1213:.\Generated_Source\PSoC4/Timer.c ****     enableInterrupts = CyEnterCriticalSection();
 1673              		.loc 1 1213 0
 1674 0008 3C1C     		mov	r4, r7
 1675 000a 0F34     		add	r4, r4, #15
 1676 000c FFF7FEFF 		bl	CyEnterCriticalSection
 1677 0010 031C     		mov	r3, r0
 1678 0012 2370     		strb	r3, [r4]
1214:.\Generated_Source\PSoC4/Timer.c **** 
1215:.\Generated_Source\PSoC4/Timer.c ****     Timer_TRIG_CONTROL1_REG &= (uint32)~Timer_COUNT_MASK;
 1679              		.loc 1 1215 0
 1680 0014 0A4B     		ldr	r3, .L106
 1681 0016 0A4A     		ldr	r2, .L106
 1682 0018 1268     		ldr	r2, [r2]
 1683 001a 0C21     		mov	r1, #12
 1684 001c 8A43     		bic	r2, r1
 1685 001e 1A60     		str	r2, [r3]
1216:.\Generated_Source\PSoC4/Timer.c ****     Timer_TRIG_CONTROL1_REG |= ((uint32)(triggerMode << Timer_COUNT_SHIFT));
 1686              		.loc 1 1216 0
 1687 0020 074B     		ldr	r3, .L106
 1688 0022 074A     		ldr	r2, .L106
 1689 0024 1168     		ldr	r1, [r2]
 1690 0026 7A68     		ldr	r2, [r7, #4]
 1691 0028 9200     		lsl	r2, r2, #2
ARM GAS  C:\Users\Jared\AppData\Local\Temp\ccOOnCAQ.s 			page 52


 1692 002a 0A43     		orr	r2, r1
 1693 002c 1A60     		str	r2, [r3]
1217:.\Generated_Source\PSoC4/Timer.c **** 
1218:.\Generated_Source\PSoC4/Timer.c ****     CyExitCriticalSection(enableInterrupts);
 1694              		.loc 1 1218 0
 1695 002e 3B1C     		mov	r3, r7
 1696 0030 0F33     		add	r3, r3, #15
 1697 0032 1B78     		ldrb	r3, [r3]
 1698 0034 181C     		mov	r0, r3
 1699 0036 FFF7FEFF 		bl	CyExitCriticalSection
1219:.\Generated_Source\PSoC4/Timer.c **** }
 1700              		.loc 1 1219 0
 1701 003a BD46     		mov	sp, r7
 1702 003c 05B0     		add	sp, sp, #20
 1703              		@ sp needed for prologue
 1704 003e 90BD     		pop	{r4, r7, pc}
 1705              	.L107:
 1706              		.align	2
 1707              	.L106:
 1708 0040 A4010540 		.word	1074069924
 1709              		.cfi_endproc
 1710              	.LFE32:
 1711              		.size	Timer_SetCountMode, .-Timer_SetCountMode
 1712              		.section	.text.Timer_TriggerCommand,"ax",%progbits
 1713              		.align	2
 1714              		.global	Timer_TriggerCommand
 1715              		.code	16
 1716              		.thumb_func
 1717              		.type	Timer_TriggerCommand, %function
 1718              	Timer_TriggerCommand:
 1719              	.LFB33:
1220:.\Generated_Source\PSoC4/Timer.c **** 
1221:.\Generated_Source\PSoC4/Timer.c **** 
1222:.\Generated_Source\PSoC4/Timer.c **** /*******************************************************************************
1223:.\Generated_Source\PSoC4/Timer.c **** * Function Name: Timer_TriggerCommand
1224:.\Generated_Source\PSoC4/Timer.c **** ********************************************************************************
1225:.\Generated_Source\PSoC4/Timer.c **** *
1226:.\Generated_Source\PSoC4/Timer.c **** * Summary:
1227:.\Generated_Source\PSoC4/Timer.c **** *  Triggers the designated command to occur on the designated TCPWM instances.
1228:.\Generated_Source\PSoC4/Timer.c **** *  The mask can be used to apply this command simultaneously to more than one
1229:.\Generated_Source\PSoC4/Timer.c **** *  instance.  This allows multiple TCPWM instances to be synchronized.
1230:.\Generated_Source\PSoC4/Timer.c **** *
1231:.\Generated_Source\PSoC4/Timer.c **** * Parameters:
1232:.\Generated_Source\PSoC4/Timer.c **** *  mask: A combination of mask bits for each instance of the TCPWM that the
1233:.\Generated_Source\PSoC4/Timer.c **** *        command should apply to.  This function from one instance can be used
1234:.\Generated_Source\PSoC4/Timer.c **** *        to apply the command to any of the instances in the design.
1235:.\Generated_Source\PSoC4/Timer.c **** *        The mask value for a specific instance is available with the MASK
1236:.\Generated_Source\PSoC4/Timer.c **** *        define.
1237:.\Generated_Source\PSoC4/Timer.c **** *  command: Enumerated command values. Capture command only applicable for
1238:.\Generated_Source\PSoC4/Timer.c **** *           Timer/Counter with Capture and PWM modes.
1239:.\Generated_Source\PSoC4/Timer.c **** *   Values:
1240:.\Generated_Source\PSoC4/Timer.c **** *     - Timer_CMD_CAPTURE    - Trigger Capture command
1241:.\Generated_Source\PSoC4/Timer.c **** *     - Timer_CMD_RELOAD     - Trigger Reload command
1242:.\Generated_Source\PSoC4/Timer.c **** *     - Timer_CMD_STOP       - Trigger Stop command
1243:.\Generated_Source\PSoC4/Timer.c **** *     - Timer_CMD_START      - Trigger Start command
1244:.\Generated_Source\PSoC4/Timer.c **** *
1245:.\Generated_Source\PSoC4/Timer.c **** * Return:
ARM GAS  C:\Users\Jared\AppData\Local\Temp\ccOOnCAQ.s 			page 53


1246:.\Generated_Source\PSoC4/Timer.c **** *  None
1247:.\Generated_Source\PSoC4/Timer.c **** *
1248:.\Generated_Source\PSoC4/Timer.c **** *******************************************************************************/
1249:.\Generated_Source\PSoC4/Timer.c **** void Timer_TriggerCommand(uint32 mask, uint32 command)
1250:.\Generated_Source\PSoC4/Timer.c **** {
 1720              		.loc 1 1250 0
 1721              		.cfi_startproc
 1722 0000 90B5     		push	{r4, r7, lr}
 1723              	.LCFI90:
 1724              		.cfi_def_cfa_offset 12
 1725              		.cfi_offset 4, -12
 1726              		.cfi_offset 7, -8
 1727              		.cfi_offset 14, -4
 1728 0002 85B0     		sub	sp, sp, #20
 1729              	.LCFI91:
 1730              		.cfi_def_cfa_offset 32
 1731 0004 00AF     		add	r7, sp, #0
 1732              	.LCFI92:
 1733              		.cfi_def_cfa_register 7
 1734 0006 7860     		str	r0, [r7, #4]
 1735 0008 3960     		str	r1, [r7]
1251:.\Generated_Source\PSoC4/Timer.c ****     uint8 enableInterrupts;
1252:.\Generated_Source\PSoC4/Timer.c **** 
1253:.\Generated_Source\PSoC4/Timer.c ****     enableInterrupts = CyEnterCriticalSection();
 1736              		.loc 1 1253 0
 1737 000a 3C1C     		mov	r4, r7
 1738 000c 0F34     		add	r4, r4, #15
 1739 000e FFF7FEFF 		bl	CyEnterCriticalSection
 1740 0012 031C     		mov	r3, r0
 1741 0014 2370     		strb	r3, [r4]
1254:.\Generated_Source\PSoC4/Timer.c **** 
1255:.\Generated_Source\PSoC4/Timer.c ****     Timer_COMMAND_REG = ((uint32)(mask << command));
 1742              		.loc 1 1255 0
 1743 0016 084B     		ldr	r3, .L109
 1744 0018 3A68     		ldr	r2, [r7]
 1745 001a 7968     		ldr	r1, [r7, #4]
 1746 001c 081C     		mov	r0, r1
 1747 001e 9040     		lsl	r0, r0, r2
 1748 0020 021C     		mov	r2, r0
 1749 0022 1A60     		str	r2, [r3]
1256:.\Generated_Source\PSoC4/Timer.c **** 
1257:.\Generated_Source\PSoC4/Timer.c ****     CyExitCriticalSection(enableInterrupts);
 1750              		.loc 1 1257 0
 1751 0024 3B1C     		mov	r3, r7
 1752 0026 0F33     		add	r3, r3, #15
 1753 0028 1B78     		ldrb	r3, [r3]
 1754 002a 181C     		mov	r0, r3
 1755 002c FFF7FEFF 		bl	CyExitCriticalSection
1258:.\Generated_Source\PSoC4/Timer.c **** }
 1756              		.loc 1 1258 0
 1757 0030 BD46     		mov	sp, r7
 1758 0032 05B0     		add	sp, sp, #20
 1759              		@ sp needed for prologue
 1760 0034 90BD     		pop	{r4, r7, pc}
 1761              	.L110:
 1762 0036 C046     		.align	2
 1763              	.L109:
ARM GAS  C:\Users\Jared\AppData\Local\Temp\ccOOnCAQ.s 			page 54


 1764 0038 08000540 		.word	1074069512
 1765              		.cfi_endproc
 1766              	.LFE33:
 1767              		.size	Timer_TriggerCommand, .-Timer_TriggerCommand
 1768              		.section	.text.Timer_ReadStatus,"ax",%progbits
 1769              		.align	2
 1770              		.global	Timer_ReadStatus
 1771              		.code	16
 1772              		.thumb_func
 1773              		.type	Timer_ReadStatus, %function
 1774              	Timer_ReadStatus:
 1775              	.LFB34:
1259:.\Generated_Source\PSoC4/Timer.c **** 
1260:.\Generated_Source\PSoC4/Timer.c **** 
1261:.\Generated_Source\PSoC4/Timer.c **** /*******************************************************************************
1262:.\Generated_Source\PSoC4/Timer.c **** * Function Name: Timer_ReadStatus
1263:.\Generated_Source\PSoC4/Timer.c **** ********************************************************************************
1264:.\Generated_Source\PSoC4/Timer.c **** *
1265:.\Generated_Source\PSoC4/Timer.c **** * Summary:
1266:.\Generated_Source\PSoC4/Timer.c **** *  Reads the status of the Timer.
1267:.\Generated_Source\PSoC4/Timer.c **** *
1268:.\Generated_Source\PSoC4/Timer.c **** * Parameters:
1269:.\Generated_Source\PSoC4/Timer.c **** *  None
1270:.\Generated_Source\PSoC4/Timer.c **** *
1271:.\Generated_Source\PSoC4/Timer.c **** * Return:
1272:.\Generated_Source\PSoC4/Timer.c **** *  Status
1273:.\Generated_Source\PSoC4/Timer.c **** *   Values:
1274:.\Generated_Source\PSoC4/Timer.c **** *     - Timer_STATUS_DOWN    - Set if counting down
1275:.\Generated_Source\PSoC4/Timer.c **** *     - Timer_STATUS_RUNNING - Set if counter is running
1276:.\Generated_Source\PSoC4/Timer.c **** *
1277:.\Generated_Source\PSoC4/Timer.c **** *******************************************************************************/
1278:.\Generated_Source\PSoC4/Timer.c **** uint32 Timer_ReadStatus(void)
1279:.\Generated_Source\PSoC4/Timer.c **** {
 1776              		.loc 1 1279 0
 1777              		.cfi_startproc
 1778 0000 80B5     		push	{r7, lr}
 1779              	.LCFI93:
 1780              		.cfi_def_cfa_offset 8
 1781              		.cfi_offset 7, -8
 1782              		.cfi_offset 14, -4
 1783 0002 00AF     		add	r7, sp, #0
 1784              	.LCFI94:
 1785              		.cfi_def_cfa_register 7
1280:.\Generated_Source\PSoC4/Timer.c ****     return ((Timer_STATUS_REG >> Timer_RUNNING_STATUS_SHIFT) |
 1786              		.loc 1 1280 0
 1787 0004 054B     		ldr	r3, .L113
 1788 0006 1B68     		ldr	r3, [r3]
 1789 0008 9A0F     		lsr	r2, r3, #30
1281:.\Generated_Source\PSoC4/Timer.c ****             (Timer_STATUS_REG & Timer_STATUS_DOWN));
 1790              		.loc 1 1281 0
 1791 000a 044B     		ldr	r3, .L113
 1792 000c 1968     		ldr	r1, [r3]
 1793 000e 0123     		mov	r3, #1
 1794 0010 0B40     		and	r3, r1
1280:.\Generated_Source\PSoC4/Timer.c ****     return ((Timer_STATUS_REG >> Timer_RUNNING_STATUS_SHIFT) |
 1795              		.loc 1 1280 0
 1796 0012 1343     		orr	r3, r2
ARM GAS  C:\Users\Jared\AppData\Local\Temp\ccOOnCAQ.s 			page 55


1282:.\Generated_Source\PSoC4/Timer.c **** }
 1797              		.loc 1 1282 0
 1798 0014 181C     		mov	r0, r3
 1799 0016 BD46     		mov	sp, r7
 1800              		@ sp needed for prologue
 1801 0018 80BD     		pop	{r7, pc}
 1802              	.L114:
 1803 001a C046     		.align	2
 1804              	.L113:
 1805 001c 84010540 		.word	1074069892
 1806              		.cfi_endproc
 1807              	.LFE34:
 1808              		.size	Timer_ReadStatus, .-Timer_ReadStatus
 1809              		.section	.text.Timer_SetInterruptMode,"ax",%progbits
 1810              		.align	2
 1811              		.global	Timer_SetInterruptMode
 1812              		.code	16
 1813              		.thumb_func
 1814              		.type	Timer_SetInterruptMode, %function
 1815              	Timer_SetInterruptMode:
 1816              	.LFB35:
1283:.\Generated_Source\PSoC4/Timer.c **** 
1284:.\Generated_Source\PSoC4/Timer.c **** 
1285:.\Generated_Source\PSoC4/Timer.c **** /*******************************************************************************
1286:.\Generated_Source\PSoC4/Timer.c **** * Function Name: Timer_SetInterruptMode
1287:.\Generated_Source\PSoC4/Timer.c **** ********************************************************************************
1288:.\Generated_Source\PSoC4/Timer.c **** *
1289:.\Generated_Source\PSoC4/Timer.c **** * Summary:
1290:.\Generated_Source\PSoC4/Timer.c **** *  Sets the interrupt mask to control which interrupt
1291:.\Generated_Source\PSoC4/Timer.c **** *  requests generate the interrupt signal.
1292:.\Generated_Source\PSoC4/Timer.c **** *
1293:.\Generated_Source\PSoC4/Timer.c **** * Parameters:
1294:.\Generated_Source\PSoC4/Timer.c **** *   interruptMask: Mask of bits to be enabled
1295:.\Generated_Source\PSoC4/Timer.c **** *   Values:
1296:.\Generated_Source\PSoC4/Timer.c **** *     - Timer_INTR_MASK_TC       - Terminal count mask
1297:.\Generated_Source\PSoC4/Timer.c **** *     - Timer_INTR_MASK_CC_MATCH - Compare count / capture mask
1298:.\Generated_Source\PSoC4/Timer.c **** *
1299:.\Generated_Source\PSoC4/Timer.c **** * Return:
1300:.\Generated_Source\PSoC4/Timer.c **** *  None
1301:.\Generated_Source\PSoC4/Timer.c **** *
1302:.\Generated_Source\PSoC4/Timer.c **** *******************************************************************************/
1303:.\Generated_Source\PSoC4/Timer.c **** void Timer_SetInterruptMode(uint32 interruptMask)
1304:.\Generated_Source\PSoC4/Timer.c **** {
 1817              		.loc 1 1304 0
 1818              		.cfi_startproc
 1819 0000 80B5     		push	{r7, lr}
 1820              	.LCFI95:
 1821              		.cfi_def_cfa_offset 8
 1822              		.cfi_offset 7, -8
 1823              		.cfi_offset 14, -4
 1824 0002 82B0     		sub	sp, sp, #8
 1825              	.LCFI96:
 1826              		.cfi_def_cfa_offset 16
 1827 0004 00AF     		add	r7, sp, #0
 1828              	.LCFI97:
 1829              		.cfi_def_cfa_register 7
 1830 0006 7860     		str	r0, [r7, #4]
ARM GAS  C:\Users\Jared\AppData\Local\Temp\ccOOnCAQ.s 			page 56


1305:.\Generated_Source\PSoC4/Timer.c ****     Timer_INTERRUPT_MASK_REG =  interruptMask;
 1831              		.loc 1 1305 0
 1832 0008 024B     		ldr	r3, .L116
 1833 000a 7A68     		ldr	r2, [r7, #4]
 1834 000c 1A60     		str	r2, [r3]
1306:.\Generated_Source\PSoC4/Timer.c **** }
 1835              		.loc 1 1306 0
 1836 000e BD46     		mov	sp, r7
 1837 0010 02B0     		add	sp, sp, #8
 1838              		@ sp needed for prologue
 1839 0012 80BD     		pop	{r7, pc}
 1840              	.L117:
 1841              		.align	2
 1842              	.L116:
 1843 0014 B8010540 		.word	1074069944
 1844              		.cfi_endproc
 1845              	.LFE35:
 1846              		.size	Timer_SetInterruptMode, .-Timer_SetInterruptMode
 1847              		.section	.text.Timer_GetInterruptSourceMasked,"ax",%progbits
 1848              		.align	2
 1849              		.global	Timer_GetInterruptSourceMasked
 1850              		.code	16
 1851              		.thumb_func
 1852              		.type	Timer_GetInterruptSourceMasked, %function
 1853              	Timer_GetInterruptSourceMasked:
 1854              	.LFB36:
1307:.\Generated_Source\PSoC4/Timer.c **** 
1308:.\Generated_Source\PSoC4/Timer.c **** 
1309:.\Generated_Source\PSoC4/Timer.c **** /*******************************************************************************
1310:.\Generated_Source\PSoC4/Timer.c **** * Function Name: Timer_GetInterruptSourceMasked
1311:.\Generated_Source\PSoC4/Timer.c **** ********************************************************************************
1312:.\Generated_Source\PSoC4/Timer.c **** *
1313:.\Generated_Source\PSoC4/Timer.c **** * Summary:
1314:.\Generated_Source\PSoC4/Timer.c **** *  Gets the interrupt requests masked by the interrupt mask.
1315:.\Generated_Source\PSoC4/Timer.c **** *
1316:.\Generated_Source\PSoC4/Timer.c **** * Parameters:
1317:.\Generated_Source\PSoC4/Timer.c **** *   None
1318:.\Generated_Source\PSoC4/Timer.c **** *
1319:.\Generated_Source\PSoC4/Timer.c **** * Return:
1320:.\Generated_Source\PSoC4/Timer.c **** *  Masked interrupt source
1321:.\Generated_Source\PSoC4/Timer.c **** *   Values:
1322:.\Generated_Source\PSoC4/Timer.c **** *     - Timer_INTR_MASK_TC       - Terminal count mask
1323:.\Generated_Source\PSoC4/Timer.c **** *     - Timer_INTR_MASK_CC_MATCH - Compare count / capture mask
1324:.\Generated_Source\PSoC4/Timer.c **** *
1325:.\Generated_Source\PSoC4/Timer.c **** *******************************************************************************/
1326:.\Generated_Source\PSoC4/Timer.c **** uint32 Timer_GetInterruptSourceMasked(void)
1327:.\Generated_Source\PSoC4/Timer.c **** {
 1855              		.loc 1 1327 0
 1856              		.cfi_startproc
 1857 0000 80B5     		push	{r7, lr}
 1858              	.LCFI98:
 1859              		.cfi_def_cfa_offset 8
 1860              		.cfi_offset 7, -8
 1861              		.cfi_offset 14, -4
 1862 0002 00AF     		add	r7, sp, #0
 1863              	.LCFI99:
 1864              		.cfi_def_cfa_register 7
ARM GAS  C:\Users\Jared\AppData\Local\Temp\ccOOnCAQ.s 			page 57


1328:.\Generated_Source\PSoC4/Timer.c ****     return (Timer_INTERRUPT_MASKED_REG);
 1865              		.loc 1 1328 0
 1866 0004 024B     		ldr	r3, .L120
 1867 0006 1B68     		ldr	r3, [r3]
1329:.\Generated_Source\PSoC4/Timer.c **** }
 1868              		.loc 1 1329 0
 1869 0008 181C     		mov	r0, r3
 1870 000a BD46     		mov	sp, r7
 1871              		@ sp needed for prologue
 1872 000c 80BD     		pop	{r7, pc}
 1873              	.L121:
 1874 000e C046     		.align	2
 1875              	.L120:
 1876 0010 BC010540 		.word	1074069948
 1877              		.cfi_endproc
 1878              	.LFE36:
 1879              		.size	Timer_GetInterruptSourceMasked, .-Timer_GetInterruptSourceMasked
 1880              		.section	.text.Timer_GetInterruptSource,"ax",%progbits
 1881              		.align	2
 1882              		.global	Timer_GetInterruptSource
 1883              		.code	16
 1884              		.thumb_func
 1885              		.type	Timer_GetInterruptSource, %function
 1886              	Timer_GetInterruptSource:
 1887              	.LFB37:
1330:.\Generated_Source\PSoC4/Timer.c **** 
1331:.\Generated_Source\PSoC4/Timer.c **** 
1332:.\Generated_Source\PSoC4/Timer.c **** /*******************************************************************************
1333:.\Generated_Source\PSoC4/Timer.c **** * Function Name: Timer_GetInterruptSource
1334:.\Generated_Source\PSoC4/Timer.c **** ********************************************************************************
1335:.\Generated_Source\PSoC4/Timer.c **** *
1336:.\Generated_Source\PSoC4/Timer.c **** * Summary:
1337:.\Generated_Source\PSoC4/Timer.c **** *  Gets the interrupt requests (without masking).
1338:.\Generated_Source\PSoC4/Timer.c **** *
1339:.\Generated_Source\PSoC4/Timer.c **** * Parameters:
1340:.\Generated_Source\PSoC4/Timer.c **** *  None
1341:.\Generated_Source\PSoC4/Timer.c **** *
1342:.\Generated_Source\PSoC4/Timer.c **** * Return:
1343:.\Generated_Source\PSoC4/Timer.c **** *  Interrupt request value
1344:.\Generated_Source\PSoC4/Timer.c **** *   Values:
1345:.\Generated_Source\PSoC4/Timer.c **** *     - Timer_INTR_MASK_TC       - Terminal count mask
1346:.\Generated_Source\PSoC4/Timer.c **** *     - Timer_INTR_MASK_CC_MATCH - Compare count / capture mask
1347:.\Generated_Source\PSoC4/Timer.c **** *
1348:.\Generated_Source\PSoC4/Timer.c **** *******************************************************************************/
1349:.\Generated_Source\PSoC4/Timer.c **** uint32 Timer_GetInterruptSource(void)
1350:.\Generated_Source\PSoC4/Timer.c **** {
 1888              		.loc 1 1350 0
 1889              		.cfi_startproc
 1890 0000 80B5     		push	{r7, lr}
 1891              	.LCFI100:
 1892              		.cfi_def_cfa_offset 8
 1893              		.cfi_offset 7, -8
 1894              		.cfi_offset 14, -4
 1895 0002 00AF     		add	r7, sp, #0
 1896              	.LCFI101:
 1897              		.cfi_def_cfa_register 7
1351:.\Generated_Source\PSoC4/Timer.c ****     return (Timer_INTERRUPT_REQ_REG);
ARM GAS  C:\Users\Jared\AppData\Local\Temp\ccOOnCAQ.s 			page 58


 1898              		.loc 1 1351 0
 1899 0004 024B     		ldr	r3, .L124
 1900 0006 1B68     		ldr	r3, [r3]
1352:.\Generated_Source\PSoC4/Timer.c **** }
 1901              		.loc 1 1352 0
 1902 0008 181C     		mov	r0, r3
 1903 000a BD46     		mov	sp, r7
 1904              		@ sp needed for prologue
 1905 000c 80BD     		pop	{r7, pc}
 1906              	.L125:
 1907 000e C046     		.align	2
 1908              	.L124:
 1909 0010 B0010540 		.word	1074069936
 1910              		.cfi_endproc
 1911              	.LFE37:
 1912              		.size	Timer_GetInterruptSource, .-Timer_GetInterruptSource
 1913              		.section	.text.Timer_ClearInterrupt,"ax",%progbits
 1914              		.align	2
 1915              		.global	Timer_ClearInterrupt
 1916              		.code	16
 1917              		.thumb_func
 1918              		.type	Timer_ClearInterrupt, %function
 1919              	Timer_ClearInterrupt:
 1920              	.LFB38:
1353:.\Generated_Source\PSoC4/Timer.c **** 
1354:.\Generated_Source\PSoC4/Timer.c **** 
1355:.\Generated_Source\PSoC4/Timer.c **** /*******************************************************************************
1356:.\Generated_Source\PSoC4/Timer.c **** * Function Name: Timer_ClearInterrupt
1357:.\Generated_Source\PSoC4/Timer.c **** ********************************************************************************
1358:.\Generated_Source\PSoC4/Timer.c **** *
1359:.\Generated_Source\PSoC4/Timer.c **** * Summary:
1360:.\Generated_Source\PSoC4/Timer.c **** *  Clears the interrupt request.
1361:.\Generated_Source\PSoC4/Timer.c **** *
1362:.\Generated_Source\PSoC4/Timer.c **** * Parameters:
1363:.\Generated_Source\PSoC4/Timer.c **** *   interruptMask: Mask of interrupts to clear
1364:.\Generated_Source\PSoC4/Timer.c **** *   Values:
1365:.\Generated_Source\PSoC4/Timer.c **** *     - Timer_INTR_MASK_TC       - Terminal count mask
1366:.\Generated_Source\PSoC4/Timer.c **** *     - Timer_INTR_MASK_CC_MATCH - Compare count / capture mask
1367:.\Generated_Source\PSoC4/Timer.c **** *
1368:.\Generated_Source\PSoC4/Timer.c **** * Return:
1369:.\Generated_Source\PSoC4/Timer.c **** *  None
1370:.\Generated_Source\PSoC4/Timer.c **** *
1371:.\Generated_Source\PSoC4/Timer.c **** *******************************************************************************/
1372:.\Generated_Source\PSoC4/Timer.c **** void Timer_ClearInterrupt(uint32 interruptMask)
1373:.\Generated_Source\PSoC4/Timer.c **** {
 1921              		.loc 1 1373 0
 1922              		.cfi_startproc
 1923 0000 80B5     		push	{r7, lr}
 1924              	.LCFI102:
 1925              		.cfi_def_cfa_offset 8
 1926              		.cfi_offset 7, -8
 1927              		.cfi_offset 14, -4
 1928 0002 82B0     		sub	sp, sp, #8
 1929              	.LCFI103:
 1930              		.cfi_def_cfa_offset 16
 1931 0004 00AF     		add	r7, sp, #0
 1932              	.LCFI104:
ARM GAS  C:\Users\Jared\AppData\Local\Temp\ccOOnCAQ.s 			page 59


 1933              		.cfi_def_cfa_register 7
 1934 0006 7860     		str	r0, [r7, #4]
1374:.\Generated_Source\PSoC4/Timer.c ****     Timer_INTERRUPT_REQ_REG = interruptMask;
 1935              		.loc 1 1374 0
 1936 0008 024B     		ldr	r3, .L127
 1937 000a 7A68     		ldr	r2, [r7, #4]
 1938 000c 1A60     		str	r2, [r3]
1375:.\Generated_Source\PSoC4/Timer.c **** }
 1939              		.loc 1 1375 0
 1940 000e BD46     		mov	sp, r7
 1941 0010 02B0     		add	sp, sp, #8
 1942              		@ sp needed for prologue
 1943 0012 80BD     		pop	{r7, pc}
 1944              	.L128:
 1945              		.align	2
 1946              	.L127:
 1947 0014 B0010540 		.word	1074069936
 1948              		.cfi_endproc
 1949              	.LFE38:
 1950              		.size	Timer_ClearInterrupt, .-Timer_ClearInterrupt
 1951              		.section	.text.Timer_SetInterrupt,"ax",%progbits
 1952              		.align	2
 1953              		.global	Timer_SetInterrupt
 1954              		.code	16
 1955              		.thumb_func
 1956              		.type	Timer_SetInterrupt, %function
 1957              	Timer_SetInterrupt:
 1958              	.LFB39:
1376:.\Generated_Source\PSoC4/Timer.c **** 
1377:.\Generated_Source\PSoC4/Timer.c **** 
1378:.\Generated_Source\PSoC4/Timer.c **** /*******************************************************************************
1379:.\Generated_Source\PSoC4/Timer.c **** * Function Name: Timer_SetInterrupt
1380:.\Generated_Source\PSoC4/Timer.c **** ********************************************************************************
1381:.\Generated_Source\PSoC4/Timer.c **** *
1382:.\Generated_Source\PSoC4/Timer.c **** * Summary:
1383:.\Generated_Source\PSoC4/Timer.c **** *  Sets a software interrupt request.
1384:.\Generated_Source\PSoC4/Timer.c **** *
1385:.\Generated_Source\PSoC4/Timer.c **** * Parameters:
1386:.\Generated_Source\PSoC4/Timer.c **** *   interruptMask: Mask of interrupts to set
1387:.\Generated_Source\PSoC4/Timer.c **** *   Values:
1388:.\Generated_Source\PSoC4/Timer.c **** *     - Timer_INTR_MASK_TC       - Terminal count mask
1389:.\Generated_Source\PSoC4/Timer.c **** *     - Timer_INTR_MASK_CC_MATCH - Compare count / capture mask
1390:.\Generated_Source\PSoC4/Timer.c **** *
1391:.\Generated_Source\PSoC4/Timer.c **** * Return:
1392:.\Generated_Source\PSoC4/Timer.c **** *  None
1393:.\Generated_Source\PSoC4/Timer.c **** *
1394:.\Generated_Source\PSoC4/Timer.c **** *******************************************************************************/
1395:.\Generated_Source\PSoC4/Timer.c **** void Timer_SetInterrupt(uint32 interruptMask)
1396:.\Generated_Source\PSoC4/Timer.c **** {
 1959              		.loc 1 1396 0
 1960              		.cfi_startproc
 1961 0000 80B5     		push	{r7, lr}
 1962              	.LCFI105:
 1963              		.cfi_def_cfa_offset 8
 1964              		.cfi_offset 7, -8
 1965              		.cfi_offset 14, -4
 1966 0002 82B0     		sub	sp, sp, #8
ARM GAS  C:\Users\Jared\AppData\Local\Temp\ccOOnCAQ.s 			page 60


 1967              	.LCFI106:
 1968              		.cfi_def_cfa_offset 16
 1969 0004 00AF     		add	r7, sp, #0
 1970              	.LCFI107:
 1971              		.cfi_def_cfa_register 7
 1972 0006 7860     		str	r0, [r7, #4]
1397:.\Generated_Source\PSoC4/Timer.c ****     Timer_INTERRUPT_SET_REG = interruptMask;
 1973              		.loc 1 1397 0
 1974 0008 024B     		ldr	r3, .L130
 1975 000a 7A68     		ldr	r2, [r7, #4]
 1976 000c 1A60     		str	r2, [r3]
1398:.\Generated_Source\PSoC4/Timer.c **** }
 1977              		.loc 1 1398 0
 1978 000e BD46     		mov	sp, r7
 1979 0010 02B0     		add	sp, sp, #8
 1980              		@ sp needed for prologue
 1981 0012 80BD     		pop	{r7, pc}
 1982              	.L131:
 1983              		.align	2
 1984              	.L130:
 1985 0014 B4010540 		.word	1074069940
 1986              		.cfi_endproc
 1987              	.LFE39:
 1988              		.size	Timer_SetInterrupt, .-Timer_SetInterrupt
 1989              		.text
 1990              	.Letext0:
 1991              		.file 2 ".\\Generated_Source\\PSoC4\\cytypes.h"