ARM GAS  C:\Users\Jared\AppData\Local\Temp\ccetJ3LV.s 			page 1


   1              		.cpu cortex-m0
   2              		.fpu softvfp
   3              		.eabi_attribute 20, 1
   4              		.eabi_attribute 21, 1
   5              		.eabi_attribute 23, 3
   6              		.eabi_attribute 24, 1
   7              		.eabi_attribute 25, 1
   8              		.eabi_attribute 26, 1
   9              		.eabi_attribute 30, 6
  10              		.eabi_attribute 34, 0
  11              		.eabi_attribute 18, 4
  12              		.code	16
  13              		.file	"wiznet_parse.c"
  14              		.text
  15              	.Ltext0:
  16              		.cfi_sections	.debug_frame
  17              		.section	.text.wiznet_parse,"ax",%progbits
  18              		.align	2
  19              		.global	wiznet_parse
  20              		.code	16
  21              		.thumb_func
  22              		.type	wiznet_parse, %function
  23              	wiznet_parse:
  24              	.LFB33:
  25              		.file 1 ".\\wiznet_parse.c"
   1:.\wiznet_parse.c **** /*
   2:.\wiznet_parse.c ****  * wiznet_parse.c
   3:.\wiznet_parse.c ****  *
   4:.\wiznet_parse.c ****  *  Created on: Jan 31, 2015
   5:.\wiznet_parse.c ****  *      Author: cramsted joint with Jeff Nybo and Steve
   6:.\wiznet_parse.c ****  */
   7:.\wiznet_parse.c **** #include "wiznet_parse.h"
   8:.\wiznet_parse.c **** 
   9:.\wiznet_parse.c **** //This variable needs to be implemented in the main code base. 
  10:.\wiznet_parse.c **** //It should be the variable that the recieved wiznet data is copied to when RX goes high
  11:.\wiznet_parse.c **** //volatile uint8_t RX[16] = {0x0, 0x1, 0xC, 0x8, 0x0, 0x0, 0x0, 0x4, 0x0, 0x3, 0xE, 0x8, 0x0, 0x0, 
  12:.\wiznet_parse.c **** 						// 0	1	 2	  3    4    5    6    7    8    9    10   11   12   13   14   15
  13:.\wiznet_parse.c **** // Steve's Note: Here is what the (WIZNET) payload looks like:
  14:.\wiznet_parse.c **** //  Byte:   0   1   2   3   4   5   6   7   8   9   A   B   C   D   E   F
  15:.\wiznet_parse.c **** //  Value:  C0  A8  1   al  ph  pl  zh  zl  0th 1st 2nd 3rd etc
  16:.\wiznet_parse.c **** //  Means:  |Src Ip Addr  |Src Port|#bytes| Actual Payload for the rest of the packet
  17:.\wiznet_parse.c **** //  For reference, the Python Payload Line: [0x01,0xC8,(mainSeqCount&0xFF),DRIVE_LEN,(gimbal[0]>>8)
  18:.\wiznet_parse.c **** //  WHAT THIS MEANS FOR YOU! : The High and Low bytes for the gimbal are 12,13 for X, 14,15 for Y, 
  19:.\wiznet_parse.c **** //  Here is a real (WIZNET) packet:
  20:.\wiznet_parse.c **** //  Byte:   0   1   2   3   4   5   6   7   8   9   A   B   C   D   E   F
  21:.\wiznet_parse.c **** //  Value:  C0  A8  01  01  E4  F0  00  08  01  C8  7A  05  02  89  02  06
  22:.\wiznet_parse.c **** //  Means: |Src Ip Addr   |SrcPort|#bytes | See Aligned Below:
  23:.\wiznet_parse.c **** //                                          From Basestation to Main Controller Board
  24:.\wiznet_parse.c **** //                                              Write Drive Message ID
  25:.\wiznet_parse.c **** //                                                  Packet Sequence #
  26:.\wiznet_parse.c **** //                                                      #bytes remaining in this message
  27:.\wiznet_parse.c **** //                                                          X Axis High Byte
  28:.\wiznet_parse.c **** //                                                              X Axis Low Byte
  29:.\wiznet_parse.c **** //                                                                  Y Axis High Byte
  30:.\wiznet_parse.c **** //                                                                      Y Axis Low Byte
  31:.\wiznet_parse.c **** //  Note: The X and Y Axis values are between -1000 and +1000, in this case, X is 649, Y is 518
  32:.\wiznet_parse.c **** //parses incoming packets
ARM GAS  C:\Users\Jared\AppData\Local\Temp\ccetJ3LV.s 			page 2


  33:.\wiznet_parse.c **** void wiznet_parse(ToDoList* todo, uint8_t* RX){
  26              		.loc 1 33 0
  27              		.cfi_startproc
  28 0000 80B5     		push	{r7, lr}
  29              	.LCFI0:
  30              		.cfi_def_cfa_offset 8
  31              		.cfi_offset 7, -8
  32              		.cfi_offset 14, -4
  33 0002 86B0     		sub	sp, sp, #24
  34              	.LCFI1:
  35              		.cfi_def_cfa_offset 32
  36 0004 00AF     		add	r7, sp, #0
  37              	.LCFI2:
  38              		.cfi_def_cfa_register 7
  39 0006 7860     		str	r0, [r7, #4]
  40 0008 3960     		str	r1, [r7]
  34:.\wiznet_parse.c **** 
  35:.\wiznet_parse.c ****     int16_t left_y = ((int16_t)(((RX[12]<<8) & 0xFF00) | RX[13]) );
  41              		.loc 1 35 0
  42 000a 3B68     		ldr	r3, [r7]
  43 000c 0C33     		add	r3, r3, #12
  44 000e 1B78     		ldrb	r3, [r3]
  45 0010 1B02     		lsl	r3, r3, #8
  46 0012 9BB2     		uxth	r3, r3
  47 0014 FF22     		mov	r2, #255
  48 0016 9343     		bic	r3, r2
  49 0018 99B2     		uxth	r1, r3
  50 001a 3B68     		ldr	r3, [r7]
  51 001c 0D33     		add	r3, r3, #13
  52 001e 1B78     		ldrb	r3, [r3]
  53 0020 1A1C     		mov	r2, r3
  54 0022 3B1C     		mov	r3, r7
  55 0024 1633     		add	r3, r3, #22
  56 0026 0A43     		orr	r2, r1
  57 0028 1A80     		strh	r2, [r3]
  36:.\wiznet_parse.c ****     int16_t right_y = ((int16_t)(((RX[14]<<8) & 0xFF00) | RX[15]) );
  58              		.loc 1 36 0
  59 002a 3B68     		ldr	r3, [r7]
  60 002c 0E33     		add	r3, r3, #14
  61 002e 1B78     		ldrb	r3, [r3]
  62 0030 1B02     		lsl	r3, r3, #8
  63 0032 9BB2     		uxth	r3, r3
  64 0034 FF22     		mov	r2, #255
  65 0036 9343     		bic	r3, r2
  66 0038 99B2     		uxth	r1, r3
  67 003a 3B68     		ldr	r3, [r7]
  68 003c 0F33     		add	r3, r3, #15
  69 003e 1B78     		ldrb	r3, [r3]
  70 0040 1A1C     		mov	r2, r3
  71 0042 3B1C     		mov	r3, r7
  72 0044 1433     		add	r3, r3, #20
  73 0046 0A43     		orr	r2, r1
  74 0048 1A80     		strh	r2, [r3]
  37:.\wiznet_parse.c ****     
  38:.\wiznet_parse.c ****     uint16_t lw = (uint16_t)(((left_y)>>1)+1500);
  75              		.loc 1 38 0
  76 004a 3B1C     		mov	r3, r7
ARM GAS  C:\Users\Jared\AppData\Local\Temp\ccetJ3LV.s 			page 3


  77 004c 1633     		add	r3, r3, #22
  78 004e 0021     		mov	r1, #0
  79 0050 5B5E     		ldrsh	r3, [r3, r1]
  80 0052 5B10     		asr	r3, r3, #1
  81 0054 9BB2     		uxth	r3, r3
  82 0056 9AB2     		uxth	r2, r3
  83 0058 3B1C     		mov	r3, r7
  84 005a 1233     		add	r3, r3, #18
  85 005c 4349     		ldr	r1, .L10
  86 005e 5218     		add	r2, r2, r1
  87 0060 1A80     		strh	r2, [r3]
  39:.\wiznet_parse.c ****     uint16_t rw = (uint16_t)(((right_y)>>1)+1500);
  88              		.loc 1 39 0
  89 0062 3B1C     		mov	r3, r7
  90 0064 1433     		add	r3, r3, #20
  91 0066 0022     		mov	r2, #0
  92 0068 9B5E     		ldrsh	r3, [r3, r2]
  93 006a 5B10     		asr	r3, r3, #1
  94 006c 9BB2     		uxth	r3, r3
  95 006e 9AB2     		uxth	r2, r3
  96 0070 3B1C     		mov	r3, r7
  97 0072 1033     		add	r3, r3, #16
  98 0074 3D49     		ldr	r1, .L10
  99 0076 5218     		add	r2, r2, r1
 100 0078 1A80     		strh	r2, [r3]
  40:.\wiznet_parse.c ****     
  41:.\wiznet_parse.c ****     
  42:.\wiznet_parse.c ****     
  43:.\wiznet_parse.c ****     // boundary checking:
  44:.\wiznet_parse.c ****     if (lw > 2000) todo->leftWheels = 2000;
 101              		.loc 1 44 0
 102 007a 3B1C     		mov	r3, r7
 103 007c 1233     		add	r3, r3, #18
 104 007e 1A88     		ldrh	r2, [r3]
 105 0080 FA23     		mov	r3, #250
 106 0082 DB00     		lsl	r3, r3, #3
 107 0084 9A42     		cmp	r2, r3
 108 0086 04D9     		bls	.L2
 109              		.loc 1 44 0 is_stmt 0 discriminator 1
 110 0088 7B68     		ldr	r3, [r7, #4]
 111 008a FA22     		mov	r2, #250
 112 008c D200     		lsl	r2, r2, #3
 113 008e 1A80     		strh	r2, [r3]
 114 0090 0FE0     		b	.L3
 115              	.L2:
  45:.\wiznet_parse.c ****     else if (lw < 1000) todo->leftWheels = 1000;
 116              		.loc 1 45 0 is_stmt 1
 117 0092 3B1C     		mov	r3, r7
 118 0094 1233     		add	r3, r3, #18
 119 0096 1A88     		ldrh	r2, [r3]
 120 0098 354B     		ldr	r3, .L10+4
 121 009a 9A42     		cmp	r2, r3
 122 009c 04D8     		bhi	.L4
 123              		.loc 1 45 0 is_stmt 0 discriminator 1
 124 009e 7B68     		ldr	r3, [r7, #4]
 125 00a0 FA22     		mov	r2, #250
 126 00a2 9200     		lsl	r2, r2, #2
ARM GAS  C:\Users\Jared\AppData\Local\Temp\ccetJ3LV.s 			page 4


 127 00a4 1A80     		strh	r2, [r3]
 128 00a6 04E0     		b	.L3
 129              	.L4:
  46:.\wiznet_parse.c ****     else todo->leftWheels = lw;
 130              		.loc 1 46 0 is_stmt 1
 131 00a8 7B68     		ldr	r3, [r7, #4]
 132 00aa 3A1C     		mov	r2, r7
 133 00ac 1232     		add	r2, r2, #18
 134 00ae 1288     		ldrh	r2, [r2]
 135 00b0 1A80     		strh	r2, [r3]
 136              	.L3:
  47:.\wiznet_parse.c ****     
  48:.\wiznet_parse.c ****     if (rw > 2000) todo->rightWheels = 2000;
 137              		.loc 1 48 0
 138 00b2 3B1C     		mov	r3, r7
 139 00b4 1033     		add	r3, r3, #16
 140 00b6 1A88     		ldrh	r2, [r3]
 141 00b8 FA23     		mov	r3, #250
 142 00ba DB00     		lsl	r3, r3, #3
 143 00bc 9A42     		cmp	r2, r3
 144 00be 04D9     		bls	.L5
 145              		.loc 1 48 0 is_stmt 0 discriminator 1
 146 00c0 7B68     		ldr	r3, [r7, #4]
 147 00c2 FA22     		mov	r2, #250
 148 00c4 D200     		lsl	r2, r2, #3
 149 00c6 5A80     		strh	r2, [r3, #2]
 150 00c8 0FE0     		b	.L6
 151              	.L5:
  49:.\wiznet_parse.c ****     else if (rw < 1000) todo->rightWheels = 1000;
 152              		.loc 1 49 0 is_stmt 1
 153 00ca 3B1C     		mov	r3, r7
 154 00cc 1033     		add	r3, r3, #16
 155 00ce 1A88     		ldrh	r2, [r3]
 156 00d0 274B     		ldr	r3, .L10+4
 157 00d2 9A42     		cmp	r2, r3
 158 00d4 04D8     		bhi	.L7
 159              		.loc 1 49 0 is_stmt 0 discriminator 1
 160 00d6 7B68     		ldr	r3, [r7, #4]
 161 00d8 FA22     		mov	r2, #250
 162 00da 9200     		lsl	r2, r2, #2
 163 00dc 5A80     		strh	r2, [r3, #2]
 164 00de 04E0     		b	.L6
 165              	.L7:
  50:.\wiznet_parse.c ****     else todo->rightWheels = rw;
 166              		.loc 1 50 0 is_stmt 1
 167 00e0 7B68     		ldr	r3, [r7, #4]
 168 00e2 3A1C     		mov	r2, r7
 169 00e4 1032     		add	r2, r2, #16
 170 00e6 1288     		ldrh	r2, [r2]
 171 00e8 5A80     		strh	r2, [r3, #2]
 172              	.L6:
  51:.\wiznet_parse.c ****     // done with boundary check
  52:.\wiznet_parse.c ****     
  53:.\wiznet_parse.c ****     
  54:.\wiznet_parse.c ****     int16_t peter =        ((int16_t)(((RX[16]<<8) & 0xFF00) | RX[17]) / 2) + 1500;
 173              		.loc 1 54 0
 174 00ea 3B68     		ldr	r3, [r7]
ARM GAS  C:\Users\Jared\AppData\Local\Temp\ccetJ3LV.s 			page 5


 175 00ec 1033     		add	r3, r3, #16
 176 00ee 1B78     		ldrb	r3, [r3]
 177 00f0 1B02     		lsl	r3, r3, #8
 178 00f2 9BB2     		uxth	r3, r3
 179 00f4 FF22     		mov	r2, #255
 180 00f6 9343     		bic	r3, r2
 181 00f8 9AB2     		uxth	r2, r3
 182 00fa 3B68     		ldr	r3, [r7]
 183 00fc 1133     		add	r3, r3, #17
 184 00fe 1B78     		ldrb	r3, [r3]
 185 0100 1343     		orr	r3, r2
 186 0102 9BB2     		uxth	r3, r3
 187 0104 1BB2     		sxth	r3, r3
 188 0106 002B     		cmp	r3, #0
 189 0108 00DA     		bge	.L8
 190 010a 0133     		add	r3, r3, #1
 191              	.L8:
 192 010c 5B10     		asr	r3, r3, #1
 193 010e 9BB2     		uxth	r3, r3
 194 0110 9BB2     		uxth	r3, r3
 195 0112 164A     		ldr	r2, .L10
 196 0114 9B18     		add	r3, r3, r2
 197 0116 9AB2     		uxth	r2, r3
 198 0118 3B1C     		mov	r3, r7
 199 011a 0E33     		add	r3, r3, #14
 200 011c 1A80     		strh	r2, [r3]
  55:.\wiznet_parse.c ****     int16_t tilt_a_whirl = ((int16_t)(((RX[18]<<8) & 0xFF00) | RX[19]) / 2) + 1500; 
 201              		.loc 1 55 0
 202 011e 3B68     		ldr	r3, [r7]
 203 0120 1233     		add	r3, r3, #18
 204 0122 1B78     		ldrb	r3, [r3]
 205 0124 1B02     		lsl	r3, r3, #8
 206 0126 9BB2     		uxth	r3, r3
 207 0128 FF22     		mov	r2, #255
 208 012a 9343     		bic	r3, r2
 209 012c 9AB2     		uxth	r2, r3
 210 012e 3B68     		ldr	r3, [r7]
 211 0130 1333     		add	r3, r3, #19
 212 0132 1B78     		ldrb	r3, [r3]
 213 0134 1343     		orr	r3, r2
 214 0136 9BB2     		uxth	r3, r3
 215 0138 1BB2     		sxth	r3, r3
 216 013a 002B     		cmp	r3, #0
 217 013c 00DA     		bge	.L9
 218 013e 0133     		add	r3, r3, #1
 219              	.L9:
 220 0140 5B10     		asr	r3, r3, #1
 221 0142 9BB2     		uxth	r3, r3
 222 0144 9BB2     		uxth	r3, r3
 223 0146 0949     		ldr	r1, .L10
 224 0148 5B18     		add	r3, r3, r1
 225 014a 9AB2     		uxth	r2, r3
 226 014c 3B1C     		mov	r3, r7
 227 014e 0C33     		add	r3, r3, #12
 228 0150 1A80     		strh	r2, [r3]
  56:.\wiznet_parse.c ****     
  57:.\wiznet_parse.c ****     
ARM GAS  C:\Users\Jared\AppData\Local\Temp\ccetJ3LV.s 			page 6


  58:.\wiznet_parse.c **** 	todo->gimbalPan = 	(uint16_t) peter;
 229              		.loc 1 58 0
 230 0152 3B1C     		mov	r3, r7
 231 0154 0E33     		add	r3, r3, #14
 232 0156 1A88     		ldrh	r2, [r3]
 233 0158 7B68     		ldr	r3, [r7, #4]
 234 015a 9A80     		strh	r2, [r3, #4]
  59:.\wiznet_parse.c **** 	todo->gimbalTilt = 	(uint16_t) tilt_a_whirl;
 235              		.loc 1 59 0
 236 015c 3B1C     		mov	r3, r7
 237 015e 0C33     		add	r3, r3, #12
 238 0160 1A88     		ldrh	r2, [r3]
 239 0162 7B68     		ldr	r3, [r7, #4]
 240 0164 DA80     		strh	r2, [r3, #6]
  60:.\wiznet_parse.c **** 	//printf("wiznet_parse is finished");
  61:.\wiznet_parse.c **** }
 241              		.loc 1 61 0
 242 0166 BD46     		mov	sp, r7
 243 0168 06B0     		add	sp, sp, #24
 244              		@ sp needed for prologue
 245 016a 80BD     		pop	{r7, pc}
 246              	.L11:
 247              		.align	2
 248              	.L10:
 249 016c DC050000 		.word	1500
 250 0170 E7030000 		.word	999
 251              		.cfi_endproc
 252              	.LFE33:
 253              		.size	wiznet_parse, .-wiznet_parse
 254              		.text
 255              	.Letext0:
 256              		.file 2 "c:\\program files (x86)\\cypress\\psoc creator\\3.0\\psoc creator\\import\\gnu_cs\\arm\\4
 257              		.file 3 "./Generated_Source/PSoC4/cytypes.h"
 258              		.file 4 ".\\infoReports.h"