ARM GAS  C:\Users\wbz\AppData\Local\Temp\ccDAwRHm.s 			page 1


   1              		.cpu cortex-m0
   2              		.fpu softvfp
   3              		.eabi_attribute 20, 1
   4              		.eabi_attribute 21, 1
   5              		.eabi_attribute 23, 3
   6              		.eabi_attribute 24, 1
   7              		.eabi_attribute 25, 1
   8              		.eabi_attribute 26, 1
   9              		.eabi_attribute 30, 6
  10              		.eabi_attribute 18, 4
  11              		.code	16
  12              		.file	"main.c"
  19 0000 9B000000 		.text
  19      02004500 
  19      00000201 
  19      FB0E0D00 
  19      01010101 
  20              	.Ltext0:
  21              		.cfi_sections	.debug_frame
  22              		.section	.text.putdata,"ax",%progbits
  23              		.align	2
  24              		.global	putdata
  25              		.code	16
  26              		.thumb_func
  27              		.type	putdata, %function
  28              	putdata:
  29              	.LFB20:
  30              		.file 1 ".\\main.c"
   1:.\main.c      **** /* ========================================
   2:.\main.c      ****  *
   3:.\main.c      ****   The following firmware in main.c was developed by Cypress Semiconductor
   4:.\main.c      ****   This work is licensed under a Creative Commons Attribution 3.0 Unported License.
   5:.\main.c      ****   
   6:.\main.c      ****   http://creativecommons.org/licenses/by/3.0/deed.en_US
   7:.\main.c      ****   
   8:.\main.c      ****   You are free to:
   9:.\main.c      ****   -To Share — to copy, distribute and transmit the work 
  10:.\main.c      ****   -To Remix — to adapt the work 
  11:.\main.c      ****   -To make commercial use of the work
  12:.\main.c      ****   
  13:.\main.c      ****   The tinyprintf of code is Copyright (c) 2004,2012 Kustaa Nyholm / SpareTimeLabs.
  14:.\main.c      ****   You can find the source code at http://www.sparetimelabs.com/tinyprintf/tinyprintf.php.
  15:.\main.c      ****   
  16:.\main.c      **** 
  17:.\main.c      ****  * ========================================
  18:.\main.c      **** */
  19:.\main.c      **** 
  20:.\main.c      **** #include <device.h>
  21:.\main.c      **** 
  22:.\main.c      **** #define CR 0x0D
  23:.\main.c      **** #define LF 0x0A
ARM GAS  C:\Users\wbz\AppData\Local\Temp\ccDAwRHm.s 			page 2


  24:.\main.c      **** 
  25:.\main.c      **** /* Used to insert a carriage return and line feed */
  26:.\main.c      **** #define NewLine() UART_UartPutChar(CR); UART_UartPutChar(LF);
  27:.\main.c      **** 
  28:.\main.c      **** /* For use with tinyprintf function */
  29:.\main.c      **** /* defines how the function will transmit data */
  30:.\main.c      **** void putdata ( void* p, char c)
  31:.\main.c      **** {
  31              		.loc 1 31 0
  32              		.cfi_startproc
  33 0000 80B5     		push	{r7, lr}
  34              	.LCFI0:
  35              		.cfi_def_cfa_offset 8
  36              		.cfi_offset 7, -8
  37              		.cfi_offset 14, -4
  38 0002 82B0     		sub	sp, sp, #8
  39              	.LCFI1:
  40              		.cfi_def_cfa_offset 16
  41 0004 00AF     		add	r7, sp, #0
  42              	.LCFI2:
  43              		.cfi_def_cfa_register 7
  44 0006 7860     		str	r0, [r7, #4]
  45 0008 0A1C     		mov	r2, r1
  46 000a FB1C     		add	r3, r7, #3
  47 000c 1A70     		strb	r2, [r3]
  32:.\main.c      **** 	UART_UartPutChar(c);
  48              		.loc 1 32 0
  49 000e FB1C     		add	r3, r7, #3
  50 0010 1B78     		ldrb	r3, [r3]
  51 0012 181C     		mov	r0, r3
  52 0014 FFF7FEFF 		bl	UART_SpiUartWriteTxData
  33:.\main.c      **** }
  53              		.loc 1 33 0
  54 0018 BD46     		mov	sp, r7
  55 001a 02B0     		add	sp, sp, #8
  56              		@ sp needed for prologue
  57 001c 80BD     		pop	{r7, pc}
  58              		.cfi_endproc
  59              	.LFE20:
  60              		.size	putdata, .-putdata
  61 001e C046     		.section	.rodata
  62              		.align	2
  63              	.LC3:
  64 0000 5553425F 		.ascii	"USB_UART\012\000"
  64      55415254 
  64      0A00
  65 000a 0000     		.align	2
  66              	.LC5:
  67 000c 7072696E 		.ascii	"printf Examples\000"
  67      74662045 
  67      78616D70 
  67      6C657300 
  68              		.align	2
  69              	.LC7:
  70 001c 256400   		.ascii	"%d\000"
  71 001f 00       		.align	2
  72              	.LC9:
ARM GAS  C:\Users\wbz\AppData\Local\Temp\ccDAwRHm.s 			page 3


  73 0020 257500   		.ascii	"%u\000"
  74 0023 00       		.align	2
  75              	.LC11:
  76 0024 257800   		.ascii	"%x\000"
  77 0027 00       		.align	2
  78              	.LC13:
  79 0028 255800   		.ascii	"%X\000"
  80 002b 00       		.align	2
  81              	.LC15:
  82 002c 256300   		.ascii	"%c\000"
  83 002f 00       		.align	2
  84              	.LC17:
  85 0030 257300   		.ascii	"%s\000"
  86 0033 00       		.align	2
  87              	.LC19:
  88 0034 73707269 		.ascii	"sprintf Examples\000"
  88      6E746620 
  88      4578616D 
  88      706C6573 
  88      00
  89 0045 000000   		.align	2
  90              	.LC21:
  91 0048 7369676E 		.ascii	"signed decimal: %d\000"
  91      65642064 
  91      6563696D 
  91      616C3A20 
  91      256400
  92 005b 00       		.align	2
  93              	.LC23:
  94 005c 756E7369 		.ascii	"unsigned decimal: %u\000"
  94      676E6564 
  94      20646563 
  94      696D616C 
  94      3A202575 
  95 0071 000000   		.align	2
  96              	.LC25:
  97 0074 6C6F7765 		.ascii	"lower case hex: %x\000"
  97      72206361 
  97      73652068 
  97      65783A20 
  97      257800
  98 0087 00       		.align	2
  99              	.LC27:
 100 0088 75707070 		.ascii	"uppper case hex: %X\000"
 100      65722063 
 100      61736520 
 100      6865783A 
 100      20255800 
 101              		.align	2
 102              	.LC29:
 103 009c 63686172 		.ascii	"character: %c\000"
 103      61637465 
 103      723A2025 
 103      6300
 104 00aa 0000     		.align	2
 105              	.LC31:
 106 00ac 73747269 		.ascii	"string: %s\000"
ARM GAS  C:\Users\wbz\AppData\Local\Temp\ccDAwRHm.s 			page 4


 106      6E673A20 
 106      257300
 107 00b7 00       		.align	2
 108              	.LC1:
 109 00b8 4E756C6C 		.ascii	"Null String\012\000"
 109      20537472 
 109      696E670A 
 109      00
 110 00c5 000000   		.section	.text.main,"ax",%progbits
 111              		.align	2
 112              		.global	main
 113              		.code	16
 114              		.thumb_func
 115              		.type	main, %function
 116              	main:
 117              	.LFB21:
  34:.\main.c      **** 
  35:.\main.c      **** 
  36:.\main.c      **** void main()
  37:.\main.c      **** {
 118              		.loc 1 37 0
 119              		.cfi_startproc
 120 0000 90B5     		push	{r4, r7, lr}
 121              	.LCFI3:
 122              		.cfi_def_cfa_offset 12
 123              		.cfi_offset 4, -12
 124              		.cfi_offset 7, -8
 125              		.cfi_offset 14, -4
 126 0002 93B0     		sub	sp, sp, #76
 127              	.LCFI4:
 128              		.cfi_def_cfa_offset 88
 129 0004 00AF     		add	r7, sp, #0
 130              	.LCFI5:
 131              		.cfi_def_cfa_register 7
  38:.\main.c      ****     /* Place your initialization/startup code here (e.g. MyInst_Start()) */
  39:.\main.c      **** 	
  40:.\main.c      **** 	/* Start SCB UART module */
  41:.\main.c      **** 	UART_Start();
 132              		.loc 1 41 0
 133 0006 FFF7FEFF 		bl	UART_Start
  42:.\main.c      **** 	/* initialize tinyprintf with PSoC putchar function */
  43:.\main.c      **** 	init_printf(NULL,putdata);
 134              		.loc 1 43 0
 135 000a 884B     		ldr	r3, .L6
 136 000c 0020     		mov	r0, #0
 137 000e 191C     		mov	r1, r3
 138 0010 FFF7FEFF 		bl	init_printf
  44:.\main.c      **** 
  45:.\main.c      ****     CyGlobalIntEnable; /* Uncomment this line to enable global interrupts. */
 139              		.loc 1 45 0
 140              	@ 45 ".\main.c" 1
 141 0014 62B6     		CPSIE   i
 142              	@ 0 "" 2
  46:.\main.c      **** 	
  47:.\main.c      **** 	/* tinyprintf supports the following formats:
  48:.\main.c      **** 	
  49:.\main.c      **** 	'd' int as a signed decimal number
ARM GAS  C:\Users\wbz\AppData\Local\Temp\ccDAwRHm.s 			page 5


  50:.\main.c      **** 	'u' uint as a decimal number
  51:.\main.c      **** 	'c' character
  52:.\main.c      **** 	's' null terminated string
  53:.\main.c      **** 	'x' / 'X' hexadecimal with lower / upper case letters
  54:.\main.c      **** 	
  55:.\main.c      **** 	*/
  56:.\main.c      **** 	
  57:.\main.c      **** 	int8 d = -10;
 143              		.loc 1 57 0
 144              		.code	16
 145 0016 3A1C     		mov	r2, r7
 146 0018 4532     		add	r2, r2, #69
 147 001a 0A23     		mov	r3, #10
 148 001c 5B42     		neg	r3, r3
 149 001e 1370     		strb	r3, [r2]
  58:.\main.c      **** 	uint8 u = 127;
 150              		.loc 1 58 0
 151 0020 3B1C     		mov	r3, r7
 152 0022 4633     		add	r3, r3, #70
 153 0024 7F22     		mov	r2, #127
 154 0026 1A70     		strb	r2, [r3]
  59:.\main.c      **** 	char c = 'c';
 155              		.loc 1 59 0
 156 0028 3B1C     		mov	r3, r7
 157 002a 4733     		add	r3, r3, #71
 158 002c 6322     		mov	r2, #99
 159 002e 1A70     		strb	r2, [r3]
  60:.\main.c      **** 	const char s[] = "Null String\n";
 160              		.loc 1 60 0
 161 0030 3B1C     		mov	r3, r7
 162 0032 3833     		add	r3, r3, #56
 163 0034 7E4A     		ldr	r2, .L6+4
 164 0036 13CA     		ldmia	r2!, {r0, r1, r4}
 165 0038 13C3     		stmia	r3!, {r0, r1, r4}
 166 003a 1278     		ldrb	r2, [r2]
 167 003c 1A70     		strb	r2, [r3]
  61:.\main.c      **** 	char buffer[50];
  62:.\main.c      **** 
  63:.\main.c      **** 	/* Place your application code here. */
  64:.\main.c      **** 
  65:.\main.c      **** 	UART_UartPutString("USB_UART\n");
 168              		.loc 1 65 0
 169 003e 7D4B     		ldr	r3, .L6+8
 170 0040 181C     		mov	r0, r3
 171 0042 FFF7FEFF 		bl	UART_UartPutString
  66:.\main.c      **** 	NewLine();
 172              		.loc 1 66 0
 173 0046 0D20     		mov	r0, #13
 174 0048 FFF7FEFF 		bl	UART_SpiUartWriteTxData
 175 004c 0A20     		mov	r0, #10
 176 004e FFF7FEFF 		bl	UART_SpiUartWriteTxData
  67:.\main.c      **** 	NewLine();
 177              		.loc 1 67 0
 178 0052 0D20     		mov	r0, #13
 179 0054 FFF7FEFF 		bl	UART_SpiUartWriteTxData
 180 0058 0A20     		mov	r0, #10
 181 005a FFF7FEFF 		bl	UART_SpiUartWriteTxData
ARM GAS  C:\Users\wbz\AppData\Local\Temp\ccDAwRHm.s 			page 6


  68:.\main.c      **** 
  69:.\main.c      **** 	/* printf examples */
  70:.\main.c      **** 
  71:.\main.c      **** 	UART_UartPutString("printf Examples");
 182              		.loc 1 71 0
 183 005e 764B     		ldr	r3, .L6+12
 184 0060 181C     		mov	r0, r3
 185 0062 FFF7FEFF 		bl	UART_UartPutString
  72:.\main.c      **** 	NewLine();
 186              		.loc 1 72 0
 187 0066 0D20     		mov	r0, #13
 188 0068 FFF7FEFF 		bl	UART_SpiUartWriteTxData
 189 006c 0A20     		mov	r0, #10
 190 006e FFF7FEFF 		bl	UART_SpiUartWriteTxData
  73:.\main.c      **** 	NewLine();
 191              		.loc 1 73 0
 192 0072 0D20     		mov	r0, #13
 193 0074 FFF7FEFF 		bl	UART_SpiUartWriteTxData
 194 0078 0A20     		mov	r0, #10
 195 007a FFF7FEFF 		bl	UART_SpiUartWriteTxData
  74:.\main.c      **** 
  75:.\main.c      **** 	/* print variables using printf */
  76:.\main.c      **** 	printf("%d", d);
 196              		.loc 1 76 0
 197 007e 3B1C     		mov	r3, r7
 198 0080 4533     		add	r3, r3, #69
 199 0082 1B78     		ldrb	r3, [r3, #0]
 200 0084 5BB2     		sxtb	r3, r3
 201 0086 6D4A     		ldr	r2, .L6+16
 202 0088 101C     		mov	r0, r2
 203 008a 191C     		mov	r1, r3
 204 008c FFF7FEFF 		bl	tfp_printf
  77:.\main.c      **** 	NewLine();
 205              		.loc 1 77 0
 206 0090 0D20     		mov	r0, #13
 207 0092 FFF7FEFF 		bl	UART_SpiUartWriteTxData
 208 0096 0A20     		mov	r0, #10
 209 0098 FFF7FEFF 		bl	UART_SpiUartWriteTxData
  78:.\main.c      **** 	printf("%u", u);
 210              		.loc 1 78 0
 211 009c 3B1C     		mov	r3, r7
 212 009e 4633     		add	r3, r3, #70
 213 00a0 1B78     		ldrb	r3, [r3]
 214 00a2 674A     		ldr	r2, .L6+20
 215 00a4 101C     		mov	r0, r2
 216 00a6 191C     		mov	r1, r3
 217 00a8 FFF7FEFF 		bl	tfp_printf
  79:.\main.c      **** 	NewLine();
 218              		.loc 1 79 0
 219 00ac 0D20     		mov	r0, #13
 220 00ae FFF7FEFF 		bl	UART_SpiUartWriteTxData
 221 00b2 0A20     		mov	r0, #10
 222 00b4 FFF7FEFF 		bl	UART_SpiUartWriteTxData
  80:.\main.c      **** 	printf("%x", u);
 223              		.loc 1 80 0
 224 00b8 3B1C     		mov	r3, r7
 225 00ba 4633     		add	r3, r3, #70
ARM GAS  C:\Users\wbz\AppData\Local\Temp\ccDAwRHm.s 			page 7


 226 00bc 1B78     		ldrb	r3, [r3]
 227 00be 614A     		ldr	r2, .L6+24
 228 00c0 101C     		mov	r0, r2
 229 00c2 191C     		mov	r1, r3
 230 00c4 FFF7FEFF 		bl	tfp_printf
  81:.\main.c      **** 	NewLine();
 231              		.loc 1 81 0
 232 00c8 0D20     		mov	r0, #13
 233 00ca FFF7FEFF 		bl	UART_SpiUartWriteTxData
 234 00ce 0A20     		mov	r0, #10
 235 00d0 FFF7FEFF 		bl	UART_SpiUartWriteTxData
  82:.\main.c      **** 	printf("%X", u);
 236              		.loc 1 82 0
 237 00d4 3B1C     		mov	r3, r7
 238 00d6 4633     		add	r3, r3, #70
 239 00d8 1B78     		ldrb	r3, [r3]
 240 00da 5B4A     		ldr	r2, .L6+28
 241 00dc 101C     		mov	r0, r2
 242 00de 191C     		mov	r1, r3
 243 00e0 FFF7FEFF 		bl	tfp_printf
  83:.\main.c      **** 	NewLine();
 244              		.loc 1 83 0
 245 00e4 0D20     		mov	r0, #13
 246 00e6 FFF7FEFF 		bl	UART_SpiUartWriteTxData
 247 00ea 0A20     		mov	r0, #10
 248 00ec FFF7FEFF 		bl	UART_SpiUartWriteTxData
  84:.\main.c      **** 	printf("%c", c);
 249              		.loc 1 84 0
 250 00f0 3B1C     		mov	r3, r7
 251 00f2 4733     		add	r3, r3, #71
 252 00f4 1B78     		ldrb	r3, [r3]
 253 00f6 554A     		ldr	r2, .L6+32
 254 00f8 101C     		mov	r0, r2
 255 00fa 191C     		mov	r1, r3
 256 00fc FFF7FEFF 		bl	tfp_printf
  85:.\main.c      **** 	NewLine();
 257              		.loc 1 85 0
 258 0100 0D20     		mov	r0, #13
 259 0102 FFF7FEFF 		bl	UART_SpiUartWriteTxData
 260 0106 0A20     		mov	r0, #10
 261 0108 FFF7FEFF 		bl	UART_SpiUartWriteTxData
  86:.\main.c      **** 	printf("%s", s);
 262              		.loc 1 86 0
 263 010c 504A     		ldr	r2, .L6+36
 264 010e 3B1C     		mov	r3, r7
 265 0110 3833     		add	r3, r3, #56
 266 0112 101C     		mov	r0, r2
 267 0114 191C     		mov	r1, r3
 268 0116 FFF7FEFF 		bl	tfp_printf
  87:.\main.c      **** 	NewLine();
 269              		.loc 1 87 0
 270 011a 0D20     		mov	r0, #13
 271 011c FFF7FEFF 		bl	UART_SpiUartWriteTxData
 272 0120 0A20     		mov	r0, #10
 273 0122 FFF7FEFF 		bl	UART_SpiUartWriteTxData
  88:.\main.c      **** 	
  89:.\main.c      **** 	/* sprintf examples */
ARM GAS  C:\Users\wbz\AppData\Local\Temp\ccDAwRHm.s 			page 8


  90:.\main.c      **** 	
  91:.\main.c      **** 	UART_UartPutString("sprintf Examples");
 274              		.loc 1 91 0
 275 0126 4B4B     		ldr	r3, .L6+40
 276 0128 181C     		mov	r0, r3
 277 012a FFF7FEFF 		bl	UART_UartPutString
  92:.\main.c      **** 	NewLine();
 278              		.loc 1 92 0
 279 012e 0D20     		mov	r0, #13
 280 0130 FFF7FEFF 		bl	UART_SpiUartWriteTxData
 281 0134 0A20     		mov	r0, #10
 282 0136 FFF7FEFF 		bl	UART_SpiUartWriteTxData
  93:.\main.c      **** 	NewLine();
 283              		.loc 1 93 0
 284 013a 0D20     		mov	r0, #13
 285 013c FFF7FEFF 		bl	UART_SpiUartWriteTxData
 286 0140 0A20     		mov	r0, #10
 287 0142 FFF7FEFF 		bl	UART_SpiUartWriteTxData
  94:.\main.c      **** 	
  95:.\main.c      **** 	sprintf(buffer, "signed decimal: %d",d);
 288              		.loc 1 95 0
 289 0146 3B1C     		mov	r3, r7
 290 0148 4533     		add	r3, r3, #69
 291 014a 1B78     		ldrb	r3, [r3, #0]
 292 014c 5BB2     		sxtb	r3, r3
 293 014e 391D     		add	r1, r7, #4
 294 0150 414A     		ldr	r2, .L6+44
 295 0152 081C     		mov	r0, r1
 296 0154 111C     		mov	r1, r2
 297 0156 1A1C     		mov	r2, r3
 298 0158 FFF7FEFF 		bl	tfp_sprintf
  96:.\main.c      **** 	UART_UartPutString(buffer);
 299              		.loc 1 96 0
 300 015c 3B1D     		add	r3, r7, #4
 301 015e 181C     		mov	r0, r3
 302 0160 FFF7FEFF 		bl	UART_UartPutString
  97:.\main.c      **** 	NewLine();
 303              		.loc 1 97 0
 304 0164 0D20     		mov	r0, #13
 305 0166 FFF7FEFF 		bl	UART_SpiUartWriteTxData
 306 016a 0A20     		mov	r0, #10
 307 016c FFF7FEFF 		bl	UART_SpiUartWriteTxData
  98:.\main.c      **** 	
  99:.\main.c      **** 	sprintf(buffer, "unsigned decimal: %u",u);
 308              		.loc 1 99 0
 309 0170 3B1C     		mov	r3, r7
 310 0172 4633     		add	r3, r3, #70
 311 0174 1B78     		ldrb	r3, [r3]
 312 0176 391D     		add	r1, r7, #4
 313 0178 384A     		ldr	r2, .L6+48
 314 017a 081C     		mov	r0, r1
 315 017c 111C     		mov	r1, r2
 316 017e 1A1C     		mov	r2, r3
 317 0180 FFF7FEFF 		bl	tfp_sprintf
 100:.\main.c      **** 	UART_UartPutString(buffer);
 318              		.loc 1 100 0
 319 0184 3B1D     		add	r3, r7, #4
ARM GAS  C:\Users\wbz\AppData\Local\Temp\ccDAwRHm.s 			page 9


 320 0186 181C     		mov	r0, r3
 321 0188 FFF7FEFF 		bl	UART_UartPutString
 101:.\main.c      **** 	NewLine();
 322              		.loc 1 101 0
 323 018c 0D20     		mov	r0, #13
 324 018e FFF7FEFF 		bl	UART_SpiUartWriteTxData
 325 0192 0A20     		mov	r0, #10
 326 0194 FFF7FEFF 		bl	UART_SpiUartWriteTxData
 102:.\main.c      **** 	
 103:.\main.c      **** 	sprintf(buffer, "lower case hex: %x",u);
 327              		.loc 1 103 0
 328 0198 3B1C     		mov	r3, r7
 329 019a 4633     		add	r3, r3, #70
 330 019c 1B78     		ldrb	r3, [r3]
 331 019e 391D     		add	r1, r7, #4
 332 01a0 2F4A     		ldr	r2, .L6+52
 333 01a2 081C     		mov	r0, r1
 334 01a4 111C     		mov	r1, r2
 335 01a6 1A1C     		mov	r2, r3
 336 01a8 FFF7FEFF 		bl	tfp_sprintf
 104:.\main.c      **** 	UART_UartPutString(buffer);
 337              		.loc 1 104 0
 338 01ac 3B1D     		add	r3, r7, #4
 339 01ae 181C     		mov	r0, r3
 340 01b0 FFF7FEFF 		bl	UART_UartPutString
 105:.\main.c      **** 	NewLine();
 341              		.loc 1 105 0
 342 01b4 0D20     		mov	r0, #13
 343 01b6 FFF7FEFF 		bl	UART_SpiUartWriteTxData
 344 01ba 0A20     		mov	r0, #10
 345 01bc FFF7FEFF 		bl	UART_SpiUartWriteTxData
 106:.\main.c      **** 	
 107:.\main.c      **** 	sprintf(buffer, "uppper case hex: %X",u);
 346              		.loc 1 107 0
 347 01c0 3B1C     		mov	r3, r7
 348 01c2 4633     		add	r3, r3, #70
 349 01c4 1B78     		ldrb	r3, [r3]
 350 01c6 391D     		add	r1, r7, #4
 351 01c8 264A     		ldr	r2, .L6+56
 352 01ca 081C     		mov	r0, r1
 353 01cc 111C     		mov	r1, r2
 354 01ce 1A1C     		mov	r2, r3
 355 01d0 FFF7FEFF 		bl	tfp_sprintf
 108:.\main.c      **** 	UART_UartPutString(buffer);
 356              		.loc 1 108 0
 357 01d4 3B1D     		add	r3, r7, #4
 358 01d6 181C     		mov	r0, r3
 359 01d8 FFF7FEFF 		bl	UART_UartPutString
 109:.\main.c      **** 	NewLine();
 360              		.loc 1 109 0
 361 01dc 0D20     		mov	r0, #13
 362 01de FFF7FEFF 		bl	UART_SpiUartWriteTxData
 363 01e2 0A20     		mov	r0, #10
 364 01e4 FFF7FEFF 		bl	UART_SpiUartWriteTxData
 110:.\main.c      **** 	
 111:.\main.c      **** 	sprintf(buffer, "character: %c",c);
 365              		.loc 1 111 0
ARM GAS  C:\Users\wbz\AppData\Local\Temp\ccDAwRHm.s 			page 10


 366 01e8 3B1C     		mov	r3, r7
 367 01ea 4733     		add	r3, r3, #71
 368 01ec 1B78     		ldrb	r3, [r3]
 369 01ee 391D     		add	r1, r7, #4
 370 01f0 1D4A     		ldr	r2, .L6+60
 371 01f2 081C     		mov	r0, r1
 372 01f4 111C     		mov	r1, r2
 373 01f6 1A1C     		mov	r2, r3
 374 01f8 FFF7FEFF 		bl	tfp_sprintf
 112:.\main.c      **** 	UART_UartPutString(buffer);
 375              		.loc 1 112 0
 376 01fc 3B1D     		add	r3, r7, #4
 377 01fe 181C     		mov	r0, r3
 378 0200 FFF7FEFF 		bl	UART_UartPutString
 113:.\main.c      **** 	NewLine();
 379              		.loc 1 113 0
 380 0204 0D20     		mov	r0, #13
 381 0206 FFF7FEFF 		bl	UART_SpiUartWriteTxData
 382 020a 0A20     		mov	r0, #10
 383 020c FFF7FEFF 		bl	UART_SpiUartWriteTxData
 114:.\main.c      **** 	
 115:.\main.c      **** 	sprintf(buffer, "string: %s",s);
 384              		.loc 1 115 0
 385 0210 391D     		add	r1, r7, #4
 386 0212 164A     		ldr	r2, .L6+64
 387 0214 3B1C     		mov	r3, r7
 388 0216 3833     		add	r3, r3, #56
 389 0218 081C     		mov	r0, r1
 390 021a 111C     		mov	r1, r2
 391 021c 1A1C     		mov	r2, r3
 392 021e FFF7FEFF 		bl	tfp_sprintf
 116:.\main.c      **** 	UART_UartPutString(buffer);
 393              		.loc 1 116 0
 394 0222 3B1D     		add	r3, r7, #4
 395 0224 181C     		mov	r0, r3
 396 0226 FFF7FEFF 		bl	UART_UartPutString
 397              	.L4:
 117:.\main.c      **** 	
 118:.\main.c      ****     for(;;)
 119:.\main.c      ****     {
 120:.\main.c      **** 
 121:.\main.c      ****     }
 398              		.loc 1 121 0
 399 022a FEE7     		b	.L4
 400              	.L7:
 401              		.align	2
 402              	.L6:
 403 022c 00000000 		.word	putdata
 404 0230 B8000000 		.word	.LC1
 405 0234 00000000 		.word	.LC3
 406 0238 0C000000 		.word	.LC5
 407 023c 1C000000 		.word	.LC7
 408 0240 20000000 		.word	.LC9
 409 0244 24000000 		.word	.LC11
 410 0248 28000000 		.word	.LC13
 411 024c 2C000000 		.word	.LC15
 412 0250 30000000 		.word	.LC17
ARM GAS  C:\Users\wbz\AppData\Local\Temp\ccDAwRHm.s 			page 11


 413 0254 34000000 		.word	.LC19
 414 0258 48000000 		.word	.LC21
 415 025c 5C000000 		.word	.LC23
 416 0260 74000000 		.word	.LC25
 417 0264 88000000 		.word	.LC27
 418 0268 9C000000 		.word	.LC29
 419 026c AC000000 		.word	.LC31
 420              		.cfi_endproc
 421              	.LFE21:
 422              		.size	main, .-main
 423              		.text
 424              	.Letext0: