ARM GAS  C:\Users\wbz\AppData\Local\Temp\ccaHY7UK.s 			page 1


   1              		.cpu cortex-m0
   2              		.fpu softvfp
   3              		.eabi_attribute 20, 1
   4              		.eabi_attribute 21, 1
   5              		.eabi_attribute 23, 3
   6              		.eabi_attribute 24, 1
   7              		.eabi_attribute 25, 1
   8              		.eabi_attribute 26, 1
   9              		.eabi_attribute 30, 6
  10              		.eabi_attribute 18, 4
  11              		.code	16
  12              		.file	"tinyprintf_printf.c"
  19 0000 DB010000 		.text
  19      0200C900 
  19      00000201 
  19      FB0E0D00 
  19      01010101 
  20              	.Ltext0:
  21              		.cfi_sections	.debug_frame
  22              		.bss
  23              		.align	2
  24              	stdout_putf:
  25 0000 00000000 		.space	4
  26              		.align	2
  27              	stdout_putp:
  28 0004 00000000 		.space	4
  29              		.global	__aeabi_uidiv
  30              		.global	__aeabi_uidivmod
  31              		.section	.text.ui2a,"ax",%progbits
  32              		.align	2
  33              		.code	16
  34              		.thumb_func
  35              		.type	ui2a, %function
  36              	ui2a:
  37              	.LFB0:
  38              		.file 1 ".\\Generated_Source\\PSoC4\\tinyprintf_printf.c"
   1:.\Generated_Source\PSoC4/tinyprintf_printf.c **** /*
   2:.\Generated_Source\PSoC4/tinyprintf_printf.c ****  * Copyright (c) 2004,2012 Kustaa Nyholm / SpareTimeLabs
   3:.\Generated_Source\PSoC4/tinyprintf_printf.c ****  *
   4:.\Generated_Source\PSoC4/tinyprintf_printf.c ****  * All rights reserved.
   5:.\Generated_Source\PSoC4/tinyprintf_printf.c ****  *
   6:.\Generated_Source\PSoC4/tinyprintf_printf.c ****  * Redistribution and use in source and binary forms, with or without modification, 
   7:.\Generated_Source\PSoC4/tinyprintf_printf.c ****  * are permitted provided that the following conditions are met:
   8:.\Generated_Source\PSoC4/tinyprintf_printf.c ****  *
   9:.\Generated_Source\PSoC4/tinyprintf_printf.c ****  * Redistributions of source code must retain the above copyright notice, this list 
  10:.\Generated_Source\PSoC4/tinyprintf_printf.c ****  * of conditions and the following disclaimer.
  11:.\Generated_Source\PSoC4/tinyprintf_printf.c ****  * 
  12:.\Generated_Source\PSoC4/tinyprintf_printf.c ****  * Redistributions in binary form must reproduce the above copyright notice, this 
  13:.\Generated_Source\PSoC4/tinyprintf_printf.c ****  * list of conditions and the following disclaimer in the documentation and/or other
  14:.\Generated_Source\PSoC4/tinyprintf_printf.c ****  * materials provided with the distribution.
  15:.\Generated_Source\PSoC4/tinyprintf_printf.c ****  *  
ARM GAS  C:\Users\wbz\AppData\Local\Temp\ccaHY7UK.s 			page 2


  16:.\Generated_Source\PSoC4/tinyprintf_printf.c ****  * Neither the name of the Kustaa Nyholm or SpareTimeLabs nor the names of its 
  17:.\Generated_Source\PSoC4/tinyprintf_printf.c ****  * contributors may be used to endorse or promote products derived from this software 
  18:.\Generated_Source\PSoC4/tinyprintf_printf.c ****  * without specific prior written permission.
  19:.\Generated_Source\PSoC4/tinyprintf_printf.c ****  * 
  20:.\Generated_Source\PSoC4/tinyprintf_printf.c ****  * THIS SOFTWARE IS PROVIDED BY THE COPYRIGHT HOLDERS AND CONTRIBUTORS "AS IS" 
  21:.\Generated_Source\PSoC4/tinyprintf_printf.c ****  * AND ANY EXPRESS OR IMPLIED WARRANTIES, INCLUDING, BUT NOT LIMITED TO, THE IMPLIED 
  22:.\Generated_Source\PSoC4/tinyprintf_printf.c ****  * WARRANTIES OF MERCHANTABILITY AND FITNESS FOR A PARTICULAR PURPOSE ARE DISCLAIMED. 
  23:.\Generated_Source\PSoC4/tinyprintf_printf.c ****  * IN NO EVENT SHALL THE COPYRIGHT HOLDER OR CONTRIBUTORS BE LIABLE FOR ANY DIRECT, 
  24:.\Generated_Source\PSoC4/tinyprintf_printf.c ****  * INDIRECT, INCIDENTAL, SPECIAL, EXEMPLARY, OR CONSEQUENTIAL DAMAGES (INCLUDING, BUT 
  25:.\Generated_Source\PSoC4/tinyprintf_printf.c ****  * NOT LIMITED TO, PROCUREMENT OF SUBSTITUTE GOODS OR SERVICES; LOSS OF USE, DATA, 
  26:.\Generated_Source\PSoC4/tinyprintf_printf.c ****  * OR PROFITS; OR BUSINESS INTERRUPTION) HOWEVER CAUSED AND ON ANY THEORY OF LIABILITY, 
  27:.\Generated_Source\PSoC4/tinyprintf_printf.c ****  * WHETHER IN CONTRACT, STRICT LIABILITY, OR TORT (INCLUDING NEGLIGENCE OR OTHERWISE) 
  28:.\Generated_Source\PSoC4/tinyprintf_printf.c ****  * ARISING IN ANY WAY OUT OF THE USE OF THIS SOFTWARE, EVEN IF ADVISED OF THE POSSIBILITY
  29:.\Generated_Source\PSoC4/tinyprintf_printf.c ****  * OF SUCH DAMAGE.
  30:.\Generated_Source\PSoC4/tinyprintf_printf.c ****  */
  31:.\Generated_Source\PSoC4/tinyprintf_printf.c **** 
  32:.\Generated_Source\PSoC4/tinyprintf_printf.c **** #include "tinyprintf_printf.h"
  33:.\Generated_Source\PSoC4/tinyprintf_printf.c **** 
  34:.\Generated_Source\PSoC4/tinyprintf_printf.c **** typedef void (*putcf) (void*,char);
  35:.\Generated_Source\PSoC4/tinyprintf_printf.c **** static putcf stdout_putf;
  36:.\Generated_Source\PSoC4/tinyprintf_printf.c **** static void* stdout_putp;
  37:.\Generated_Source\PSoC4/tinyprintf_printf.c **** 
  38:.\Generated_Source\PSoC4/tinyprintf_printf.c **** 
  39:.\Generated_Source\PSoC4/tinyprintf_printf.c **** #ifdef PRINTF_LONG_SUPPORT
  40:.\Generated_Source\PSoC4/tinyprintf_printf.c **** 
  41:.\Generated_Source\PSoC4/tinyprintf_printf.c **** static void uli2a(unsigned long int num, unsigned int base, int uc,char * bf)
  42:.\Generated_Source\PSoC4/tinyprintf_printf.c **** 	{
  43:.\Generated_Source\PSoC4/tinyprintf_printf.c **** 	int n=0;
  44:.\Generated_Source\PSoC4/tinyprintf_printf.c **** 	unsigned int d=1;
  45:.\Generated_Source\PSoC4/tinyprintf_printf.c **** 	while (num/d >= base)
  46:.\Generated_Source\PSoC4/tinyprintf_printf.c **** 		d*=base;		 
  47:.\Generated_Source\PSoC4/tinyprintf_printf.c **** 	while (d!=0) {
  48:.\Generated_Source\PSoC4/tinyprintf_printf.c **** 		int dgt = num / d;
  49:.\Generated_Source\PSoC4/tinyprintf_printf.c **** 		num%=d;
  50:.\Generated_Source\PSoC4/tinyprintf_printf.c **** 		d/=base;
  51:.\Generated_Source\PSoC4/tinyprintf_printf.c **** 		if (n || dgt>0|| d==0) {
  52:.\Generated_Source\PSoC4/tinyprintf_printf.c **** 			*bf++ = dgt+(dgt<10 ? '0' : (uc ? 'A' : 'a')-10);
  53:.\Generated_Source\PSoC4/tinyprintf_printf.c **** 			++n;
  54:.\Generated_Source\PSoC4/tinyprintf_printf.c **** 			}
  55:.\Generated_Source\PSoC4/tinyprintf_printf.c **** 		}
  56:.\Generated_Source\PSoC4/tinyprintf_printf.c **** 	*bf=0;
  57:.\Generated_Source\PSoC4/tinyprintf_printf.c **** 	}
  58:.\Generated_Source\PSoC4/tinyprintf_printf.c **** 
  59:.\Generated_Source\PSoC4/tinyprintf_printf.c **** static void li2a (long num, char * bf)
  60:.\Generated_Source\PSoC4/tinyprintf_printf.c **** 	{
  61:.\Generated_Source\PSoC4/tinyprintf_printf.c **** 	if (num<0) {
  62:.\Generated_Source\PSoC4/tinyprintf_printf.c **** 		num=-num;
  63:.\Generated_Source\PSoC4/tinyprintf_printf.c **** 		*bf++ = '-';
  64:.\Generated_Source\PSoC4/tinyprintf_printf.c **** 		}
  65:.\Generated_Source\PSoC4/tinyprintf_printf.c **** 	uli2a(num,10,0,bf);
  66:.\Generated_Source\PSoC4/tinyprintf_printf.c **** 	}
  67:.\Generated_Source\PSoC4/tinyprintf_printf.c **** 
  68:.\Generated_Source\PSoC4/tinyprintf_printf.c **** #endif
  69:.\Generated_Source\PSoC4/tinyprintf_printf.c **** 
  70:.\Generated_Source\PSoC4/tinyprintf_printf.c **** static void ui2a(unsigned int num, unsigned int base, int uc,char * bf)
  71:.\Generated_Source\PSoC4/tinyprintf_printf.c **** 	{
  39              		.loc 1 71 0
ARM GAS  C:\Users\wbz\AppData\Local\Temp\ccaHY7UK.s 			page 3


  40              		.cfi_startproc
  41 0000 80B5     		push	{r7, lr}
  42              	.LCFI0:
  43              		.cfi_def_cfa_offset 8
  44              		.cfi_offset 7, -8
  45              		.cfi_offset 14, -4
  46 0002 88B0     		sub	sp, sp, #32
  47              	.LCFI1:
  48              		.cfi_def_cfa_offset 40
  49 0004 00AF     		add	r7, sp, #0
  50              	.LCFI2:
  51              		.cfi_def_cfa_register 7
  52 0006 F860     		str	r0, [r7, #12]
  53 0008 B960     		str	r1, [r7, #8]
  54 000a 7A60     		str	r2, [r7, #4]
  55 000c 3B60     		str	r3, [r7]
  72:.\Generated_Source\PSoC4/tinyprintf_printf.c **** 	int n=0;
  56              		.loc 1 72 0
  57 000e 0023     		mov	r3, #0
  58 0010 7B61     		str	r3, [r7, #20]
  73:.\Generated_Source\PSoC4/tinyprintf_printf.c **** 	unsigned int d=1;
  59              		.loc 1 73 0
  60 0012 0123     		mov	r3, #1
  61 0014 BB61     		str	r3, [r7, #24]
  74:.\Generated_Source\PSoC4/tinyprintf_printf.c **** 	while (num/d >= base)
  62              		.loc 1 74 0
  63 0016 03E0     		b	.L2
  64              	.L3:
  75:.\Generated_Source\PSoC4/tinyprintf_printf.c **** 		d*=base;		
  65              		.loc 1 75 0
  66 0018 BB69     		ldr	r3, [r7, #24]
  67 001a BA68     		ldr	r2, [r7, #8]
  68 001c 5343     		mul	r3, r2
  69 001e BB61     		str	r3, [r7, #24]
  70              	.L2:
  71              		.loc 1 74 0
  72 0020 F868     		ldr	r0, [r7, #12]
  73 0022 B969     		ldr	r1, [r7, #24]
  74 0024 FFF7FEFF 		bl	__aeabi_uidiv
  75 0028 031C     		mov	r3, r0
  76 002a 1A1C     		mov	r2, r3
  77 002c BB68     		ldr	r3, [r7, #8]
  78 002e 9A42     		cmp	r2, r3
  79 0030 F2D2     		bcs	.L3
  76:.\Generated_Source\PSoC4/tinyprintf_printf.c **** 	while (d!=0) {
  80              		.loc 1 76 0
  81 0032 32E0     		b	.L4
  82              	.L10:
  83              	.LBB2:
  77:.\Generated_Source\PSoC4/tinyprintf_printf.c **** 		int dgt = num / d;
  84              		.loc 1 77 0
  85 0034 F868     		ldr	r0, [r7, #12]
  86 0036 B969     		ldr	r1, [r7, #24]
  87 0038 FFF7FEFF 		bl	__aeabi_uidiv
  88 003c 031C     		mov	r3, r0
  89 003e FB61     		str	r3, [r7, #28]
  78:.\Generated_Source\PSoC4/tinyprintf_printf.c **** 		num%= d;
ARM GAS  C:\Users\wbz\AppData\Local\Temp\ccaHY7UK.s 			page 4


  90              		.loc 1 78 0
  91 0040 FB68     		ldr	r3, [r7, #12]
  92 0042 181C     		mov	r0, r3
  93 0044 B969     		ldr	r1, [r7, #24]
  94 0046 FFF7FEFF 		bl	__aeabi_uidivmod
  95 004a 0B1C     		mov	r3, r1
  96 004c FB60     		str	r3, [r7, #12]
  79:.\Generated_Source\PSoC4/tinyprintf_printf.c **** 		d/=base;
  97              		.loc 1 79 0
  98 004e B869     		ldr	r0, [r7, #24]
  99 0050 B968     		ldr	r1, [r7, #8]
 100 0052 FFF7FEFF 		bl	__aeabi_uidiv
 101 0056 031C     		mov	r3, r0
 102 0058 BB61     		str	r3, [r7, #24]
  80:.\Generated_Source\PSoC4/tinyprintf_printf.c **** 		if (n || dgt>0 || d==0) {
 103              		.loc 1 80 0
 104 005a 7B69     		ldr	r3, [r7, #20]
 105 005c 002B     		cmp	r3, #0
 106 005e 05D1     		bne	.L5
 107 0060 FB69     		ldr	r3, [r7, #28]
 108 0062 002B     		cmp	r3, #0
 109 0064 02DC     		bgt	.L5
 110 0066 BB69     		ldr	r3, [r7, #24]
 111 0068 002B     		cmp	r3, #0
 112 006a 16D1     		bne	.L4
 113              	.L5:
  81:.\Generated_Source\PSoC4/tinyprintf_printf.c **** 			*bf++ = dgt+(dgt<10 ? '0' : (uc ? 'A' : 'a')-10);
 114              		.loc 1 81 0
 115 006c FB69     		ldr	r3, [r7, #28]
 116 006e 092B     		cmp	r3, #9
 117 0070 06DD     		ble	.L6
 118 0072 7B68     		ldr	r3, [r7, #4]
 119 0074 002B     		cmp	r3, #0
 120 0076 01D0     		beq	.L7
 121 0078 3723     		mov	r3, #55
 122 007a 00E0     		b	.L8
 123              	.L7:
 124 007c 5723     		mov	r3, #87
 125              	.L8:
 126 007e 00E0     		b	.L9
 127              	.L6:
 128 0080 3023     		mov	r3, #48
 129              	.L9:
 130 0082 FA69     		ldr	r2, [r7, #28]
 131 0084 D2B2     		uxtb	r2, r2
 132 0086 9B18     		add	r3, r3, r2
 133 0088 DAB2     		uxtb	r2, r3
 134 008a 3B68     		ldr	r3, [r7]
 135 008c 1A70     		strb	r2, [r3]
 136 008e 3B68     		ldr	r3, [r7]
 137 0090 0133     		add	r3, r3, #1
 138 0092 3B60     		str	r3, [r7]
  82:.\Generated_Source\PSoC4/tinyprintf_printf.c **** 			++n;
 139              		.loc 1 82 0
 140 0094 7B69     		ldr	r3, [r7, #20]
 141 0096 0133     		add	r3, r3, #1
 142 0098 7B61     		str	r3, [r7, #20]
ARM GAS  C:\Users\wbz\AppData\Local\Temp\ccaHY7UK.s 			page 5


 143              	.L4:
 144              	.LBE2:
 145              		.loc 1 76 0
 146 009a BB69     		ldr	r3, [r7, #24]
 147 009c 002B     		cmp	r3, #0
 148 009e C9D1     		bne	.L10
  83:.\Generated_Source\PSoC4/tinyprintf_printf.c **** 			}
  84:.\Generated_Source\PSoC4/tinyprintf_printf.c **** 		}
  85:.\Generated_Source\PSoC4/tinyprintf_printf.c **** 	*bf=0;
 149              		.loc 1 85 0
 150 00a0 3B68     		ldr	r3, [r7]
 151 00a2 0022     		mov	r2, #0
 152 00a4 1A70     		strb	r2, [r3]
  86:.\Generated_Source\PSoC4/tinyprintf_printf.c **** 	}
 153              		.loc 1 86 0
 154 00a6 BD46     		mov	sp, r7
 155 00a8 08B0     		add	sp, sp, #32
 156              		@ sp needed for prologue
 157 00aa 80BD     		pop	{r7, pc}
 158              		.cfi_endproc
 159              	.LFE0:
 160              		.size	ui2a, .-ui2a
 161              		.section	.text.i2a,"ax",%progbits
 162              		.align	2
 163              		.code	16
 164              		.thumb_func
 165              		.type	i2a, %function
 166              	i2a:
 167              	.LFB1:
  87:.\Generated_Source\PSoC4/tinyprintf_printf.c **** 
  88:.\Generated_Source\PSoC4/tinyprintf_printf.c **** static void i2a (int num, char * bf)
  89:.\Generated_Source\PSoC4/tinyprintf_printf.c **** 	{
 168              		.loc 1 89 0
 169              		.cfi_startproc
 170 0000 80B5     		push	{r7, lr}
 171              	.LCFI3:
 172              		.cfi_def_cfa_offset 8
 173              		.cfi_offset 7, -8
 174              		.cfi_offset 14, -4
 175 0002 82B0     		sub	sp, sp, #8
 176              	.LCFI4:
 177              		.cfi_def_cfa_offset 16
 178 0004 00AF     		add	r7, sp, #0
 179              	.LCFI5:
 180              		.cfi_def_cfa_register 7
 181 0006 7860     		str	r0, [r7, #4]
 182 0008 3960     		str	r1, [r7]
  90:.\Generated_Source\PSoC4/tinyprintf_printf.c **** 	if (num<0) {
 183              		.loc 1 90 0
 184 000a 7B68     		ldr	r3, [r7, #4]
 185 000c 002B     		cmp	r3, #0
 186 000e 08DA     		bge	.L13
  91:.\Generated_Source\PSoC4/tinyprintf_printf.c **** 		num=-num;
 187              		.loc 1 91 0
 188 0010 7B68     		ldr	r3, [r7, #4]
 189 0012 5B42     		neg	r3, r3
 190 0014 7B60     		str	r3, [r7, #4]
ARM GAS  C:\Users\wbz\AppData\Local\Temp\ccaHY7UK.s 			page 6


  92:.\Generated_Source\PSoC4/tinyprintf_printf.c **** 		*bf++ = '-';
 191              		.loc 1 92 0
 192 0016 3B68     		ldr	r3, [r7]
 193 0018 2D22     		mov	r2, #45
 194 001a 1A70     		strb	r2, [r3]
 195 001c 3B68     		ldr	r3, [r7]
 196 001e 0133     		add	r3, r3, #1
 197 0020 3B60     		str	r3, [r7]
 198              	.L13:
  93:.\Generated_Source\PSoC4/tinyprintf_printf.c **** 		}
  94:.\Generated_Source\PSoC4/tinyprintf_printf.c **** 	ui2a(num,10,0,bf);
 199              		.loc 1 94 0
 200 0022 7A68     		ldr	r2, [r7, #4]
 201 0024 3B68     		ldr	r3, [r7]
 202 0026 101C     		mov	r0, r2
 203 0028 0A21     		mov	r1, #10
 204 002a 0022     		mov	r2, #0
 205 002c FFF7FEFF 		bl	ui2a
  95:.\Generated_Source\PSoC4/tinyprintf_printf.c **** 	}
 206              		.loc 1 95 0
 207 0030 BD46     		mov	sp, r7
 208 0032 02B0     		add	sp, sp, #8
 209              		@ sp needed for prologue
 210 0034 80BD     		pop	{r7, pc}
 211              		.cfi_endproc
 212              	.LFE1:
 213              		.size	i2a, .-i2a
 214 0036 C046     		.section	.text.a2d,"ax",%progbits
 215              		.align	2
 216              		.code	16
 217              		.thumb_func
 218              		.type	a2d, %function
 219              	a2d:
 220              	.LFB2:
  96:.\Generated_Source\PSoC4/tinyprintf_printf.c **** 
  97:.\Generated_Source\PSoC4/tinyprintf_printf.c **** static int a2d(char ch)
  98:.\Generated_Source\PSoC4/tinyprintf_printf.c **** 	{
 221              		.loc 1 98 0
 222              		.cfi_startproc
 223 0000 80B5     		push	{r7, lr}
 224              	.LCFI6:
 225              		.cfi_def_cfa_offset 8
 226              		.cfi_offset 7, -8
 227              		.cfi_offset 14, -4
 228 0002 82B0     		sub	sp, sp, #8
 229              	.LCFI7:
 230              		.cfi_def_cfa_offset 16
 231 0004 00AF     		add	r7, sp, #0
 232              	.LCFI8:
 233              		.cfi_def_cfa_register 7
 234 0006 021C     		mov	r2, r0
 235 0008 FB1D     		add	r3, r7, #7
 236 000a 1A70     		strb	r2, [r3]
  99:.\Generated_Source\PSoC4/tinyprintf_printf.c **** 	if (ch>='0' && ch<='9') 
 237              		.loc 1 99 0
 238 000c FB1D     		add	r3, r7, #7
 239 000e 1B78     		ldrb	r3, [r3]
ARM GAS  C:\Users\wbz\AppData\Local\Temp\ccaHY7UK.s 			page 7


 240 0010 2F2B     		cmp	r3, #47
 241 0012 07D9     		bls	.L16
 242 0014 FB1D     		add	r3, r7, #7
 243 0016 1B78     		ldrb	r3, [r3]
 244 0018 392B     		cmp	r3, #57
 245 001a 03D8     		bhi	.L16
 100:.\Generated_Source\PSoC4/tinyprintf_printf.c **** 		return ch-'0';
 246              		.loc 1 100 0
 247 001c FB1D     		add	r3, r7, #7
 248 001e 1B78     		ldrb	r3, [r3]
 249 0020 303B     		sub	r3, r3, #48
 250 0022 19E0     		b	.L17
 251              	.L16:
 101:.\Generated_Source\PSoC4/tinyprintf_printf.c **** 	else if (ch>='a' && ch<='f')
 252              		.loc 1 101 0
 253 0024 FB1D     		add	r3, r7, #7
 254 0026 1B78     		ldrb	r3, [r3]
 255 0028 602B     		cmp	r3, #96
 256 002a 07D9     		bls	.L18
 257 002c FB1D     		add	r3, r7, #7
 258 002e 1B78     		ldrb	r3, [r3]
 259 0030 662B     		cmp	r3, #102
 260 0032 03D8     		bhi	.L18
 102:.\Generated_Source\PSoC4/tinyprintf_printf.c **** 		return ch-'a'+10;
 261              		.loc 1 102 0
 262 0034 FB1D     		add	r3, r7, #7
 263 0036 1B78     		ldrb	r3, [r3]
 264 0038 573B     		sub	r3, r3, #87
 265 003a 0DE0     		b	.L17
 266              	.L18:
 103:.\Generated_Source\PSoC4/tinyprintf_printf.c **** 	else if (ch>='A' && ch<='F')
 267              		.loc 1 103 0
 268 003c FB1D     		add	r3, r7, #7
 269 003e 1B78     		ldrb	r3, [r3]
 270 0040 402B     		cmp	r3, #64
 271 0042 07D9     		bls	.L19
 272 0044 FB1D     		add	r3, r7, #7
 273 0046 1B78     		ldrb	r3, [r3]
 274 0048 462B     		cmp	r3, #70
 275 004a 03D8     		bhi	.L19
 104:.\Generated_Source\PSoC4/tinyprintf_printf.c **** 		return ch-'A'+10;
 276              		.loc 1 104 0
 277 004c FB1D     		add	r3, r7, #7
 278 004e 1B78     		ldrb	r3, [r3]
 279 0050 373B     		sub	r3, r3, #55
 280 0052 01E0     		b	.L17
 281              	.L19:
 105:.\Generated_Source\PSoC4/tinyprintf_printf.c **** 	else return -1;
 282              		.loc 1 105 0
 283 0054 0123     		mov	r3, #1
 284 0056 5B42     		neg	r3, r3
 285              	.L17:
 106:.\Generated_Source\PSoC4/tinyprintf_printf.c **** 	}
 286              		.loc 1 106 0
 287 0058 181C     		mov	r0, r3
 288 005a BD46     		mov	sp, r7
 289 005c 02B0     		add	sp, sp, #8
ARM GAS  C:\Users\wbz\AppData\Local\Temp\ccaHY7UK.s 			page 8


 290              		@ sp needed for prologue
 291 005e 80BD     		pop	{r7, pc}
 292              		.cfi_endproc
 293              	.LFE2:
 294              		.size	a2d, .-a2d
 295              		.section	.text.a2i,"ax",%progbits
 296              		.align	2
 297              		.code	16
 298              		.thumb_func
 299              		.type	a2i, %function
 300              	a2i:
 301              	.LFB3:
 107:.\Generated_Source\PSoC4/tinyprintf_printf.c **** 
 108:.\Generated_Source\PSoC4/tinyprintf_printf.c **** static char a2i(char ch, char** src,int base,int* nump)
 109:.\Generated_Source\PSoC4/tinyprintf_printf.c **** 	{
 302              		.loc 1 109 0
 303              		.cfi_startproc
 304 0000 80B5     		push	{r7, lr}
 305              	.LCFI9:
 306              		.cfi_def_cfa_offset 8
 307              		.cfi_offset 7, -8
 308              		.cfi_offset 14, -4
 309 0002 88B0     		sub	sp, sp, #32
 310              	.LCFI10:
 311              		.cfi_def_cfa_offset 40
 312 0004 00AF     		add	r7, sp, #0
 313              	.LCFI11:
 314              		.cfi_def_cfa_register 7
 315 0006 B960     		str	r1, [r7, #8]
 316 0008 7A60     		str	r2, [r7, #4]
 317 000a 3B60     		str	r3, [r7]
 318 000c 3B1C     		mov	r3, r7
 319 000e 0F33     		add	r3, r3, #15
 320 0010 021C     		add	r2, r0, #0
 321 0012 1A70     		strb	r2, [r3]
 110:.\Generated_Source\PSoC4/tinyprintf_printf.c **** 	char* p= *src;
 322              		.loc 1 110 0
 323 0014 BB68     		ldr	r3, [r7, #8]
 324 0016 1B68     		ldr	r3, [r3]
 325 0018 7B61     		str	r3, [r7, #20]
 111:.\Generated_Source\PSoC4/tinyprintf_printf.c **** 	int num=0;
 326              		.loc 1 111 0
 327 001a 0023     		mov	r3, #0
 328 001c BB61     		str	r3, [r7, #24]
 112:.\Generated_Source\PSoC4/tinyprintf_printf.c **** 	int digit;
 113:.\Generated_Source\PSoC4/tinyprintf_printf.c **** 	while ((digit=a2d(ch))>=0) {
 329              		.loc 1 113 0
 330 001e 11E0     		b	.L22
 331              	.L25:
 114:.\Generated_Source\PSoC4/tinyprintf_printf.c **** 		if (digit>base) break;
 332              		.loc 1 114 0
 333 0020 FA69     		ldr	r2, [r7, #28]
 334 0022 7B68     		ldr	r3, [r7, #4]
 335 0024 9A42     		cmp	r2, r3
 336 0026 19DC     		bgt	.L27
 337              	.L23:
 115:.\Generated_Source\PSoC4/tinyprintf_printf.c **** 		num=num*base+digit;
ARM GAS  C:\Users\wbz\AppData\Local\Temp\ccaHY7UK.s 			page 9


 338              		.loc 1 115 0
 339 0028 BB69     		ldr	r3, [r7, #24]
 340 002a 7A68     		ldr	r2, [r7, #4]
 341 002c 5A43     		mul	r2, r3
 342 002e FB69     		ldr	r3, [r7, #28]
 343 0030 D318     		add	r3, r2, r3
 344 0032 BB61     		str	r3, [r7, #24]
 116:.\Generated_Source\PSoC4/tinyprintf_printf.c **** 		ch=*p++;
 345              		.loc 1 116 0
 346 0034 3B1C     		mov	r3, r7
 347 0036 0F33     		add	r3, r3, #15
 348 0038 7A69     		ldr	r2, [r7, #20]
 349 003a 1278     		ldrb	r2, [r2]
 350 003c 1A70     		strb	r2, [r3]
 351 003e 7B69     		ldr	r3, [r7, #20]
 352 0040 0133     		add	r3, r3, #1
 353 0042 7B61     		str	r3, [r7, #20]
 354              	.L22:
 355              		.loc 1 113 0
 356 0044 3B1C     		mov	r3, r7
 357 0046 0F33     		add	r3, r3, #15
 358 0048 1B78     		ldrb	r3, [r3]
 359 004a 181C     		mov	r0, r3
 360 004c FFF7FEFF 		bl	a2d
 361 0050 031C     		mov	r3, r0
 362 0052 FB61     		str	r3, [r7, #28]
 363 0054 FB69     		ldr	r3, [r7, #28]
 364 0056 002B     		cmp	r3, #0
 365 0058 E2DA     		bge	.L25
 366 005a 00E0     		b	.L24
 367              	.L27:
 368              		.loc 1 114 0
 369 005c C046     		mov	r8, r8
 370              	.L24:
 117:.\Generated_Source\PSoC4/tinyprintf_printf.c **** 		}
 118:.\Generated_Source\PSoC4/tinyprintf_printf.c **** 	*src=p;
 371              		.loc 1 118 0
 372 005e BB68     		ldr	r3, [r7, #8]
 373 0060 7A69     		ldr	r2, [r7, #20]
 374 0062 1A60     		str	r2, [r3]
 119:.\Generated_Source\PSoC4/tinyprintf_printf.c **** 	*nump=num;
 375              		.loc 1 119 0
 376 0064 3B68     		ldr	r3, [r7]
 377 0066 BA69     		ldr	r2, [r7, #24]
 378 0068 1A60     		str	r2, [r3]
 120:.\Generated_Source\PSoC4/tinyprintf_printf.c **** 	return ch;
 379              		.loc 1 120 0
 380 006a 3B1C     		mov	r3, r7
 381 006c 0F33     		add	r3, r3, #15
 382 006e 1B78     		ldrb	r3, [r3]
 121:.\Generated_Source\PSoC4/tinyprintf_printf.c **** 	}
 383              		.loc 1 121 0
 384 0070 181C     		mov	r0, r3
 385 0072 BD46     		mov	sp, r7
 386 0074 08B0     		add	sp, sp, #32
 387              		@ sp needed for prologue
 388 0076 80BD     		pop	{r7, pc}
ARM GAS  C:\Users\wbz\AppData\Local\Temp\ccaHY7UK.s 			page 10


 389              		.cfi_endproc
 390              	.LFE3:
 391              		.size	a2i, .-a2i
 392              		.section	.text.putchw,"ax",%progbits
 393              		.align	2
 394              		.code	16
 395              		.thumb_func
 396              		.type	putchw, %function
 397              	putchw:
 398              	.LFB4:
 122:.\Generated_Source\PSoC4/tinyprintf_printf.c **** 
 123:.\Generated_Source\PSoC4/tinyprintf_printf.c **** static void putchw(void* putp,putcf putf,int n, char z, char* bf)
 124:.\Generated_Source\PSoC4/tinyprintf_printf.c **** 	{
 399              		.loc 1 124 0
 400              		.cfi_startproc
 401 0000 80B5     		push	{r7, lr}
 402              	.LCFI12:
 403              		.cfi_def_cfa_offset 8
 404              		.cfi_offset 7, -8
 405              		.cfi_offset 14, -4
 406 0002 86B0     		sub	sp, sp, #24
 407              	.LCFI13:
 408              		.cfi_def_cfa_offset 32
 409 0004 00AF     		add	r7, sp, #0
 410              	.LCFI14:
 411              		.cfi_def_cfa_register 7
 412 0006 F860     		str	r0, [r7, #12]
 413 0008 B960     		str	r1, [r7, #8]
 414 000a 7A60     		str	r2, [r7, #4]
 415 000c 1A1C     		mov	r2, r3
 416 000e FB1C     		add	r3, r7, #3
 417 0010 1A70     		strb	r2, [r3]
 125:.\Generated_Source\PSoC4/tinyprintf_printf.c **** 	char fc=z? '0' : ' ';
 418              		.loc 1 125 0
 419 0012 FB1C     		add	r3, r7, #3
 420 0014 1B78     		ldrb	r3, [r3]
 421 0016 002B     		cmp	r3, #0
 422 0018 01D0     		beq	.L29
 423 001a 3023     		mov	r3, #48
 424 001c 00E0     		b	.L30
 425              	.L29:
 426 001e 2023     		mov	r3, #32
 427              	.L30:
 428 0020 3A1C     		mov	r2, r7
 429 0022 1232     		add	r2, r2, #18
 430 0024 1370     		strb	r3, [r2]
 126:.\Generated_Source\PSoC4/tinyprintf_printf.c **** 	char ch;
 127:.\Generated_Source\PSoC4/tinyprintf_printf.c **** 	char* p=bf;
 431              		.loc 1 127 0
 432 0026 3B6A     		ldr	r3, [r7, #32]
 433 0028 7B61     		str	r3, [r7, #20]
 128:.\Generated_Source\PSoC4/tinyprintf_printf.c **** 	while (*p++ && n > 0)
 434              		.loc 1 128 0
 435 002a 02E0     		b	.L31
 436              	.L33:
 129:.\Generated_Source\PSoC4/tinyprintf_printf.c **** 		n--;
 437              		.loc 1 129 0
ARM GAS  C:\Users\wbz\AppData\Local\Temp\ccaHY7UK.s 			page 11


 438 002c 7B68     		ldr	r3, [r7, #4]
 439 002e 013B     		sub	r3, r3, #1
 440 0030 7B60     		str	r3, [r7, #4]
 441              	.L31:
 442              		.loc 1 128 0
 443 0032 7B69     		ldr	r3, [r7, #20]
 444 0034 1B78     		ldrb	r3, [r3]
 445 0036 5A1E     		sub	r2, r3, #1
 446 0038 9341     		sbc	r3, r3, r2
 447 003a DBB2     		uxtb	r3, r3
 448 003c 7A69     		ldr	r2, [r7, #20]
 449 003e 0132     		add	r2, r2, #1
 450 0040 7A61     		str	r2, [r7, #20]
 451 0042 002B     		cmp	r3, #0
 452 0044 0CD0     		beq	.L39
 453 0046 7B68     		ldr	r3, [r7, #4]
 454 0048 002B     		cmp	r3, #0
 455 004a EFDC     		bgt	.L33
 130:.\Generated_Source\PSoC4/tinyprintf_printf.c **** 	while (n-- > 0) 
 456              		.loc 1 130 0
 457 004c 09E0     		b	.L34
 458              	.L35:
 131:.\Generated_Source\PSoC4/tinyprintf_printf.c **** 		putf(putp,fc);
 459              		.loc 1 131 0
 460 004e F968     		ldr	r1, [r7, #12]
 461 0050 3B1C     		mov	r3, r7
 462 0052 1233     		add	r3, r3, #18
 463 0054 1A78     		ldrb	r2, [r3]
 464 0056 BB68     		ldr	r3, [r7, #8]
 465 0058 081C     		mov	r0, r1
 466 005a 111C     		mov	r1, r2
 467 005c 9847     		blx	r3
 468 005e 00E0     		b	.L34
 469              	.L39:
 470              		.loc 1 130 0
 471 0060 C046     		mov	r8, r8
 472              	.L34:
 473 0062 7B68     		ldr	r3, [r7, #4]
 474 0064 DA17     		asr	r2, r3, #31
 475 0066 D31A     		sub	r3, r2, r3
 476 0068 DB0F     		lsr	r3, r3, #31
 477 006a DBB2     		uxtb	r3, r3
 478 006c 7A68     		ldr	r2, [r7, #4]
 479 006e 013A     		sub	r2, r2, #1
 480 0070 7A60     		str	r2, [r7, #4]
 481 0072 002B     		cmp	r3, #0
 482 0074 EBD1     		bne	.L35
 132:.\Generated_Source\PSoC4/tinyprintf_printf.c **** 	while ((ch= *bf++))
 483              		.loc 1 132 0
 484 0076 07E0     		b	.L36
 485              	.L37:
 133:.\Generated_Source\PSoC4/tinyprintf_printf.c **** 		putf(putp,ch);
 486              		.loc 1 133 0
 487 0078 F968     		ldr	r1, [r7, #12]
 488 007a 3B1C     		mov	r3, r7
 489 007c 1333     		add	r3, r3, #19
 490 007e 1A78     		ldrb	r2, [r3]
ARM GAS  C:\Users\wbz\AppData\Local\Temp\ccaHY7UK.s 			page 12


 491 0080 BB68     		ldr	r3, [r7, #8]
 492 0082 081C     		mov	r0, r1
 493 0084 111C     		mov	r1, r2
 494 0086 9847     		blx	r3
 495              	.L36:
 496              		.loc 1 132 0
 497 0088 3B1C     		mov	r3, r7
 498 008a 1333     		add	r3, r3, #19
 499 008c 3A6A     		ldr	r2, [r7, #32]
 500 008e 1278     		ldrb	r2, [r2]
 501 0090 1A70     		strb	r2, [r3]
 502 0092 3B1C     		mov	r3, r7
 503 0094 1333     		add	r3, r3, #19
 504 0096 1B78     		ldrb	r3, [r3]
 505 0098 5A1E     		sub	r2, r3, #1
 506 009a 9341     		sbc	r3, r3, r2
 507 009c DBB2     		uxtb	r3, r3
 508 009e 3A6A     		ldr	r2, [r7, #32]
 509 00a0 0132     		add	r2, r2, #1
 510 00a2 3A62     		str	r2, [r7, #32]
 511 00a4 002B     		cmp	r3, #0
 512 00a6 E7D1     		bne	.L37
 134:.\Generated_Source\PSoC4/tinyprintf_printf.c **** 	}
 513              		.loc 1 134 0
 514 00a8 BD46     		mov	sp, r7
 515 00aa 06B0     		add	sp, sp, #24
 516              		@ sp needed for prologue
 517 00ac 80BD     		pop	{r7, pc}
 518              		.cfi_endproc
 519              	.LFE4:
 520              		.size	putchw, .-putchw
 521 00ae C046     		.section	.text.tfp_format,"ax",%progbits
 522              		.align	2
 523              		.global	tfp_format
 524              		.code	16
 525              		.thumb_func
 526              		.type	tfp_format, %function
 527              	tfp_format:
 528              	.LFB5:
 135:.\Generated_Source\PSoC4/tinyprintf_printf.c **** 
 136:.\Generated_Source\PSoC4/tinyprintf_printf.c **** void tfp_format(void* putp,putcf putf,char *fmt, va_list va)
 137:.\Generated_Source\PSoC4/tinyprintf_printf.c **** 	{
 529              		.loc 1 137 0
 530              		.cfi_startproc
 531 0000 90B5     		push	{r4, r7, lr}
 532              	.LCFI15:
 533              		.cfi_def_cfa_offset 12
 534              		.cfi_offset 4, -12
 535              		.cfi_offset 7, -8
 536              		.cfi_offset 14, -4
 537 0002 8DB0     		sub	sp, sp, #52
 538              	.LCFI16:
 539              		.cfi_def_cfa_offset 64
 540 0004 02AF     		add	r7, sp, #8
 541              	.LCFI17:
 542              		.cfi_def_cfa 7, 56
 543 0006 F860     		str	r0, [r7, #12]
ARM GAS  C:\Users\wbz\AppData\Local\Temp\ccaHY7UK.s 			page 13


 544 0008 B960     		str	r1, [r7, #8]
 545 000a 7A60     		str	r2, [r7, #4]
 546 000c 3B60     		str	r3, [r7]
 138:.\Generated_Source\PSoC4/tinyprintf_printf.c **** 	char bf[12];
 139:.\Generated_Source\PSoC4/tinyprintf_printf.c ****     
 140:.\Generated_Source\PSoC4/tinyprintf_printf.c **** 	char ch;
 141:.\Generated_Source\PSoC4/tinyprintf_printf.c **** 
 142:.\Generated_Source\PSoC4/tinyprintf_printf.c **** 
 143:.\Generated_Source\PSoC4/tinyprintf_printf.c **** 	while ((ch=*(fmt++))) {
 547              		.loc 1 143 0
 548 000e D0E0     		b	.L41
 549              	.L55:
 144:.\Generated_Source\PSoC4/tinyprintf_printf.c **** 		if (ch!='%') 
 550              		.loc 1 144 0
 551 0010 3B1C     		mov	r3, r7
 552 0012 2633     		add	r3, r3, #38
 553 0014 1B78     		ldrb	r3, [r3]
 554 0016 252B     		cmp	r3, #37
 555 0018 08D0     		beq	.L42
 145:.\Generated_Source\PSoC4/tinyprintf_printf.c **** 			putf(putp,ch);
 556              		.loc 1 145 0
 557 001a F968     		ldr	r1, [r7, #12]
 558 001c 3B1C     		mov	r3, r7
 559 001e 2633     		add	r3, r3, #38
 560 0020 1A78     		ldrb	r2, [r3]
 561 0022 BB68     		ldr	r3, [r7, #8]
 562 0024 081C     		mov	r0, r1
 563 0026 111C     		mov	r1, r2
 564 0028 9847     		blx	r3
 565 002a C2E0     		b	.L41
 566              	.L42:
 567              	.LBB3:
 146:.\Generated_Source\PSoC4/tinyprintf_printf.c **** 		else {
 147:.\Generated_Source\PSoC4/tinyprintf_printf.c **** 			char lz=0;
 568              		.loc 1 147 0
 569 002c 3B1C     		mov	r3, r7
 570 002e 2733     		add	r3, r3, #39
 571 0030 0022     		mov	r2, #0
 572 0032 1A70     		strb	r2, [r3]
 148:.\Generated_Source\PSoC4/tinyprintf_printf.c **** #ifdef 	PRINTF_LONG_SUPPORT
 149:.\Generated_Source\PSoC4/tinyprintf_printf.c **** 			char lng=0;
 150:.\Generated_Source\PSoC4/tinyprintf_printf.c **** #endif
 151:.\Generated_Source\PSoC4/tinyprintf_printf.c **** 			int w=0;
 573              		.loc 1 151 0
 574 0034 0023     		mov	r3, #0
 575 0036 7B61     		str	r3, [r7, #20]
 152:.\Generated_Source\PSoC4/tinyprintf_printf.c **** 			ch=*(fmt++);
 576              		.loc 1 152 0
 577 0038 7B68     		ldr	r3, [r7, #4]
 578 003a 3A1C     		mov	r2, r7
 579 003c 2632     		add	r2, r2, #38
 580 003e 1978     		ldrb	r1, [r3]
 581 0040 1170     		strb	r1, [r2]
 582 0042 0133     		add	r3, r3, #1
 583 0044 7B60     		str	r3, [r7, #4]
 153:.\Generated_Source\PSoC4/tinyprintf_printf.c **** 			if (ch=='0') {
 584              		.loc 1 153 0
ARM GAS  C:\Users\wbz\AppData\Local\Temp\ccaHY7UK.s 			page 14


 585 0046 3B1C     		mov	r3, r7
 586 0048 2633     		add	r3, r3, #38
 587 004a 1B78     		ldrb	r3, [r3]
 588 004c 302B     		cmp	r3, #48
 589 004e 0AD1     		bne	.L43
 154:.\Generated_Source\PSoC4/tinyprintf_printf.c **** 				ch=*(fmt++);
 590              		.loc 1 154 0
 591 0050 7B68     		ldr	r3, [r7, #4]
 592 0052 3A1C     		mov	r2, r7
 593 0054 2632     		add	r2, r2, #38
 594 0056 1978     		ldrb	r1, [r3]
 595 0058 1170     		strb	r1, [r2]
 596 005a 0133     		add	r3, r3, #1
 597 005c 7B60     		str	r3, [r7, #4]
 155:.\Generated_Source\PSoC4/tinyprintf_printf.c **** 				lz=1;
 598              		.loc 1 155 0
 599 005e 3B1C     		mov	r3, r7
 600 0060 2733     		add	r3, r3, #39
 601 0062 0122     		mov	r2, #1
 602 0064 1A70     		strb	r2, [r3]
 603              	.L43:
 156:.\Generated_Source\PSoC4/tinyprintf_printf.c **** 				}
 157:.\Generated_Source\PSoC4/tinyprintf_printf.c **** 			if (ch>='0' && ch<='9') {
 604              		.loc 1 157 0
 605 0066 3B1C     		mov	r3, r7
 606 0068 2633     		add	r3, r3, #38
 607 006a 1B78     		ldrb	r3, [r3]
 608 006c 2F2B     		cmp	r3, #47
 609 006e 14D9     		bls	.L44
 610 0070 3B1C     		mov	r3, r7
 611 0072 2633     		add	r3, r3, #38
 612 0074 1B78     		ldrb	r3, [r3]
 613 0076 392B     		cmp	r3, #57
 614 0078 0FD8     		bhi	.L44
 158:.\Generated_Source\PSoC4/tinyprintf_printf.c **** 				ch=a2i(ch,&fmt,10,&w);
 615              		.loc 1 158 0
 616 007a 3B1C     		mov	r3, r7
 617 007c 2633     		add	r3, r3, #38
 618 007e 1978     		ldrb	r1, [r3]
 619 0080 3A1D     		add	r2, r7, #4
 620 0082 3B1C     		mov	r3, r7
 621 0084 1433     		add	r3, r3, #20
 622 0086 081C     		mov	r0, r1
 623 0088 111C     		mov	r1, r2
 624 008a 0A22     		mov	r2, #10
 625 008c FFF7FEFF 		bl	a2i
 626 0090 031C     		mov	r3, r0
 627 0092 1A1C     		mov	r2, r3
 628 0094 3B1C     		mov	r3, r7
 629 0096 2633     		add	r3, r3, #38
 630 0098 1A70     		strb	r2, [r3]
 631              	.L44:
 159:.\Generated_Source\PSoC4/tinyprintf_printf.c **** 				}
 160:.\Generated_Source\PSoC4/tinyprintf_printf.c **** #ifdef 	PRINTF_LONG_SUPPORT
 161:.\Generated_Source\PSoC4/tinyprintf_printf.c **** 			if (ch=='l') {
 162:.\Generated_Source\PSoC4/tinyprintf_printf.c **** 				ch=*(fmt++);
 163:.\Generated_Source\PSoC4/tinyprintf_printf.c **** 				lng=1;
ARM GAS  C:\Users\wbz\AppData\Local\Temp\ccaHY7UK.s 			page 15


 164:.\Generated_Source\PSoC4/tinyprintf_printf.c **** 			}
 165:.\Generated_Source\PSoC4/tinyprintf_printf.c **** #endif
 166:.\Generated_Source\PSoC4/tinyprintf_printf.c **** 			switch (ch) {
 632              		.loc 1 166 0
 633 009a 3B1C     		mov	r3, r7
 634 009c 2633     		add	r3, r3, #38
 635 009e 1B78     		ldrb	r3, [r3]
 636 00a0 642B     		cmp	r3, #100
 637 00a2 2FD0     		beq	.L49
 638 00a4 642B     		cmp	r3, #100
 639 00a6 0DDC     		bgt	.L52
 640 00a8 582B     		cmp	r3, #88
 641 00aa 43D0     		beq	.L47
 642 00ac 582B     		cmp	r3, #88
 643 00ae 06DC     		bgt	.L53
 644 00b0 002B     		cmp	r3, #0
 645 00b2 00D1     		bne	.LCB515
 646 00b4 8EE0     		b	.L57	@long jump
 647              	.LCB515:
 648 00b6 252B     		cmp	r3, #37
 649 00b8 00D1     		bne	.LCB517
 650 00ba 72E0     		b	.L46	@long jump
 651              	.LCB517:
 652 00bc 79E0     		b	.L41
 653              	.L53:
 654 00be 632B     		cmp	r3, #99
 655 00c0 56D0     		beq	.L48
 656 00c2 76E0     		b	.L41
 657              	.L52:
 658 00c4 752B     		cmp	r3, #117
 659 00c6 04D0     		beq	.L51
 660 00c8 782B     		cmp	r3, #120
 661 00ca 33D0     		beq	.L47
 662 00cc 732B     		cmp	r3, #115
 663 00ce 5AD0     		beq	.L50
 664 00d0 6FE0     		b	.L41
 665              	.L51:
 167:.\Generated_Source\PSoC4/tinyprintf_printf.c **** 				case 0: 
 168:.\Generated_Source\PSoC4/tinyprintf_printf.c **** 					goto abort;
 169:.\Generated_Source\PSoC4/tinyprintf_printf.c **** 				case 'u' : {
 170:.\Generated_Source\PSoC4/tinyprintf_printf.c **** #ifdef 	PRINTF_LONG_SUPPORT
 171:.\Generated_Source\PSoC4/tinyprintf_printf.c **** 					if (lng)
 172:.\Generated_Source\PSoC4/tinyprintf_printf.c **** 						uli2a(va_arg(va, unsigned long int),10,0,bf);
 173:.\Generated_Source\PSoC4/tinyprintf_printf.c **** 					else
 174:.\Generated_Source\PSoC4/tinyprintf_printf.c **** #endif
 175:.\Generated_Source\PSoC4/tinyprintf_printf.c **** 					ui2a(va_arg(va, unsigned int),10,0,bf);
 666              		.loc 1 175 0
 667 00d2 3B68     		ldr	r3, [r7]
 668 00d4 1A1D     		add	r2, r3, #4
 669 00d6 3A60     		str	r2, [r7]
 670 00d8 1A68     		ldr	r2, [r3]
 671 00da 3B1C     		mov	r3, r7
 672 00dc 1833     		add	r3, r3, #24
 673 00de 101C     		mov	r0, r2
 674 00e0 0A21     		mov	r1, #10
 675 00e2 0022     		mov	r2, #0
 676 00e4 FFF7FEFF 		bl	ui2a
ARM GAS  C:\Users\wbz\AppData\Local\Temp\ccaHY7UK.s 			page 16


 176:.\Generated_Source\PSoC4/tinyprintf_printf.c **** 					putchw(putp,putf,w,lz,bf);
 677              		.loc 1 176 0
 678 00e8 7A69     		ldr	r2, [r7, #20]
 679 00ea F868     		ldr	r0, [r7, #12]
 680 00ec B968     		ldr	r1, [r7, #8]
 681 00ee 3B1C     		mov	r3, r7
 682 00f0 2733     		add	r3, r3, #39
 683 00f2 1B78     		ldrb	r3, [r3]
 684 00f4 1824     		mov	r4, #24
 685 00f6 E419     		add	r4, r4, r7
 686 00f8 A446     		mov	ip, r4
 687 00fa 6446     		mov	r4, ip
 688 00fc 0094     		str	r4, [sp]
 689 00fe FFF7FEFF 		bl	putchw
 177:.\Generated_Source\PSoC4/tinyprintf_printf.c **** 					break;
 690              		.loc 1 177 0
 691 0102 56E0     		b	.L41
 692              	.L49:
 178:.\Generated_Source\PSoC4/tinyprintf_printf.c **** 					}
 179:.\Generated_Source\PSoC4/tinyprintf_printf.c **** 				case 'd' :  {
 180:.\Generated_Source\PSoC4/tinyprintf_printf.c **** #ifdef 	PRINTF_LONG_SUPPORT
 181:.\Generated_Source\PSoC4/tinyprintf_printf.c **** 					if (lng)
 182:.\Generated_Source\PSoC4/tinyprintf_printf.c **** 						li2a(va_arg(va, unsigned long int),bf);
 183:.\Generated_Source\PSoC4/tinyprintf_printf.c **** 					else
 184:.\Generated_Source\PSoC4/tinyprintf_printf.c **** #endif
 185:.\Generated_Source\PSoC4/tinyprintf_printf.c **** 					i2a(va_arg(va, int),bf);
 693              		.loc 1 185 0
 694 0104 3B68     		ldr	r3, [r7]
 695 0106 1A1D     		add	r2, r3, #4
 696 0108 3A60     		str	r2, [r7]
 697 010a 1A68     		ldr	r2, [r3]
 698 010c 3B1C     		mov	r3, r7
 699 010e 1833     		add	r3, r3, #24
 700 0110 101C     		mov	r0, r2
 701 0112 191C     		mov	r1, r3
 702 0114 FFF7FEFF 		bl	i2a
 186:.\Generated_Source\PSoC4/tinyprintf_printf.c **** 					putchw(putp,putf,w,lz,bf);
 703              		.loc 1 186 0
 704 0118 7A69     		ldr	r2, [r7, #20]
 705 011a F868     		ldr	r0, [r7, #12]
 706 011c B968     		ldr	r1, [r7, #8]
 707 011e 3B1C     		mov	r3, r7
 708 0120 2733     		add	r3, r3, #39
 709 0122 1B78     		ldrb	r3, [r3]
 710 0124 1824     		mov	r4, #24
 711 0126 E419     		add	r4, r4, r7
 712 0128 A446     		mov	ip, r4
 713 012a 6446     		mov	r4, ip
 714 012c 0094     		str	r4, [sp]
 715 012e FFF7FEFF 		bl	putchw
 187:.\Generated_Source\PSoC4/tinyprintf_printf.c **** 					break;
 716              		.loc 1 187 0
 717 0132 3EE0     		b	.L41
 718              	.L47:
 188:.\Generated_Source\PSoC4/tinyprintf_printf.c **** 					}
 189:.\Generated_Source\PSoC4/tinyprintf_printf.c **** 				case 'x': case 'X' : 
 190:.\Generated_Source\PSoC4/tinyprintf_printf.c **** #ifdef 	PRINTF_LONG_SUPPORT
ARM GAS  C:\Users\wbz\AppData\Local\Temp\ccaHY7UK.s 			page 17


 191:.\Generated_Source\PSoC4/tinyprintf_printf.c **** 					if (lng)
 192:.\Generated_Source\PSoC4/tinyprintf_printf.c **** 						uli2a(va_arg(va, unsigned long int),16,(ch=='X'),bf);
 193:.\Generated_Source\PSoC4/tinyprintf_printf.c **** 					else
 194:.\Generated_Source\PSoC4/tinyprintf_printf.c **** #endif
 195:.\Generated_Source\PSoC4/tinyprintf_printf.c **** 					ui2a(va_arg(va, unsigned int),16,(ch=='X'),bf);
 719              		.loc 1 195 0
 720 0134 3B68     		ldr	r3, [r7]
 721 0136 1A1D     		add	r2, r3, #4
 722 0138 3A60     		str	r2, [r7]
 723 013a 1968     		ldr	r1, [r3]
 724 013c 3B1C     		mov	r3, r7
 725 013e 2633     		add	r3, r3, #38
 726 0140 1B78     		ldrb	r3, [r3]
 727 0142 583B     		sub	r3, r3, #88
 728 0144 5A42     		neg	r2, r3
 729 0146 5A41     		adc	r2, r2, r3
 730 0148 3B1C     		mov	r3, r7
 731 014a 1833     		add	r3, r3, #24
 732 014c 081C     		mov	r0, r1
 733 014e 1021     		mov	r1, #16
 734 0150 FFF7FEFF 		bl	ui2a
 196:.\Generated_Source\PSoC4/tinyprintf_printf.c **** 					putchw(putp,putf,w,lz,bf);
 735              		.loc 1 196 0
 736 0154 7A69     		ldr	r2, [r7, #20]
 737 0156 F868     		ldr	r0, [r7, #12]
 738 0158 B968     		ldr	r1, [r7, #8]
 739 015a 3B1C     		mov	r3, r7
 740 015c 2733     		add	r3, r3, #39
 741 015e 1B78     		ldrb	r3, [r3]
 742 0160 1824     		mov	r4, #24
 743 0162 E419     		add	r4, r4, r7
 744 0164 A446     		mov	ip, r4
 745 0166 6446     		mov	r4, ip
 746 0168 0094     		str	r4, [sp]
 747 016a FFF7FEFF 		bl	putchw
 197:.\Generated_Source\PSoC4/tinyprintf_printf.c **** 					break;
 748              		.loc 1 197 0
 749 016e 20E0     		b	.L41
 750              	.L48:
 198:.\Generated_Source\PSoC4/tinyprintf_printf.c **** 				case 'c' : 
 199:.\Generated_Source\PSoC4/tinyprintf_printf.c **** 					putf(putp,(char)(va_arg(va, int)));
 751              		.loc 1 199 0
 752 0170 3B68     		ldr	r3, [r7]
 753 0172 1A1D     		add	r2, r3, #4
 754 0174 3A60     		str	r2, [r7]
 755 0176 1B68     		ldr	r3, [r3]
 756 0178 DAB2     		uxtb	r2, r3
 757 017a F968     		ldr	r1, [r7, #12]
 758 017c BB68     		ldr	r3, [r7, #8]
 759 017e 081C     		mov	r0, r1
 760 0180 111C     		mov	r1, r2
 761 0182 9847     		blx	r3
 200:.\Generated_Source\PSoC4/tinyprintf_printf.c **** 					break;
 762              		.loc 1 200 0
 763 0184 15E0     		b	.L41
 764              	.L50:
 201:.\Generated_Source\PSoC4/tinyprintf_printf.c **** 				case 's' : 
ARM GAS  C:\Users\wbz\AppData\Local\Temp\ccaHY7UK.s 			page 18


 202:.\Generated_Source\PSoC4/tinyprintf_printf.c **** 					putchw(putp,putf,w,0,va_arg(va, char*));
 765              		.loc 1 202 0
 766 0186 7A69     		ldr	r2, [r7, #20]
 767 0188 3B68     		ldr	r3, [r7]
 768 018a 191D     		add	r1, r3, #4
 769 018c 3960     		str	r1, [r7]
 770 018e 1868     		ldr	r0, [r3]
 771 0190 F968     		ldr	r1, [r7, #12]
 772 0192 BB68     		ldr	r3, [r7, #8]
 773 0194 0090     		str	r0, [sp]
 774 0196 081C     		mov	r0, r1
 775 0198 191C     		mov	r1, r3
 776 019a 0023     		mov	r3, #0
 777 019c FFF7FEFF 		bl	putchw
 203:.\Generated_Source\PSoC4/tinyprintf_printf.c **** 					break;
 778              		.loc 1 203 0
 779 01a0 07E0     		b	.L41
 780              	.L46:
 204:.\Generated_Source\PSoC4/tinyprintf_printf.c **** 				case '%' :
 205:.\Generated_Source\PSoC4/tinyprintf_printf.c **** 					putf(putp,ch);
 781              		.loc 1 205 0
 782 01a2 F968     		ldr	r1, [r7, #12]
 783 01a4 3B1C     		mov	r3, r7
 784 01a6 2633     		add	r3, r3, #38
 785 01a8 1A78     		ldrb	r2, [r3]
 786 01aa BB68     		ldr	r3, [r7, #8]
 787 01ac 081C     		mov	r0, r1
 788 01ae 111C     		mov	r1, r2
 789 01b0 9847     		blx	r3
 790              	.L41:
 791              	.LBE3:
 792              		.loc 1 143 0
 793 01b2 7B68     		ldr	r3, [r7, #4]
 794 01b4 3A1C     		mov	r2, r7
 795 01b6 2632     		add	r2, r2, #38
 796 01b8 1978     		ldrb	r1, [r3]
 797 01ba 1170     		strb	r1, [r2]
 798 01bc 3A1C     		mov	r2, r7
 799 01be 2632     		add	r2, r2, #38
 800 01c0 1278     		ldrb	r2, [r2]
 801 01c2 511E     		sub	r1, r2, #1
 802 01c4 8A41     		sbc	r2, r2, r1
 803 01c6 D2B2     		uxtb	r2, r2
 804 01c8 0133     		add	r3, r3, #1
 805 01ca 7B60     		str	r3, [r7, #4]
 806 01cc 002A     		cmp	r2, #0
 807 01ce 00D0     		beq	.LCB673
 808 01d0 1EE7     		b	.L55	@long jump
 809              	.LCB673:
 810 01d2 00E0     		b	.L56
 811              	.L54:
 812              	.L57:
 813              	.LBB4:
 814              		.loc 1 168 0
 815 01d4 C046     		mov	r8, r8
 816              	.L56:
 817              	.LBE4:
ARM GAS  C:\Users\wbz\AppData\Local\Temp\ccaHY7UK.s 			page 19


 206:.\Generated_Source\PSoC4/tinyprintf_printf.c **** 				default:
 207:.\Generated_Source\PSoC4/tinyprintf_printf.c **** 					break;
 208:.\Generated_Source\PSoC4/tinyprintf_printf.c **** 				}
 209:.\Generated_Source\PSoC4/tinyprintf_printf.c **** 			}
 210:.\Generated_Source\PSoC4/tinyprintf_printf.c **** 		}
 211:.\Generated_Source\PSoC4/tinyprintf_printf.c **** 	abort:;
 212:.\Generated_Source\PSoC4/tinyprintf_printf.c **** 	}
 818              		.loc 1 212 0
 819 01d6 BD46     		mov	sp, r7
 820 01d8 0BB0     		add	sp, sp, #44
 821              		@ sp needed for prologue
 822 01da 90BD     		pop	{r4, r7, pc}
 823              		.cfi_endproc
 824              	.LFE5:
 825              		.size	tfp_format, .-tfp_format
 826              		.section	.text.init_printf,"ax",%progbits
 827              		.align	2
 828              		.global	init_printf
 829              		.code	16
 830              		.thumb_func
 831              		.type	init_printf, %function
 832              	init_printf:
 833              	.LFB6:
 213:.\Generated_Source\PSoC4/tinyprintf_printf.c **** 
 214:.\Generated_Source\PSoC4/tinyprintf_printf.c **** 
 215:.\Generated_Source\PSoC4/tinyprintf_printf.c **** void init_printf(void* putp,void (*putf) (void*,char))
 216:.\Generated_Source\PSoC4/tinyprintf_printf.c **** 	{
 834              		.loc 1 216 0
 835              		.cfi_startproc
 836 0000 80B5     		push	{r7, lr}
 837              	.LCFI18:
 838              		.cfi_def_cfa_offset 8
 839              		.cfi_offset 7, -8
 840              		.cfi_offset 14, -4
 841 0002 82B0     		sub	sp, sp, #8
 842              	.LCFI19:
 843              		.cfi_def_cfa_offset 16
 844 0004 00AF     		add	r7, sp, #0
 845              	.LCFI20:
 846              		.cfi_def_cfa_register 7
 847 0006 7860     		str	r0, [r7, #4]
 848 0008 3960     		str	r1, [r7]
 217:.\Generated_Source\PSoC4/tinyprintf_printf.c **** 	stdout_putf=putf;
 849              		.loc 1 217 0
 850 000a 044B     		ldr	r3, .L60
 851 000c 3A68     		ldr	r2, [r7]
 852 000e 1A60     		str	r2, [r3]
 218:.\Generated_Source\PSoC4/tinyprintf_printf.c **** 	stdout_putp=putp;
 853              		.loc 1 218 0
 854 0010 034B     		ldr	r3, .L60+4
 855 0012 7A68     		ldr	r2, [r7, #4]
 856 0014 1A60     		str	r2, [r3]
 219:.\Generated_Source\PSoC4/tinyprintf_printf.c **** 	}
 857              		.loc 1 219 0
 858 0016 BD46     		mov	sp, r7
 859 0018 02B0     		add	sp, sp, #8
 860              		@ sp needed for prologue
ARM GAS  C:\Users\wbz\AppData\Local\Temp\ccaHY7UK.s 			page 20


 861 001a 80BD     		pop	{r7, pc}
 862              	.L61:
 863              		.align	2
 864              	.L60:
 865 001c 00000000 		.word	stdout_putf
 866 0020 04000000 		.word	stdout_putp
 867              		.cfi_endproc
 868              	.LFE6:
 869              		.size	init_printf, .-init_printf
 870              		.section	.text.tfp_printf,"ax",%progbits
 871              		.align	2
 872              		.global	tfp_printf
 873              		.code	16
 874              		.thumb_func
 875              		.type	tfp_printf, %function
 876              	tfp_printf:
 877              	.LFB7:
 220:.\Generated_Source\PSoC4/tinyprintf_printf.c **** 
 221:.\Generated_Source\PSoC4/tinyprintf_printf.c **** void tfp_printf(char *fmt, ...)
 222:.\Generated_Source\PSoC4/tinyprintf_printf.c **** 	{
 878              		.loc 1 222 0
 879              		.cfi_startproc
 880 0000 0FB4     		push	{r0, r1, r2, r3}
 881              	.LCFI21:
 882              		.cfi_def_cfa_offset 16
 883 0002 80B5     		push	{r7, lr}
 884              	.LCFI22:
 885              		.cfi_def_cfa_offset 24
 886              		.cfi_offset 7, -24
 887              		.cfi_offset 14, -20
 888 0004 82B0     		sub	sp, sp, #8
 889              	.LCFI23:
 890              		.cfi_def_cfa_offset 32
 891 0006 00AF     		add	r7, sp, #0
 892              	.LCFI24:
 893              		.cfi_def_cfa_register 7
 223:.\Generated_Source\PSoC4/tinyprintf_printf.c **** 	va_list va;
 224:.\Generated_Source\PSoC4/tinyprintf_printf.c **** 	va_start(va,fmt);
 894              		.loc 1 224 0
 895 0008 3B1C     		mov	r3, r7
 896 000a 1433     		add	r3, r3, #20
 897 000c 7B60     		str	r3, [r7, #4]
 225:.\Generated_Source\PSoC4/tinyprintf_printf.c **** 	tfp_format(stdout_putp,stdout_putf,fmt,va);
 898              		.loc 1 225 0
 899 000e 074B     		ldr	r3, .L64
 900 0010 1868     		ldr	r0, [r3]
 901 0012 074B     		ldr	r3, .L64+4
 902 0014 1968     		ldr	r1, [r3]
 903 0016 3A69     		ldr	r2, [r7, #16]
 904 0018 7B68     		ldr	r3, [r7, #4]
 905 001a FFF7FEFF 		bl	tfp_format
 226:.\Generated_Source\PSoC4/tinyprintf_printf.c **** 	va_end(va);
 227:.\Generated_Source\PSoC4/tinyprintf_printf.c **** 	}
 906              		.loc 1 227 0
 907 001e BD46     		mov	sp, r7
 908 0020 02B0     		add	sp, sp, #8
 909              		@ sp needed for prologue
ARM GAS  C:\Users\wbz\AppData\Local\Temp\ccaHY7UK.s 			page 21


 910 0022 80BC     		pop	{r7}
 911 0024 08BC     		pop	{r3}
 912 0026 04B0     		add	sp, sp, #16
 913 0028 1847     		bx	r3
 914              	.L65:
 915 002a C046     		.align	2
 916              	.L64:
 917 002c 04000000 		.word	stdout_putp
 918 0030 00000000 		.word	stdout_putf
 919              		.cfi_endproc
 920              	.LFE7:
 921              		.size	tfp_printf, .-tfp_printf
 922              		.section	.text.putcp,"ax",%progbits
 923              		.align	2
 924              		.code	16
 925              		.thumb_func
 926              		.type	putcp, %function
 927              	putcp:
 928              	.LFB8:
 228:.\Generated_Source\PSoC4/tinyprintf_printf.c **** 
 229:.\Generated_Source\PSoC4/tinyprintf_printf.c **** static void putcp(void* p,char c)
 230:.\Generated_Source\PSoC4/tinyprintf_printf.c **** 	{
 929              		.loc 1 230 0
 930              		.cfi_startproc
 931 0000 80B5     		push	{r7, lr}
 932              	.LCFI25:
 933              		.cfi_def_cfa_offset 8
 934              		.cfi_offset 7, -8
 935              		.cfi_offset 14, -4
 936 0002 82B0     		sub	sp, sp, #8
 937              	.LCFI26:
 938              		.cfi_def_cfa_offset 16
 939 0004 00AF     		add	r7, sp, #0
 940              	.LCFI27:
 941              		.cfi_def_cfa_register 7
 942 0006 7860     		str	r0, [r7, #4]
 943 0008 0A1C     		mov	r2, r1
 944 000a FB1C     		add	r3, r7, #3
 945 000c 1A70     		strb	r2, [r3]
 231:.\Generated_Source\PSoC4/tinyprintf_printf.c **** 	*(*((char**)p))++ = c;
 946              		.loc 1 231 0
 947 000e 7B68     		ldr	r3, [r7, #4]
 948 0010 1A68     		ldr	r2, [r3]
 949 0012 F91C     		add	r1, r7, #3
 950 0014 0978     		ldrb	r1, [r1]
 951 0016 1170     		strb	r1, [r2]
 952 0018 0132     		add	r2, r2, #1
 953 001a 1A60     		str	r2, [r3]
 232:.\Generated_Source\PSoC4/tinyprintf_printf.c **** 	}
 954              		.loc 1 232 0
 955 001c BD46     		mov	sp, r7
 956 001e 02B0     		add	sp, sp, #8
 957              		@ sp needed for prologue
 958 0020 80BD     		pop	{r7, pc}
 959              		.cfi_endproc
 960              	.LFE8:
 961              		.size	putcp, .-putcp
ARM GAS  C:\Users\wbz\AppData\Local\Temp\ccaHY7UK.s 			page 22


 962 0022 C046     		.section	.text.tfp_sprintf,"ax",%progbits
 963              		.align	2
 964              		.global	tfp_sprintf
 965              		.code	16
 966              		.thumb_func
 967              		.type	tfp_sprintf, %function
 968              	tfp_sprintf:
 969              	.LFB9:
 233:.\Generated_Source\PSoC4/tinyprintf_printf.c **** 
 234:.\Generated_Source\PSoC4/tinyprintf_printf.c **** 
 235:.\Generated_Source\PSoC4/tinyprintf_printf.c **** 
 236:.\Generated_Source\PSoC4/tinyprintf_printf.c **** void tfp_sprintf(char* s,char *fmt, ...)
 237:.\Generated_Source\PSoC4/tinyprintf_printf.c **** 	{
 970              		.loc 1 237 0
 971              		.cfi_startproc
 972 0000 0EB4     		push	{r1, r2, r3}
 973              	.LCFI28:
 974              		.cfi_def_cfa_offset 12
 975 0002 80B5     		push	{r7, lr}
 976              	.LCFI29:
 977              		.cfi_def_cfa_offset 20
 978              		.cfi_offset 7, -20
 979              		.cfi_offset 14, -16
 980 0004 85B0     		sub	sp, sp, #20
 981              	.LCFI30:
 982              		.cfi_def_cfa_offset 40
 983 0006 00AF     		add	r7, sp, #0
 984              	.LCFI31:
 985              		.cfi_def_cfa_register 7
 986 0008 7860     		str	r0, [r7, #4]
 238:.\Generated_Source\PSoC4/tinyprintf_printf.c **** 	va_list va;
 239:.\Generated_Source\PSoC4/tinyprintf_printf.c **** 	va_start(va,fmt);
 987              		.loc 1 239 0
 988 000a 3B1C     		mov	r3, r7
 989 000c 2033     		add	r3, r3, #32
 990 000e FB60     		str	r3, [r7, #12]
 240:.\Generated_Source\PSoC4/tinyprintf_printf.c **** 	tfp_format(&s,putcp,fmt,va);
 991              		.loc 1 240 0
 992 0010 381D     		add	r0, r7, #4
 993 0012 0849     		ldr	r1, .L70
 994 0014 FA69     		ldr	r2, [r7, #28]
 995 0016 FB68     		ldr	r3, [r7, #12]
 996 0018 FFF7FEFF 		bl	tfp_format
 241:.\Generated_Source\PSoC4/tinyprintf_printf.c **** 	putcp(&s,0);
 997              		.loc 1 241 0
 998 001c 3B1D     		add	r3, r7, #4
 999 001e 181C     		mov	r0, r3
 1000 0020 0021     		mov	r1, #0
 1001 0022 FFF7FEFF 		bl	putcp
 242:.\Generated_Source\PSoC4/tinyprintf_printf.c **** 	va_end(va);
 243:.\Generated_Source\PSoC4/tinyprintf_printf.c **** 	}
 1002              		.loc 1 243 0
 1003 0026 BD46     		mov	sp, r7
 1004 0028 05B0     		add	sp, sp, #20
 1005              		@ sp needed for prologue
 1006 002a 80BC     		pop	{r7}
 1007 002c 08BC     		pop	{r3}
ARM GAS  C:\Users\wbz\AppData\Local\Temp\ccaHY7UK.s 			page 23


 1008 002e 03B0     		add	sp, sp, #12
 1009 0030 1847     		bx	r3
 1010              	.L71:
 1011 0032 C046     		.align	2
 1012              	.L70:
 1013 0034 00000000 		.word	putcp
 1014              		.cfi_endproc
 1015              	.LFE9:
 1016              		.size	tfp_sprintf, .-tfp_sprintf
 1017              		.text
 1018              	.Letext0: